ARM GAS  C:\Users\ep_ygh\AppData\Local\Temp\cctjGRE4.s 			page 1


   1              		.cpu cortex-m4
   2              		.arch armv7e-m
   3              		.fpu fpv4-sp-d16
   4              		.eabi_attribute 27, 1
   5              		.eabi_attribute 28, 1
   6              		.eabi_attribute 20, 1
   7              		.eabi_attribute 21, 1
   8              		.eabi_attribute 23, 3
   9              		.eabi_attribute 24, 1
  10              		.eabi_attribute 25, 1
  11              		.eabi_attribute 26, 1
  12              		.eabi_attribute 30, 6
  13              		.eabi_attribute 34, 1
  14              		.eabi_attribute 18, 4
  15              		.file	"example_usart.c"
  16              		.text
  17              	.Ltext0:
  18              		.cfi_sections	.debug_frame
  19              		.global	huart2
  20              		.section	.bss.huart2,"aw",%nobits
  21              		.align	2
  24              	huart2:
  25 0000 00000000 		.space	64
  25      00000000 
  25      00000000 
  25      00000000 
  25      00000000 
  26              		.global	L6470_DaisyChainMnemonic
  27              		.section	.bss.L6470_DaisyChainMnemonic,"aw",%nobits
  28              		.align	2
  31              	L6470_DaisyChainMnemonic:
  32 0000 00000000 		.space	26
  32      00000000 
  32      00000000 
  32      00000000 
  32      00000000 
  33              		.global	UsartTextString
  34              		.section	.bss.UsartTextString,"aw",%nobits
  35              		.align	2
  38              	UsartTextString:
  39 0000 00000000 		.space	64
  39      00000000 
  39      00000000 
  39      00000000 
  39      00000000 
  40              		.global	L6470_TextCommandBundle
  41              		.section	.bss.L6470_TextCommandBundle,"aw",%nobits
  42              		.align	2
  45              	L6470_TextCommandBundle:
  46 0000 00000000 		.space	96
  46      00000000 
  46      00000000 
  46      00000000 
  46      00000000 
  47              		.section	.rodata
  48              		.align	2
  49              	.LC0:
ARM GAS  C:\Users\ep_ygh\AppData\Local\Temp\cctjGRE4.s 			page 2


  50 0000 546F6F20 		.ascii	"Too much entered parameters.\015\012\015\012\000"
  50      6D756368 
  50      20656E74 
  50      65726564 
  50      20706172 
  51 0021 000000   		.align	2
  52              	.LC1:
  53 0024 546F6F20 		.ascii	"Too much addressed L6470.\015\012\015\012\000"
  53      6D756368 
  53      20616464 
  53      72657373 
  53      6564204C 
  54 0042 0000     		.align	2
  55              	.LC2:
  56 0044 546F6F20 		.ascii	"Too much entered character.\015\012\015\012\000"
  56      6D756368 
  56      20656E74 
  56      65726564 
  56      20636861 
  57              		.section	.text.USART_SplitTextString,"ax",%progbits
  58              		.align	1
  59              		.global	USART_SplitTextString
  60              		.syntax unified
  61              		.thumb
  62              		.thumb_func
  64              	USART_SplitTextString:
  65              	.LFB128:
  66              		.file 1 "Projects/STM32F401RE-Nucleo/Examples/MotionControl/MicrosteppingMotor/Src/example_usart.c
   1:Projects/STM32F401RE-Nucleo/Examples/MotionControl/MicrosteppingMotor/Src/example_usart.c **** /**
   2:Projects/STM32F401RE-Nucleo/Examples/MotionControl/MicrosteppingMotor/Src/example_usart.c ****  ******************************************************************************
   3:Projects/STM32F401RE-Nucleo/Examples/MotionControl/MicrosteppingMotor/Src/example_usart.c ****  * @file       nucleo_xnucleo_usart.c
   4:Projects/STM32F401RE-Nucleo/Examples/MotionControl/MicrosteppingMotor/Src/example_usart.c ****  * @date       01/10/2014 12:00:00
   5:Projects/STM32F401RE-Nucleo/Examples/MotionControl/MicrosteppingMotor/Src/example_usart.c ****  * @brief      This file provides the functions to send commands to the L6470
   6:Projects/STM32F401RE-Nucleo/Examples/MotionControl/MicrosteppingMotor/Src/example_usart.c ****  *             via Nucleo USART 
   7:Projects/STM32F401RE-Nucleo/Examples/MotionControl/MicrosteppingMotor/Src/example_usart.c ****  ******************************************************************************
   8:Projects/STM32F401RE-Nucleo/Examples/MotionControl/MicrosteppingMotor/Src/example_usart.c ****  *
   9:Projects/STM32F401RE-Nucleo/Examples/MotionControl/MicrosteppingMotor/Src/example_usart.c ****  * COPYRIGHT(c) 2014 STMicroelectronics
  10:Projects/STM32F401RE-Nucleo/Examples/MotionControl/MicrosteppingMotor/Src/example_usart.c ****  *
  11:Projects/STM32F401RE-Nucleo/Examples/MotionControl/MicrosteppingMotor/Src/example_usart.c ****  * Redistribution and use in source and binary forms, with or without modification,
  12:Projects/STM32F401RE-Nucleo/Examples/MotionControl/MicrosteppingMotor/Src/example_usart.c ****  * are permitted provided that the following conditions are met:
  13:Projects/STM32F401RE-Nucleo/Examples/MotionControl/MicrosteppingMotor/Src/example_usart.c ****  *   1. Redistributions of source code must retain the above copyright notice,
  14:Projects/STM32F401RE-Nucleo/Examples/MotionControl/MicrosteppingMotor/Src/example_usart.c ****  *      this list of conditions and the following disclaimer.
  15:Projects/STM32F401RE-Nucleo/Examples/MotionControl/MicrosteppingMotor/Src/example_usart.c ****  *   2. Redistributions in binary form must reproduce the above copyright notice,
  16:Projects/STM32F401RE-Nucleo/Examples/MotionControl/MicrosteppingMotor/Src/example_usart.c ****  *      this list of conditions and the following disclaimer in the documentation
  17:Projects/STM32F401RE-Nucleo/Examples/MotionControl/MicrosteppingMotor/Src/example_usart.c ****  *      and/or other materials provided with the distribution.
  18:Projects/STM32F401RE-Nucleo/Examples/MotionControl/MicrosteppingMotor/Src/example_usart.c ****  *   3. Neither the name of STMicroelectronics nor the names of its contributors
  19:Projects/STM32F401RE-Nucleo/Examples/MotionControl/MicrosteppingMotor/Src/example_usart.c ****  *      may be used to endorse or promote products derived from this software
  20:Projects/STM32F401RE-Nucleo/Examples/MotionControl/MicrosteppingMotor/Src/example_usart.c ****  *      without specific prior written permission.
  21:Projects/STM32F401RE-Nucleo/Examples/MotionControl/MicrosteppingMotor/Src/example_usart.c ****  *
  22:Projects/STM32F401RE-Nucleo/Examples/MotionControl/MicrosteppingMotor/Src/example_usart.c ****  * THIS SOFTWARE IS PROVIDED BY THE COPYRIGHT HOLDERS AND CONTRIBUTORS "AS IS"
  23:Projects/STM32F401RE-Nucleo/Examples/MotionControl/MicrosteppingMotor/Src/example_usart.c ****  * AND ANY EXPRESS OR IMPLIED WARRANTIES, INCLUDING, BUT NOT LIMITED TO, THE
  24:Projects/STM32F401RE-Nucleo/Examples/MotionControl/MicrosteppingMotor/Src/example_usart.c ****  * IMPLIED WARRANTIES OF MERCHANTABILITY AND FITNESS FOR A PARTICULAR PURPOSE ARE
  25:Projects/STM32F401RE-Nucleo/Examples/MotionControl/MicrosteppingMotor/Src/example_usart.c ****  * DISCLAIMED. IN NO EVENT SHALL THE COPYRIGHT HOLDER OR CONTRIBUTORS BE LIABLE
  26:Projects/STM32F401RE-Nucleo/Examples/MotionControl/MicrosteppingMotor/Src/example_usart.c ****  * FOR ANY DIRECT, INDIRECT, INCIDENTAL, SPECIAL, EXEMPLARY, OR CONSEQUENTIAL
  27:Projects/STM32F401RE-Nucleo/Examples/MotionControl/MicrosteppingMotor/Src/example_usart.c ****  * DAMAGES (INCLUDING, BUT NOT LIMITED TO, PROCUREMENT OF SUBSTITUTE GOODS OR
  28:Projects/STM32F401RE-Nucleo/Examples/MotionControl/MicrosteppingMotor/Src/example_usart.c ****  * SERVICES; LOSS OF USE, DATA, OR PROFITS; OR BUSINESS INTERRUPTION) HOWEVER
  29:Projects/STM32F401RE-Nucleo/Examples/MotionControl/MicrosteppingMotor/Src/example_usart.c ****  * CAUSED AND ON ANY THEORY OF LIABILITY, WHETHER IN CONTRACT, STRICT LIABILITY,
ARM GAS  C:\Users\ep_ygh\AppData\Local\Temp\cctjGRE4.s 			page 3


  30:Projects/STM32F401RE-Nucleo/Examples/MotionControl/MicrosteppingMotor/Src/example_usart.c ****  * OR TORT (INCLUDING NEGLIGENCE OR OTHERWISE) ARISING IN ANY WAY OUT OF THE USE
  31:Projects/STM32F401RE-Nucleo/Examples/MotionControl/MicrosteppingMotor/Src/example_usart.c ****  * OF THIS SOFTWARE, EVEN IF ADVISED OF THE POSSIBILITY OF SUCH DAMAGE.
  32:Projects/STM32F401RE-Nucleo/Examples/MotionControl/MicrosteppingMotor/Src/example_usart.c ****  *
  33:Projects/STM32F401RE-Nucleo/Examples/MotionControl/MicrosteppingMotor/Src/example_usart.c ****  ******************************************************************************
  34:Projects/STM32F401RE-Nucleo/Examples/MotionControl/MicrosteppingMotor/Src/example_usart.c ****  */
  35:Projects/STM32F401RE-Nucleo/Examples/MotionControl/MicrosteppingMotor/Src/example_usart.c **** 
  36:Projects/STM32F401RE-Nucleo/Examples/MotionControl/MicrosteppingMotor/Src/example_usart.c **** #include "example_usart.h"
  37:Projects/STM32F401RE-Nucleo/Examples/MotionControl/MicrosteppingMotor/Src/example_usart.c **** #include "xnucleoihm02a1.h"
  38:Projects/STM32F401RE-Nucleo/Examples/MotionControl/MicrosteppingMotor/Src/example_usart.c **** 
  39:Projects/STM32F401RE-Nucleo/Examples/MotionControl/MicrosteppingMotor/Src/example_usart.c **** /**
  40:Projects/STM32F401RE-Nucleo/Examples/MotionControl/MicrosteppingMotor/Src/example_usart.c ****  * @addtogroup MicrosteppingMotor_Example
  41:Projects/STM32F401RE-Nucleo/Examples/MotionControl/MicrosteppingMotor/Src/example_usart.c ****  * @{
  42:Projects/STM32F401RE-Nucleo/Examples/MotionControl/MicrosteppingMotor/Src/example_usart.c ****  */
  43:Projects/STM32F401RE-Nucleo/Examples/MotionControl/MicrosteppingMotor/Src/example_usart.c **** 
  44:Projects/STM32F401RE-Nucleo/Examples/MotionControl/MicrosteppingMotor/Src/example_usart.c **** /**
  45:Projects/STM32F401RE-Nucleo/Examples/MotionControl/MicrosteppingMotor/Src/example_usart.c ****  * @addtogroup   ExampleUsart
  46:Projects/STM32F401RE-Nucleo/Examples/MotionControl/MicrosteppingMotor/Src/example_usart.c ****  * @{
  47:Projects/STM32F401RE-Nucleo/Examples/MotionControl/MicrosteppingMotor/Src/example_usart.c ****  */
  48:Projects/STM32F401RE-Nucleo/Examples/MotionControl/MicrosteppingMotor/Src/example_usart.c **** 
  49:Projects/STM32F401RE-Nucleo/Examples/MotionControl/MicrosteppingMotor/Src/example_usart.c **** /**
  50:Projects/STM32F401RE-Nucleo/Examples/MotionControl/MicrosteppingMotor/Src/example_usart.c ****  * @addtogroup ExampleUsartPrivateTypes
  51:Projects/STM32F401RE-Nucleo/Examples/MotionControl/MicrosteppingMotor/Src/example_usart.c ****  * @{
  52:Projects/STM32F401RE-Nucleo/Examples/MotionControl/MicrosteppingMotor/Src/example_usart.c ****  */
  53:Projects/STM32F401RE-Nucleo/Examples/MotionControl/MicrosteppingMotor/Src/example_usart.c **** 
  54:Projects/STM32F401RE-Nucleo/Examples/MotionControl/MicrosteppingMotor/Src/example_usart.c **** /**
  55:Projects/STM32F401RE-Nucleo/Examples/MotionControl/MicrosteppingMotor/Src/example_usart.c ****  * @brief The states while USART text decoding
  56:Projects/STM32F401RE-Nucleo/Examples/MotionControl/MicrosteppingMotor/Src/example_usart.c ****  */
  57:Projects/STM32F401RE-Nucleo/Examples/MotionControl/MicrosteppingMotor/Src/example_usart.c **** typedef enum {
  58:Projects/STM32F401RE-Nucleo/Examples/MotionControl/MicrosteppingMotor/Src/example_usart.c **** 	DECODE_MOTOR,       //!< Motor name decoding
  59:Projects/STM32F401RE-Nucleo/Examples/MotionControl/MicrosteppingMotor/Src/example_usart.c **** 	DECODE_COMMAND,     //!< L6470 Application Commad decoding
  60:Projects/STM32F401RE-Nucleo/Examples/MotionControl/MicrosteppingMotor/Src/example_usart.c **** 	DECODE_1st_PARAM,   //!< L6470 Application Commad 1st parameter decoding
  61:Projects/STM32F401RE-Nucleo/Examples/MotionControl/MicrosteppingMotor/Src/example_usart.c **** 	DECODE_2nd_PARAM,   //!< L6470 Application Commad 2nd parameter decoding
  62:Projects/STM32F401RE-Nucleo/Examples/MotionControl/MicrosteppingMotor/Src/example_usart.c **** 	DECODE_3rd_PARAM,   //!< L6470 Application Commad 3rd parameter decoding
  63:Projects/STM32F401RE-Nucleo/Examples/MotionControl/MicrosteppingMotor/Src/example_usart.c **** 	DECODE_SAVE
  64:Projects/STM32F401RE-Nucleo/Examples/MotionControl/MicrosteppingMotor/Src/example_usart.c **** } eL6470_UsartTextStringDecodingStatus;
  65:Projects/STM32F401RE-Nucleo/Examples/MotionControl/MicrosteppingMotor/Src/example_usart.c **** 
  66:Projects/STM32F401RE-Nucleo/Examples/MotionControl/MicrosteppingMotor/Src/example_usart.c **** /**
  67:Projects/STM32F401RE-Nucleo/Examples/MotionControl/MicrosteppingMotor/Src/example_usart.c ****  * @}
  68:Projects/STM32F401RE-Nucleo/Examples/MotionControl/MicrosteppingMotor/Src/example_usart.c ****  *//* End of ExampleUsartPrivateTypes */
  69:Projects/STM32F401RE-Nucleo/Examples/MotionControl/MicrosteppingMotor/Src/example_usart.c **** 
  70:Projects/STM32F401RE-Nucleo/Examples/MotionControl/MicrosteppingMotor/Src/example_usart.c **** /**
  71:Projects/STM32F401RE-Nucleo/Examples/MotionControl/MicrosteppingMotor/Src/example_usart.c ****  * @addtogroup ExampleUsartPrivateMacros
  72:Projects/STM32F401RE-Nucleo/Examples/MotionControl/MicrosteppingMotor/Src/example_usart.c ****  * @{
  73:Projects/STM32F401RE-Nucleo/Examples/MotionControl/MicrosteppingMotor/Src/example_usart.c ****  */
  74:Projects/STM32F401RE-Nucleo/Examples/MotionControl/MicrosteppingMotor/Src/example_usart.c **** 
  75:Projects/STM32F401RE-Nucleo/Examples/MotionControl/MicrosteppingMotor/Src/example_usart.c **** void SaveMotorPositions(uint32_t motorPosition0, uint32_t motorPosition1); //forward declaration
  76:Projects/STM32F401RE-Nucleo/Examples/MotionControl/MicrosteppingMotor/Src/example_usart.c **** 
  77:Projects/STM32F401RE-Nucleo/Examples/MotionControl/MicrosteppingMotor/Src/example_usart.c **** #define NucleoUsartReceiveIT    HAL_UART_Receive_IT     //!< Rename the HAL function to receive an 
  78:Projects/STM32F401RE-Nucleo/Examples/MotionControl/MicrosteppingMotor/Src/example_usart.c **** #ifdef STM32F072xB
  79:Projects/STM32F401RE-Nucleo/Examples/MotionControl/MicrosteppingMotor/Src/example_usart.c **** #define NUCLEO_BOARD_NAME       (uint8_t *)"NUCLEO-F072RB"
  80:Projects/STM32F401RE-Nucleo/Examples/MotionControl/MicrosteppingMotor/Src/example_usart.c **** #define USART_STATUS_REGISTER   ISR                     //!< HAL USART status register name adapter
  81:Projects/STM32F401RE-Nucleo/Examples/MotionControl/MicrosteppingMotor/Src/example_usart.c **** #define USART_DATA_REGISTER     RDR                     //!< HAL UART data register name adapter.
  82:Projects/STM32F401RE-Nucleo/Examples/MotionControl/MicrosteppingMotor/Src/example_usart.c **** #endif
  83:Projects/STM32F401RE-Nucleo/Examples/MotionControl/MicrosteppingMotor/Src/example_usart.c **** #ifdef STM32F302x8
  84:Projects/STM32F401RE-Nucleo/Examples/MotionControl/MicrosteppingMotor/Src/example_usart.c **** #define NUCLEO_BOARD_NAME       (uint8_t *)"NUCLEO-F302R8"
  85:Projects/STM32F401RE-Nucleo/Examples/MotionControl/MicrosteppingMotor/Src/example_usart.c **** #define USART_STATUS_REGISTER   ISR                     //!< HAL USART status register name adapter
  86:Projects/STM32F401RE-Nucleo/Examples/MotionControl/MicrosteppingMotor/Src/example_usart.c **** #define USART_DATA_REGISTER     RDR                     //!< HAL UART data register name adapter.
ARM GAS  C:\Users\ep_ygh\AppData\Local\Temp\cctjGRE4.s 			page 4


  87:Projects/STM32F401RE-Nucleo/Examples/MotionControl/MicrosteppingMotor/Src/example_usart.c **** #endif
  88:Projects/STM32F401RE-Nucleo/Examples/MotionControl/MicrosteppingMotor/Src/example_usart.c **** #ifdef STM32F401xE
  89:Projects/STM32F401RE-Nucleo/Examples/MotionControl/MicrosteppingMotor/Src/example_usart.c **** #define NUCLEO_BOARD_NAME       (uint8_t *)"NUCLEO-F401RE"
  90:Projects/STM32F401RE-Nucleo/Examples/MotionControl/MicrosteppingMotor/Src/example_usart.c **** #define USART_STATUS_REGISTER   SR                      //!< HAL USART status register name adapter
  91:Projects/STM32F401RE-Nucleo/Examples/MotionControl/MicrosteppingMotor/Src/example_usart.c **** #define USART_DATA_REGISTER     DR                      //!< HAL UART data register name adapter.
  92:Projects/STM32F401RE-Nucleo/Examples/MotionControl/MicrosteppingMotor/Src/example_usart.c **** #endif
  93:Projects/STM32F401RE-Nucleo/Examples/MotionControl/MicrosteppingMotor/Src/example_usart.c **** 
  94:Projects/STM32F401RE-Nucleo/Examples/MotionControl/MicrosteppingMotor/Src/example_usart.c **** /**
  95:Projects/STM32F401RE-Nucleo/Examples/MotionControl/MicrosteppingMotor/Src/example_usart.c ****  * @}
  96:Projects/STM32F401RE-Nucleo/Examples/MotionControl/MicrosteppingMotor/Src/example_usart.c ****  *//* End of ExampleUsartPrivateMacros */
  97:Projects/STM32F401RE-Nucleo/Examples/MotionControl/MicrosteppingMotor/Src/example_usart.c **** 
  98:Projects/STM32F401RE-Nucleo/Examples/MotionControl/MicrosteppingMotor/Src/example_usart.c **** /**
  99:Projects/STM32F401RE-Nucleo/Examples/MotionControl/MicrosteppingMotor/Src/example_usart.c ****  * @addtogroup ExampleUsartPrivateVariables
 100:Projects/STM32F401RE-Nucleo/Examples/MotionControl/MicrosteppingMotor/Src/example_usart.c ****  * @{
 101:Projects/STM32F401RE-Nucleo/Examples/MotionControl/MicrosteppingMotor/Src/example_usart.c ****  */
 102:Projects/STM32F401RE-Nucleo/Examples/MotionControl/MicrosteppingMotor/Src/example_usart.c **** 
 103:Projects/STM32F401RE-Nucleo/Examples/MotionControl/MicrosteppingMotor/Src/example_usart.c **** UART_HandleTypeDef huart2; //!< The data structure for all further instances to USART2.
 104:Projects/STM32F401RE-Nucleo/Examples/MotionControl/MicrosteppingMotor/Src/example_usart.c **** sL6470_DaisyChainMnemonic L6470_DaisyChainMnemonic[L6470DAISYCHAINSIZE]; //!< The mnemonic names fo
 105:Projects/STM32F401RE-Nucleo/Examples/MotionControl/MicrosteppingMotor/Src/example_usart.c **** uint8_t UsartTextString[USARTTEXTSTRINGSIZE]; //!< To store the USART input text string.
 106:Projects/STM32F401RE-Nucleo/Examples/MotionControl/MicrosteppingMotor/Src/example_usart.c **** sL6470_TextCommandBundle L6470_TextCommandBundle[L6470DAISYCHAINSIZE]; //!< To store the splitted U
 107:Projects/STM32F401RE-Nucleo/Examples/MotionControl/MicrosteppingMotor/Src/example_usart.c **** 
 108:Projects/STM32F401RE-Nucleo/Examples/MotionControl/MicrosteppingMotor/Src/example_usart.c **** /**
 109:Projects/STM32F401RE-Nucleo/Examples/MotionControl/MicrosteppingMotor/Src/example_usart.c ****  * @}
 110:Projects/STM32F401RE-Nucleo/Examples/MotionControl/MicrosteppingMotor/Src/example_usart.c ****  *//* End of ExampleUsartPrivateVariables */
 111:Projects/STM32F401RE-Nucleo/Examples/MotionControl/MicrosteppingMotor/Src/example_usart.c **** 
 112:Projects/STM32F401RE-Nucleo/Examples/MotionControl/MicrosteppingMotor/Src/example_usart.c **** /**
 113:Projects/STM32F401RE-Nucleo/Examples/MotionControl/MicrosteppingMotor/Src/example_usart.c ****  * @defgroup   ExampleUsartPrivateFunctions
 114:Projects/STM32F401RE-Nucleo/Examples/MotionControl/MicrosteppingMotor/Src/example_usart.c ****  * @{
 115:Projects/STM32F401RE-Nucleo/Examples/MotionControl/MicrosteppingMotor/Src/example_usart.c ****  */
 116:Projects/STM32F401RE-Nucleo/Examples/MotionControl/MicrosteppingMotor/Src/example_usart.c **** 
 117:Projects/STM32F401RE-Nucleo/Examples/MotionControl/MicrosteppingMotor/Src/example_usart.c **** FlagStatus USART_SplitTextString(uint8_t *pTextString,
 118:Projects/STM32F401RE-Nucleo/Examples/MotionControl/MicrosteppingMotor/Src/example_usart.c **** 		sL6470_TextCommandBundle *pL6470_TextCommandBundle);
 119:Projects/STM32F401RE-Nucleo/Examples/MotionControl/MicrosteppingMotor/Src/example_usart.c **** FlagStatus USART_CheckTextCommandBundle(
 120:Projects/STM32F401RE-Nucleo/Examples/MotionControl/MicrosteppingMotor/Src/example_usart.c **** 		sL6470_TextCommandBundle *pL6470_TextCommandBundle,
 121:Projects/STM32F401RE-Nucleo/Examples/MotionControl/MicrosteppingMotor/Src/example_usart.c **** 		uint8_t* pL6470_DaisyChainSpiTxStruct);
 122:Projects/STM32F401RE-Nucleo/Examples/MotionControl/MicrosteppingMotor/Src/example_usart.c **** uint32_t* USART_DecodeTextString(uint8_t *pTextString,
 123:Projects/STM32F401RE-Nucleo/Examples/MotionControl/MicrosteppingMotor/Src/example_usart.c **** 		sL6470_TextCommandBundle *pL6470_TextCommandBundle,
 124:Projects/STM32F401RE-Nucleo/Examples/MotionControl/MicrosteppingMotor/Src/example_usart.c **** 		uint8_t* pL6470_DaisyChainSpiTxStruct,
 125:Projects/STM32F401RE-Nucleo/Examples/MotionControl/MicrosteppingMotor/Src/example_usart.c **** 		uint8_t* pL6470_DaisyChainSpiRxStruct);
 126:Projects/STM32F401RE-Nucleo/Examples/MotionControl/MicrosteppingMotor/Src/example_usart.c **** FlagStatus CompareTwoTextString(uint8_t* TextString1, uint8_t* TextString2);
 127:Projects/STM32F401RE-Nucleo/Examples/MotionControl/MicrosteppingMotor/Src/example_usart.c **** FlagStatus str2num(uint8_t* str, uint32_t* pnum);
 128:Projects/STM32F401RE-Nucleo/Examples/MotionControl/MicrosteppingMotor/Src/example_usart.c **** 
 129:Projects/STM32F401RE-Nucleo/Examples/MotionControl/MicrosteppingMotor/Src/example_usart.c **** /**
 130:Projects/STM32F401RE-Nucleo/Examples/MotionControl/MicrosteppingMotor/Src/example_usart.c ****  * @}
 131:Projects/STM32F401RE-Nucleo/Examples/MotionControl/MicrosteppingMotor/Src/example_usart.c ****  *//* End of ExampleUsartPrivateFunctions */
 132:Projects/STM32F401RE-Nucleo/Examples/MotionControl/MicrosteppingMotor/Src/example_usart.c **** 
 133:Projects/STM32F401RE-Nucleo/Examples/MotionControl/MicrosteppingMotor/Src/example_usart.c **** /**
 134:Projects/STM32F401RE-Nucleo/Examples/MotionControl/MicrosteppingMotor/Src/example_usart.c ****  * @addtogroup ExampleUsartPrivateFunctions
 135:Projects/STM32F401RE-Nucleo/Examples/MotionControl/MicrosteppingMotor/Src/example_usart.c ****  * @{
 136:Projects/STM32F401RE-Nucleo/Examples/MotionControl/MicrosteppingMotor/Src/example_usart.c ****  */
 137:Projects/STM32F401RE-Nucleo/Examples/MotionControl/MicrosteppingMotor/Src/example_usart.c **** 
 138:Projects/STM32F401RE-Nucleo/Examples/MotionControl/MicrosteppingMotor/Src/example_usart.c **** /**
 139:Projects/STM32F401RE-Nucleo/Examples/MotionControl/MicrosteppingMotor/Src/example_usart.c ****  * @brief Split the whole command string entered via USART into single text
 140:Projects/STM32F401RE-Nucleo/Examples/MotionControl/MicrosteppingMotor/Src/example_usart.c ****  *        strings to be used
 141:Projects/STM32F401RE-Nucleo/Examples/MotionControl/MicrosteppingMotor/Src/example_usart.c ****  * @retval FlagStatus  SET or RESET related to the result
 142:Projects/STM32F401RE-Nucleo/Examples/MotionControl/MicrosteppingMotor/Src/example_usart.c ****  */
 143:Projects/STM32F401RE-Nucleo/Examples/MotionControl/MicrosteppingMotor/Src/example_usart.c **** FlagStatus USART_SplitTextString(uint8_t *pTextString,
ARM GAS  C:\Users\ep_ygh\AppData\Local\Temp\cctjGRE4.s 			page 5


 144:Projects/STM32F401RE-Nucleo/Examples/MotionControl/MicrosteppingMotor/Src/example_usart.c **** 		sL6470_TextCommandBundle *pL6470_TextCommandBundle) {
  67              		.loc 1 144 55
  68              		.cfi_startproc
  69              		@ args = 0, pretend = 0, frame = 16
  70              		@ frame_needed = 1, uses_anonymous_args = 0
  71 0000 80B5     		push	{r7, lr}
  72              	.LCFI0:
  73              		.cfi_def_cfa_offset 8
  74              		.cfi_offset 7, -8
  75              		.cfi_offset 14, -4
  76 0002 84B0     		sub	sp, sp, #16
  77              	.LCFI1:
  78              		.cfi_def_cfa_offset 24
  79 0004 00AF     		add	r7, sp, #0
  80              	.LCFI2:
  81              		.cfi_def_cfa_register 7
  82 0006 7860     		str	r0, [r7, #4]
  83 0008 3960     		str	r1, [r7]
 145:Projects/STM32F401RE-Nucleo/Examples/MotionControl/MicrosteppingMotor/Src/example_usart.c **** 	uint8_t CmdTxt_id; /* To index the text command string inside the whole text string */
 146:Projects/STM32F401RE-Nucleo/Examples/MotionControl/MicrosteppingMotor/Src/example_usart.c **** 	uint8_t c_id; /* To index the characters of the command string */
 147:Projects/STM32F401RE-Nucleo/Examples/MotionControl/MicrosteppingMotor/Src/example_usart.c **** 	uint8_t ch; /* The actual character to be checked */
 148:Projects/STM32F401RE-Nucleo/Examples/MotionControl/MicrosteppingMotor/Src/example_usart.c **** 	uint8_t k_id; /* To index the characters of each word of the command string */
 149:Projects/STM32F401RE-Nucleo/Examples/MotionControl/MicrosteppingMotor/Src/example_usart.c **** 	uint8_t k_idmax; /* To store the actual max value for k */
 150:Projects/STM32F401RE-Nucleo/Examples/MotionControl/MicrosteppingMotor/Src/example_usart.c **** 	eL6470_UsartTextStringDecodingStatus UsartTextStringDecodingStatus; /* The store the actual state 
 151:Projects/STM32F401RE-Nucleo/Examples/MotionControl/MicrosteppingMotor/Src/example_usart.c **** 
 152:Projects/STM32F401RE-Nucleo/Examples/MotionControl/MicrosteppingMotor/Src/example_usart.c **** 	for (CmdTxt_id = 0; CmdTxt_id < L6470DAISYCHAINSIZE; CmdTxt_id++) {
  84              		.loc 1 152 17
  85 000a 0023     		movs	r3, #0
  86 000c FB73     		strb	r3, [r7, #15]
  87              		.loc 1 152 2
  88 000e 35E0     		b	.L2
  89              	.L3:
 153:Projects/STM32F401RE-Nucleo/Examples/MotionControl/MicrosteppingMotor/Src/example_usart.c **** 		*((pL6470_TextCommandBundle + CmdTxt_id)->MotorName) = '\0';
  90              		.loc 1 153 31 discriminator 3
  91 0010 FA7B     		ldrb	r2, [r7, #15]	@ zero_extendqisi2
  92 0012 1346     		mov	r3, r2
  93 0014 5B00     		lsls	r3, r3, #1
  94 0016 1344     		add	r3, r3, r2
  95 0018 1B01     		lsls	r3, r3, #4
  96 001a 1A46     		mov	r2, r3
  97 001c 3B68     		ldr	r3, [r7]
  98 001e 1344     		add	r3, r3, r2
  99              		.loc 1 153 56 discriminator 3
 100 0020 0022     		movs	r2, #0
 101 0022 1A70     		strb	r2, [r3]
 154:Projects/STM32F401RE-Nucleo/Examples/MotionControl/MicrosteppingMotor/Src/example_usart.c **** 		*((pL6470_TextCommandBundle + CmdTxt_id)->CommandName) = '\0';
 102              		.loc 1 154 31 discriminator 3
 103 0024 FA7B     		ldrb	r2, [r7, #15]	@ zero_extendqisi2
 104 0026 1346     		mov	r3, r2
 105 0028 5B00     		lsls	r3, r3, #1
 106 002a 1344     		add	r3, r3, r2
 107 002c 1B01     		lsls	r3, r3, #4
 108 002e 1A46     		mov	r2, r3
 109 0030 3B68     		ldr	r3, [r7]
 110 0032 1344     		add	r3, r3, r2
 111              		.loc 1 154 58 discriminator 3
 112 0034 0022     		movs	r2, #0
ARM GAS  C:\Users\ep_ygh\AppData\Local\Temp\cctjGRE4.s 			page 6


 113 0036 DA70     		strb	r2, [r3, #3]
 155:Projects/STM32F401RE-Nucleo/Examples/MotionControl/MicrosteppingMotor/Src/example_usart.c **** 		*((pL6470_TextCommandBundle + CmdTxt_id)->Param[0]) = '\0';
 114              		.loc 1 155 31 discriminator 3
 115 0038 FA7B     		ldrb	r2, [r7, #15]	@ zero_extendqisi2
 116 003a 1346     		mov	r3, r2
 117 003c 5B00     		lsls	r3, r3, #1
 118 003e 1344     		add	r3, r3, r2
 119 0040 1B01     		lsls	r3, r3, #4
 120 0042 1A46     		mov	r2, r3
 121 0044 3B68     		ldr	r3, [r7]
 122 0046 1344     		add	r3, r3, r2
 123              		.loc 1 155 55 discriminator 3
 124 0048 0022     		movs	r2, #0
 125 004a DA73     		strb	r2, [r3, #15]
 156:Projects/STM32F401RE-Nucleo/Examples/MotionControl/MicrosteppingMotor/Src/example_usart.c **** 		*((pL6470_TextCommandBundle + CmdTxt_id)->Param[1]) = '\0';
 126              		.loc 1 156 31 discriminator 3
 127 004c FA7B     		ldrb	r2, [r7, #15]	@ zero_extendqisi2
 128 004e 1346     		mov	r3, r2
 129 0050 5B00     		lsls	r3, r3, #1
 130 0052 1344     		add	r3, r3, r2
 131 0054 1B01     		lsls	r3, r3, #4
 132 0056 1A46     		mov	r2, r3
 133 0058 3B68     		ldr	r3, [r7]
 134 005a 1344     		add	r3, r3, r2
 135              		.loc 1 156 55 discriminator 3
 136 005c 0022     		movs	r2, #0
 137 005e 9A76     		strb	r2, [r3, #26]
 157:Projects/STM32F401RE-Nucleo/Examples/MotionControl/MicrosteppingMotor/Src/example_usart.c **** 		*((pL6470_TextCommandBundle + CmdTxt_id)->Param[2]) = '\0';
 138              		.loc 1 157 31 discriminator 3
 139 0060 FA7B     		ldrb	r2, [r7, #15]	@ zero_extendqisi2
 140 0062 1346     		mov	r3, r2
 141 0064 5B00     		lsls	r3, r3, #1
 142 0066 1344     		add	r3, r3, r2
 143 0068 1B01     		lsls	r3, r3, #4
 144 006a 1A46     		mov	r2, r3
 145 006c 3B68     		ldr	r3, [r7]
 146 006e 1344     		add	r3, r3, r2
 147              		.loc 1 157 55 discriminator 3
 148 0070 0022     		movs	r2, #0
 149 0072 83F82520 		strb	r2, [r3, #37]
 152:Projects/STM32F401RE-Nucleo/Examples/MotionControl/MicrosteppingMotor/Src/example_usart.c **** 		*((pL6470_TextCommandBundle + CmdTxt_id)->MotorName) = '\0';
 150              		.loc 1 152 64 discriminator 3
 151 0076 FB7B     		ldrb	r3, [r7, #15]	@ zero_extendqisi2
 152 0078 0133     		adds	r3, r3, #1
 153 007a FB73     		strb	r3, [r7, #15]
 154              	.L2:
 152:Projects/STM32F401RE-Nucleo/Examples/MotionControl/MicrosteppingMotor/Src/example_usart.c **** 		*((pL6470_TextCommandBundle + CmdTxt_id)->MotorName) = '\0';
 155              		.loc 1 152 2 discriminator 1
 156 007c FB7B     		ldrb	r3, [r7, #15]	@ zero_extendqisi2
 157 007e 012B     		cmp	r3, #1
 158 0080 C6D9     		bls	.L3
 158:Projects/STM32F401RE-Nucleo/Examples/MotionControl/MicrosteppingMotor/Src/example_usart.c **** 	}
 159:Projects/STM32F401RE-Nucleo/Examples/MotionControl/MicrosteppingMotor/Src/example_usart.c **** 
 160:Projects/STM32F401RE-Nucleo/Examples/MotionControl/MicrosteppingMotor/Src/example_usart.c **** 	c_id = 0;
 159              		.loc 1 160 7
 160 0082 0023     		movs	r3, #0
 161 0084 BB73     		strb	r3, [r7, #14]
ARM GAS  C:\Users\ep_ygh\AppData\Local\Temp\cctjGRE4.s 			page 7


 161:Projects/STM32F401RE-Nucleo/Examples/MotionControl/MicrosteppingMotor/Src/example_usart.c **** 	ch = *(pTextString + c_id);
 162              		.loc 1 161 21
 163 0086 BB7B     		ldrb	r3, [r7, #14]	@ zero_extendqisi2
 164 0088 7A68     		ldr	r2, [r7, #4]
 165 008a 1344     		add	r3, r3, r2
 166              		.loc 1 161 5
 167 008c 1B78     		ldrb	r3, [r3]
 168 008e 7B73     		strb	r3, [r7, #13]
 162:Projects/STM32F401RE-Nucleo/Examples/MotionControl/MicrosteppingMotor/Src/example_usart.c **** 	k_id = 0;
 169              		.loc 1 162 7
 170 0090 0023     		movs	r3, #0
 171 0092 3B73     		strb	r3, [r7, #12]
 163:Projects/STM32F401RE-Nucleo/Examples/MotionControl/MicrosteppingMotor/Src/example_usart.c **** 	k_idmax = 2;
 172              		.loc 1 163 10
 173 0094 0223     		movs	r3, #2
 174 0096 FB72     		strb	r3, [r7, #11]
 164:Projects/STM32F401RE-Nucleo/Examples/MotionControl/MicrosteppingMotor/Src/example_usart.c **** 	CmdTxt_id = 0;
 175              		.loc 1 164 12
 176 0098 0023     		movs	r3, #0
 177 009a FB73     		strb	r3, [r7, #15]
 165:Projects/STM32F401RE-Nucleo/Examples/MotionControl/MicrosteppingMotor/Src/example_usart.c **** 
 166:Projects/STM32F401RE-Nucleo/Examples/MotionControl/MicrosteppingMotor/Src/example_usart.c **** 	UsartTextStringDecodingStatus = DECODE_MOTOR;
 178              		.loc 1 166 32
 179 009c 0023     		movs	r3, #0
 180 009e BB72     		strb	r3, [r7, #10]
 167:Projects/STM32F401RE-Nucleo/Examples/MotionControl/MicrosteppingMotor/Src/example_usart.c **** 
 168:Projects/STM32F401RE-Nucleo/Examples/MotionControl/MicrosteppingMotor/Src/example_usart.c **** 	while (ch != '\0') {
 181              		.loc 1 168 8
 182 00a0 09E1     		b	.L4
 183              	.L24:
 169:Projects/STM32F401RE-Nucleo/Examples/MotionControl/MicrosteppingMotor/Src/example_usart.c **** 		switch (ch) {
 184              		.loc 1 169 3
 185 00a2 7B7B     		ldrb	r3, [r7, #13]	@ zero_extendqisi2
 186 00a4 2C2B     		cmp	r3, #44
 187 00a6 10D0     		beq	.L5
 188 00a8 2E2B     		cmp	r3, #46
 189 00aa 1FD1     		bne	.L6
 170:Projects/STM32F401RE-Nucleo/Examples/MotionControl/MicrosteppingMotor/Src/example_usart.c **** 		case '.':
 171:Projects/STM32F401RE-Nucleo/Examples/MotionControl/MicrosteppingMotor/Src/example_usart.c **** 			if (UsartTextStringDecodingStatus != DECODE_SAVE ) //DECODE_3rd_PARAM) {
 190              		.loc 1 171 7
 191 00ac BB7A     		ldrb	r3, [r7, #10]	@ zero_extendqisi2
 192 00ae 052B     		cmp	r3, #5
 193 00b0 05D0     		beq	.L7
 172:Projects/STM32F401RE-Nucleo/Examples/MotionControl/MicrosteppingMotor/Src/example_usart.c **** 			{
 173:Projects/STM32F401RE-Nucleo/Examples/MotionControl/MicrosteppingMotor/Src/example_usart.c **** 				UsartTextStringDecodingStatus++;
 194              		.loc 1 173 34
 195 00b2 BB7A     		ldrb	r3, [r7, #10]	@ zero_extendqisi2
 196 00b4 0133     		adds	r3, r3, #1
 197 00b6 BB72     		strb	r3, [r7, #10]
 174:Projects/STM32F401RE-Nucleo/Examples/MotionControl/MicrosteppingMotor/Src/example_usart.c **** 				k_id = 0;
 198              		.loc 1 174 10
 199 00b8 0023     		movs	r3, #0
 200 00ba 3B73     		strb	r3, [r7, #12]
 175:Projects/STM32F401RE-Nucleo/Examples/MotionControl/MicrosteppingMotor/Src/example_usart.c **** 			} else {
 176:Projects/STM32F401RE-Nucleo/Examples/MotionControl/MicrosteppingMotor/Src/example_usart.c **** #ifdef NUCLEO_USE_USART
 177:Projects/STM32F401RE-Nucleo/Examples/MotionControl/MicrosteppingMotor/Src/example_usart.c **** 				USART_Transmit(&huart2, (uint8_t* )"Too much entered parameters.\r\n\r\n");
 178:Projects/STM32F401RE-Nucleo/Examples/MotionControl/MicrosteppingMotor/Src/example_usart.c **** #endif
ARM GAS  C:\Users\ep_ygh\AppData\Local\Temp\cctjGRE4.s 			page 8


 179:Projects/STM32F401RE-Nucleo/Examples/MotionControl/MicrosteppingMotor/Src/example_usart.c **** 				return RESET;
 180:Projects/STM32F401RE-Nucleo/Examples/MotionControl/MicrosteppingMotor/Src/example_usart.c **** 			}
 181:Projects/STM32F401RE-Nucleo/Examples/MotionControl/MicrosteppingMotor/Src/example_usart.c **** 			break;
 201              		.loc 1 181 4
 202 00bc F3E0     		b	.L10
 203              	.L7:
 177:Projects/STM32F401RE-Nucleo/Examples/MotionControl/MicrosteppingMotor/Src/example_usart.c **** #endif
 204              		.loc 1 177 5
 205 00be 8249     		ldr	r1, .L26
 206 00c0 8248     		ldr	r0, .L26+4
 207 00c2 FFF7FEFF 		bl	USART_Transmit
 179:Projects/STM32F401RE-Nucleo/Examples/MotionControl/MicrosteppingMotor/Src/example_usart.c **** 			}
 208              		.loc 1 179 12
 209 00c6 0023     		movs	r3, #0
 210 00c8 FAE0     		b	.L9
 211              	.L5:
 182:Projects/STM32F401RE-Nucleo/Examples/MotionControl/MicrosteppingMotor/Src/example_usart.c **** 		case ',':
 183:Projects/STM32F401RE-Nucleo/Examples/MotionControl/MicrosteppingMotor/Src/example_usart.c **** 			CmdTxt_id++;
 212              		.loc 1 183 13
 213 00ca FB7B     		ldrb	r3, [r7, #15]	@ zero_extendqisi2
 214 00cc 0133     		adds	r3, r3, #1
 215 00ce FB73     		strb	r3, [r7, #15]
 184:Projects/STM32F401RE-Nucleo/Examples/MotionControl/MicrosteppingMotor/Src/example_usart.c **** 			if (CmdTxt_id != L6470DAISYCHAINSIZE) {
 216              		.loc 1 184 7
 217 00d0 FB7B     		ldrb	r3, [r7, #15]	@ zero_extendqisi2
 218 00d2 022B     		cmp	r3, #2
 219 00d4 04D0     		beq	.L11
 185:Projects/STM32F401RE-Nucleo/Examples/MotionControl/MicrosteppingMotor/Src/example_usart.c **** 				UsartTextStringDecodingStatus = DECODE_MOTOR;
 220              		.loc 1 185 35
 221 00d6 0023     		movs	r3, #0
 222 00d8 BB72     		strb	r3, [r7, #10]
 186:Projects/STM32F401RE-Nucleo/Examples/MotionControl/MicrosteppingMotor/Src/example_usart.c **** 				k_id = 0;
 223              		.loc 1 186 10
 224 00da 0023     		movs	r3, #0
 225 00dc 3B73     		strb	r3, [r7, #12]
 187:Projects/STM32F401RE-Nucleo/Examples/MotionControl/MicrosteppingMotor/Src/example_usart.c **** 			} else {
 188:Projects/STM32F401RE-Nucleo/Examples/MotionControl/MicrosteppingMotor/Src/example_usart.c **** #ifdef NUCLEO_USE_USART
 189:Projects/STM32F401RE-Nucleo/Examples/MotionControl/MicrosteppingMotor/Src/example_usart.c **** 				USART_Transmit(&huart2, (uint8_t* )"Too much addressed L6470.\r\n\r\n");
 190:Projects/STM32F401RE-Nucleo/Examples/MotionControl/MicrosteppingMotor/Src/example_usart.c **** #endif
 191:Projects/STM32F401RE-Nucleo/Examples/MotionControl/MicrosteppingMotor/Src/example_usart.c **** 				return RESET;
 192:Projects/STM32F401RE-Nucleo/Examples/MotionControl/MicrosteppingMotor/Src/example_usart.c **** 			}
 193:Projects/STM32F401RE-Nucleo/Examples/MotionControl/MicrosteppingMotor/Src/example_usart.c **** 			break;
 226              		.loc 1 193 4
 227 00de E2E0     		b	.L10
 228              	.L11:
 189:Projects/STM32F401RE-Nucleo/Examples/MotionControl/MicrosteppingMotor/Src/example_usart.c **** #endif
 229              		.loc 1 189 5
 230 00e0 7B49     		ldr	r1, .L26+8
 231 00e2 7A48     		ldr	r0, .L26+4
 232 00e4 FFF7FEFF 		bl	USART_Transmit
 191:Projects/STM32F401RE-Nucleo/Examples/MotionControl/MicrosteppingMotor/Src/example_usart.c **** 			}
 233              		.loc 1 191 12
 234 00e8 0023     		movs	r3, #0
 235 00ea E9E0     		b	.L9
 236              	.L6:
 194:Projects/STM32F401RE-Nucleo/Examples/MotionControl/MicrosteppingMotor/Src/example_usart.c **** 		default:
 195:Projects/STM32F401RE-Nucleo/Examples/MotionControl/MicrosteppingMotor/Src/example_usart.c **** 			if (k_id != k_idmax) {
ARM GAS  C:\Users\ep_ygh\AppData\Local\Temp\cctjGRE4.s 			page 9


 237              		.loc 1 195 7
 238 00ec 3A7B     		ldrb	r2, [r7, #12]	@ zero_extendqisi2
 239 00ee FB7A     		ldrb	r3, [r7, #11]	@ zero_extendqisi2
 240 00f0 9A42     		cmp	r2, r3
 241 00f2 00F0D280 		beq	.L13
 196:Projects/STM32F401RE-Nucleo/Examples/MotionControl/MicrosteppingMotor/Src/example_usart.c **** 				switch (UsartTextStringDecodingStatus) {
 242              		.loc 1 196 5
 243 00f6 BB7A     		ldrb	r3, [r7, #10]	@ zero_extendqisi2
 244 00f8 052B     		cmp	r3, #5
 245 00fa 00F2C980 		bhi	.L25
 246 00fe 01A2     		adr	r2, .L16
 247 0100 52F823F0 		ldr	pc, [r2, r3, lsl #2]
 248              		.p2align 2
 249              	.L16:
 250 0104 1D010000 		.word	.L21+1
 251 0108 59010000 		.word	.L20+1
 252 010c D1010000 		.word	.L19+1
 253 0110 11020000 		.word	.L18+1
 254 0114 51020000 		.word	.L17+1
 255 0118 95010000 		.word	.L15+1
 256              		.p2align 1
 257              	.L21:
 197:Projects/STM32F401RE-Nucleo/Examples/MotionControl/MicrosteppingMotor/Src/example_usart.c **** 				case DECODE_MOTOR:
 198:Projects/STM32F401RE-Nucleo/Examples/MotionControl/MicrosteppingMotor/Src/example_usart.c **** 					k_idmax = 2;
 258              		.loc 1 198 14
 259 011c 0223     		movs	r3, #2
 260 011e FB72     		strb	r3, [r7, #11]
 199:Projects/STM32F401RE-Nucleo/Examples/MotionControl/MicrosteppingMotor/Src/example_usart.c **** 					*(((pL6470_TextCommandBundle + CmdTxt_id)->MotorName) + k_id) =
 261              		.loc 1 199 35
 262 0120 FA7B     		ldrb	r2, [r7, #15]	@ zero_extendqisi2
 263 0122 1346     		mov	r3, r2
 264 0124 5B00     		lsls	r3, r3, #1
 265 0126 1344     		add	r3, r3, r2
 266 0128 1B01     		lsls	r3, r3, #4
 267 012a 1A46     		mov	r2, r3
 268 012c 3B68     		ldr	r3, [r7]
 269 012e 1344     		add	r3, r3, r2
 270              		.loc 1 199 8
 271 0130 1A46     		mov	r2, r3
 272              		.loc 1 199 60
 273 0132 3B7B     		ldrb	r3, [r7, #12]	@ zero_extendqisi2
 274 0134 1344     		add	r3, r3, r2
 275              		.loc 1 199 68
 276 0136 7A7B     		ldrb	r2, [r7, #13]
 277 0138 1A70     		strb	r2, [r3]
 200:Projects/STM32F401RE-Nucleo/Examples/MotionControl/MicrosteppingMotor/Src/example_usart.c **** 							ch;
 201:Projects/STM32F401RE-Nucleo/Examples/MotionControl/MicrosteppingMotor/Src/example_usart.c **** 					*(((pL6470_TextCommandBundle + CmdTxt_id)->MotorName)
 278              		.loc 1 201 35
 279 013a FA7B     		ldrb	r2, [r7, #15]	@ zero_extendqisi2
 280 013c 1346     		mov	r3, r2
 281 013e 5B00     		lsls	r3, r3, #1
 282 0140 1344     		add	r3, r3, r2
 283 0142 1B01     		lsls	r3, r3, #4
 284 0144 1A46     		mov	r2, r3
 285 0146 3B68     		ldr	r3, [r7]
 286 0148 1344     		add	r3, r3, r2
 287              		.loc 1 201 8
ARM GAS  C:\Users\ep_ygh\AppData\Local\Temp\cctjGRE4.s 			page 10


 288 014a 1A46     		mov	r2, r3
 202:Projects/STM32F401RE-Nucleo/Examples/MotionControl/MicrosteppingMotor/Src/example_usart.c **** 							+ (k_id + 1)) = '\0';
 289              		.loc 1 202 8
 290 014c 3B7B     		ldrb	r3, [r7, #12]	@ zero_extendqisi2
 291 014e 0133     		adds	r3, r3, #1
 292 0150 1344     		add	r3, r3, r2
 293              		.loc 1 202 22
 294 0152 0022     		movs	r2, #0
 295 0154 1A70     		strb	r2, [r3]
 203:Projects/STM32F401RE-Nucleo/Examples/MotionControl/MicrosteppingMotor/Src/example_usart.c **** 					break;
 296              		.loc 1 203 6
 297 0156 9CE0     		b	.L22
 298              	.L20:
 204:Projects/STM32F401RE-Nucleo/Examples/MotionControl/MicrosteppingMotor/Src/example_usart.c **** 				 case DECODE_COMMAND:
 205:Projects/STM32F401RE-Nucleo/Examples/MotionControl/MicrosteppingMotor/Src/example_usart.c **** 				 	k_idmax = 11;
 299              		.loc 1 205 15
 300 0158 0B23     		movs	r3, #11
 301 015a FB72     		strb	r3, [r7, #11]
 206:Projects/STM32F401RE-Nucleo/Examples/MotionControl/MicrosteppingMotor/Src/example_usart.c **** 				 	*(((pL6470_TextCommandBundle + CmdTxt_id)->CommandName)
 302              		.loc 1 206 36
 303 015c FA7B     		ldrb	r2, [r7, #15]	@ zero_extendqisi2
 304 015e 1346     		mov	r3, r2
 305 0160 5B00     		lsls	r3, r3, #1
 306 0162 1344     		add	r3, r3, r2
 307 0164 1B01     		lsls	r3, r3, #4
 308 0166 1A46     		mov	r2, r3
 309 0168 3B68     		ldr	r3, [r7]
 310 016a 1344     		add	r3, r3, r2
 311              		.loc 1 206 9
 312 016c DA1C     		adds	r2, r3, #3
 207:Projects/STM32F401RE-Nucleo/Examples/MotionControl/MicrosteppingMotor/Src/example_usart.c **** 				 			+ k_id) = ch;
 313              		.loc 1 207 9
 314 016e 3B7B     		ldrb	r3, [r7, #12]	@ zero_extendqisi2
 315 0170 1344     		add	r3, r3, r2
 316              		.loc 1 207 17
 317 0172 7A7B     		ldrb	r2, [r7, #13]
 318 0174 1A70     		strb	r2, [r3]
 208:Projects/STM32F401RE-Nucleo/Examples/MotionControl/MicrosteppingMotor/Src/example_usart.c **** 				 	*(((pL6470_TextCommandBundle + CmdTxt_id)->CommandName)
 319              		.loc 1 208 36
 320 0176 FA7B     		ldrb	r2, [r7, #15]	@ zero_extendqisi2
 321 0178 1346     		mov	r3, r2
 322 017a 5B00     		lsls	r3, r3, #1
 323 017c 1344     		add	r3, r3, r2
 324 017e 1B01     		lsls	r3, r3, #4
 325 0180 1A46     		mov	r2, r3
 326 0182 3B68     		ldr	r3, [r7]
 327 0184 1344     		add	r3, r3, r2
 328              		.loc 1 208 9
 329 0186 DA1C     		adds	r2, r3, #3
 209:Projects/STM32F401RE-Nucleo/Examples/MotionControl/MicrosteppingMotor/Src/example_usart.c **** 				 			+ (k_id + 1)) = '\0';
 330              		.loc 1 209 9
 331 0188 3B7B     		ldrb	r3, [r7, #12]	@ zero_extendqisi2
 332 018a 0133     		adds	r3, r3, #1
 333 018c 1344     		add	r3, r3, r2
 334              		.loc 1 209 23
 335 018e 0022     		movs	r2, #0
 336 0190 1A70     		strb	r2, [r3]
ARM GAS  C:\Users\ep_ygh\AppData\Local\Temp\cctjGRE4.s 			page 11


 210:Projects/STM32F401RE-Nucleo/Examples/MotionControl/MicrosteppingMotor/Src/example_usart.c **** 				 	break;
 337              		.loc 1 210 7
 338 0192 7EE0     		b	.L22
 339              	.L15:
 211:Projects/STM32F401RE-Nucleo/Examples/MotionControl/MicrosteppingMotor/Src/example_usart.c **** 
 212:Projects/STM32F401RE-Nucleo/Examples/MotionControl/MicrosteppingMotor/Src/example_usart.c **** 				case DECODE_SAVE:
 213:Projects/STM32F401RE-Nucleo/Examples/MotionControl/MicrosteppingMotor/Src/example_usart.c **** 					k_idmax = 4;
 340              		.loc 1 213 14
 341 0194 0423     		movs	r3, #4
 342 0196 FB72     		strb	r3, [r7, #11]
 214:Projects/STM32F401RE-Nucleo/Examples/MotionControl/MicrosteppingMotor/Src/example_usart.c **** 					*((pL6470_TextCommandBundle + CmdTxt_id)->CommandName + k_id) = ch;
 343              		.loc 1 214 34
 344 0198 FA7B     		ldrb	r2, [r7, #15]	@ zero_extendqisi2
 345 019a 1346     		mov	r3, r2
 346 019c 5B00     		lsls	r3, r3, #1
 347 019e 1344     		add	r3, r3, r2
 348 01a0 1B01     		lsls	r3, r3, #4
 349 01a2 1A46     		mov	r2, r3
 350 01a4 3B68     		ldr	r3, [r7]
 351 01a6 1344     		add	r3, r3, r2
 352              		.loc 1 214 8
 353 01a8 DA1C     		adds	r2, r3, #3
 354              		.loc 1 214 60
 355 01aa 3B7B     		ldrb	r3, [r7, #12]	@ zero_extendqisi2
 356 01ac 1344     		add	r3, r3, r2
 357              		.loc 1 214 68
 358 01ae 7A7B     		ldrb	r2, [r7, #13]
 359 01b0 1A70     		strb	r2, [r3]
 215:Projects/STM32F401RE-Nucleo/Examples/MotionControl/MicrosteppingMotor/Src/example_usart.c **** 				 	*(((pL6470_TextCommandBundle + CmdTxt_id)->CommandName)
 360              		.loc 1 215 36
 361 01b2 FA7B     		ldrb	r2, [r7, #15]	@ zero_extendqisi2
 362 01b4 1346     		mov	r3, r2
 363 01b6 5B00     		lsls	r3, r3, #1
 364 01b8 1344     		add	r3, r3, r2
 365 01ba 1B01     		lsls	r3, r3, #4
 366 01bc 1A46     		mov	r2, r3
 367 01be 3B68     		ldr	r3, [r7]
 368 01c0 1344     		add	r3, r3, r2
 369              		.loc 1 215 9
 370 01c2 DA1C     		adds	r2, r3, #3
 216:Projects/STM32F401RE-Nucleo/Examples/MotionControl/MicrosteppingMotor/Src/example_usart.c **** 				 			+ (k_id + 1)) = '\0';
 371              		.loc 1 216 9
 372 01c4 3B7B     		ldrb	r3, [r7, #12]	@ zero_extendqisi2
 373 01c6 0133     		adds	r3, r3, #1
 374 01c8 1344     		add	r3, r3, r2
 375              		.loc 1 216 23
 376 01ca 0022     		movs	r2, #0
 377 01cc 1A70     		strb	r2, [r3]
 217:Projects/STM32F401RE-Nucleo/Examples/MotionControl/MicrosteppingMotor/Src/example_usart.c **** 					break;
 378              		.loc 1 217 6
 379 01ce 60E0     		b	.L22
 380              	.L19:
 218:Projects/STM32F401RE-Nucleo/Examples/MotionControl/MicrosteppingMotor/Src/example_usart.c **** 
 219:Projects/STM32F401RE-Nucleo/Examples/MotionControl/MicrosteppingMotor/Src/example_usart.c **** 				case DECODE_1st_PARAM:
 220:Projects/STM32F401RE-Nucleo/Examples/MotionControl/MicrosteppingMotor/Src/example_usart.c **** 					k_idmax = 10;
 381              		.loc 1 220 14
 382 01d0 0A23     		movs	r3, #10
ARM GAS  C:\Users\ep_ygh\AppData\Local\Temp\cctjGRE4.s 			page 12


 383 01d2 FB72     		strb	r3, [r7, #11]
 221:Projects/STM32F401RE-Nucleo/Examples/MotionControl/MicrosteppingMotor/Src/example_usart.c **** 					*(((pL6470_TextCommandBundle + CmdTxt_id)->Param[0]) + k_id) =
 384              		.loc 1 221 35
 385 01d4 FA7B     		ldrb	r2, [r7, #15]	@ zero_extendqisi2
 386 01d6 1346     		mov	r3, r2
 387 01d8 5B00     		lsls	r3, r3, #1
 388 01da 1344     		add	r3, r3, r2
 389 01dc 1B01     		lsls	r3, r3, #4
 390 01de 1A46     		mov	r2, r3
 391 01e0 3B68     		ldr	r3, [r7]
 392 01e2 1344     		add	r3, r3, r2
 393              		.loc 1 221 8
 394 01e4 03F10F02 		add	r2, r3, #15
 395              		.loc 1 221 59
 396 01e8 3B7B     		ldrb	r3, [r7, #12]	@ zero_extendqisi2
 397 01ea 1344     		add	r3, r3, r2
 398              		.loc 1 221 67
 399 01ec 7A7B     		ldrb	r2, [r7, #13]
 400 01ee 1A70     		strb	r2, [r3]
 222:Projects/STM32F401RE-Nucleo/Examples/MotionControl/MicrosteppingMotor/Src/example_usart.c **** 							ch;
 223:Projects/STM32F401RE-Nucleo/Examples/MotionControl/MicrosteppingMotor/Src/example_usart.c **** 					*(((pL6470_TextCommandBundle + CmdTxt_id)->Param[0])
 401              		.loc 1 223 35
 402 01f0 FA7B     		ldrb	r2, [r7, #15]	@ zero_extendqisi2
 403 01f2 1346     		mov	r3, r2
 404 01f4 5B00     		lsls	r3, r3, #1
 405 01f6 1344     		add	r3, r3, r2
 406 01f8 1B01     		lsls	r3, r3, #4
 407 01fa 1A46     		mov	r2, r3
 408 01fc 3B68     		ldr	r3, [r7]
 409 01fe 1344     		add	r3, r3, r2
 410              		.loc 1 223 8
 411 0200 03F10F02 		add	r2, r3, #15
 224:Projects/STM32F401RE-Nucleo/Examples/MotionControl/MicrosteppingMotor/Src/example_usart.c **** 							+ (k_id + 1)) = '\0';
 412              		.loc 1 224 8
 413 0204 3B7B     		ldrb	r3, [r7, #12]	@ zero_extendqisi2
 414 0206 0133     		adds	r3, r3, #1
 415 0208 1344     		add	r3, r3, r2
 416              		.loc 1 224 22
 417 020a 0022     		movs	r2, #0
 418 020c 1A70     		strb	r2, [r3]
 225:Projects/STM32F401RE-Nucleo/Examples/MotionControl/MicrosteppingMotor/Src/example_usart.c **** 					break;
 419              		.loc 1 225 6
 420 020e 40E0     		b	.L22
 421              	.L18:
 226:Projects/STM32F401RE-Nucleo/Examples/MotionControl/MicrosteppingMotor/Src/example_usart.c **** 				case DECODE_2nd_PARAM:
 227:Projects/STM32F401RE-Nucleo/Examples/MotionControl/MicrosteppingMotor/Src/example_usart.c **** 					k_idmax = 7;
 422              		.loc 1 227 14
 423 0210 0723     		movs	r3, #7
 424 0212 FB72     		strb	r3, [r7, #11]
 228:Projects/STM32F401RE-Nucleo/Examples/MotionControl/MicrosteppingMotor/Src/example_usart.c **** 					*(((pL6470_TextCommandBundle + CmdTxt_id)->Param[1]) + k_id) =
 425              		.loc 1 228 35
 426 0214 FA7B     		ldrb	r2, [r7, #15]	@ zero_extendqisi2
 427 0216 1346     		mov	r3, r2
 428 0218 5B00     		lsls	r3, r3, #1
 429 021a 1344     		add	r3, r3, r2
 430 021c 1B01     		lsls	r3, r3, #4
 431 021e 1A46     		mov	r2, r3
ARM GAS  C:\Users\ep_ygh\AppData\Local\Temp\cctjGRE4.s 			page 13


 432 0220 3B68     		ldr	r3, [r7]
 433 0222 1344     		add	r3, r3, r2
 434              		.loc 1 228 8
 435 0224 03F11A02 		add	r2, r3, #26
 436              		.loc 1 228 59
 437 0228 3B7B     		ldrb	r3, [r7, #12]	@ zero_extendqisi2
 438 022a 1344     		add	r3, r3, r2
 439              		.loc 1 228 67
 440 022c 7A7B     		ldrb	r2, [r7, #13]
 441 022e 1A70     		strb	r2, [r3]
 229:Projects/STM32F401RE-Nucleo/Examples/MotionControl/MicrosteppingMotor/Src/example_usart.c **** 							ch;
 230:Projects/STM32F401RE-Nucleo/Examples/MotionControl/MicrosteppingMotor/Src/example_usart.c **** 					*(((pL6470_TextCommandBundle + CmdTxt_id)->Param[1])
 442              		.loc 1 230 35
 443 0230 FA7B     		ldrb	r2, [r7, #15]	@ zero_extendqisi2
 444 0232 1346     		mov	r3, r2
 445 0234 5B00     		lsls	r3, r3, #1
 446 0236 1344     		add	r3, r3, r2
 447 0238 1B01     		lsls	r3, r3, #4
 448 023a 1A46     		mov	r2, r3
 449 023c 3B68     		ldr	r3, [r7]
 450 023e 1344     		add	r3, r3, r2
 451              		.loc 1 230 8
 452 0240 03F11A02 		add	r2, r3, #26
 231:Projects/STM32F401RE-Nucleo/Examples/MotionControl/MicrosteppingMotor/Src/example_usart.c **** 							+ (k_id + 1)) = '\0';
 453              		.loc 1 231 8
 454 0244 3B7B     		ldrb	r3, [r7, #12]	@ zero_extendqisi2
 455 0246 0133     		adds	r3, r3, #1
 456 0248 1344     		add	r3, r3, r2
 457              		.loc 1 231 22
 458 024a 0022     		movs	r2, #0
 459 024c 1A70     		strb	r2, [r3]
 232:Projects/STM32F401RE-Nucleo/Examples/MotionControl/MicrosteppingMotor/Src/example_usart.c **** 					break;
 460              		.loc 1 232 6
 461 024e 20E0     		b	.L22
 462              	.L17:
 233:Projects/STM32F401RE-Nucleo/Examples/MotionControl/MicrosteppingMotor/Src/example_usart.c **** 				case DECODE_3rd_PARAM:
 234:Projects/STM32F401RE-Nucleo/Examples/MotionControl/MicrosteppingMotor/Src/example_usart.c **** 					k_idmax = 7;
 463              		.loc 1 234 14
 464 0250 0723     		movs	r3, #7
 465 0252 FB72     		strb	r3, [r7, #11]
 235:Projects/STM32F401RE-Nucleo/Examples/MotionControl/MicrosteppingMotor/Src/example_usart.c **** 					*(((pL6470_TextCommandBundle + CmdTxt_id)->Param[2]) + k_id) =
 466              		.loc 1 235 35
 467 0254 FA7B     		ldrb	r2, [r7, #15]	@ zero_extendqisi2
 468 0256 1346     		mov	r3, r2
 469 0258 5B00     		lsls	r3, r3, #1
 470 025a 1344     		add	r3, r3, r2
 471 025c 1B01     		lsls	r3, r3, #4
 472 025e 1A46     		mov	r2, r3
 473 0260 3B68     		ldr	r3, [r7]
 474 0262 1344     		add	r3, r3, r2
 475              		.loc 1 235 8
 476 0264 03F12502 		add	r2, r3, #37
 477              		.loc 1 235 59
 478 0268 3B7B     		ldrb	r3, [r7, #12]	@ zero_extendqisi2
 479 026a 1344     		add	r3, r3, r2
 480              		.loc 1 235 67
 481 026c 7A7B     		ldrb	r2, [r7, #13]
ARM GAS  C:\Users\ep_ygh\AppData\Local\Temp\cctjGRE4.s 			page 14


 482 026e 1A70     		strb	r2, [r3]
 236:Projects/STM32F401RE-Nucleo/Examples/MotionControl/MicrosteppingMotor/Src/example_usart.c **** 							ch;
 237:Projects/STM32F401RE-Nucleo/Examples/MotionControl/MicrosteppingMotor/Src/example_usart.c **** 					*(((pL6470_TextCommandBundle + CmdTxt_id)->Param[2])
 483              		.loc 1 237 35
 484 0270 FA7B     		ldrb	r2, [r7, #15]	@ zero_extendqisi2
 485 0272 1346     		mov	r3, r2
 486 0274 5B00     		lsls	r3, r3, #1
 487 0276 1344     		add	r3, r3, r2
 488 0278 1B01     		lsls	r3, r3, #4
 489 027a 1A46     		mov	r2, r3
 490 027c 3B68     		ldr	r3, [r7]
 491 027e 1344     		add	r3, r3, r2
 492              		.loc 1 237 8
 493 0280 03F12502 		add	r2, r3, #37
 238:Projects/STM32F401RE-Nucleo/Examples/MotionControl/MicrosteppingMotor/Src/example_usart.c **** 							+ (k_id + 1)) = '\0';
 494              		.loc 1 238 8
 495 0284 3B7B     		ldrb	r3, [r7, #12]	@ zero_extendqisi2
 496 0286 0133     		adds	r3, r3, #1
 497 0288 1344     		add	r3, r3, r2
 498              		.loc 1 238 22
 499 028a 0022     		movs	r2, #0
 500 028c 1A70     		strb	r2, [r3]
 239:Projects/STM32F401RE-Nucleo/Examples/MotionControl/MicrosteppingMotor/Src/example_usart.c **** 					break;
 501              		.loc 1 239 6
 502 028e 00E0     		b	.L22
 503              	.L25:
 240:Projects/STM32F401RE-Nucleo/Examples/MotionControl/MicrosteppingMotor/Src/example_usart.c **** 				default:
 241:Projects/STM32F401RE-Nucleo/Examples/MotionControl/MicrosteppingMotor/Src/example_usart.c **** 					break;
 504              		.loc 1 241 6
 505 0290 00BF     		nop
 506              	.L22:
 242:Projects/STM32F401RE-Nucleo/Examples/MotionControl/MicrosteppingMotor/Src/example_usart.c **** 				}
 243:Projects/STM32F401RE-Nucleo/Examples/MotionControl/MicrosteppingMotor/Src/example_usart.c **** 				k_id++;
 507              		.loc 1 243 9
 508 0292 3B7B     		ldrb	r3, [r7, #12]	@ zero_extendqisi2
 509 0294 0133     		adds	r3, r3, #1
 510 0296 3B73     		strb	r3, [r7, #12]
 244:Projects/STM32F401RE-Nucleo/Examples/MotionControl/MicrosteppingMotor/Src/example_usart.c **** 			} else {
 245:Projects/STM32F401RE-Nucleo/Examples/MotionControl/MicrosteppingMotor/Src/example_usart.c **** #ifdef NUCLEO_USE_USART
 246:Projects/STM32F401RE-Nucleo/Examples/MotionControl/MicrosteppingMotor/Src/example_usart.c **** 				USART_Transmit(&huart2, (uint8_t* )"Too much entered character.\r\n\r\n");
 247:Projects/STM32F401RE-Nucleo/Examples/MotionControl/MicrosteppingMotor/Src/example_usart.c **** #endif
 248:Projects/STM32F401RE-Nucleo/Examples/MotionControl/MicrosteppingMotor/Src/example_usart.c **** 				return RESET;
 249:Projects/STM32F401RE-Nucleo/Examples/MotionControl/MicrosteppingMotor/Src/example_usart.c **** 			}
 250:Projects/STM32F401RE-Nucleo/Examples/MotionControl/MicrosteppingMotor/Src/example_usart.c **** 			break;
 511              		.loc 1 250 4
 512 0298 05E0     		b	.L10
 513              	.L13:
 246:Projects/STM32F401RE-Nucleo/Examples/MotionControl/MicrosteppingMotor/Src/example_usart.c **** #endif
 514              		.loc 1 246 5
 515 029a 0E49     		ldr	r1, .L26+12
 516 029c 0B48     		ldr	r0, .L26+4
 517 029e FFF7FEFF 		bl	USART_Transmit
 248:Projects/STM32F401RE-Nucleo/Examples/MotionControl/MicrosteppingMotor/Src/example_usart.c **** 			}
 518              		.loc 1 248 12
 519 02a2 0023     		movs	r3, #0
 520 02a4 0CE0     		b	.L9
 521              	.L10:
ARM GAS  C:\Users\ep_ygh\AppData\Local\Temp\cctjGRE4.s 			page 15


 251:Projects/STM32F401RE-Nucleo/Examples/MotionControl/MicrosteppingMotor/Src/example_usart.c **** 		}
 252:Projects/STM32F401RE-Nucleo/Examples/MotionControl/MicrosteppingMotor/Src/example_usart.c **** 
 253:Projects/STM32F401RE-Nucleo/Examples/MotionControl/MicrosteppingMotor/Src/example_usart.c **** 		c_id++;
 522              		.loc 1 253 7
 523 02a6 BB7B     		ldrb	r3, [r7, #14]	@ zero_extendqisi2
 524 02a8 0133     		adds	r3, r3, #1
 525 02aa BB73     		strb	r3, [r7, #14]
 254:Projects/STM32F401RE-Nucleo/Examples/MotionControl/MicrosteppingMotor/Src/example_usart.c **** 		ch = *(pTextString + c_id);
 526              		.loc 1 254 22
 527 02ac BB7B     		ldrb	r3, [r7, #14]	@ zero_extendqisi2
 528 02ae 7A68     		ldr	r2, [r7, #4]
 529 02b0 1344     		add	r3, r3, r2
 530              		.loc 1 254 6
 531 02b2 1B78     		ldrb	r3, [r3]
 532 02b4 7B73     		strb	r3, [r7, #13]
 533              	.L4:
 168:Projects/STM32F401RE-Nucleo/Examples/MotionControl/MicrosteppingMotor/Src/example_usart.c **** 		switch (ch) {
 534              		.loc 1 168 8
 535 02b6 7B7B     		ldrb	r3, [r7, #13]	@ zero_extendqisi2
 536 02b8 002B     		cmp	r3, #0
 537 02ba 7FF4F2AE 		bne	.L24
 255:Projects/STM32F401RE-Nucleo/Examples/MotionControl/MicrosteppingMotor/Src/example_usart.c **** 	}
 256:Projects/STM32F401RE-Nucleo/Examples/MotionControl/MicrosteppingMotor/Src/example_usart.c **** 	return SET;
 538              		.loc 1 256 9
 539 02be 0123     		movs	r3, #1
 540              	.L9:
 257:Projects/STM32F401RE-Nucleo/Examples/MotionControl/MicrosteppingMotor/Src/example_usart.c **** }
 541              		.loc 1 257 1
 542 02c0 1846     		mov	r0, r3
 543 02c2 1037     		adds	r7, r7, #16
 544              	.LCFI3:
 545              		.cfi_def_cfa_offset 8
 546 02c4 BD46     		mov	sp, r7
 547              	.LCFI4:
 548              		.cfi_def_cfa_register 13
 549              		@ sp needed
 550 02c6 80BD     		pop	{r7, pc}
 551              	.L27:
 552              		.align	2
 553              	.L26:
 554 02c8 00000000 		.word	.LC0
 555 02cc 00000000 		.word	huart2
 556 02d0 24000000 		.word	.LC1
 557 02d4 44000000 		.word	.LC2
 558              		.cfi_endproc
 559              	.LFE128:
 561              		.section	.rodata
 562              		.align	2
 563              	.LC3:
 564 0064 49742069 		.ascii	"It is not possible to identify the L6470.\015\012\015"
 564      73206E6F 
 564      7420706F 
 564      73736962 
 564      6C652074 
 565 0090 0A00     		.ascii	"\012\000"
 566 0092 0000     		.align	2
 567              	.LC4:
ARM GAS  C:\Users\ep_ygh\AppData\Local\Temp\cctjGRE4.s 			page 16


 568 0094 49742069 		.ascii	"It is not possible to recognize any L6470 applicati"
 568      73206E6F 
 568      7420706F 
 568      73736962 
 568      6C652074 
 569 00c7 6F6E2063 		.ascii	"on command.\015\012\015\012\000"
 569      6F6D6D61 
 569      6E642E0D 
 569      0A0D0A00 
 570 00d7 00       		.align	2
 571              	.LC5:
 572 00d8 54686520 		.ascii	"The number of parameters related to the application"
 572      6E756D62 
 572      6572206F 
 572      66207061 
 572      72616D65 
 573 010b 20636F6D 		.ascii	" command is not right.\015\012\015\012\000"
 573      6D616E64 
 573      20697320 
 573      6E6F7420 
 573      72696768 
 574 0126 0000     		.align	2
 575              	.LC6:
 576 0128 49742069 		.ascii	"It is not possible to recognize any L6470 register "
 576      73206E6F 
 576      7420706F 
 576      73736962 
 576      6C652074 
 577 015b 6E616D65 		.ascii	"name.\015\012\015\012\000"
 577      2E0D0A0D 
 577      0A00
 578 0165 000000   		.align	2
 579              	.LC7:
 580 0168 49742069 		.ascii	"It is not possible to recognize any numeric value.\015"
 580      73206E6F 
 580      7420706F 
 580      73736962 
 580      6C652074 
 581 019b 0A0D0A00 		.ascii	"\012\015\012\000"
 582 019f 00       		.align	2
 583              	.LC8:
 584 01a0 49742069 		.ascii	"It is not possible to recognize any direction.\015\012"
 584      73206E6F 
 584      7420706F 
 584      73736962 
 584      6C652074 
 585 01d0 0D0A00   		.ascii	"\015\012\000"
 586 01d3 00       		.align	2
 587              	.LC9:
 588 01d4 49742069 		.ascii	"It is not possible to recognize any action.\015\012"
 588      73206E6F 
 588      7420706F 
 588      73736962 
 588      6C652074 
 589 0201 0D0A00   		.ascii	"\015\012\000"
 590              		.align	2
 591              	.LC10:
ARM GAS  C:\Users\ep_ygh\AppData\Local\Temp\cctjGRE4.s 			page 17


 592 0204 426F7468 		.ascii	"Both entered commands are addressing the same L6470"
 592      20656E74 
 592      65726564 
 592      20636F6D 
 592      6D616E64 
 593 0237 2E0D0A0D 		.ascii	".\015\012\015\012\000"
 593      0A00
 594              		.section	.text.USART_CheckTextCommandBundle,"ax",%progbits
 595              		.align	1
 596              		.global	USART_CheckTextCommandBundle
 597              		.syntax unified
 598              		.thumb
 599              		.thumb_func
 601              	USART_CheckTextCommandBundle:
 602              	.LFB129:
 258:Projects/STM32F401RE-Nucleo/Examples/MotionControl/MicrosteppingMotor/Src/example_usart.c **** 
 259:Projects/STM32F401RE-Nucleo/Examples/MotionControl/MicrosteppingMotor/Src/example_usart.c **** /**
 260:Projects/STM32F401RE-Nucleo/Examples/MotionControl/MicrosteppingMotor/Src/example_usart.c ****  * @brief Check the entered command for L6470
 261:Projects/STM32F401RE-Nucleo/Examples/MotionControl/MicrosteppingMotor/Src/example_usart.c ****  * @retval FlagStatus  SET or RESET related to the result
 262:Projects/STM32F401RE-Nucleo/Examples/MotionControl/MicrosteppingMotor/Src/example_usart.c ****  */
 263:Projects/STM32F401RE-Nucleo/Examples/MotionControl/MicrosteppingMotor/Src/example_usart.c **** FlagStatus USART_CheckTextCommandBundle(
 264:Projects/STM32F401RE-Nucleo/Examples/MotionControl/MicrosteppingMotor/Src/example_usart.c **** 		sL6470_TextCommandBundle *pL6470_TextCommandBundle,
 265:Projects/STM32F401RE-Nucleo/Examples/MotionControl/MicrosteppingMotor/Src/example_usart.c **** 		uint8_t* pL6470_DaisyChainSpiTxStruct) {
 603              		.loc 1 265 42
 604              		.cfi_startproc
 605              		@ args = 0, pretend = 0, frame = 48
 606              		@ frame_needed = 1, uses_anonymous_args = 0
 607 0000 80B5     		push	{r7, lr}
 608              	.LCFI5:
 609              		.cfi_def_cfa_offset 8
 610              		.cfi_offset 7, -8
 611              		.cfi_offset 14, -4
 612 0002 8CB0     		sub	sp, sp, #48
 613              	.LCFI6:
 614              		.cfi_def_cfa_offset 56
 615 0004 00AF     		add	r7, sp, #0
 616              	.LCFI7:
 617              		.cfi_def_cfa_register 7
 618 0006 7860     		str	r0, [r7, #4]
 619 0008 3960     		str	r1, [r7]
 266:Projects/STM32F401RE-Nucleo/Examples/MotionControl/MicrosteppingMotor/Src/example_usart.c **** 	uint8_t PkgId;
 267:Projects/STM32F401RE-Nucleo/Examples/MotionControl/MicrosteppingMotor/Src/example_usart.c **** 	uint8_t spibyte;
 268:Projects/STM32F401RE-Nucleo/Examples/MotionControl/MicrosteppingMotor/Src/example_usart.c **** 	uint8_t i;
 269:Projects/STM32F401RE-Nucleo/Examples/MotionControl/MicrosteppingMotor/Src/example_usart.c **** 	uint8_t CmdTxt_id; /* To index the string command */
 270:Projects/STM32F401RE-Nucleo/Examples/MotionControl/MicrosteppingMotor/Src/example_usart.c **** 	uint8_t MotorMnemonic[4] = "";
 620              		.loc 1 270 10
 621 000a 0023     		movs	r3, #0
 622 000c 3B61     		str	r3, [r7, #16]
 271:Projects/STM32F401RE-Nucleo/Examples/MotionControl/MicrosteppingMotor/Src/example_usart.c **** 	uint8_t* pMotorMnemonic = MotorMnemonic;
 623              		.loc 1 271 11
 624 000e 07F11003 		add	r3, r7, #16
 625 0012 BB62     		str	r3, [r7, #40]
 272:Projects/STM32F401RE-Nucleo/Examples/MotionControl/MicrosteppingMotor/Src/example_usart.c **** 	uint8_t L6470_Id;
 273:Projects/STM32F401RE-Nucleo/Examples/MotionControl/MicrosteppingMotor/Src/example_usart.c **** 	eL6470_AppCmdId_t L6470_AppCmdId;
 274:Projects/STM32F401RE-Nucleo/Examples/MotionControl/MicrosteppingMotor/Src/example_usart.c **** 	uint8_t nr_parameters; /* The max number of parameters related to the actual L6470 Application Com
 275:Projects/STM32F401RE-Nucleo/Examples/MotionControl/MicrosteppingMotor/Src/example_usart.c **** 	eL6470_RegId_t L6470_RegId;
 276:Projects/STM32F401RE-Nucleo/Examples/MotionControl/MicrosteppingMotor/Src/example_usart.c **** 	uint8_t PARAMLengthBytes; /* The number of bytes related to the numeric value for the addressed re
ARM GAS  C:\Users\ep_ygh\AppData\Local\Temp\cctjGRE4.s 			page 18


 277:Projects/STM32F401RE-Nucleo/Examples/MotionControl/MicrosteppingMotor/Src/example_usart.c **** 	uint32_t NumericValue; /* The numeric value to be used into the application command */
 278:Projects/STM32F401RE-Nucleo/Examples/MotionControl/MicrosteppingMotor/Src/example_usart.c **** 	eL6470_DirId_t L6470_DirId;
 279:Projects/STM32F401RE-Nucleo/Examples/MotionControl/MicrosteppingMotor/Src/example_usart.c **** 	eL6470_ActId_t L6470_ActId;
 280:Projects/STM32F401RE-Nucleo/Examples/MotionControl/MicrosteppingMotor/Src/example_usart.c **** 
 281:Projects/STM32F401RE-Nucleo/Examples/MotionControl/MicrosteppingMotor/Src/example_usart.c **** 	uint32_t motorPosition0;
 282:Projects/STM32F401RE-Nucleo/Examples/MotionControl/MicrosteppingMotor/Src/example_usart.c **** 	uint32_t motorPosition1;
 283:Projects/STM32F401RE-Nucleo/Examples/MotionControl/MicrosteppingMotor/Src/example_usart.c **** 
 284:Projects/STM32F401RE-Nucleo/Examples/MotionControl/MicrosteppingMotor/Src/example_usart.c **** 	/* Reset the structure used to send the command to the L6470 Daisy Chain through the SPI */
 285:Projects/STM32F401RE-Nucleo/Examples/MotionControl/MicrosteppingMotor/Src/example_usart.c **** 	i = 0;
 626              		.loc 1 285 4
 627 0014 0023     		movs	r3, #0
 628 0016 87F82D30 		strb	r3, [r7, #45]
 286:Projects/STM32F401RE-Nucleo/Examples/MotionControl/MicrosteppingMotor/Src/example_usart.c **** 	for (spibyte = 0; spibyte < L6470MAXSPICMDBYTESIZE; spibyte++)
 629              		.loc 1 286 15
 630 001a 0023     		movs	r3, #0
 631 001c 87F82E30 		strb	r3, [r7, #46]
 632              		.loc 1 286 2
 633 0020 1BE0     		b	.L29
 634              	.L32:
 287:Projects/STM32F401RE-Nucleo/Examples/MotionControl/MicrosteppingMotor/Src/example_usart.c **** 		for (PkgId = 0; PkgId < L6470DAISYCHAINSIZE; PkgId++)
 635              		.loc 1 287 14
 636 0022 0023     		movs	r3, #0
 637 0024 87F82F30 		strb	r3, [r7, #47]
 638              		.loc 1 287 3
 639 0028 0EE0     		b	.L30
 640              	.L31:
 288:Projects/STM32F401RE-Nucleo/Examples/MotionControl/MicrosteppingMotor/Src/example_usart.c **** 			*(pL6470_DaisyChainSpiTxStruct + (i++)) = 0x00;
 641              		.loc 1 288 39 discriminator 3
 642 002a 97F82D30 		ldrb	r3, [r7, #45]	@ zero_extendqisi2
 643 002e 5A1C     		adds	r2, r3, #1
 644 0030 87F82D20 		strb	r2, [r7, #45]
 645 0034 1A46     		mov	r2, r3
 646              		.loc 1 288 35 discriminator 3
 647 0036 3B68     		ldr	r3, [r7]
 648 0038 1344     		add	r3, r3, r2
 649              		.loc 1 288 44 discriminator 3
 650 003a 0022     		movs	r2, #0
 651 003c 1A70     		strb	r2, [r3]
 287:Projects/STM32F401RE-Nucleo/Examples/MotionControl/MicrosteppingMotor/Src/example_usart.c **** 		for (PkgId = 0; PkgId < L6470DAISYCHAINSIZE; PkgId++)
 652              		.loc 1 287 53 discriminator 3
 653 003e 97F82F30 		ldrb	r3, [r7, #47]	@ zero_extendqisi2
 654 0042 0133     		adds	r3, r3, #1
 655 0044 87F82F30 		strb	r3, [r7, #47]
 656              	.L30:
 287:Projects/STM32F401RE-Nucleo/Examples/MotionControl/MicrosteppingMotor/Src/example_usart.c **** 		for (PkgId = 0; PkgId < L6470DAISYCHAINSIZE; PkgId++)
 657              		.loc 1 287 3 discriminator 1
 658 0048 97F82F30 		ldrb	r3, [r7, #47]	@ zero_extendqisi2
 659 004c 012B     		cmp	r3, #1
 660 004e ECD9     		bls	.L31
 286:Projects/STM32F401RE-Nucleo/Examples/MotionControl/MicrosteppingMotor/Src/example_usart.c **** 	for (spibyte = 0; spibyte < L6470MAXSPICMDBYTESIZE; spibyte++)
 661              		.loc 1 286 61 discriminator 2
 662 0050 97F82E30 		ldrb	r3, [r7, #46]	@ zero_extendqisi2
 663 0054 0133     		adds	r3, r3, #1
 664 0056 87F82E30 		strb	r3, [r7, #46]
 665              	.L29:
 286:Projects/STM32F401RE-Nucleo/Examples/MotionControl/MicrosteppingMotor/Src/example_usart.c **** 	for (spibyte = 0; spibyte < L6470MAXSPICMDBYTESIZE; spibyte++)
 666              		.loc 1 286 2 discriminator 1
ARM GAS  C:\Users\ep_ygh\AppData\Local\Temp\cctjGRE4.s 			page 19


 667 005a 97F82E30 		ldrb	r3, [r7, #46]	@ zero_extendqisi2
 668 005e 032B     		cmp	r3, #3
 669 0060 DFD9     		bls	.L32
 289:Projects/STM32F401RE-Nucleo/Examples/MotionControl/MicrosteppingMotor/Src/example_usart.c **** 
 290:Projects/STM32F401RE-Nucleo/Examples/MotionControl/MicrosteppingMotor/Src/example_usart.c **** 	/* Reset the object pointed by mMnemonic */
 291:Projects/STM32F401RE-Nucleo/Examples/MotionControl/MicrosteppingMotor/Src/example_usart.c **** 	*pMotorMnemonic = '\0';
 670              		.loc 1 291 18
 671 0062 BB6A     		ldr	r3, [r7, #40]
 672 0064 0022     		movs	r2, #0
 673 0066 1A70     		strb	r2, [r3]
 292:Projects/STM32F401RE-Nucleo/Examples/MotionControl/MicrosteppingMotor/Src/example_usart.c **** 
 293:Projects/STM32F401RE-Nucleo/Examples/MotionControl/MicrosteppingMotor/Src/example_usart.c **** 	CmdTxt_id = 0;
 674              		.loc 1 293 12
 675 0068 0023     		movs	r3, #0
 676 006a 87F82C30 		strb	r3, [r7, #44]
 677              	.L109:
 294:Projects/STM32F401RE-Nucleo/Examples/MotionControl/MicrosteppingMotor/Src/example_usart.c **** 	do {
 295:Projects/STM32F401RE-Nucleo/Examples/MotionControl/MicrosteppingMotor/Src/example_usart.c **** 
 296:Projects/STM32F401RE-Nucleo/Examples/MotionControl/MicrosteppingMotor/Src/example_usart.c **** 		/* Checks which L6470 in the daisy chain has to be addressed ************** */
 297:Projects/STM32F401RE-Nucleo/Examples/MotionControl/MicrosteppingMotor/Src/example_usart.c **** 		i = 0;
 678              		.loc 1 297 5
 679 006e 0023     		movs	r3, #0
 680 0070 87F82D30 		strb	r3, [r7, #45]
 298:Projects/STM32F401RE-Nucleo/Examples/MotionControl/MicrosteppingMotor/Src/example_usart.c **** 		while (!CompareTwoTextString(
 681              		.loc 1 298 9
 682 0074 0FE0     		b	.L33
 683              	.L35:
 299:Projects/STM32F401RE-Nucleo/Examples/MotionControl/MicrosteppingMotor/Src/example_usart.c **** 				(uint8_t*) (pL6470_TextCommandBundle + CmdTxt_id)->MotorName,
 300:Projects/STM32F401RE-Nucleo/Examples/MotionControl/MicrosteppingMotor/Src/example_usart.c **** 				(uint8_t*) L6470_DaisyChainMnemonic[i].MotorIdMnemonic)) {
 301:Projects/STM32F401RE-Nucleo/Examples/MotionControl/MicrosteppingMotor/Src/example_usart.c **** 			i++;
 684              		.loc 1 301 5
 685 0076 97F82D30 		ldrb	r3, [r7, #45]	@ zero_extendqisi2
 686 007a 0133     		adds	r3, r3, #1
 687 007c 87F82D30 		strb	r3, [r7, #45]
 302:Projects/STM32F401RE-Nucleo/Examples/MotionControl/MicrosteppingMotor/Src/example_usart.c **** 			if (i == L6470DAISYCHAINSIZE) {
 688              		.loc 1 302 7
 689 0080 97F82D30 		ldrb	r3, [r7, #45]	@ zero_extendqisi2
 690 0084 022B     		cmp	r3, #2
 691 0086 06D1     		bne	.L33
 303:Projects/STM32F401RE-Nucleo/Examples/MotionControl/MicrosteppingMotor/Src/example_usart.c **** #ifdef NUCLEO_USE_USART
 304:Projects/STM32F401RE-Nucleo/Examples/MotionControl/MicrosteppingMotor/Src/example_usart.c **** 				USART_Transmit(&huart2, (uint8_t* )"It is not possible to identify the L6470.\r\n\r\n");
 692              		.loc 1 304 5
 693 0088 CD49     		ldr	r1, .L111
 694 008a CE48     		ldr	r0, .L111+4
 695 008c FFF7FEFF 		bl	USART_Transmit
 305:Projects/STM32F401RE-Nucleo/Examples/MotionControl/MicrosteppingMotor/Src/example_usart.c **** #endif
 306:Projects/STM32F401RE-Nucleo/Examples/MotionControl/MicrosteppingMotor/Src/example_usart.c **** 				return RESET;
 696              		.loc 1 306 12
 697 0090 0023     		movs	r3, #0
 698 0092 00F0A8BD 		b	.L110
 699              	.L33:
 299:Projects/STM32F401RE-Nucleo/Examples/MotionControl/MicrosteppingMotor/Src/example_usart.c **** 				(uint8_t*) L6470_DaisyChainMnemonic[i].MotorIdMnemonic)) {
 700              		.loc 1 299 42
 701 0096 97F82C20 		ldrb	r2, [r7, #44]	@ zero_extendqisi2
 702 009a 1346     		mov	r3, r2
 703 009c 5B00     		lsls	r3, r3, #1
 704 009e 1344     		add	r3, r3, r2
ARM GAS  C:\Users\ep_ygh\AppData\Local\Temp\cctjGRE4.s 			page 20


 705 00a0 1B01     		lsls	r3, r3, #4
 706 00a2 1A46     		mov	r2, r3
 707 00a4 7B68     		ldr	r3, [r7, #4]
 708 00a6 1344     		add	r3, r3, r2
 299:Projects/STM32F401RE-Nucleo/Examples/MotionControl/MicrosteppingMotor/Src/example_usart.c **** 				(uint8_t*) L6470_DaisyChainMnemonic[i].MotorIdMnemonic)) {
 709              		.loc 1 299 16
 710 00a8 1846     		mov	r0, r3
 300:Projects/STM32F401RE-Nucleo/Examples/MotionControl/MicrosteppingMotor/Src/example_usart.c **** 			i++;
 711              		.loc 1 300 43
 712 00aa 97F82D20 		ldrb	r2, [r7, #45]	@ zero_extendqisi2
 300:Projects/STM32F401RE-Nucleo/Examples/MotionControl/MicrosteppingMotor/Src/example_usart.c **** 			i++;
 713              		.loc 1 300 16
 714 00ae 1346     		mov	r3, r2
 715 00b0 5B00     		lsls	r3, r3, #1
 716 00b2 1344     		add	r3, r3, r2
 717 00b4 9B00     		lsls	r3, r3, #2
 718 00b6 1344     		add	r3, r3, r2
 719 00b8 0833     		adds	r3, r3, #8
 720 00ba C34A     		ldr	r2, .L111+8
 721 00bc 1344     		add	r3, r3, r2
 722 00be 0133     		adds	r3, r3, #1
 298:Projects/STM32F401RE-Nucleo/Examples/MotionControl/MicrosteppingMotor/Src/example_usart.c **** 				(uint8_t*) (pL6470_TextCommandBundle + CmdTxt_id)->MotorName,
 723              		.loc 1 298 11
 724 00c0 1946     		mov	r1, r3
 725 00c2 FFF7FEFF 		bl	CompareTwoTextString
 726 00c6 0346     		mov	r3, r0
 298:Projects/STM32F401RE-Nucleo/Examples/MotionControl/MicrosteppingMotor/Src/example_usart.c **** 				(uint8_t*) (pL6470_TextCommandBundle + CmdTxt_id)->MotorName,
 727              		.loc 1 298 9
 728 00c8 002B     		cmp	r3, #0
 729 00ca D4D0     		beq	.L35
 307:Projects/STM32F401RE-Nucleo/Examples/MotionControl/MicrosteppingMotor/Src/example_usart.c **** 			}
 308:Projects/STM32F401RE-Nucleo/Examples/MotionControl/MicrosteppingMotor/Src/example_usart.c **** 		}
 309:Projects/STM32F401RE-Nucleo/Examples/MotionControl/MicrosteppingMotor/Src/example_usart.c **** 
 310:Projects/STM32F401RE-Nucleo/Examples/MotionControl/MicrosteppingMotor/Src/example_usart.c **** 		/* The L6470 to address is known */
 311:Projects/STM32F401RE-Nucleo/Examples/MotionControl/MicrosteppingMotor/Src/example_usart.c **** 		L6470_Id = L6470_ID(i);
 730              		.loc 1 311 14
 731 00cc 97F82D30 		ldrb	r3, [r7, #45]	@ zero_extendqisi2
 732 00d0 1846     		mov	r0, r3
 733 00d2 FFF7FEFF 		bl	L6470_ID
 734 00d6 0346     		mov	r3, r0
 735 00d8 87F82330 		strb	r3, [r7, #35]
 312:Projects/STM32F401RE-Nucleo/Examples/MotionControl/MicrosteppingMotor/Src/example_usart.c **** 
 313:Projects/STM32F401RE-Nucleo/Examples/MotionControl/MicrosteppingMotor/Src/example_usart.c **** 		/* Check for different addressed L6470 */
 314:Projects/STM32F401RE-Nucleo/Examples/MotionControl/MicrosteppingMotor/Src/example_usart.c **** 		if (!CompareTwoTextString(
 315:Projects/STM32F401RE-Nucleo/Examples/MotionControl/MicrosteppingMotor/Src/example_usart.c **** 				(uint8_t*) L6470_DaisyChainMnemonic[i].MotorIdMnemonic,
 736              		.loc 1 315 43
 737 00dc 97F82D20 		ldrb	r2, [r7, #45]	@ zero_extendqisi2
 738              		.loc 1 315 16
 739 00e0 1346     		mov	r3, r2
 740 00e2 5B00     		lsls	r3, r3, #1
 741 00e4 1344     		add	r3, r3, r2
 742 00e6 9B00     		lsls	r3, r3, #2
 743 00e8 1344     		add	r3, r3, r2
 744 00ea 0833     		adds	r3, r3, #8
 745 00ec B64A     		ldr	r2, .L111+8
 746 00ee 1344     		add	r3, r3, r2
 747 00f0 0133     		adds	r3, r3, #1
ARM GAS  C:\Users\ep_ygh\AppData\Local\Temp\cctjGRE4.s 			page 21


 314:Projects/STM32F401RE-Nucleo/Examples/MotionControl/MicrosteppingMotor/Src/example_usart.c **** 				(uint8_t*) L6470_DaisyChainMnemonic[i].MotorIdMnemonic,
 748              		.loc 1 314 8
 749 00f2 B96A     		ldr	r1, [r7, #40]
 750 00f4 1846     		mov	r0, r3
 751 00f6 FFF7FEFF 		bl	CompareTwoTextString
 752 00fa 0346     		mov	r3, r0
 314:Projects/STM32F401RE-Nucleo/Examples/MotionControl/MicrosteppingMotor/Src/example_usart.c **** 				(uint8_t*) L6470_DaisyChainMnemonic[i].MotorIdMnemonic,
 753              		.loc 1 314 6
 754 00fc 002B     		cmp	r3, #0
 755 00fe 40F02085 		bne	.L36
 316:Projects/STM32F401RE-Nucleo/Examples/MotionControl/MicrosteppingMotor/Src/example_usart.c **** 				pMotorMnemonic)) {
 317:Projects/STM32F401RE-Nucleo/Examples/MotionControl/MicrosteppingMotor/Src/example_usart.c **** 			pMotorMnemonic =
 318:Projects/STM32F401RE-Nucleo/Examples/MotionControl/MicrosteppingMotor/Src/example_usart.c **** 					(uint8_t*) L6470_DaisyChainMnemonic[i].MotorIdMnemonic;
 756              		.loc 1 318 44
 757 0102 97F82D20 		ldrb	r2, [r7, #45]	@ zero_extendqisi2
 317:Projects/STM32F401RE-Nucleo/Examples/MotionControl/MicrosteppingMotor/Src/example_usart.c **** 					(uint8_t*) L6470_DaisyChainMnemonic[i].MotorIdMnemonic;
 758              		.loc 1 317 19
 759 0106 1346     		mov	r3, r2
 760 0108 5B00     		lsls	r3, r3, #1
 761 010a 1344     		add	r3, r3, r2
 762 010c 9B00     		lsls	r3, r3, #2
 763 010e 1344     		add	r3, r3, r2
 764 0110 0833     		adds	r3, r3, #8
 765 0112 AD4A     		ldr	r2, .L111+8
 766 0114 1344     		add	r3, r3, r2
 767 0116 0133     		adds	r3, r3, #1
 768 0118 BB62     		str	r3, [r7, #40]
 319:Projects/STM32F401RE-Nucleo/Examples/MotionControl/MicrosteppingMotor/Src/example_usart.c **** 			/* ************************************************************************ */
 320:Projects/STM32F401RE-Nucleo/Examples/MotionControl/MicrosteppingMotor/Src/example_usart.c **** 
 321:Projects/STM32F401RE-Nucleo/Examples/MotionControl/MicrosteppingMotor/Src/example_usart.c **** 			/* Checks which Application Command has to be performed ******************* */
 322:Projects/STM32F401RE-Nucleo/Examples/MotionControl/MicrosteppingMotor/Src/example_usart.c **** 			L6470_AppCmdId = (eL6470_AppCmdId_t) 0;
 769              		.loc 1 322 19
 770 011a 0023     		movs	r3, #0
 771 011c 87F82730 		strb	r3, [r7, #39]
 323:Projects/STM32F401RE-Nucleo/Examples/MotionControl/MicrosteppingMotor/Src/example_usart.c **** 			while (!CompareTwoTextString(
 772              		.loc 1 323 10
 773 0120 0FE0     		b	.L37
 774              	.L38:
 324:Projects/STM32F401RE-Nucleo/Examples/MotionControl/MicrosteppingMotor/Src/example_usart.c **** 					(uint8_t*) (pL6470_TextCommandBundle + CmdTxt_id)->CommandName,
 325:Projects/STM32F401RE-Nucleo/Examples/MotionControl/MicrosteppingMotor/Src/example_usart.c **** 					(uint8_t*) L6470_ApplicationCommand[L6470_AppCmdId].Mnemonic)) {
 326:Projects/STM32F401RE-Nucleo/Examples/MotionControl/MicrosteppingMotor/Src/example_usart.c **** 				L6470_AppCmdId++;
 775              		.loc 1 326 19
 776 0122 97F82730 		ldrb	r3, [r7, #39]	@ zero_extendqisi2
 777 0126 0133     		adds	r3, r3, #1
 778 0128 87F82730 		strb	r3, [r7, #39]
 327:Projects/STM32F401RE-Nucleo/Examples/MotionControl/MicrosteppingMotor/Src/example_usart.c **** 				if (L6470_AppCmdId == L6470APPCMDIDSIZE) {
 779              		.loc 1 327 8
 780 012c 97F82730 		ldrb	r3, [r7, #39]	@ zero_extendqisi2
 781 0130 142B     		cmp	r3, #20
 782 0132 06D1     		bne	.L37
 328:Projects/STM32F401RE-Nucleo/Examples/MotionControl/MicrosteppingMotor/Src/example_usart.c **** #ifdef NUCLEO_USE_USART
 329:Projects/STM32F401RE-Nucleo/Examples/MotionControl/MicrosteppingMotor/Src/example_usart.c **** 					USART_Transmit(&huart2, (uint8_t* )"It is not possible to recognize any L6470 application comm
 783              		.loc 1 329 6
 784 0134 A549     		ldr	r1, .L111+12
 785 0136 A348     		ldr	r0, .L111+4
 786 0138 FFF7FEFF 		bl	USART_Transmit
 330:Projects/STM32F401RE-Nucleo/Examples/MotionControl/MicrosteppingMotor/Src/example_usart.c **** #endif
ARM GAS  C:\Users\ep_ygh\AppData\Local\Temp\cctjGRE4.s 			page 22


 331:Projects/STM32F401RE-Nucleo/Examples/MotionControl/MicrosteppingMotor/Src/example_usart.c **** 					return RESET;
 787              		.loc 1 331 13
 788 013c 0023     		movs	r3, #0
 789 013e 00F052BD 		b	.L110
 790              	.L37:
 324:Projects/STM32F401RE-Nucleo/Examples/MotionControl/MicrosteppingMotor/Src/example_usart.c **** 					(uint8_t*) L6470_ApplicationCommand[L6470_AppCmdId].Mnemonic)) {
 791              		.loc 1 324 43
 792 0142 97F82C20 		ldrb	r2, [r7, #44]	@ zero_extendqisi2
 793 0146 1346     		mov	r3, r2
 794 0148 5B00     		lsls	r3, r3, #1
 795 014a 1344     		add	r3, r3, r2
 796 014c 1B01     		lsls	r3, r3, #4
 797 014e 1A46     		mov	r2, r3
 798 0150 7B68     		ldr	r3, [r7, #4]
 799 0152 1344     		add	r3, r3, r2
 324:Projects/STM32F401RE-Nucleo/Examples/MotionControl/MicrosteppingMotor/Src/example_usart.c **** 					(uint8_t*) L6470_ApplicationCommand[L6470_AppCmdId].Mnemonic)) {
 800              		.loc 1 324 17
 801 0154 D81C     		adds	r0, r3, #3
 325:Projects/STM32F401RE-Nucleo/Examples/MotionControl/MicrosteppingMotor/Src/example_usart.c **** 				L6470_AppCmdId++;
 802              		.loc 1 325 57
 803 0156 97F82720 		ldrb	r2, [r7, #39]	@ zero_extendqisi2
 325:Projects/STM32F401RE-Nucleo/Examples/MotionControl/MicrosteppingMotor/Src/example_usart.c **** 				L6470_AppCmdId++;
 804              		.loc 1 325 17
 805 015a 1346     		mov	r3, r2
 806 015c DB00     		lsls	r3, r3, #3
 807 015e 9B1A     		subs	r3, r3, r2
 808 0160 5B00     		lsls	r3, r3, #1
 809 0162 9B4A     		ldr	r2, .L111+16
 810 0164 1344     		add	r3, r3, r2
 323:Projects/STM32F401RE-Nucleo/Examples/MotionControl/MicrosteppingMotor/Src/example_usart.c **** 					(uint8_t*) (pL6470_TextCommandBundle + CmdTxt_id)->CommandName,
 811              		.loc 1 323 12
 812 0166 1946     		mov	r1, r3
 813 0168 FFF7FEFF 		bl	CompareTwoTextString
 814 016c 0346     		mov	r3, r0
 323:Projects/STM32F401RE-Nucleo/Examples/MotionControl/MicrosteppingMotor/Src/example_usart.c **** 					(uint8_t*) (pL6470_TextCommandBundle + CmdTxt_id)->CommandName,
 815              		.loc 1 323 10
 816 016e 002B     		cmp	r3, #0
 817 0170 D7D0     		beq	.L38
 332:Projects/STM32F401RE-Nucleo/Examples/MotionControl/MicrosteppingMotor/Src/example_usart.c **** 				}
 333:Projects/STM32F401RE-Nucleo/Examples/MotionControl/MicrosteppingMotor/Src/example_usart.c **** 			}
 334:Projects/STM32F401RE-Nucleo/Examples/MotionControl/MicrosteppingMotor/Src/example_usart.c **** 			/* The application Command to perform is known */
 335:Projects/STM32F401RE-Nucleo/Examples/MotionControl/MicrosteppingMotor/Src/example_usart.c **** 			/* The max number of parameters has to be the following */
 336:Projects/STM32F401RE-Nucleo/Examples/MotionControl/MicrosteppingMotor/Src/example_usart.c **** 			nr_parameters =
 337:Projects/STM32F401RE-Nucleo/Examples/MotionControl/MicrosteppingMotor/Src/example_usart.c **** 					L6470_ApplicationCommand[L6470_AppCmdId].NrOfParameters;
 818              		.loc 1 337 46
 819 0172 97F82720 		ldrb	r2, [r7, #39]	@ zero_extendqisi2
 336:Projects/STM32F401RE-Nucleo/Examples/MotionControl/MicrosteppingMotor/Src/example_usart.c **** 					L6470_ApplicationCommand[L6470_AppCmdId].NrOfParameters;
 820              		.loc 1 336 18
 821 0176 9649     		ldr	r1, .L111+16
 822 0178 1346     		mov	r3, r2
 823 017a DB00     		lsls	r3, r3, #3
 824 017c 9B1A     		subs	r3, r3, r2
 825 017e 5B00     		lsls	r3, r3, #1
 826 0180 0B44     		add	r3, r3, r1
 827 0182 0D33     		adds	r3, r3, #13
 828 0184 1B78     		ldrb	r3, [r3]
 829 0186 87F82230 		strb	r3, [r7, #34]
ARM GAS  C:\Users\ep_ygh\AppData\Local\Temp\cctjGRE4.s 			page 23


 338:Projects/STM32F401RE-Nucleo/Examples/MotionControl/MicrosteppingMotor/Src/example_usart.c **** 
 339:Projects/STM32F401RE-Nucleo/Examples/MotionControl/MicrosteppingMotor/Src/example_usart.c **** 			/* Check for a right number of entered command parameters */
 340:Projects/STM32F401RE-Nucleo/Examples/MotionControl/MicrosteppingMotor/Src/example_usart.c **** 			i = 0;
 830              		.loc 1 340 6
 831 018a 0023     		movs	r3, #0
 832 018c 87F82D30 		strb	r3, [r7, #45]
 341:Projects/STM32F401RE-Nucleo/Examples/MotionControl/MicrosteppingMotor/Src/example_usart.c **** 			while (i < nr_parameters) {
 833              		.loc 1 341 10
 834 0190 20E0     		b	.L39
 835              	.L41:
 342:Projects/STM32F401RE-Nucleo/Examples/MotionControl/MicrosteppingMotor/Src/example_usart.c **** 				if ((*((pL6470_TextCommandBundle + CmdTxt_id)->Param[i]))
 836              		.loc 1 342 38
 837 0192 97F82C20 		ldrb	r2, [r7, #44]	@ zero_extendqisi2
 838 0196 1346     		mov	r3, r2
 839 0198 5B00     		lsls	r3, r3, #1
 840 019a 1344     		add	r3, r3, r2
 841 019c 1B01     		lsls	r3, r3, #4
 842 019e 1A46     		mov	r2, r3
 843 01a0 7B68     		ldr	r3, [r7, #4]
 844 01a2 9918     		adds	r1, r3, r2
 845              		.loc 1 342 10
 846 01a4 97F82D20 		ldrb	r2, [r7, #45]	@ zero_extendqisi2
 847 01a8 1346     		mov	r3, r2
 848 01aa 9B00     		lsls	r3, r3, #2
 849 01ac 1344     		add	r3, r3, r2
 850 01ae 5B00     		lsls	r3, r3, #1
 851 01b0 1344     		add	r3, r3, r2
 852 01b2 0B44     		add	r3, r3, r1
 853 01b4 0F33     		adds	r3, r3, #15
 854 01b6 1B78     		ldrb	r3, [r3]	@ zero_extendqisi2
 855              		.loc 1 342 8
 856 01b8 002B     		cmp	r3, #0
 857 01ba 06D1     		bne	.L40
 343:Projects/STM32F401RE-Nucleo/Examples/MotionControl/MicrosteppingMotor/Src/example_usart.c **** 						== '\0') {
 344:Projects/STM32F401RE-Nucleo/Examples/MotionControl/MicrosteppingMotor/Src/example_usart.c **** #ifdef NUCLEO_USE_USART
 345:Projects/STM32F401RE-Nucleo/Examples/MotionControl/MicrosteppingMotor/Src/example_usart.c **** 					USART_Transmit(&huart2, (uint8_t* )"The number of parameters related to the application comman
 858              		.loc 1 345 6
 859 01bc 8549     		ldr	r1, .L111+20
 860 01be 8148     		ldr	r0, .L111+4
 861 01c0 FFF7FEFF 		bl	USART_Transmit
 346:Projects/STM32F401RE-Nucleo/Examples/MotionControl/MicrosteppingMotor/Src/example_usart.c **** #endif
 347:Projects/STM32F401RE-Nucleo/Examples/MotionControl/MicrosteppingMotor/Src/example_usart.c **** 					return RESET;
 862              		.loc 1 347 13
 863 01c4 0023     		movs	r3, #0
 864 01c6 00F00EBD 		b	.L110
 865              	.L40:
 348:Projects/STM32F401RE-Nucleo/Examples/MotionControl/MicrosteppingMotor/Src/example_usart.c **** 				} else {
 349:Projects/STM32F401RE-Nucleo/Examples/MotionControl/MicrosteppingMotor/Src/example_usart.c **** 					i++;
 866              		.loc 1 349 7
 867 01ca 97F82D30 		ldrb	r3, [r7, #45]	@ zero_extendqisi2
 868 01ce 0133     		adds	r3, r3, #1
 869 01d0 87F82D30 		strb	r3, [r7, #45]
 870              	.L39:
 341:Projects/STM32F401RE-Nucleo/Examples/MotionControl/MicrosteppingMotor/Src/example_usart.c **** 				if ((*((pL6470_TextCommandBundle + CmdTxt_id)->Param[i]))
 871              		.loc 1 341 10
 872 01d4 97F82D20 		ldrb	r2, [r7, #45]	@ zero_extendqisi2
 873 01d8 97F82230 		ldrb	r3, [r7, #34]	@ zero_extendqisi2
ARM GAS  C:\Users\ep_ygh\AppData\Local\Temp\cctjGRE4.s 			page 24


 874 01dc 9A42     		cmp	r2, r3
 875 01de D8D3     		bcc	.L41
 350:Projects/STM32F401RE-Nucleo/Examples/MotionControl/MicrosteppingMotor/Src/example_usart.c **** 				}
 351:Projects/STM32F401RE-Nucleo/Examples/MotionControl/MicrosteppingMotor/Src/example_usart.c **** 			}
 352:Projects/STM32F401RE-Nucleo/Examples/MotionControl/MicrosteppingMotor/Src/example_usart.c **** 			if (i < 3) /* Max possible parameters */
 876              		.loc 1 352 7
 877 01e0 97F82D30 		ldrb	r3, [r7, #45]	@ zero_extendqisi2
 878 01e4 022B     		cmp	r3, #2
 879 01e6 1BD8     		bhi	.L42
 353:Projects/STM32F401RE-Nucleo/Examples/MotionControl/MicrosteppingMotor/Src/example_usart.c **** 			{
 354:Projects/STM32F401RE-Nucleo/Examples/MotionControl/MicrosteppingMotor/Src/example_usart.c **** 				if ((*((pL6470_TextCommandBundle + CmdTxt_id)->Param[i]))
 880              		.loc 1 354 38
 881 01e8 97F82C20 		ldrb	r2, [r7, #44]	@ zero_extendqisi2
 882 01ec 1346     		mov	r3, r2
 883 01ee 5B00     		lsls	r3, r3, #1
 884 01f0 1344     		add	r3, r3, r2
 885 01f2 1B01     		lsls	r3, r3, #4
 886 01f4 1A46     		mov	r2, r3
 887 01f6 7B68     		ldr	r3, [r7, #4]
 888 01f8 9918     		adds	r1, r3, r2
 889              		.loc 1 354 10
 890 01fa 97F82D20 		ldrb	r2, [r7, #45]	@ zero_extendqisi2
 891 01fe 1346     		mov	r3, r2
 892 0200 9B00     		lsls	r3, r3, #2
 893 0202 1344     		add	r3, r3, r2
 894 0204 5B00     		lsls	r3, r3, #1
 895 0206 1344     		add	r3, r3, r2
 896 0208 0B44     		add	r3, r3, r1
 897 020a 0F33     		adds	r3, r3, #15
 898 020c 1B78     		ldrb	r3, [r3]	@ zero_extendqisi2
 899              		.loc 1 354 8
 900 020e 002B     		cmp	r3, #0
 901 0210 06D0     		beq	.L42
 355:Projects/STM32F401RE-Nucleo/Examples/MotionControl/MicrosteppingMotor/Src/example_usart.c **** 						!= '\0') {
 356:Projects/STM32F401RE-Nucleo/Examples/MotionControl/MicrosteppingMotor/Src/example_usart.c **** #ifdef NUCLEO_USE_USART
 357:Projects/STM32F401RE-Nucleo/Examples/MotionControl/MicrosteppingMotor/Src/example_usart.c **** 					USART_Transmit(&huart2, (uint8_t* )"The number of parameters related to the application comman
 902              		.loc 1 357 6
 903 0212 7049     		ldr	r1, .L111+20
 904 0214 6B48     		ldr	r0, .L111+4
 905 0216 FFF7FEFF 		bl	USART_Transmit
 358:Projects/STM32F401RE-Nucleo/Examples/MotionControl/MicrosteppingMotor/Src/example_usart.c **** #endif
 359:Projects/STM32F401RE-Nucleo/Examples/MotionControl/MicrosteppingMotor/Src/example_usart.c **** 					return RESET;
 906              		.loc 1 359 13
 907 021a 0023     		movs	r3, #0
 908 021c 00F0E3BC 		b	.L110
 909              	.L42:
 360:Projects/STM32F401RE-Nucleo/Examples/MotionControl/MicrosteppingMotor/Src/example_usart.c **** 				}
 361:Projects/STM32F401RE-Nucleo/Examples/MotionControl/MicrosteppingMotor/Src/example_usart.c **** 			}
 362:Projects/STM32F401RE-Nucleo/Examples/MotionControl/MicrosteppingMotor/Src/example_usart.c **** 			/* ************************************************************************ */
 363:Projects/STM32F401RE-Nucleo/Examples/MotionControl/MicrosteppingMotor/Src/example_usart.c **** 
 364:Projects/STM32F401RE-Nucleo/Examples/MotionControl/MicrosteppingMotor/Src/example_usart.c **** 			/* Checks the application command parameter ******************************* */
 365:Projects/STM32F401RE-Nucleo/Examples/MotionControl/MicrosteppingMotor/Src/example_usart.c **** 			switch (L6470_AppCmdId) {
 910              		.loc 1 365 4
 911 0220 97F82730 		ldrb	r3, [r7, #39]	@ zero_extendqisi2
 912 0224 132B     		cmp	r3, #19
 913 0226 00F29284 		bhi	.L107
 914 022a 01A2     		adr	r2, .L45
ARM GAS  C:\Users\ep_ygh\AppData\Local\Temp\cctjGRE4.s 			page 25


 915 022c 52F823F0 		ldr	pc, [r2, r3, lsl #2]
 916              		.p2align 2
 917              	.L45:
 918 0230 81020000 		.word	.L64+1
 919 0234 91020000 		.word	.L63+1
 920 0238 97030000 		.word	.L62+1
 921 023c 85040000 		.word	.L61+1
 922 0240 63050000 		.word	.L60+1
 923 0244 CF050000 		.word	.L59+1
 924 0248 AD060000 		.word	.L58+1
 925 024c 2D070000 		.word	.L57+1
 926 0250 1F080000 		.word	.L56+1
 927 0254 75090000 		.word	.L55+1
 928 0258 590A0000 		.word	.L54+1
 929 025c 670A0000 		.word	.L53+1
 930 0260 750A0000 		.word	.L52+1
 931 0264 9D0A0000 		.word	.L51+1
 932 0268 AB0A0000 		.word	.L50+1
 933 026c B90A0000 		.word	.L49+1
 934 0270 C70A0000 		.word	.L48+1
 935 0274 D50A0000 		.word	.L47+1
 936 0278 E30A0000 		.word	.L46+1
 937 027c 210B0000 		.word	.L44+1
 938              		.p2align 1
 939              	.L64:
 366:Projects/STM32F401RE-Nucleo/Examples/MotionControl/MicrosteppingMotor/Src/example_usart.c **** 			case L6470_NOP_ID:
 367:Projects/STM32F401RE-Nucleo/Examples/MotionControl/MicrosteppingMotor/Src/example_usart.c **** 				*(pL6470_DaisyChainSpiTxStruct
 368:Projects/STM32F401RE-Nucleo/Examples/MotionControl/MicrosteppingMotor/Src/example_usart.c **** 						+ ((0 * L6470DAISYCHAINSIZE) + L6470_Id)) = 0x00;
 940              		.loc 1 368 36
 941 0280 97F82330 		ldrb	r3, [r7, #35]	@ zero_extendqisi2
 942              		.loc 1 368 7
 943 0284 3A68     		ldr	r2, [r7]
 944 0286 1344     		add	r3, r3, r2
 945              		.loc 1 368 49
 946 0288 0022     		movs	r2, #0
 947 028a 1A70     		strb	r2, [r3]
 369:Projects/STM32F401RE-Nucleo/Examples/MotionControl/MicrosteppingMotor/Src/example_usart.c **** 				break;
 948              		.loc 1 369 5
 949 028c 00F05FBC 		b	.L107
 950              	.L63:
 370:Projects/STM32F401RE-Nucleo/Examples/MotionControl/MicrosteppingMotor/Src/example_usart.c **** 			case L6470_SETPARAM_ID:
 371:Projects/STM32F401RE-Nucleo/Examples/MotionControl/MicrosteppingMotor/Src/example_usart.c **** 				/* Check for possible Register to be addresses */
 372:Projects/STM32F401RE-Nucleo/Examples/MotionControl/MicrosteppingMotor/Src/example_usart.c **** 				L6470_RegId = (eL6470_RegId_t) 0;
 951              		.loc 1 372 17
 952 0290 0023     		movs	r3, #0
 953 0292 87F82630 		strb	r3, [r7, #38]
 373:Projects/STM32F401RE-Nucleo/Examples/MotionControl/MicrosteppingMotor/Src/example_usart.c **** 				while (!CompareTwoTextString(
 954              		.loc 1 373 11
 955 0296 0FE0     		b	.L65
 956              	.L66:
 374:Projects/STM32F401RE-Nucleo/Examples/MotionControl/MicrosteppingMotor/Src/example_usart.c **** 						(uint8_t*) (pL6470_TextCommandBundle + CmdTxt_id)->Param[0],
 375:Projects/STM32F401RE-Nucleo/Examples/MotionControl/MicrosteppingMotor/Src/example_usart.c **** 						(uint8_t*) L6470_Register[L6470_RegId].Name)) {
 376:Projects/STM32F401RE-Nucleo/Examples/MotionControl/MicrosteppingMotor/Src/example_usart.c **** 					L6470_RegId++;
 957              		.loc 1 376 17
 958 0298 97F82630 		ldrb	r3, [r7, #38]	@ zero_extendqisi2
 959 029c 0133     		adds	r3, r3, #1
 960 029e 87F82630 		strb	r3, [r7, #38]
ARM GAS  C:\Users\ep_ygh\AppData\Local\Temp\cctjGRE4.s 			page 26


 377:Projects/STM32F401RE-Nucleo/Examples/MotionControl/MicrosteppingMotor/Src/example_usart.c **** 					if (L6470_RegId == L6470REGIDSIZE) {
 961              		.loc 1 377 9
 962 02a2 97F82630 		ldrb	r3, [r7, #38]	@ zero_extendqisi2
 963 02a6 192B     		cmp	r3, #25
 964 02a8 06D1     		bne	.L65
 378:Projects/STM32F401RE-Nucleo/Examples/MotionControl/MicrosteppingMotor/Src/example_usart.c **** #ifdef NUCLEO_USE_USART
 379:Projects/STM32F401RE-Nucleo/Examples/MotionControl/MicrosteppingMotor/Src/example_usart.c **** 						USART_Transmit(&huart2, (uint8_t *)"It is not possible to recognize any L6470 register name.\
 965              		.loc 1 379 7
 966 02aa 4B49     		ldr	r1, .L111+24
 967 02ac 4548     		ldr	r0, .L111+4
 968 02ae FFF7FEFF 		bl	USART_Transmit
 380:Projects/STM32F401RE-Nucleo/Examples/MotionControl/MicrosteppingMotor/Src/example_usart.c **** #endif
 381:Projects/STM32F401RE-Nucleo/Examples/MotionControl/MicrosteppingMotor/Src/example_usart.c **** 						return RESET;
 969              		.loc 1 381 14
 970 02b2 0023     		movs	r3, #0
 971 02b4 00F097BC 		b	.L110
 972              	.L65:
 374:Projects/STM32F401RE-Nucleo/Examples/MotionControl/MicrosteppingMotor/Src/example_usart.c **** 						(uint8_t*) L6470_Register[L6470_RegId].Name)) {
 973              		.loc 1 374 44
 974 02b8 97F82C20 		ldrb	r2, [r7, #44]	@ zero_extendqisi2
 975 02bc 1346     		mov	r3, r2
 976 02be 5B00     		lsls	r3, r3, #1
 977 02c0 1344     		add	r3, r3, r2
 978 02c2 1B01     		lsls	r3, r3, #4
 979 02c4 1A46     		mov	r2, r3
 980 02c6 7B68     		ldr	r3, [r7, #4]
 981 02c8 1344     		add	r3, r3, r2
 374:Projects/STM32F401RE-Nucleo/Examples/MotionControl/MicrosteppingMotor/Src/example_usart.c **** 						(uint8_t*) L6470_Register[L6470_RegId].Name)) {
 982              		.loc 1 374 18
 983 02ca 03F10F00 		add	r0, r3, #15
 375:Projects/STM32F401RE-Nucleo/Examples/MotionControl/MicrosteppingMotor/Src/example_usart.c **** 					L6470_RegId++;
 984              		.loc 1 375 45
 985 02ce 97F82620 		ldrb	r2, [r7, #38]	@ zero_extendqisi2
 375:Projects/STM32F401RE-Nucleo/Examples/MotionControl/MicrosteppingMotor/Src/example_usart.c **** 					L6470_RegId++;
 986              		.loc 1 375 18
 987 02d2 1346     		mov	r3, r2
 988 02d4 9B00     		lsls	r3, r3, #2
 989 02d6 1344     		add	r3, r3, r2
 990 02d8 9B00     		lsls	r3, r3, #2
 991 02da 404A     		ldr	r2, .L111+28
 992 02dc 1344     		add	r3, r3, r2
 993 02de 0133     		adds	r3, r3, #1
 373:Projects/STM32F401RE-Nucleo/Examples/MotionControl/MicrosteppingMotor/Src/example_usart.c **** 						(uint8_t*) (pL6470_TextCommandBundle + CmdTxt_id)->Param[0],
 994              		.loc 1 373 13
 995 02e0 1946     		mov	r1, r3
 996 02e2 FFF7FEFF 		bl	CompareTwoTextString
 997 02e6 0346     		mov	r3, r0
 373:Projects/STM32F401RE-Nucleo/Examples/MotionControl/MicrosteppingMotor/Src/example_usart.c **** 						(uint8_t*) (pL6470_TextCommandBundle + CmdTxt_id)->Param[0],
 998              		.loc 1 373 11
 999 02e8 002B     		cmp	r3, #0
 1000 02ea D5D0     		beq	.L66
 382:Projects/STM32F401RE-Nucleo/Examples/MotionControl/MicrosteppingMotor/Src/example_usart.c **** 					}
 383:Projects/STM32F401RE-Nucleo/Examples/MotionControl/MicrosteppingMotor/Src/example_usart.c **** 				}
 384:Projects/STM32F401RE-Nucleo/Examples/MotionControl/MicrosteppingMotor/Src/example_usart.c **** 				/* The 1st application command parameter (as PARAM) is known ************ */
 385:Projects/STM32F401RE-Nucleo/Examples/MotionControl/MicrosteppingMotor/Src/example_usart.c **** 				*(pL6470_DaisyChainSpiTxStruct
 386:Projects/STM32F401RE-Nucleo/Examples/MotionControl/MicrosteppingMotor/Src/example_usart.c **** 						+ ((0 * L6470DAISYCHAINSIZE) + L6470_Id)) = 0x00
 387:Projects/STM32F401RE-Nucleo/Examples/MotionControl/MicrosteppingMotor/Src/example_usart.c **** 						| L6470_Register[L6470_RegId].Address;
ARM GAS  C:\Users\ep_ygh\AppData\Local\Temp\cctjGRE4.s 			page 27


 1001              		.loc 1 387 36
 1002 02ec 97F82620 		ldrb	r2, [r7, #38]	@ zero_extendqisi2
 386:Projects/STM32F401RE-Nucleo/Examples/MotionControl/MicrosteppingMotor/Src/example_usart.c **** 						| L6470_Register[L6470_RegId].Address;
 1003              		.loc 1 386 36
 1004 02f0 97F82330 		ldrb	r3, [r7, #35]	@ zero_extendqisi2
 386:Projects/STM32F401RE-Nucleo/Examples/MotionControl/MicrosteppingMotor/Src/example_usart.c **** 						| L6470_Register[L6470_RegId].Address;
 1005              		.loc 1 386 7
 1006 02f4 3968     		ldr	r1, [r7]
 1007 02f6 1944     		add	r1, r1, r3
 1008              		.loc 1 387 36
 1009 02f8 3848     		ldr	r0, .L111+28
 1010 02fa 1346     		mov	r3, r2
 1011 02fc 9B00     		lsls	r3, r3, #2
 1012 02fe 1344     		add	r3, r3, r2
 1013 0300 9B00     		lsls	r3, r3, #2
 1014 0302 0344     		add	r3, r3, r0
 1015 0304 1B78     		ldrb	r3, [r3]	@ zero_extendqisi2
 386:Projects/STM32F401RE-Nucleo/Examples/MotionControl/MicrosteppingMotor/Src/example_usart.c **** 						| L6470_Register[L6470_RegId].Address;
 1016              		.loc 1 386 49
 1017 0306 0B70     		strb	r3, [r1]
 388:Projects/STM32F401RE-Nucleo/Examples/MotionControl/MicrosteppingMotor/Src/example_usart.c **** 
 389:Projects/STM32F401RE-Nucleo/Examples/MotionControl/MicrosteppingMotor/Src/example_usart.c **** 				/* The length, in byte, of this register (PARAM) is... */
 390:Projects/STM32F401RE-Nucleo/Examples/MotionControl/MicrosteppingMotor/Src/example_usart.c **** 				PARAMLengthBytes = L6470_Register[L6470_RegId].LengthByte;
 1018              		.loc 1 390 51
 1019 0308 97F82620 		ldrb	r2, [r7, #38]	@ zero_extendqisi2
 1020              		.loc 1 390 22
 1021 030c 3349     		ldr	r1, .L111+28
 1022 030e 1346     		mov	r3, r2
 1023 0310 9B00     		lsls	r3, r3, #2
 1024 0312 1344     		add	r3, r3, r2
 1025 0314 9B00     		lsls	r3, r3, #2
 1026 0316 0B44     		add	r3, r3, r1
 1027 0318 0E33     		adds	r3, r3, #14
 1028 031a 1B78     		ldrb	r3, [r3]
 1029 031c FB75     		strb	r3, [r7, #23]
 391:Projects/STM32F401RE-Nucleo/Examples/MotionControl/MicrosteppingMotor/Src/example_usart.c **** 
 392:Projects/STM32F401RE-Nucleo/Examples/MotionControl/MicrosteppingMotor/Src/example_usart.c **** 				/* Checks the numeric parameter that has been entered (as 2nd parameter) */
 393:Projects/STM32F401RE-Nucleo/Examples/MotionControl/MicrosteppingMotor/Src/example_usart.c **** 				if (!str2num(
 394:Projects/STM32F401RE-Nucleo/Examples/MotionControl/MicrosteppingMotor/Src/example_usart.c **** 						(uint8_t*) (pL6470_TextCommandBundle + CmdTxt_id)->Param[1],
 1030              		.loc 1 394 44
 1031 031e 97F82C20 		ldrb	r2, [r7, #44]	@ zero_extendqisi2
 1032 0322 1346     		mov	r3, r2
 1033 0324 5B00     		lsls	r3, r3, #1
 1034 0326 1344     		add	r3, r3, r2
 1035 0328 1B01     		lsls	r3, r3, #4
 1036 032a 1A46     		mov	r2, r3
 1037 032c 7B68     		ldr	r3, [r7, #4]
 1038 032e 1344     		add	r3, r3, r2
 1039              		.loc 1 394 18
 1040 0330 1A33     		adds	r3, r3, #26
 393:Projects/STM32F401RE-Nucleo/Examples/MotionControl/MicrosteppingMotor/Src/example_usart.c **** 						(uint8_t*) (pL6470_TextCommandBundle + CmdTxt_id)->Param[1],
 1041              		.loc 1 393 10
 1042 0332 07F10C02 		add	r2, r7, #12
 1043 0336 1146     		mov	r1, r2
 1044 0338 1846     		mov	r0, r3
 1045 033a FFF7FEFF 		bl	str2num
 1046 033e 0346     		mov	r3, r0
ARM GAS  C:\Users\ep_ygh\AppData\Local\Temp\cctjGRE4.s 			page 28


 393:Projects/STM32F401RE-Nucleo/Examples/MotionControl/MicrosteppingMotor/Src/example_usart.c **** 						(uint8_t*) (pL6470_TextCommandBundle + CmdTxt_id)->Param[1],
 1047              		.loc 1 393 8
 1048 0340 002B     		cmp	r3, #0
 1049 0342 06D1     		bne	.L67
 395:Projects/STM32F401RE-Nucleo/Examples/MotionControl/MicrosteppingMotor/Src/example_usart.c **** 						&NumericValue)) {
 396:Projects/STM32F401RE-Nucleo/Examples/MotionControl/MicrosteppingMotor/Src/example_usart.c **** #ifdef NUCLEO_USE_USART
 397:Projects/STM32F401RE-Nucleo/Examples/MotionControl/MicrosteppingMotor/Src/example_usart.c **** 					USART_Transmit(&huart2, (uint8_t *)"It is not possible to recognize any numeric value.\r\n\r\n
 1050              		.loc 1 397 6
 1051 0344 2649     		ldr	r1, .L111+32
 1052 0346 1F48     		ldr	r0, .L111+4
 1053 0348 FFF7FEFF 		bl	USART_Transmit
 398:Projects/STM32F401RE-Nucleo/Examples/MotionControl/MicrosteppingMotor/Src/example_usart.c **** #endif
 399:Projects/STM32F401RE-Nucleo/Examples/MotionControl/MicrosteppingMotor/Src/example_usart.c **** 					return RESET;
 1054              		.loc 1 399 13
 1055 034c 0023     		movs	r3, #0
 1056 034e 00F04ABC 		b	.L110
 1057              	.L67:
 400:Projects/STM32F401RE-Nucleo/Examples/MotionControl/MicrosteppingMotor/Src/example_usart.c **** 				}
 401:Projects/STM32F401RE-Nucleo/Examples/MotionControl/MicrosteppingMotor/Src/example_usart.c **** 				/* The 2nd application command parameter (as a numeric value) is known */
 402:Projects/STM32F401RE-Nucleo/Examples/MotionControl/MicrosteppingMotor/Src/example_usart.c **** 
 403:Projects/STM32F401RE-Nucleo/Examples/MotionControl/MicrosteppingMotor/Src/example_usart.c **** 				/* Build the others bytes to transmit (VALUE) */
 404:Projects/STM32F401RE-Nucleo/Examples/MotionControl/MicrosteppingMotor/Src/example_usart.c **** 				for (spibyte = 1; spibyte < (PARAMLengthBytes + 1); spibyte++) {
 1058              		.loc 1 404 18
 1059 0352 0123     		movs	r3, #1
 1060 0354 87F82E30 		strb	r3, [r7, #46]
 1061              		.loc 1 404 5
 1062 0358 17E0     		b	.L68
 1063              	.L69:
 405:Projects/STM32F401RE-Nucleo/Examples/MotionControl/MicrosteppingMotor/Src/example_usart.c **** 					*(pL6470_DaisyChainSpiTxStruct
 406:Projects/STM32F401RE-Nucleo/Examples/MotionControl/MicrosteppingMotor/Src/example_usart.c **** 							+ ((spibyte * L6470DAISYCHAINSIZE) + L6470_Id)) =
 407:Projects/STM32F401RE-Nucleo/Examples/MotionControl/MicrosteppingMotor/Src/example_usart.c **** 							(uint8_t) (NumericValue
 408:Projects/STM32F401RE-Nucleo/Examples/MotionControl/MicrosteppingMotor/Src/example_usart.c **** 									>> (8 * (PARAMLengthBytes - spibyte)));
 1064              		.loc 1 408 10 discriminator 3
 1065 035a FA68     		ldr	r2, [r7, #12]
 1066              		.loc 1 408 36 discriminator 3
 1067 035c F97D     		ldrb	r1, [r7, #23]	@ zero_extendqisi2
 1068 035e 97F82E30 		ldrb	r3, [r7, #46]	@ zero_extendqisi2
 1069 0362 CB1A     		subs	r3, r1, r3
 1070              		.loc 1 408 16 discriminator 3
 1071 0364 DB00     		lsls	r3, r3, #3
 1072              		.loc 1 408 10 discriminator 3
 1073 0366 22FA03F1 		lsr	r1, r2, r3
 406:Projects/STM32F401RE-Nucleo/Examples/MotionControl/MicrosteppingMotor/Src/example_usart.c **** 							(uint8_t) (NumericValue
 1074              		.loc 1 406 20 discriminator 3
 1075 036a 97F82E30 		ldrb	r3, [r7, #46]	@ zero_extendqisi2
 1076 036e 5A00     		lsls	r2, r3, #1
 406:Projects/STM32F401RE-Nucleo/Examples/MotionControl/MicrosteppingMotor/Src/example_usart.c **** 							(uint8_t) (NumericValue
 1077              		.loc 1 406 43 discriminator 3
 1078 0370 97F82330 		ldrb	r3, [r7, #35]	@ zero_extendqisi2
 1079 0374 1344     		add	r3, r3, r2
 1080 0376 1A46     		mov	r2, r3
 406:Projects/STM32F401RE-Nucleo/Examples/MotionControl/MicrosteppingMotor/Src/example_usart.c **** 							(uint8_t) (NumericValue
 1081              		.loc 1 406 8 discriminator 3
 1082 0378 3B68     		ldr	r3, [r7]
 1083 037a 1344     		add	r3, r3, r2
 407:Projects/STM32F401RE-Nucleo/Examples/MotionControl/MicrosteppingMotor/Src/example_usart.c **** 									>> (8 * (PARAMLengthBytes - spibyte)));
 1084              		.loc 1 407 8 discriminator 3
ARM GAS  C:\Users\ep_ygh\AppData\Local\Temp\cctjGRE4.s 			page 29


 1085 037c CAB2     		uxtb	r2, r1
 406:Projects/STM32F401RE-Nucleo/Examples/MotionControl/MicrosteppingMotor/Src/example_usart.c **** 							(uint8_t) (NumericValue
 1086              		.loc 1 406 56 discriminator 3
 1087 037e 1A70     		strb	r2, [r3]
 404:Projects/STM32F401RE-Nucleo/Examples/MotionControl/MicrosteppingMotor/Src/example_usart.c **** 					*(pL6470_DaisyChainSpiTxStruct
 1088              		.loc 1 404 64 discriminator 3
 1089 0380 97F82E30 		ldrb	r3, [r7, #46]	@ zero_extendqisi2
 1090 0384 0133     		adds	r3, r3, #1
 1091 0386 87F82E30 		strb	r3, [r7, #46]
 1092              	.L68:
 404:Projects/STM32F401RE-Nucleo/Examples/MotionControl/MicrosteppingMotor/Src/example_usart.c **** 					*(pL6470_DaisyChainSpiTxStruct
 1093              		.loc 1 404 5 discriminator 1
 1094 038a FA7D     		ldrb	r2, [r7, #23]	@ zero_extendqisi2
 1095 038c 97F82E30 		ldrb	r3, [r7, #46]	@ zero_extendqisi2
 1096 0390 9A42     		cmp	r2, r3
 1097 0392 E2D2     		bcs	.L69
 409:Projects/STM32F401RE-Nucleo/Examples/MotionControl/MicrosteppingMotor/Src/example_usart.c **** 				}
 410:Projects/STM32F401RE-Nucleo/Examples/MotionControl/MicrosteppingMotor/Src/example_usart.c **** 				break;
 1098              		.loc 1 410 5
 1099 0394 DBE3     		b	.L107
 1100              	.L62:
 411:Projects/STM32F401RE-Nucleo/Examples/MotionControl/MicrosteppingMotor/Src/example_usart.c **** 			case L6470_GETPARAM_ID:
 412:Projects/STM32F401RE-Nucleo/Examples/MotionControl/MicrosteppingMotor/Src/example_usart.c **** 				/* Check for possible Register to be addresses */
 413:Projects/STM32F401RE-Nucleo/Examples/MotionControl/MicrosteppingMotor/Src/example_usart.c **** 				L6470_RegId = (eL6470_RegId_t) 0;
 1101              		.loc 1 413 17
 1102 0396 0023     		movs	r3, #0
 1103 0398 87F82630 		strb	r3, [r7, #38]
 414:Projects/STM32F401RE-Nucleo/Examples/MotionControl/MicrosteppingMotor/Src/example_usart.c **** 				while (!CompareTwoTextString(
 1104              		.loc 1 414 11
 1105 039c 22E0     		b	.L70
 1106              	.L71:
 415:Projects/STM32F401RE-Nucleo/Examples/MotionControl/MicrosteppingMotor/Src/example_usart.c **** 						(uint8_t*) (pL6470_TextCommandBundle + CmdTxt_id)->Param[0],
 416:Projects/STM32F401RE-Nucleo/Examples/MotionControl/MicrosteppingMotor/Src/example_usart.c **** 						(uint8_t*) L6470_Register[L6470_RegId].Name)) {
 417:Projects/STM32F401RE-Nucleo/Examples/MotionControl/MicrosteppingMotor/Src/example_usart.c **** 					L6470_RegId++;
 1107              		.loc 1 417 17
 1108 039e 97F82630 		ldrb	r3, [r7, #38]	@ zero_extendqisi2
 1109 03a2 0133     		adds	r3, r3, #1
 1110 03a4 87F82630 		strb	r3, [r7, #38]
 418:Projects/STM32F401RE-Nucleo/Examples/MotionControl/MicrosteppingMotor/Src/example_usart.c **** 					if (L6470_RegId == L6470REGIDSIZE) {
 1111              		.loc 1 418 9
 1112 03a8 97F82630 		ldrb	r3, [r7, #38]	@ zero_extendqisi2
 1113 03ac 192B     		cmp	r3, #25
 1114 03ae 19D1     		bne	.L70
 419:Projects/STM32F401RE-Nucleo/Examples/MotionControl/MicrosteppingMotor/Src/example_usart.c **** #ifdef NUCLEO_USE_USART
 420:Projects/STM32F401RE-Nucleo/Examples/MotionControl/MicrosteppingMotor/Src/example_usart.c **** 						USART_Transmit(&huart2, (uint8_t *)"It is not possible to recognize any L6470 register name.\
 1115              		.loc 1 420 7
 1116 03b0 0949     		ldr	r1, .L111+24
 1117 03b2 0448     		ldr	r0, .L111+4
 1118 03b4 FFF7FEFF 		bl	USART_Transmit
 421:Projects/STM32F401RE-Nucleo/Examples/MotionControl/MicrosteppingMotor/Src/example_usart.c **** #endif
 422:Projects/STM32F401RE-Nucleo/Examples/MotionControl/MicrosteppingMotor/Src/example_usart.c **** 						return RESET;
 1119              		.loc 1 422 14
 1120 03b8 0023     		movs	r3, #0
 1121 03ba 00F014BC 		b	.L110
 1122              	.L112:
 1123 03be 00BF     		.align	2
 1124              	.L111:
ARM GAS  C:\Users\ep_ygh\AppData\Local\Temp\cctjGRE4.s 			page 30


 1125 03c0 64000000 		.word	.LC3
 1126 03c4 00000000 		.word	huart2
 1127 03c8 00000000 		.word	L6470_DaisyChainMnemonic
 1128 03cc 94000000 		.word	.LC4
 1129 03d0 00000000 		.word	L6470_ApplicationCommand
 1130 03d4 D8000000 		.word	.LC5
 1131 03d8 28010000 		.word	.LC6
 1132 03dc 00000000 		.word	L6470_Register
 1133 03e0 68010000 		.word	.LC7
 1134              	.L70:
 415:Projects/STM32F401RE-Nucleo/Examples/MotionControl/MicrosteppingMotor/Src/example_usart.c **** 						(uint8_t*) L6470_Register[L6470_RegId].Name)) {
 1135              		.loc 1 415 44
 1136 03e4 97F82C20 		ldrb	r2, [r7, #44]	@ zero_extendqisi2
 1137 03e8 1346     		mov	r3, r2
 1138 03ea 5B00     		lsls	r3, r3, #1
 1139 03ec 1344     		add	r3, r3, r2
 1140 03ee 1B01     		lsls	r3, r3, #4
 1141 03f0 1A46     		mov	r2, r3
 1142 03f2 7B68     		ldr	r3, [r7, #4]
 1143 03f4 1344     		add	r3, r3, r2
 415:Projects/STM32F401RE-Nucleo/Examples/MotionControl/MicrosteppingMotor/Src/example_usart.c **** 						(uint8_t*) L6470_Register[L6470_RegId].Name)) {
 1144              		.loc 1 415 18
 1145 03f6 03F10F00 		add	r0, r3, #15
 416:Projects/STM32F401RE-Nucleo/Examples/MotionControl/MicrosteppingMotor/Src/example_usart.c **** 					L6470_RegId++;
 1146              		.loc 1 416 45
 1147 03fa 97F82620 		ldrb	r2, [r7, #38]	@ zero_extendqisi2
 416:Projects/STM32F401RE-Nucleo/Examples/MotionControl/MicrosteppingMotor/Src/example_usart.c **** 					L6470_RegId++;
 1148              		.loc 1 416 18
 1149 03fe 1346     		mov	r3, r2
 1150 0400 9B00     		lsls	r3, r3, #2
 1151 0402 1344     		add	r3, r3, r2
 1152 0404 9B00     		lsls	r3, r3, #2
 1153 0406 CB4A     		ldr	r2, .L113
 1154 0408 1344     		add	r3, r3, r2
 1155 040a 0133     		adds	r3, r3, #1
 414:Projects/STM32F401RE-Nucleo/Examples/MotionControl/MicrosteppingMotor/Src/example_usart.c **** 						(uint8_t*) (pL6470_TextCommandBundle + CmdTxt_id)->Param[0],
 1156              		.loc 1 414 13
 1157 040c 1946     		mov	r1, r3
 1158 040e FFF7FEFF 		bl	CompareTwoTextString
 1159 0412 0346     		mov	r3, r0
 414:Projects/STM32F401RE-Nucleo/Examples/MotionControl/MicrosteppingMotor/Src/example_usart.c **** 						(uint8_t*) (pL6470_TextCommandBundle + CmdTxt_id)->Param[0],
 1160              		.loc 1 414 11
 1161 0414 002B     		cmp	r3, #0
 1162 0416 C2D0     		beq	.L71
 423:Projects/STM32F401RE-Nucleo/Examples/MotionControl/MicrosteppingMotor/Src/example_usart.c **** 					}
 424:Projects/STM32F401RE-Nucleo/Examples/MotionControl/MicrosteppingMotor/Src/example_usart.c **** 				}
 425:Projects/STM32F401RE-Nucleo/Examples/MotionControl/MicrosteppingMotor/Src/example_usart.c **** 				/* The 1st application command parameter (as PARAM) is known ************ */
 426:Projects/STM32F401RE-Nucleo/Examples/MotionControl/MicrosteppingMotor/Src/example_usart.c **** 				*(pL6470_DaisyChainSpiTxStruct
 427:Projects/STM32F401RE-Nucleo/Examples/MotionControl/MicrosteppingMotor/Src/example_usart.c **** 						+ ((0 * L6470DAISYCHAINSIZE) + L6470_Id)) = 0x20
 428:Projects/STM32F401RE-Nucleo/Examples/MotionControl/MicrosteppingMotor/Src/example_usart.c **** 						| L6470_Register[L6470_RegId].Address;
 1163              		.loc 1 428 36
 1164 0418 97F82620 		ldrb	r2, [r7, #38]	@ zero_extendqisi2
 1165 041c C549     		ldr	r1, .L113
 1166 041e 1346     		mov	r3, r2
 1167 0420 9B00     		lsls	r3, r3, #2
 1168 0422 1344     		add	r3, r3, r2
 1169 0424 9B00     		lsls	r3, r3, #2
ARM GAS  C:\Users\ep_ygh\AppData\Local\Temp\cctjGRE4.s 			page 31


 1170 0426 0B44     		add	r3, r3, r1
 1171 0428 1A78     		ldrb	r2, [r3]	@ zero_extendqisi2
 427:Projects/STM32F401RE-Nucleo/Examples/MotionControl/MicrosteppingMotor/Src/example_usart.c **** 						| L6470_Register[L6470_RegId].Address;
 1172              		.loc 1 427 36
 1173 042a 97F82330 		ldrb	r3, [r7, #35]	@ zero_extendqisi2
 427:Projects/STM32F401RE-Nucleo/Examples/MotionControl/MicrosteppingMotor/Src/example_usart.c **** 						| L6470_Register[L6470_RegId].Address;
 1174              		.loc 1 427 7
 1175 042e 3968     		ldr	r1, [r7]
 1176 0430 0B44     		add	r3, r3, r1
 427:Projects/STM32F401RE-Nucleo/Examples/MotionControl/MicrosteppingMotor/Src/example_usart.c **** 						| L6470_Register[L6470_RegId].Address;
 1177              		.loc 1 427 49
 1178 0432 42F02002 		orr	r2, r2, #32
 1179 0436 D2B2     		uxtb	r2, r2
 1180 0438 1A70     		strb	r2, [r3]
 429:Projects/STM32F401RE-Nucleo/Examples/MotionControl/MicrosteppingMotor/Src/example_usart.c **** 
 430:Projects/STM32F401RE-Nucleo/Examples/MotionControl/MicrosteppingMotor/Src/example_usart.c **** 				/* The length, in byte, of this register (PARAM) is... */
 431:Projects/STM32F401RE-Nucleo/Examples/MotionControl/MicrosteppingMotor/Src/example_usart.c **** 				PARAMLengthBytes = L6470_Register[L6470_RegId].LengthByte;
 1181              		.loc 1 431 51
 1182 043a 97F82620 		ldrb	r2, [r7, #38]	@ zero_extendqisi2
 1183              		.loc 1 431 22
 1184 043e BD49     		ldr	r1, .L113
 1185 0440 1346     		mov	r3, r2
 1186 0442 9B00     		lsls	r3, r3, #2
 1187 0444 1344     		add	r3, r3, r2
 1188 0446 9B00     		lsls	r3, r3, #2
 1189 0448 0B44     		add	r3, r3, r1
 1190 044a 0E33     		adds	r3, r3, #14
 1191 044c 1B78     		ldrb	r3, [r3]
 1192 044e FB75     		strb	r3, [r7, #23]
 432:Projects/STM32F401RE-Nucleo/Examples/MotionControl/MicrosteppingMotor/Src/example_usart.c **** 
 433:Projects/STM32F401RE-Nucleo/Examples/MotionControl/MicrosteppingMotor/Src/example_usart.c **** 				/* Build the others bytes to transmit (VALUE) */
 434:Projects/STM32F401RE-Nucleo/Examples/MotionControl/MicrosteppingMotor/Src/example_usart.c **** 				for (spibyte = 1; spibyte < (PARAMLengthBytes + 1); spibyte++) {
 1193              		.loc 1 434 18
 1194 0450 0123     		movs	r3, #1
 1195 0452 87F82E30 		strb	r3, [r7, #46]
 1196              		.loc 1 434 5
 1197 0456 0FE0     		b	.L72
 1198              	.L73:
 435:Projects/STM32F401RE-Nucleo/Examples/MotionControl/MicrosteppingMotor/Src/example_usart.c **** 					*(pL6470_DaisyChainSpiTxStruct
 436:Projects/STM32F401RE-Nucleo/Examples/MotionControl/MicrosteppingMotor/Src/example_usart.c **** 							+ ((spibyte * L6470DAISYCHAINSIZE) + L6470_Id)) =
 1199              		.loc 1 436 20 discriminator 3
 1200 0458 97F82E30 		ldrb	r3, [r7, #46]	@ zero_extendqisi2
 1201 045c 5A00     		lsls	r2, r3, #1
 1202              		.loc 1 436 43 discriminator 3
 1203 045e 97F82330 		ldrb	r3, [r7, #35]	@ zero_extendqisi2
 1204 0462 1344     		add	r3, r3, r2
 1205 0464 1A46     		mov	r2, r3
 1206              		.loc 1 436 8 discriminator 3
 1207 0466 3B68     		ldr	r3, [r7]
 1208 0468 1344     		add	r3, r3, r2
 1209              		.loc 1 436 56 discriminator 3
 1210 046a 0022     		movs	r2, #0
 1211 046c 1A70     		strb	r2, [r3]
 434:Projects/STM32F401RE-Nucleo/Examples/MotionControl/MicrosteppingMotor/Src/example_usart.c **** 					*(pL6470_DaisyChainSpiTxStruct
 1212              		.loc 1 434 64 discriminator 3
 1213 046e 97F82E30 		ldrb	r3, [r7, #46]	@ zero_extendqisi2
 1214 0472 0133     		adds	r3, r3, #1
ARM GAS  C:\Users\ep_ygh\AppData\Local\Temp\cctjGRE4.s 			page 32


 1215 0474 87F82E30 		strb	r3, [r7, #46]
 1216              	.L72:
 434:Projects/STM32F401RE-Nucleo/Examples/MotionControl/MicrosteppingMotor/Src/example_usart.c **** 					*(pL6470_DaisyChainSpiTxStruct
 1217              		.loc 1 434 5 discriminator 1
 1218 0478 FA7D     		ldrb	r2, [r7, #23]	@ zero_extendqisi2
 1219 047a 97F82E30 		ldrb	r3, [r7, #46]	@ zero_extendqisi2
 1220 047e 9A42     		cmp	r2, r3
 1221 0480 EAD2     		bcs	.L73
 437:Projects/STM32F401RE-Nucleo/Examples/MotionControl/MicrosteppingMotor/Src/example_usart.c **** 							0x00;
 438:Projects/STM32F401RE-Nucleo/Examples/MotionControl/MicrosteppingMotor/Src/example_usart.c **** 				}
 439:Projects/STM32F401RE-Nucleo/Examples/MotionControl/MicrosteppingMotor/Src/example_usart.c **** 				break;
 1222              		.loc 1 439 5
 1223 0482 64E3     		b	.L107
 1224              	.L61:
 440:Projects/STM32F401RE-Nucleo/Examples/MotionControl/MicrosteppingMotor/Src/example_usart.c **** 			case L6470_RUN_ID:
 441:Projects/STM32F401RE-Nucleo/Examples/MotionControl/MicrosteppingMotor/Src/example_usart.c **** 				/* Checks the Motor Direction that has been entered (as 1st parameter) */
 442:Projects/STM32F401RE-Nucleo/Examples/MotionControl/MicrosteppingMotor/Src/example_usart.c **** 				L6470_DirId = (eL6470_DirId_t) 0;
 1225              		.loc 1 442 17
 1226 0484 0023     		movs	r3, #0
 1227 0486 87F82530 		strb	r3, [r7, #37]
 443:Projects/STM32F401RE-Nucleo/Examples/MotionControl/MicrosteppingMotor/Src/example_usart.c **** 				while (!CompareTwoTextString(
 1228              		.loc 1 443 11
 1229 048a 0EE0     		b	.L74
 1230              	.L75:
 444:Projects/STM32F401RE-Nucleo/Examples/MotionControl/MicrosteppingMotor/Src/example_usart.c **** 						(uint8_t*) (pL6470_TextCommandBundle + CmdTxt_id)->Param[0],
 445:Projects/STM32F401RE-Nucleo/Examples/MotionControl/MicrosteppingMotor/Src/example_usart.c **** 						(uint8_t*) L6470_Direction[L6470_DirId].Mnemonic)) {
 446:Projects/STM32F401RE-Nucleo/Examples/MotionControl/MicrosteppingMotor/Src/example_usart.c **** 					L6470_DirId++;
 1231              		.loc 1 446 17
 1232 048c 97F82530 		ldrb	r3, [r7, #37]	@ zero_extendqisi2
 1233 0490 0133     		adds	r3, r3, #1
 1234 0492 87F82530 		strb	r3, [r7, #37]
 447:Projects/STM32F401RE-Nucleo/Examples/MotionControl/MicrosteppingMotor/Src/example_usart.c **** 					if (L6470_DirId == L6470DIRIDSIZE) {
 1235              		.loc 1 447 9
 1236 0496 97F82530 		ldrb	r3, [r7, #37]	@ zero_extendqisi2
 1237 049a 022B     		cmp	r3, #2
 1238 049c 05D1     		bne	.L74
 448:Projects/STM32F401RE-Nucleo/Examples/MotionControl/MicrosteppingMotor/Src/example_usart.c **** #ifdef NUCLEO_USE_USART
 449:Projects/STM32F401RE-Nucleo/Examples/MotionControl/MicrosteppingMotor/Src/example_usart.c **** 						USART_Transmit(&huart2, (uint8_t *)"It is not possible to recognize any direction.\r\n\r\n");
 1239              		.loc 1 449 7
 1240 049e A649     		ldr	r1, .L113+4
 1241 04a0 A648     		ldr	r0, .L113+8
 1242 04a2 FFF7FEFF 		bl	USART_Transmit
 450:Projects/STM32F401RE-Nucleo/Examples/MotionControl/MicrosteppingMotor/Src/example_usart.c **** #endif
 451:Projects/STM32F401RE-Nucleo/Examples/MotionControl/MicrosteppingMotor/Src/example_usart.c **** 						return RESET;
 1243              		.loc 1 451 14
 1244 04a6 0023     		movs	r3, #0
 1245 04a8 9DE3     		b	.L110
 1246              	.L74:
 444:Projects/STM32F401RE-Nucleo/Examples/MotionControl/MicrosteppingMotor/Src/example_usart.c **** 						(uint8_t*) L6470_Direction[L6470_DirId].Mnemonic)) {
 1247              		.loc 1 444 44
 1248 04aa 97F82C20 		ldrb	r2, [r7, #44]	@ zero_extendqisi2
 1249 04ae 1346     		mov	r3, r2
 1250 04b0 5B00     		lsls	r3, r3, #1
 1251 04b2 1344     		add	r3, r3, r2
 1252 04b4 1B01     		lsls	r3, r3, #4
 1253 04b6 1A46     		mov	r2, r3
 1254 04b8 7B68     		ldr	r3, [r7, #4]
ARM GAS  C:\Users\ep_ygh\AppData\Local\Temp\cctjGRE4.s 			page 33


 1255 04ba 1344     		add	r3, r3, r2
 444:Projects/STM32F401RE-Nucleo/Examples/MotionControl/MicrosteppingMotor/Src/example_usart.c **** 						(uint8_t*) L6470_Direction[L6470_DirId].Mnemonic)) {
 1256              		.loc 1 444 18
 1257 04bc 03F10F00 		add	r0, r3, #15
 445:Projects/STM32F401RE-Nucleo/Examples/MotionControl/MicrosteppingMotor/Src/example_usart.c **** 					L6470_DirId++;
 1258              		.loc 1 445 46
 1259 04c0 97F82520 		ldrb	r2, [r7, #37]	@ zero_extendqisi2
 445:Projects/STM32F401RE-Nucleo/Examples/MotionControl/MicrosteppingMotor/Src/example_usart.c **** 					L6470_DirId++;
 1260              		.loc 1 445 18
 1261 04c4 1346     		mov	r3, r2
 1262 04c6 DB00     		lsls	r3, r3, #3
 1263 04c8 1344     		add	r3, r3, r2
 1264 04ca 9D4A     		ldr	r2, .L113+12
 1265 04cc 1344     		add	r3, r3, r2
 443:Projects/STM32F401RE-Nucleo/Examples/MotionControl/MicrosteppingMotor/Src/example_usart.c **** 						(uint8_t*) (pL6470_TextCommandBundle + CmdTxt_id)->Param[0],
 1266              		.loc 1 443 13
 1267 04ce 1946     		mov	r1, r3
 1268 04d0 FFF7FEFF 		bl	CompareTwoTextString
 1269 04d4 0346     		mov	r3, r0
 443:Projects/STM32F401RE-Nucleo/Examples/MotionControl/MicrosteppingMotor/Src/example_usart.c **** 						(uint8_t*) (pL6470_TextCommandBundle + CmdTxt_id)->Param[0],
 1270              		.loc 1 443 11
 1271 04d6 002B     		cmp	r3, #0
 1272 04d8 D8D0     		beq	.L75
 452:Projects/STM32F401RE-Nucleo/Examples/MotionControl/MicrosteppingMotor/Src/example_usart.c **** 					}
 453:Projects/STM32F401RE-Nucleo/Examples/MotionControl/MicrosteppingMotor/Src/example_usart.c **** 				}
 454:Projects/STM32F401RE-Nucleo/Examples/MotionControl/MicrosteppingMotor/Src/example_usart.c **** 				/* The 1st application command parameter (as DIR) is known ************** */
 455:Projects/STM32F401RE-Nucleo/Examples/MotionControl/MicrosteppingMotor/Src/example_usart.c **** 				*(pL6470_DaisyChainSpiTxStruct
 456:Projects/STM32F401RE-Nucleo/Examples/MotionControl/MicrosteppingMotor/Src/example_usart.c **** 						+ ((0 * L6470DAISYCHAINSIZE) + L6470_Id)) = 0x50
 1273              		.loc 1 456 36
 1274 04da 97F82330 		ldrb	r3, [r7, #35]	@ zero_extendqisi2
 1275              		.loc 1 456 7
 1276 04de 3A68     		ldr	r2, [r7]
 1277 04e0 1344     		add	r3, r3, r2
 1278              		.loc 1 456 49
 1279 04e2 97F82520 		ldrb	r2, [r7, #37]
 1280 04e6 42F05002 		orr	r2, r2, #80
 1281 04ea D2B2     		uxtb	r2, r2
 1282 04ec 1A70     		strb	r2, [r3]
 457:Projects/STM32F401RE-Nucleo/Examples/MotionControl/MicrosteppingMotor/Src/example_usart.c **** 						| L6470_DirId;
 458:Projects/STM32F401RE-Nucleo/Examples/MotionControl/MicrosteppingMotor/Src/example_usart.c **** 
 459:Projects/STM32F401RE-Nucleo/Examples/MotionControl/MicrosteppingMotor/Src/example_usart.c **** 				/* Checks the numeric parameter that has been entered (as 2nd parameter) */
 460:Projects/STM32F401RE-Nucleo/Examples/MotionControl/MicrosteppingMotor/Src/example_usart.c **** 				if (!str2num(
 461:Projects/STM32F401RE-Nucleo/Examples/MotionControl/MicrosteppingMotor/Src/example_usart.c **** 						(uint8_t*) (pL6470_TextCommandBundle + CmdTxt_id)->Param[1],
 1283              		.loc 1 461 44
 1284 04ee 97F82C20 		ldrb	r2, [r7, #44]	@ zero_extendqisi2
 1285 04f2 1346     		mov	r3, r2
 1286 04f4 5B00     		lsls	r3, r3, #1
 1287 04f6 1344     		add	r3, r3, r2
 1288 04f8 1B01     		lsls	r3, r3, #4
 1289 04fa 1A46     		mov	r2, r3
 1290 04fc 7B68     		ldr	r3, [r7, #4]
 1291 04fe 1344     		add	r3, r3, r2
 1292              		.loc 1 461 18
 1293 0500 1A33     		adds	r3, r3, #26
 460:Projects/STM32F401RE-Nucleo/Examples/MotionControl/MicrosteppingMotor/Src/example_usart.c **** 						(uint8_t*) (pL6470_TextCommandBundle + CmdTxt_id)->Param[1],
 1294              		.loc 1 460 10
 1295 0502 07F10C02 		add	r2, r7, #12
ARM GAS  C:\Users\ep_ygh\AppData\Local\Temp\cctjGRE4.s 			page 34


 1296 0506 1146     		mov	r1, r2
 1297 0508 1846     		mov	r0, r3
 1298 050a FFF7FEFF 		bl	str2num
 1299 050e 0346     		mov	r3, r0
 460:Projects/STM32F401RE-Nucleo/Examples/MotionControl/MicrosteppingMotor/Src/example_usart.c **** 						(uint8_t*) (pL6470_TextCommandBundle + CmdTxt_id)->Param[1],
 1300              		.loc 1 460 8
 1301 0510 002B     		cmp	r3, #0
 1302 0512 05D1     		bne	.L76
 462:Projects/STM32F401RE-Nucleo/Examples/MotionControl/MicrosteppingMotor/Src/example_usart.c **** 						&NumericValue)) {
 463:Projects/STM32F401RE-Nucleo/Examples/MotionControl/MicrosteppingMotor/Src/example_usart.c **** #ifdef NUCLEO_USE_USART
 464:Projects/STM32F401RE-Nucleo/Examples/MotionControl/MicrosteppingMotor/Src/example_usart.c **** 					USART_Transmit(&huart2, (uint8_t *)"It is not possible to recognize any numeric value.\r\n\r\n
 1303              		.loc 1 464 6
 1304 0514 8B49     		ldr	r1, .L113+16
 1305 0516 8948     		ldr	r0, .L113+8
 1306 0518 FFF7FEFF 		bl	USART_Transmit
 465:Projects/STM32F401RE-Nucleo/Examples/MotionControl/MicrosteppingMotor/Src/example_usart.c **** #endif
 466:Projects/STM32F401RE-Nucleo/Examples/MotionControl/MicrosteppingMotor/Src/example_usart.c **** 					return RESET;
 1307              		.loc 1 466 13
 1308 051c 0023     		movs	r3, #0
 1309 051e 62E3     		b	.L110
 1310              	.L76:
 467:Projects/STM32F401RE-Nucleo/Examples/MotionControl/MicrosteppingMotor/Src/example_usart.c **** 				}
 468:Projects/STM32F401RE-Nucleo/Examples/MotionControl/MicrosteppingMotor/Src/example_usart.c **** 				/* The 2nd application command parameter (as a numeric value) is known */
 469:Projects/STM32F401RE-Nucleo/Examples/MotionControl/MicrosteppingMotor/Src/example_usart.c **** 
 470:Projects/STM32F401RE-Nucleo/Examples/MotionControl/MicrosteppingMotor/Src/example_usart.c **** 				/* Build the others bytes to transmit (SPD) */
 471:Projects/STM32F401RE-Nucleo/Examples/MotionControl/MicrosteppingMotor/Src/example_usart.c **** 				for (spibyte = 1; spibyte < (3 + 1); spibyte++) {
 1311              		.loc 1 471 18
 1312 0520 0123     		movs	r3, #1
 1313 0522 87F82E30 		strb	r3, [r7, #46]
 1314              		.loc 1 471 5
 1315 0526 17E0     		b	.L77
 1316              	.L78:
 472:Projects/STM32F401RE-Nucleo/Examples/MotionControl/MicrosteppingMotor/Src/example_usart.c **** 					*(pL6470_DaisyChainSpiTxStruct
 473:Projects/STM32F401RE-Nucleo/Examples/MotionControl/MicrosteppingMotor/Src/example_usart.c **** 							+ ((spibyte * L6470DAISYCHAINSIZE) + L6470_Id)) =
 474:Projects/STM32F401RE-Nucleo/Examples/MotionControl/MicrosteppingMotor/Src/example_usart.c **** 							(uint8_t) (NumericValue >> (8 * (3 - spibyte)));
 1317              		.loc 1 474 32 discriminator 3
 1318 0528 FA68     		ldr	r2, [r7, #12]
 1319              		.loc 1 474 43 discriminator 3
 1320 052a 97F82E30 		ldrb	r3, [r7, #46]	@ zero_extendqisi2
 1321 052e C3F10303 		rsb	r3, r3, #3
 1322              		.loc 1 474 38 discriminator 3
 1323 0532 DB00     		lsls	r3, r3, #3
 1324              		.loc 1 474 32 discriminator 3
 1325 0534 22FA03F1 		lsr	r1, r2, r3
 473:Projects/STM32F401RE-Nucleo/Examples/MotionControl/MicrosteppingMotor/Src/example_usart.c **** 							(uint8_t) (NumericValue >> (8 * (3 - spibyte)));
 1326              		.loc 1 473 20 discriminator 3
 1327 0538 97F82E30 		ldrb	r3, [r7, #46]	@ zero_extendqisi2
 1328 053c 5A00     		lsls	r2, r3, #1
 473:Projects/STM32F401RE-Nucleo/Examples/MotionControl/MicrosteppingMotor/Src/example_usart.c **** 							(uint8_t) (NumericValue >> (8 * (3 - spibyte)));
 1329              		.loc 1 473 43 discriminator 3
 1330 053e 97F82330 		ldrb	r3, [r7, #35]	@ zero_extendqisi2
 1331 0542 1344     		add	r3, r3, r2
 1332 0544 1A46     		mov	r2, r3
 473:Projects/STM32F401RE-Nucleo/Examples/MotionControl/MicrosteppingMotor/Src/example_usart.c **** 							(uint8_t) (NumericValue >> (8 * (3 - spibyte)));
 1333              		.loc 1 473 8 discriminator 3
 1334 0546 3B68     		ldr	r3, [r7]
 1335 0548 1344     		add	r3, r3, r2
ARM GAS  C:\Users\ep_ygh\AppData\Local\Temp\cctjGRE4.s 			page 35


 1336              		.loc 1 474 8 discriminator 3
 1337 054a CAB2     		uxtb	r2, r1
 473:Projects/STM32F401RE-Nucleo/Examples/MotionControl/MicrosteppingMotor/Src/example_usart.c **** 							(uint8_t) (NumericValue >> (8 * (3 - spibyte)));
 1338              		.loc 1 473 56 discriminator 3
 1339 054c 1A70     		strb	r2, [r3]
 471:Projects/STM32F401RE-Nucleo/Examples/MotionControl/MicrosteppingMotor/Src/example_usart.c **** 					*(pL6470_DaisyChainSpiTxStruct
 1340              		.loc 1 471 49 discriminator 3
 1341 054e 97F82E30 		ldrb	r3, [r7, #46]	@ zero_extendqisi2
 1342 0552 0133     		adds	r3, r3, #1
 1343 0554 87F82E30 		strb	r3, [r7, #46]
 1344              	.L77:
 471:Projects/STM32F401RE-Nucleo/Examples/MotionControl/MicrosteppingMotor/Src/example_usart.c **** 					*(pL6470_DaisyChainSpiTxStruct
 1345              		.loc 1 471 5 discriminator 1
 1346 0558 97F82E30 		ldrb	r3, [r7, #46]	@ zero_extendqisi2
 1347 055c 032B     		cmp	r3, #3
 1348 055e E3D9     		bls	.L78
 475:Projects/STM32F401RE-Nucleo/Examples/MotionControl/MicrosteppingMotor/Src/example_usart.c **** 				}
 476:Projects/STM32F401RE-Nucleo/Examples/MotionControl/MicrosteppingMotor/Src/example_usart.c **** 				break;
 1349              		.loc 1 476 5
 1350 0560 F5E2     		b	.L107
 1351              	.L60:
 477:Projects/STM32F401RE-Nucleo/Examples/MotionControl/MicrosteppingMotor/Src/example_usart.c **** 			case L6470_STEPCLOCK_ID:
 478:Projects/STM32F401RE-Nucleo/Examples/MotionControl/MicrosteppingMotor/Src/example_usart.c **** 				/* Checks the Motor Direction that has been entered */
 479:Projects/STM32F401RE-Nucleo/Examples/MotionControl/MicrosteppingMotor/Src/example_usart.c **** 				L6470_DirId = (eL6470_DirId_t) 0;
 1352              		.loc 1 479 17
 1353 0562 0023     		movs	r3, #0
 1354 0564 87F82530 		strb	r3, [r7, #37]
 480:Projects/STM32F401RE-Nucleo/Examples/MotionControl/MicrosteppingMotor/Src/example_usart.c **** 				while (!CompareTwoTextString(
 1355              		.loc 1 480 11
 1356 0568 0EE0     		b	.L79
 1357              	.L80:
 481:Projects/STM32F401RE-Nucleo/Examples/MotionControl/MicrosteppingMotor/Src/example_usart.c **** 						(uint8_t*) (pL6470_TextCommandBundle + CmdTxt_id)->Param[0],
 482:Projects/STM32F401RE-Nucleo/Examples/MotionControl/MicrosteppingMotor/Src/example_usart.c **** 						(uint8_t*) L6470_Direction[L6470_DirId].Mnemonic)) {
 483:Projects/STM32F401RE-Nucleo/Examples/MotionControl/MicrosteppingMotor/Src/example_usart.c **** 					L6470_DirId++;
 1358              		.loc 1 483 17
 1359 056a 97F82530 		ldrb	r3, [r7, #37]	@ zero_extendqisi2
 1360 056e 0133     		adds	r3, r3, #1
 1361 0570 87F82530 		strb	r3, [r7, #37]
 484:Projects/STM32F401RE-Nucleo/Examples/MotionControl/MicrosteppingMotor/Src/example_usart.c **** 					if (L6470_DirId == L6470DIRIDSIZE) {
 1362              		.loc 1 484 9
 1363 0574 97F82530 		ldrb	r3, [r7, #37]	@ zero_extendqisi2
 1364 0578 022B     		cmp	r3, #2
 1365 057a 05D1     		bne	.L79
 485:Projects/STM32F401RE-Nucleo/Examples/MotionControl/MicrosteppingMotor/Src/example_usart.c **** #ifdef NUCLEO_USE_USART
 486:Projects/STM32F401RE-Nucleo/Examples/MotionControl/MicrosteppingMotor/Src/example_usart.c **** 						USART_Transmit(&huart2, (uint8_t *)"It is not possible to recognize any direction.\r\n\r\n");
 1366              		.loc 1 486 7
 1367 057c 6E49     		ldr	r1, .L113+4
 1368 057e 6F48     		ldr	r0, .L113+8
 1369 0580 FFF7FEFF 		bl	USART_Transmit
 487:Projects/STM32F401RE-Nucleo/Examples/MotionControl/MicrosteppingMotor/Src/example_usart.c **** #endif
 488:Projects/STM32F401RE-Nucleo/Examples/MotionControl/MicrosteppingMotor/Src/example_usart.c **** 						return RESET;
 1370              		.loc 1 488 14
 1371 0584 0023     		movs	r3, #0
 1372 0586 2EE3     		b	.L110
 1373              	.L79:
 481:Projects/STM32F401RE-Nucleo/Examples/MotionControl/MicrosteppingMotor/Src/example_usart.c **** 						(uint8_t*) L6470_Direction[L6470_DirId].Mnemonic)) {
 1374              		.loc 1 481 44
ARM GAS  C:\Users\ep_ygh\AppData\Local\Temp\cctjGRE4.s 			page 36


 1375 0588 97F82C20 		ldrb	r2, [r7, #44]	@ zero_extendqisi2
 1376 058c 1346     		mov	r3, r2
 1377 058e 5B00     		lsls	r3, r3, #1
 1378 0590 1344     		add	r3, r3, r2
 1379 0592 1B01     		lsls	r3, r3, #4
 1380 0594 1A46     		mov	r2, r3
 1381 0596 7B68     		ldr	r3, [r7, #4]
 1382 0598 1344     		add	r3, r3, r2
 481:Projects/STM32F401RE-Nucleo/Examples/MotionControl/MicrosteppingMotor/Src/example_usart.c **** 						(uint8_t*) L6470_Direction[L6470_DirId].Mnemonic)) {
 1383              		.loc 1 481 18
 1384 059a 03F10F00 		add	r0, r3, #15
 482:Projects/STM32F401RE-Nucleo/Examples/MotionControl/MicrosteppingMotor/Src/example_usart.c **** 					L6470_DirId++;
 1385              		.loc 1 482 46
 1386 059e 97F82520 		ldrb	r2, [r7, #37]	@ zero_extendqisi2
 482:Projects/STM32F401RE-Nucleo/Examples/MotionControl/MicrosteppingMotor/Src/example_usart.c **** 					L6470_DirId++;
 1387              		.loc 1 482 18
 1388 05a2 1346     		mov	r3, r2
 1389 05a4 DB00     		lsls	r3, r3, #3
 1390 05a6 1344     		add	r3, r3, r2
 1391 05a8 654A     		ldr	r2, .L113+12
 1392 05aa 1344     		add	r3, r3, r2
 480:Projects/STM32F401RE-Nucleo/Examples/MotionControl/MicrosteppingMotor/Src/example_usart.c **** 						(uint8_t*) (pL6470_TextCommandBundle + CmdTxt_id)->Param[0],
 1393              		.loc 1 480 13
 1394 05ac 1946     		mov	r1, r3
 1395 05ae FFF7FEFF 		bl	CompareTwoTextString
 1396 05b2 0346     		mov	r3, r0
 480:Projects/STM32F401RE-Nucleo/Examples/MotionControl/MicrosteppingMotor/Src/example_usart.c **** 						(uint8_t*) (pL6470_TextCommandBundle + CmdTxt_id)->Param[0],
 1397              		.loc 1 480 11
 1398 05b4 002B     		cmp	r3, #0
 1399 05b6 D8D0     		beq	.L80
 489:Projects/STM32F401RE-Nucleo/Examples/MotionControl/MicrosteppingMotor/Src/example_usart.c **** 					}
 490:Projects/STM32F401RE-Nucleo/Examples/MotionControl/MicrosteppingMotor/Src/example_usart.c **** 				}
 491:Projects/STM32F401RE-Nucleo/Examples/MotionControl/MicrosteppingMotor/Src/example_usart.c **** 				/* The application command parameter (as DIR) is known ************** */
 492:Projects/STM32F401RE-Nucleo/Examples/MotionControl/MicrosteppingMotor/Src/example_usart.c **** 				*(pL6470_DaisyChainSpiTxStruct
 493:Projects/STM32F401RE-Nucleo/Examples/MotionControl/MicrosteppingMotor/Src/example_usart.c **** 						+ ((0 * L6470DAISYCHAINSIZE) + L6470_Id)) = 0x58
 1400              		.loc 1 493 36
 1401 05b8 97F82330 		ldrb	r3, [r7, #35]	@ zero_extendqisi2
 1402              		.loc 1 493 7
 1403 05bc 3A68     		ldr	r2, [r7]
 1404 05be 1344     		add	r3, r3, r2
 1405              		.loc 1 493 49
 1406 05c0 97F82520 		ldrb	r2, [r7, #37]
 1407 05c4 42F05802 		orr	r2, r2, #88
 1408 05c8 D2B2     		uxtb	r2, r2
 1409 05ca 1A70     		strb	r2, [r3]
 494:Projects/STM32F401RE-Nucleo/Examples/MotionControl/MicrosteppingMotor/Src/example_usart.c **** 						| L6470_DirId;
 495:Projects/STM32F401RE-Nucleo/Examples/MotionControl/MicrosteppingMotor/Src/example_usart.c **** 				break;
 1410              		.loc 1 495 5
 1411 05cc BFE2     		b	.L107
 1412              	.L59:
 496:Projects/STM32F401RE-Nucleo/Examples/MotionControl/MicrosteppingMotor/Src/example_usart.c **** 			case L6470_MOVE_ID:
 497:Projects/STM32F401RE-Nucleo/Examples/MotionControl/MicrosteppingMotor/Src/example_usart.c **** 				/* Checks the Motor Direction that has been entered (as 1st parameter) */
 498:Projects/STM32F401RE-Nucleo/Examples/MotionControl/MicrosteppingMotor/Src/example_usart.c **** 				L6470_DirId = (eL6470_DirId_t) 0;
 1413              		.loc 1 498 17
 1414 05ce 0023     		movs	r3, #0
 1415 05d0 87F82530 		strb	r3, [r7, #37]
 499:Projects/STM32F401RE-Nucleo/Examples/MotionControl/MicrosteppingMotor/Src/example_usart.c **** 				while (!CompareTwoTextString(
ARM GAS  C:\Users\ep_ygh\AppData\Local\Temp\cctjGRE4.s 			page 37


 1416              		.loc 1 499 11
 1417 05d4 0EE0     		b	.L81
 1418              	.L82:
 500:Projects/STM32F401RE-Nucleo/Examples/MotionControl/MicrosteppingMotor/Src/example_usart.c **** 						(uint8_t*) (pL6470_TextCommandBundle + CmdTxt_id)->Param[0],
 501:Projects/STM32F401RE-Nucleo/Examples/MotionControl/MicrosteppingMotor/Src/example_usart.c **** 						(uint8_t*) L6470_Direction[L6470_DirId].Mnemonic)) {
 502:Projects/STM32F401RE-Nucleo/Examples/MotionControl/MicrosteppingMotor/Src/example_usart.c **** 					L6470_DirId++;
 1419              		.loc 1 502 17
 1420 05d6 97F82530 		ldrb	r3, [r7, #37]	@ zero_extendqisi2
 1421 05da 0133     		adds	r3, r3, #1
 1422 05dc 87F82530 		strb	r3, [r7, #37]
 503:Projects/STM32F401RE-Nucleo/Examples/MotionControl/MicrosteppingMotor/Src/example_usart.c **** 					if (L6470_DirId == L6470DIRIDSIZE) {
 1423              		.loc 1 503 9
 1424 05e0 97F82530 		ldrb	r3, [r7, #37]	@ zero_extendqisi2
 1425 05e4 022B     		cmp	r3, #2
 1426 05e6 05D1     		bne	.L81
 504:Projects/STM32F401RE-Nucleo/Examples/MotionControl/MicrosteppingMotor/Src/example_usart.c **** #ifdef NUCLEO_USE_USART
 505:Projects/STM32F401RE-Nucleo/Examples/MotionControl/MicrosteppingMotor/Src/example_usart.c **** 						USART_Transmit(&huart2, (uint8_t *)"It is not possible to recognize any direction.\r\n\r\n");
 1427              		.loc 1 505 7
 1428 05e8 5349     		ldr	r1, .L113+4
 1429 05ea 5448     		ldr	r0, .L113+8
 1430 05ec FFF7FEFF 		bl	USART_Transmit
 506:Projects/STM32F401RE-Nucleo/Examples/MotionControl/MicrosteppingMotor/Src/example_usart.c **** #endif
 507:Projects/STM32F401RE-Nucleo/Examples/MotionControl/MicrosteppingMotor/Src/example_usart.c **** 						return RESET;
 1431              		.loc 1 507 14
 1432 05f0 0023     		movs	r3, #0
 1433 05f2 F8E2     		b	.L110
 1434              	.L81:
 500:Projects/STM32F401RE-Nucleo/Examples/MotionControl/MicrosteppingMotor/Src/example_usart.c **** 						(uint8_t*) L6470_Direction[L6470_DirId].Mnemonic)) {
 1435              		.loc 1 500 44
 1436 05f4 97F82C20 		ldrb	r2, [r7, #44]	@ zero_extendqisi2
 1437 05f8 1346     		mov	r3, r2
 1438 05fa 5B00     		lsls	r3, r3, #1
 1439 05fc 1344     		add	r3, r3, r2
 1440 05fe 1B01     		lsls	r3, r3, #4
 1441 0600 1A46     		mov	r2, r3
 1442 0602 7B68     		ldr	r3, [r7, #4]
 1443 0604 1344     		add	r3, r3, r2
 500:Projects/STM32F401RE-Nucleo/Examples/MotionControl/MicrosteppingMotor/Src/example_usart.c **** 						(uint8_t*) L6470_Direction[L6470_DirId].Mnemonic)) {
 1444              		.loc 1 500 18
 1445 0606 03F10F00 		add	r0, r3, #15
 501:Projects/STM32F401RE-Nucleo/Examples/MotionControl/MicrosteppingMotor/Src/example_usart.c **** 					L6470_DirId++;
 1446              		.loc 1 501 46
 1447 060a 97F82520 		ldrb	r2, [r7, #37]	@ zero_extendqisi2
 501:Projects/STM32F401RE-Nucleo/Examples/MotionControl/MicrosteppingMotor/Src/example_usart.c **** 					L6470_DirId++;
 1448              		.loc 1 501 18
 1449 060e 1346     		mov	r3, r2
 1450 0610 DB00     		lsls	r3, r3, #3
 1451 0612 1344     		add	r3, r3, r2
 1452 0614 4A4A     		ldr	r2, .L113+12
 1453 0616 1344     		add	r3, r3, r2
 499:Projects/STM32F401RE-Nucleo/Examples/MotionControl/MicrosteppingMotor/Src/example_usart.c **** 						(uint8_t*) (pL6470_TextCommandBundle + CmdTxt_id)->Param[0],
 1454              		.loc 1 499 13
 1455 0618 1946     		mov	r1, r3
 1456 061a FFF7FEFF 		bl	CompareTwoTextString
 1457 061e 0346     		mov	r3, r0
 499:Projects/STM32F401RE-Nucleo/Examples/MotionControl/MicrosteppingMotor/Src/example_usart.c **** 						(uint8_t*) (pL6470_TextCommandBundle + CmdTxt_id)->Param[0],
 1458              		.loc 1 499 11
ARM GAS  C:\Users\ep_ygh\AppData\Local\Temp\cctjGRE4.s 			page 38


 1459 0620 002B     		cmp	r3, #0
 1460 0622 D8D0     		beq	.L82
 508:Projects/STM32F401RE-Nucleo/Examples/MotionControl/MicrosteppingMotor/Src/example_usart.c **** 					}
 509:Projects/STM32F401RE-Nucleo/Examples/MotionControl/MicrosteppingMotor/Src/example_usart.c **** 				}
 510:Projects/STM32F401RE-Nucleo/Examples/MotionControl/MicrosteppingMotor/Src/example_usart.c **** 				/* The 1st application command parameter (as DIR) is known ************** */
 511:Projects/STM32F401RE-Nucleo/Examples/MotionControl/MicrosteppingMotor/Src/example_usart.c **** 				*(pL6470_DaisyChainSpiTxStruct
 512:Projects/STM32F401RE-Nucleo/Examples/MotionControl/MicrosteppingMotor/Src/example_usart.c **** 						+ ((0 * L6470DAISYCHAINSIZE) + L6470_Id)) = 0x40
 1461              		.loc 1 512 36
 1462 0624 97F82330 		ldrb	r3, [r7, #35]	@ zero_extendqisi2
 1463              		.loc 1 512 7
 1464 0628 3A68     		ldr	r2, [r7]
 1465 062a 1344     		add	r3, r3, r2
 1466              		.loc 1 512 49
 1467 062c 97F82520 		ldrb	r2, [r7, #37]
 1468 0630 42F04002 		orr	r2, r2, #64
 1469 0634 D2B2     		uxtb	r2, r2
 1470 0636 1A70     		strb	r2, [r3]
 513:Projects/STM32F401RE-Nucleo/Examples/MotionControl/MicrosteppingMotor/Src/example_usart.c **** 						| L6470_DirId;
 514:Projects/STM32F401RE-Nucleo/Examples/MotionControl/MicrosteppingMotor/Src/example_usart.c **** 
 515:Projects/STM32F401RE-Nucleo/Examples/MotionControl/MicrosteppingMotor/Src/example_usart.c **** 				/* Checks the numeric parameter that has been entered (as 2nd parameter) */
 516:Projects/STM32F401RE-Nucleo/Examples/MotionControl/MicrosteppingMotor/Src/example_usart.c **** 				if (!str2num(
 517:Projects/STM32F401RE-Nucleo/Examples/MotionControl/MicrosteppingMotor/Src/example_usart.c **** 						(uint8_t*) (pL6470_TextCommandBundle + CmdTxt_id)->Param[1],
 1471              		.loc 1 517 44
 1472 0638 97F82C20 		ldrb	r2, [r7, #44]	@ zero_extendqisi2
 1473 063c 1346     		mov	r3, r2
 1474 063e 5B00     		lsls	r3, r3, #1
 1475 0640 1344     		add	r3, r3, r2
 1476 0642 1B01     		lsls	r3, r3, #4
 1477 0644 1A46     		mov	r2, r3
 1478 0646 7B68     		ldr	r3, [r7, #4]
 1479 0648 1344     		add	r3, r3, r2
 1480              		.loc 1 517 18
 1481 064a 1A33     		adds	r3, r3, #26
 516:Projects/STM32F401RE-Nucleo/Examples/MotionControl/MicrosteppingMotor/Src/example_usart.c **** 						(uint8_t*) (pL6470_TextCommandBundle + CmdTxt_id)->Param[1],
 1482              		.loc 1 516 10
 1483 064c 07F10C02 		add	r2, r7, #12
 1484 0650 1146     		mov	r1, r2
 1485 0652 1846     		mov	r0, r3
 1486 0654 FFF7FEFF 		bl	str2num
 1487 0658 0346     		mov	r3, r0
 516:Projects/STM32F401RE-Nucleo/Examples/MotionControl/MicrosteppingMotor/Src/example_usart.c **** 						(uint8_t*) (pL6470_TextCommandBundle + CmdTxt_id)->Param[1],
 1488              		.loc 1 516 8
 1489 065a 002B     		cmp	r3, #0
 1490 065c 05D1     		bne	.L83
 518:Projects/STM32F401RE-Nucleo/Examples/MotionControl/MicrosteppingMotor/Src/example_usart.c **** 						&NumericValue)) {
 519:Projects/STM32F401RE-Nucleo/Examples/MotionControl/MicrosteppingMotor/Src/example_usart.c **** #ifdef NUCLEO_USE_USART
 520:Projects/STM32F401RE-Nucleo/Examples/MotionControl/MicrosteppingMotor/Src/example_usart.c **** 					USART_Transmit(&huart2, (uint8_t *)"It is not possible to recognize any numeric value.\r\n\r\n
 1491              		.loc 1 520 6
 1492 065e 3949     		ldr	r1, .L113+16
 1493 0660 3648     		ldr	r0, .L113+8
 1494 0662 FFF7FEFF 		bl	USART_Transmit
 521:Projects/STM32F401RE-Nucleo/Examples/MotionControl/MicrosteppingMotor/Src/example_usart.c **** #endif
 522:Projects/STM32F401RE-Nucleo/Examples/MotionControl/MicrosteppingMotor/Src/example_usart.c **** 					return RESET;
 1495              		.loc 1 522 13
 1496 0666 0023     		movs	r3, #0
 1497 0668 BDE2     		b	.L110
 1498              	.L83:
ARM GAS  C:\Users\ep_ygh\AppData\Local\Temp\cctjGRE4.s 			page 39


 523:Projects/STM32F401RE-Nucleo/Examples/MotionControl/MicrosteppingMotor/Src/example_usart.c **** 				}
 524:Projects/STM32F401RE-Nucleo/Examples/MotionControl/MicrosteppingMotor/Src/example_usart.c **** 				/* The 2nd application command parameter (as a numeric value) is known */
 525:Projects/STM32F401RE-Nucleo/Examples/MotionControl/MicrosteppingMotor/Src/example_usart.c **** 
 526:Projects/STM32F401RE-Nucleo/Examples/MotionControl/MicrosteppingMotor/Src/example_usart.c **** 				/* Build the others bytes to transmit (N_STEP) */
 527:Projects/STM32F401RE-Nucleo/Examples/MotionControl/MicrosteppingMotor/Src/example_usart.c **** 				for (spibyte = 1; spibyte < (3 + 1); spibyte++) {
 1499              		.loc 1 527 18
 1500 066a 0123     		movs	r3, #1
 1501 066c 87F82E30 		strb	r3, [r7, #46]
 1502              		.loc 1 527 5
 1503 0670 17E0     		b	.L84
 1504              	.L85:
 528:Projects/STM32F401RE-Nucleo/Examples/MotionControl/MicrosteppingMotor/Src/example_usart.c **** 					*(pL6470_DaisyChainSpiTxStruct
 529:Projects/STM32F401RE-Nucleo/Examples/MotionControl/MicrosteppingMotor/Src/example_usart.c **** 							+ ((spibyte * L6470DAISYCHAINSIZE) + L6470_Id)) =
 530:Projects/STM32F401RE-Nucleo/Examples/MotionControl/MicrosteppingMotor/Src/example_usart.c **** 							(uint8_t) (NumericValue >> (8 * (3 - spibyte)));
 1505              		.loc 1 530 32 discriminator 3
 1506 0672 FA68     		ldr	r2, [r7, #12]
 1507              		.loc 1 530 43 discriminator 3
 1508 0674 97F82E30 		ldrb	r3, [r7, #46]	@ zero_extendqisi2
 1509 0678 C3F10303 		rsb	r3, r3, #3
 1510              		.loc 1 530 38 discriminator 3
 1511 067c DB00     		lsls	r3, r3, #3
 1512              		.loc 1 530 32 discriminator 3
 1513 067e 22FA03F1 		lsr	r1, r2, r3
 529:Projects/STM32F401RE-Nucleo/Examples/MotionControl/MicrosteppingMotor/Src/example_usart.c **** 							(uint8_t) (NumericValue >> (8 * (3 - spibyte)));
 1514              		.loc 1 529 20 discriminator 3
 1515 0682 97F82E30 		ldrb	r3, [r7, #46]	@ zero_extendqisi2
 1516 0686 5A00     		lsls	r2, r3, #1
 529:Projects/STM32F401RE-Nucleo/Examples/MotionControl/MicrosteppingMotor/Src/example_usart.c **** 							(uint8_t) (NumericValue >> (8 * (3 - spibyte)));
 1517              		.loc 1 529 43 discriminator 3
 1518 0688 97F82330 		ldrb	r3, [r7, #35]	@ zero_extendqisi2
 1519 068c 1344     		add	r3, r3, r2
 1520 068e 1A46     		mov	r2, r3
 529:Projects/STM32F401RE-Nucleo/Examples/MotionControl/MicrosteppingMotor/Src/example_usart.c **** 							(uint8_t) (NumericValue >> (8 * (3 - spibyte)));
 1521              		.loc 1 529 8 discriminator 3
 1522 0690 3B68     		ldr	r3, [r7]
 1523 0692 1344     		add	r3, r3, r2
 1524              		.loc 1 530 8 discriminator 3
 1525 0694 CAB2     		uxtb	r2, r1
 529:Projects/STM32F401RE-Nucleo/Examples/MotionControl/MicrosteppingMotor/Src/example_usart.c **** 							(uint8_t) (NumericValue >> (8 * (3 - spibyte)));
 1526              		.loc 1 529 56 discriminator 3
 1527 0696 1A70     		strb	r2, [r3]
 527:Projects/STM32F401RE-Nucleo/Examples/MotionControl/MicrosteppingMotor/Src/example_usart.c **** 					*(pL6470_DaisyChainSpiTxStruct
 1528              		.loc 1 527 49 discriminator 3
 1529 0698 97F82E30 		ldrb	r3, [r7, #46]	@ zero_extendqisi2
 1530 069c 0133     		adds	r3, r3, #1
 1531 069e 87F82E30 		strb	r3, [r7, #46]
 1532              	.L84:
 527:Projects/STM32F401RE-Nucleo/Examples/MotionControl/MicrosteppingMotor/Src/example_usart.c **** 					*(pL6470_DaisyChainSpiTxStruct
 1533              		.loc 1 527 5 discriminator 1
 1534 06a2 97F82E30 		ldrb	r3, [r7, #46]	@ zero_extendqisi2
 1535 06a6 032B     		cmp	r3, #3
 1536 06a8 E3D9     		bls	.L85
 531:Projects/STM32F401RE-Nucleo/Examples/MotionControl/MicrosteppingMotor/Src/example_usart.c **** 				}
 532:Projects/STM32F401RE-Nucleo/Examples/MotionControl/MicrosteppingMotor/Src/example_usart.c **** 				break;
 1537              		.loc 1 532 5
 1538 06aa 50E2     		b	.L107
 1539              	.L58:
ARM GAS  C:\Users\ep_ygh\AppData\Local\Temp\cctjGRE4.s 			page 40


 533:Projects/STM32F401RE-Nucleo/Examples/MotionControl/MicrosteppingMotor/Src/example_usart.c **** 			case L6470_GOTO_ID:
 534:Projects/STM32F401RE-Nucleo/Examples/MotionControl/MicrosteppingMotor/Src/example_usart.c **** 				/* Build the 1st byte to transmit */
 535:Projects/STM32F401RE-Nucleo/Examples/MotionControl/MicrosteppingMotor/Src/example_usart.c **** 				*(pL6470_DaisyChainSpiTxStruct
 536:Projects/STM32F401RE-Nucleo/Examples/MotionControl/MicrosteppingMotor/Src/example_usart.c **** 						+ ((0 * L6470DAISYCHAINSIZE) + L6470_Id)) = 0x60;
 1540              		.loc 1 536 36
 1541 06ac 97F82330 		ldrb	r3, [r7, #35]	@ zero_extendqisi2
 1542              		.loc 1 536 7
 1543 06b0 3A68     		ldr	r2, [r7]
 1544 06b2 1344     		add	r3, r3, r2
 1545              		.loc 1 536 49
 1546 06b4 6022     		movs	r2, #96
 1547 06b6 1A70     		strb	r2, [r3]
 537:Projects/STM32F401RE-Nucleo/Examples/MotionControl/MicrosteppingMotor/Src/example_usart.c **** 
 538:Projects/STM32F401RE-Nucleo/Examples/MotionControl/MicrosteppingMotor/Src/example_usart.c **** 				/* Checks the numeric parameter that has been entered */
 539:Projects/STM32F401RE-Nucleo/Examples/MotionControl/MicrosteppingMotor/Src/example_usart.c **** 				if (!str2num(
 540:Projects/STM32F401RE-Nucleo/Examples/MotionControl/MicrosteppingMotor/Src/example_usart.c **** 						(uint8_t*) (pL6470_TextCommandBundle + CmdTxt_id)->Param[0],
 1548              		.loc 1 540 44
 1549 06b8 97F82C20 		ldrb	r2, [r7, #44]	@ zero_extendqisi2
 1550 06bc 1346     		mov	r3, r2
 1551 06be 5B00     		lsls	r3, r3, #1
 1552 06c0 1344     		add	r3, r3, r2
 1553 06c2 1B01     		lsls	r3, r3, #4
 1554 06c4 1A46     		mov	r2, r3
 1555 06c6 7B68     		ldr	r3, [r7, #4]
 1556 06c8 1344     		add	r3, r3, r2
 1557              		.loc 1 540 18
 1558 06ca 0F33     		adds	r3, r3, #15
 539:Projects/STM32F401RE-Nucleo/Examples/MotionControl/MicrosteppingMotor/Src/example_usart.c **** 						(uint8_t*) (pL6470_TextCommandBundle + CmdTxt_id)->Param[0],
 1559              		.loc 1 539 10
 1560 06cc 07F10C02 		add	r2, r7, #12
 1561 06d0 1146     		mov	r1, r2
 1562 06d2 1846     		mov	r0, r3
 1563 06d4 FFF7FEFF 		bl	str2num
 1564 06d8 0346     		mov	r3, r0
 539:Projects/STM32F401RE-Nucleo/Examples/MotionControl/MicrosteppingMotor/Src/example_usart.c **** 						(uint8_t*) (pL6470_TextCommandBundle + CmdTxt_id)->Param[0],
 1565              		.loc 1 539 8
 1566 06da 002B     		cmp	r3, #0
 1567 06dc 05D1     		bne	.L86
 541:Projects/STM32F401RE-Nucleo/Examples/MotionControl/MicrosteppingMotor/Src/example_usart.c **** 						&NumericValue)) {
 542:Projects/STM32F401RE-Nucleo/Examples/MotionControl/MicrosteppingMotor/Src/example_usart.c **** #ifdef NUCLEO_USE_USART
 543:Projects/STM32F401RE-Nucleo/Examples/MotionControl/MicrosteppingMotor/Src/example_usart.c **** 					USART_Transmit(&huart2, (uint8_t *)"It is not possible to recognize any numeric value.\r\n\r\n
 1568              		.loc 1 543 6
 1569 06de 1949     		ldr	r1, .L113+16
 1570 06e0 1648     		ldr	r0, .L113+8
 1571 06e2 FFF7FEFF 		bl	USART_Transmit
 544:Projects/STM32F401RE-Nucleo/Examples/MotionControl/MicrosteppingMotor/Src/example_usart.c **** #endif
 545:Projects/STM32F401RE-Nucleo/Examples/MotionControl/MicrosteppingMotor/Src/example_usart.c **** 					return RESET;
 1572              		.loc 1 545 13
 1573 06e6 0023     		movs	r3, #0
 1574 06e8 7DE2     		b	.L110
 1575              	.L86:
 546:Projects/STM32F401RE-Nucleo/Examples/MotionControl/MicrosteppingMotor/Src/example_usart.c **** 				}
 547:Projects/STM32F401RE-Nucleo/Examples/MotionControl/MicrosteppingMotor/Src/example_usart.c **** 				/* The application command parameter (as a numeric value) is known */
 548:Projects/STM32F401RE-Nucleo/Examples/MotionControl/MicrosteppingMotor/Src/example_usart.c **** 
 549:Projects/STM32F401RE-Nucleo/Examples/MotionControl/MicrosteppingMotor/Src/example_usart.c **** 				/* Build the others bytes to transmit (ABS_POS) */
 550:Projects/STM32F401RE-Nucleo/Examples/MotionControl/MicrosteppingMotor/Src/example_usart.c **** 				for (spibyte = 1; spibyte < (3 + 1); spibyte++) {
 1576              		.loc 1 550 18
ARM GAS  C:\Users\ep_ygh\AppData\Local\Temp\cctjGRE4.s 			page 41


 1577 06ea 0123     		movs	r3, #1
 1578 06ec 87F82E30 		strb	r3, [r7, #46]
 1579              		.loc 1 550 5
 1580 06f0 17E0     		b	.L87
 1581              	.L88:
 551:Projects/STM32F401RE-Nucleo/Examples/MotionControl/MicrosteppingMotor/Src/example_usart.c **** 					*(pL6470_DaisyChainSpiTxStruct
 552:Projects/STM32F401RE-Nucleo/Examples/MotionControl/MicrosteppingMotor/Src/example_usart.c **** 							+ ((spibyte * L6470DAISYCHAINSIZE) + L6470_Id)) =
 553:Projects/STM32F401RE-Nucleo/Examples/MotionControl/MicrosteppingMotor/Src/example_usart.c **** 							(uint8_t) (NumericValue >> (8 * (3 - spibyte)));
 1582              		.loc 1 553 32 discriminator 3
 1583 06f2 FA68     		ldr	r2, [r7, #12]
 1584              		.loc 1 553 43 discriminator 3
 1585 06f4 97F82E30 		ldrb	r3, [r7, #46]	@ zero_extendqisi2
 1586 06f8 C3F10303 		rsb	r3, r3, #3
 1587              		.loc 1 553 38 discriminator 3
 1588 06fc DB00     		lsls	r3, r3, #3
 1589              		.loc 1 553 32 discriminator 3
 1590 06fe 22FA03F1 		lsr	r1, r2, r3
 552:Projects/STM32F401RE-Nucleo/Examples/MotionControl/MicrosteppingMotor/Src/example_usart.c **** 							(uint8_t) (NumericValue >> (8 * (3 - spibyte)));
 1591              		.loc 1 552 20 discriminator 3
 1592 0702 97F82E30 		ldrb	r3, [r7, #46]	@ zero_extendqisi2
 1593 0706 5A00     		lsls	r2, r3, #1
 552:Projects/STM32F401RE-Nucleo/Examples/MotionControl/MicrosteppingMotor/Src/example_usart.c **** 							(uint8_t) (NumericValue >> (8 * (3 - spibyte)));
 1594              		.loc 1 552 43 discriminator 3
 1595 0708 97F82330 		ldrb	r3, [r7, #35]	@ zero_extendqisi2
 1596 070c 1344     		add	r3, r3, r2
 1597 070e 1A46     		mov	r2, r3
 552:Projects/STM32F401RE-Nucleo/Examples/MotionControl/MicrosteppingMotor/Src/example_usart.c **** 							(uint8_t) (NumericValue >> (8 * (3 - spibyte)));
 1598              		.loc 1 552 8 discriminator 3
 1599 0710 3B68     		ldr	r3, [r7]
 1600 0712 1344     		add	r3, r3, r2
 1601              		.loc 1 553 8 discriminator 3
 1602 0714 CAB2     		uxtb	r2, r1
 552:Projects/STM32F401RE-Nucleo/Examples/MotionControl/MicrosteppingMotor/Src/example_usart.c **** 							(uint8_t) (NumericValue >> (8 * (3 - spibyte)));
 1603              		.loc 1 552 56 discriminator 3
 1604 0716 1A70     		strb	r2, [r3]
 550:Projects/STM32F401RE-Nucleo/Examples/MotionControl/MicrosteppingMotor/Src/example_usart.c **** 					*(pL6470_DaisyChainSpiTxStruct
 1605              		.loc 1 550 49 discriminator 3
 1606 0718 97F82E30 		ldrb	r3, [r7, #46]	@ zero_extendqisi2
 1607 071c 0133     		adds	r3, r3, #1
 1608 071e 87F82E30 		strb	r3, [r7, #46]
 1609              	.L87:
 550:Projects/STM32F401RE-Nucleo/Examples/MotionControl/MicrosteppingMotor/Src/example_usart.c **** 					*(pL6470_DaisyChainSpiTxStruct
 1610              		.loc 1 550 5 discriminator 1
 1611 0722 97F82E30 		ldrb	r3, [r7, #46]	@ zero_extendqisi2
 1612 0726 032B     		cmp	r3, #3
 1613 0728 E3D9     		bls	.L88
 554:Projects/STM32F401RE-Nucleo/Examples/MotionControl/MicrosteppingMotor/Src/example_usart.c **** 				}
 555:Projects/STM32F401RE-Nucleo/Examples/MotionControl/MicrosteppingMotor/Src/example_usart.c **** 				break;
 1614              		.loc 1 555 5
 1615 072a 10E2     		b	.L107
 1616              	.L57:
 556:Projects/STM32F401RE-Nucleo/Examples/MotionControl/MicrosteppingMotor/Src/example_usart.c **** 			case L6470_GOTODIR_ID:
 557:Projects/STM32F401RE-Nucleo/Examples/MotionControl/MicrosteppingMotor/Src/example_usart.c **** 				/* Checks the Motor Direction that has been entered (as 1st parameter) */
 558:Projects/STM32F401RE-Nucleo/Examples/MotionControl/MicrosteppingMotor/Src/example_usart.c **** 				L6470_DirId = (eL6470_DirId_t) 0;
 1617              		.loc 1 558 17
 1618 072c 0023     		movs	r3, #0
 1619 072e 87F82530 		strb	r3, [r7, #37]
ARM GAS  C:\Users\ep_ygh\AppData\Local\Temp\cctjGRE4.s 			page 42


 559:Projects/STM32F401RE-Nucleo/Examples/MotionControl/MicrosteppingMotor/Src/example_usart.c **** 				while (!CompareTwoTextString(
 1620              		.loc 1 559 11
 1621 0732 18E0     		b	.L89
 1622              	.L114:
 1623              		.align	2
 1624              	.L113:
 1625 0734 00000000 		.word	L6470_Register
 1626 0738 A0010000 		.word	.LC8
 1627 073c 00000000 		.word	huart2
 1628 0740 00000000 		.word	L6470_Direction
 1629 0744 68010000 		.word	.LC7
 1630              	.L90:
 560:Projects/STM32F401RE-Nucleo/Examples/MotionControl/MicrosteppingMotor/Src/example_usart.c **** 						(uint8_t*) (pL6470_TextCommandBundle + CmdTxt_id)->Param[0],
 561:Projects/STM32F401RE-Nucleo/Examples/MotionControl/MicrosteppingMotor/Src/example_usart.c **** 						(uint8_t*) L6470_Direction[L6470_DirId].Mnemonic)) {
 562:Projects/STM32F401RE-Nucleo/Examples/MotionControl/MicrosteppingMotor/Src/example_usart.c **** 					L6470_DirId++;
 1631              		.loc 1 562 17
 1632 0748 97F82530 		ldrb	r3, [r7, #37]	@ zero_extendqisi2
 1633 074c 0133     		adds	r3, r3, #1
 1634 074e 87F82530 		strb	r3, [r7, #37]
 563:Projects/STM32F401RE-Nucleo/Examples/MotionControl/MicrosteppingMotor/Src/example_usart.c **** 					if (L6470_DirId == L6470DIRIDSIZE) {
 1635              		.loc 1 563 9
 1636 0752 97F82530 		ldrb	r3, [r7, #37]	@ zero_extendqisi2
 1637 0756 022B     		cmp	r3, #2
 1638 0758 05D1     		bne	.L89
 564:Projects/STM32F401RE-Nucleo/Examples/MotionControl/MicrosteppingMotor/Src/example_usart.c **** #ifdef NUCLEO_USE_USART
 565:Projects/STM32F401RE-Nucleo/Examples/MotionControl/MicrosteppingMotor/Src/example_usart.c **** 						USART_Transmit(&huart2, (uint8_t *)"It is not possible to recognize any direction.\r\n\r\n");
 1639              		.loc 1 565 7
 1640 075a CA49     		ldr	r1, .L115
 1641 075c CA48     		ldr	r0, .L115+4
 1642 075e FFF7FEFF 		bl	USART_Transmit
 566:Projects/STM32F401RE-Nucleo/Examples/MotionControl/MicrosteppingMotor/Src/example_usart.c **** #endif
 567:Projects/STM32F401RE-Nucleo/Examples/MotionControl/MicrosteppingMotor/Src/example_usart.c **** 						return RESET;
 1643              		.loc 1 567 14
 1644 0762 0023     		movs	r3, #0
 1645 0764 3FE2     		b	.L110
 1646              	.L89:
 560:Projects/STM32F401RE-Nucleo/Examples/MotionControl/MicrosteppingMotor/Src/example_usart.c **** 						(uint8_t*) L6470_Direction[L6470_DirId].Mnemonic)) {
 1647              		.loc 1 560 44
 1648 0766 97F82C20 		ldrb	r2, [r7, #44]	@ zero_extendqisi2
 1649 076a 1346     		mov	r3, r2
 1650 076c 5B00     		lsls	r3, r3, #1
 1651 076e 1344     		add	r3, r3, r2
 1652 0770 1B01     		lsls	r3, r3, #4
 1653 0772 1A46     		mov	r2, r3
 1654 0774 7B68     		ldr	r3, [r7, #4]
 1655 0776 1344     		add	r3, r3, r2
 560:Projects/STM32F401RE-Nucleo/Examples/MotionControl/MicrosteppingMotor/Src/example_usart.c **** 						(uint8_t*) L6470_Direction[L6470_DirId].Mnemonic)) {
 1656              		.loc 1 560 18
 1657 0778 03F10F00 		add	r0, r3, #15
 561:Projects/STM32F401RE-Nucleo/Examples/MotionControl/MicrosteppingMotor/Src/example_usart.c **** 					L6470_DirId++;
 1658              		.loc 1 561 46
 1659 077c 97F82520 		ldrb	r2, [r7, #37]	@ zero_extendqisi2
 561:Projects/STM32F401RE-Nucleo/Examples/MotionControl/MicrosteppingMotor/Src/example_usart.c **** 					L6470_DirId++;
 1660              		.loc 1 561 18
 1661 0780 1346     		mov	r3, r2
 1662 0782 DB00     		lsls	r3, r3, #3
 1663 0784 1344     		add	r3, r3, r2
ARM GAS  C:\Users\ep_ygh\AppData\Local\Temp\cctjGRE4.s 			page 43


 1664 0786 C14A     		ldr	r2, .L115+8
 1665 0788 1344     		add	r3, r3, r2
 559:Projects/STM32F401RE-Nucleo/Examples/MotionControl/MicrosteppingMotor/Src/example_usart.c **** 						(uint8_t*) (pL6470_TextCommandBundle + CmdTxt_id)->Param[0],
 1666              		.loc 1 559 13
 1667 078a 1946     		mov	r1, r3
 1668 078c FFF7FEFF 		bl	CompareTwoTextString
 1669 0790 0346     		mov	r3, r0
 559:Projects/STM32F401RE-Nucleo/Examples/MotionControl/MicrosteppingMotor/Src/example_usart.c **** 						(uint8_t*) (pL6470_TextCommandBundle + CmdTxt_id)->Param[0],
 1670              		.loc 1 559 11
 1671 0792 002B     		cmp	r3, #0
 1672 0794 D8D0     		beq	.L90
 568:Projects/STM32F401RE-Nucleo/Examples/MotionControl/MicrosteppingMotor/Src/example_usart.c **** 					}
 569:Projects/STM32F401RE-Nucleo/Examples/MotionControl/MicrosteppingMotor/Src/example_usart.c **** 				}
 570:Projects/STM32F401RE-Nucleo/Examples/MotionControl/MicrosteppingMotor/Src/example_usart.c **** 				/* The 1st application command parameter (as DIR) is known ************** */
 571:Projects/STM32F401RE-Nucleo/Examples/MotionControl/MicrosteppingMotor/Src/example_usart.c **** 				/* Build the 1st byte to transmit */
 572:Projects/STM32F401RE-Nucleo/Examples/MotionControl/MicrosteppingMotor/Src/example_usart.c **** 				*(pL6470_DaisyChainSpiTxStruct
 573:Projects/STM32F401RE-Nucleo/Examples/MotionControl/MicrosteppingMotor/Src/example_usart.c **** 						+ ((0 * L6470DAISYCHAINSIZE) + L6470_Id)) = 0x68
 1673              		.loc 1 573 36
 1674 0796 97F82330 		ldrb	r3, [r7, #35]	@ zero_extendqisi2
 1675              		.loc 1 573 7
 1676 079a 3A68     		ldr	r2, [r7]
 1677 079c 1344     		add	r3, r3, r2
 1678              		.loc 1 573 49
 1679 079e 97F82520 		ldrb	r2, [r7, #37]
 1680 07a2 42F06802 		orr	r2, r2, #104
 1681 07a6 D2B2     		uxtb	r2, r2
 1682 07a8 1A70     		strb	r2, [r3]
 574:Projects/STM32F401RE-Nucleo/Examples/MotionControl/MicrosteppingMotor/Src/example_usart.c **** 						| L6470_DirId;
 575:Projects/STM32F401RE-Nucleo/Examples/MotionControl/MicrosteppingMotor/Src/example_usart.c **** 
 576:Projects/STM32F401RE-Nucleo/Examples/MotionControl/MicrosteppingMotor/Src/example_usart.c **** 				/* Checks the numeric parameter that has been entered (as 2nd parameter) */
 577:Projects/STM32F401RE-Nucleo/Examples/MotionControl/MicrosteppingMotor/Src/example_usart.c **** 				if (!str2num(
 578:Projects/STM32F401RE-Nucleo/Examples/MotionControl/MicrosteppingMotor/Src/example_usart.c **** 						(uint8_t*) (pL6470_TextCommandBundle + CmdTxt_id)->Param[1],
 1683              		.loc 1 578 44
 1684 07aa 97F82C20 		ldrb	r2, [r7, #44]	@ zero_extendqisi2
 1685 07ae 1346     		mov	r3, r2
 1686 07b0 5B00     		lsls	r3, r3, #1
 1687 07b2 1344     		add	r3, r3, r2
 1688 07b4 1B01     		lsls	r3, r3, #4
 1689 07b6 1A46     		mov	r2, r3
 1690 07b8 7B68     		ldr	r3, [r7, #4]
 1691 07ba 1344     		add	r3, r3, r2
 1692              		.loc 1 578 18
 1693 07bc 1A33     		adds	r3, r3, #26
 577:Projects/STM32F401RE-Nucleo/Examples/MotionControl/MicrosteppingMotor/Src/example_usart.c **** 						(uint8_t*) (pL6470_TextCommandBundle + CmdTxt_id)->Param[1],
 1694              		.loc 1 577 10
 1695 07be 07F10C02 		add	r2, r7, #12
 1696 07c2 1146     		mov	r1, r2
 1697 07c4 1846     		mov	r0, r3
 1698 07c6 FFF7FEFF 		bl	str2num
 1699 07ca 0346     		mov	r3, r0
 577:Projects/STM32F401RE-Nucleo/Examples/MotionControl/MicrosteppingMotor/Src/example_usart.c **** 						(uint8_t*) (pL6470_TextCommandBundle + CmdTxt_id)->Param[1],
 1700              		.loc 1 577 8
 1701 07cc 002B     		cmp	r3, #0
 1702 07ce 05D1     		bne	.L91
 579:Projects/STM32F401RE-Nucleo/Examples/MotionControl/MicrosteppingMotor/Src/example_usart.c **** 						&NumericValue)) {
 580:Projects/STM32F401RE-Nucleo/Examples/MotionControl/MicrosteppingMotor/Src/example_usart.c **** #ifdef NUCLEO_USE_USART
 581:Projects/STM32F401RE-Nucleo/Examples/MotionControl/MicrosteppingMotor/Src/example_usart.c **** 					USART_Transmit(&huart2, (uint8_t *)"It is not possible to recognize any numeric value.\r\n\r\n
ARM GAS  C:\Users\ep_ygh\AppData\Local\Temp\cctjGRE4.s 			page 44


 1703              		.loc 1 581 6
 1704 07d0 AF49     		ldr	r1, .L115+12
 1705 07d2 AD48     		ldr	r0, .L115+4
 1706 07d4 FFF7FEFF 		bl	USART_Transmit
 582:Projects/STM32F401RE-Nucleo/Examples/MotionControl/MicrosteppingMotor/Src/example_usart.c **** #endif
 583:Projects/STM32F401RE-Nucleo/Examples/MotionControl/MicrosteppingMotor/Src/example_usart.c **** 					return RESET;
 1707              		.loc 1 583 13
 1708 07d8 0023     		movs	r3, #0
 1709 07da 04E2     		b	.L110
 1710              	.L91:
 584:Projects/STM32F401RE-Nucleo/Examples/MotionControl/MicrosteppingMotor/Src/example_usart.c **** 				}
 585:Projects/STM32F401RE-Nucleo/Examples/MotionControl/MicrosteppingMotor/Src/example_usart.c **** 				/* The 2nd application command parameter (as a numeric value) is known */
 586:Projects/STM32F401RE-Nucleo/Examples/MotionControl/MicrosteppingMotor/Src/example_usart.c **** 
 587:Projects/STM32F401RE-Nucleo/Examples/MotionControl/MicrosteppingMotor/Src/example_usart.c **** 				/* Build the others bytes to transmit (ABS_POS) */
 588:Projects/STM32F401RE-Nucleo/Examples/MotionControl/MicrosteppingMotor/Src/example_usart.c **** 				for (spibyte = 1; spibyte < (3 + 1); spibyte++) {
 1711              		.loc 1 588 18
 1712 07dc 0123     		movs	r3, #1
 1713 07de 87F82E30 		strb	r3, [r7, #46]
 1714              		.loc 1 588 5
 1715 07e2 17E0     		b	.L92
 1716              	.L93:
 589:Projects/STM32F401RE-Nucleo/Examples/MotionControl/MicrosteppingMotor/Src/example_usart.c **** 					*(pL6470_DaisyChainSpiTxStruct
 590:Projects/STM32F401RE-Nucleo/Examples/MotionControl/MicrosteppingMotor/Src/example_usart.c **** 							+ ((spibyte * L6470DAISYCHAINSIZE) + L6470_Id)) =
 591:Projects/STM32F401RE-Nucleo/Examples/MotionControl/MicrosteppingMotor/Src/example_usart.c **** 							(uint8_t) (NumericValue >> (8 * (3 - spibyte)));
 1717              		.loc 1 591 32 discriminator 3
 1718 07e4 FA68     		ldr	r2, [r7, #12]
 1719              		.loc 1 591 43 discriminator 3
 1720 07e6 97F82E30 		ldrb	r3, [r7, #46]	@ zero_extendqisi2
 1721 07ea C3F10303 		rsb	r3, r3, #3
 1722              		.loc 1 591 38 discriminator 3
 1723 07ee DB00     		lsls	r3, r3, #3
 1724              		.loc 1 591 32 discriminator 3
 1725 07f0 22FA03F1 		lsr	r1, r2, r3
 590:Projects/STM32F401RE-Nucleo/Examples/MotionControl/MicrosteppingMotor/Src/example_usart.c **** 							(uint8_t) (NumericValue >> (8 * (3 - spibyte)));
 1726              		.loc 1 590 20 discriminator 3
 1727 07f4 97F82E30 		ldrb	r3, [r7, #46]	@ zero_extendqisi2
 1728 07f8 5A00     		lsls	r2, r3, #1
 590:Projects/STM32F401RE-Nucleo/Examples/MotionControl/MicrosteppingMotor/Src/example_usart.c **** 							(uint8_t) (NumericValue >> (8 * (3 - spibyte)));
 1729              		.loc 1 590 43 discriminator 3
 1730 07fa 97F82330 		ldrb	r3, [r7, #35]	@ zero_extendqisi2
 1731 07fe 1344     		add	r3, r3, r2
 1732 0800 1A46     		mov	r2, r3
 590:Projects/STM32F401RE-Nucleo/Examples/MotionControl/MicrosteppingMotor/Src/example_usart.c **** 							(uint8_t) (NumericValue >> (8 * (3 - spibyte)));
 1733              		.loc 1 590 8 discriminator 3
 1734 0802 3B68     		ldr	r3, [r7]
 1735 0804 1344     		add	r3, r3, r2
 1736              		.loc 1 591 8 discriminator 3
 1737 0806 CAB2     		uxtb	r2, r1
 590:Projects/STM32F401RE-Nucleo/Examples/MotionControl/MicrosteppingMotor/Src/example_usart.c **** 							(uint8_t) (NumericValue >> (8 * (3 - spibyte)));
 1738              		.loc 1 590 56 discriminator 3
 1739 0808 1A70     		strb	r2, [r3]
 588:Projects/STM32F401RE-Nucleo/Examples/MotionControl/MicrosteppingMotor/Src/example_usart.c **** 					*(pL6470_DaisyChainSpiTxStruct
 1740              		.loc 1 588 49 discriminator 3
 1741 080a 97F82E30 		ldrb	r3, [r7, #46]	@ zero_extendqisi2
 1742 080e 0133     		adds	r3, r3, #1
 1743 0810 87F82E30 		strb	r3, [r7, #46]
 1744              	.L92:
ARM GAS  C:\Users\ep_ygh\AppData\Local\Temp\cctjGRE4.s 			page 45


 588:Projects/STM32F401RE-Nucleo/Examples/MotionControl/MicrosteppingMotor/Src/example_usart.c **** 					*(pL6470_DaisyChainSpiTxStruct
 1745              		.loc 1 588 5 discriminator 1
 1746 0814 97F82E30 		ldrb	r3, [r7, #46]	@ zero_extendqisi2
 1747 0818 032B     		cmp	r3, #3
 1748 081a E3D9     		bls	.L93
 592:Projects/STM32F401RE-Nucleo/Examples/MotionControl/MicrosteppingMotor/Src/example_usart.c **** 				}
 593:Projects/STM32F401RE-Nucleo/Examples/MotionControl/MicrosteppingMotor/Src/example_usart.c **** 				break;
 1749              		.loc 1 593 5
 1750 081c 97E1     		b	.L107
 1751              	.L56:
 594:Projects/STM32F401RE-Nucleo/Examples/MotionControl/MicrosteppingMotor/Src/example_usart.c **** 			case L6470_GOUNTIL_ID:
 595:Projects/STM32F401RE-Nucleo/Examples/MotionControl/MicrosteppingMotor/Src/example_usart.c **** 				/* Checks the Action about ABS_POS register that has been entered (as 1st parameter) */
 596:Projects/STM32F401RE-Nucleo/Examples/MotionControl/MicrosteppingMotor/Src/example_usart.c **** 				L6470_ActId = (eL6470_ActId_t) 0;
 1752              		.loc 1 596 17
 1753 081e 0023     		movs	r3, #0
 1754 0820 87F82430 		strb	r3, [r7, #36]
 597:Projects/STM32F401RE-Nucleo/Examples/MotionControl/MicrosteppingMotor/Src/example_usart.c **** 				while (!CompareTwoTextString(
 1755              		.loc 1 597 11
 1756 0824 0EE0     		b	.L94
 1757              	.L95:
 598:Projects/STM32F401RE-Nucleo/Examples/MotionControl/MicrosteppingMotor/Src/example_usart.c **** 						(uint8_t*) (pL6470_TextCommandBundle + CmdTxt_id)->Param[0],
 599:Projects/STM32F401RE-Nucleo/Examples/MotionControl/MicrosteppingMotor/Src/example_usart.c **** 						(uint8_t*) L6470_ACT[L6470_ActId].Mnemonic)) {
 600:Projects/STM32F401RE-Nucleo/Examples/MotionControl/MicrosteppingMotor/Src/example_usart.c **** 					L6470_ActId++;
 1758              		.loc 1 600 17
 1759 0826 97F82430 		ldrb	r3, [r7, #36]	@ zero_extendqisi2
 1760 082a 0133     		adds	r3, r3, #1
 1761 082c 87F82430 		strb	r3, [r7, #36]
 601:Projects/STM32F401RE-Nucleo/Examples/MotionControl/MicrosteppingMotor/Src/example_usart.c **** 					if (L6470_ActId == L6470ACTIDSIZE) {
 1762              		.loc 1 601 9
 1763 0830 97F82430 		ldrb	r3, [r7, #36]	@ zero_extendqisi2
 1764 0834 022B     		cmp	r3, #2
 1765 0836 05D1     		bne	.L94
 602:Projects/STM32F401RE-Nucleo/Examples/MotionControl/MicrosteppingMotor/Src/example_usart.c **** #ifdef NUCLEO_USE_USART
 603:Projects/STM32F401RE-Nucleo/Examples/MotionControl/MicrosteppingMotor/Src/example_usart.c **** 						USART_Transmit(&huart2, (uint8_t *)"It is not possible to recognize any action.\r\n\r\n");
 1766              		.loc 1 603 7
 1767 0838 9649     		ldr	r1, .L115+16
 1768 083a 9348     		ldr	r0, .L115+4
 1769 083c FFF7FEFF 		bl	USART_Transmit
 604:Projects/STM32F401RE-Nucleo/Examples/MotionControl/MicrosteppingMotor/Src/example_usart.c **** #endif
 605:Projects/STM32F401RE-Nucleo/Examples/MotionControl/MicrosteppingMotor/Src/example_usart.c **** 						return RESET;
 1770              		.loc 1 605 14
 1771 0840 0023     		movs	r3, #0
 1772 0842 D0E1     		b	.L110
 1773              	.L94:
 598:Projects/STM32F401RE-Nucleo/Examples/MotionControl/MicrosteppingMotor/Src/example_usart.c **** 						(uint8_t*) L6470_ACT[L6470_ActId].Mnemonic)) {
 1774              		.loc 1 598 44
 1775 0844 97F82C20 		ldrb	r2, [r7, #44]	@ zero_extendqisi2
 1776 0848 1346     		mov	r3, r2
 1777 084a 5B00     		lsls	r3, r3, #1
 1778 084c 1344     		add	r3, r3, r2
 1779 084e 1B01     		lsls	r3, r3, #4
 1780 0850 1A46     		mov	r2, r3
 1781 0852 7B68     		ldr	r3, [r7, #4]
 1782 0854 1344     		add	r3, r3, r2
 598:Projects/STM32F401RE-Nucleo/Examples/MotionControl/MicrosteppingMotor/Src/example_usart.c **** 						(uint8_t*) L6470_ACT[L6470_ActId].Mnemonic)) {
 1783              		.loc 1 598 18
 1784 0856 03F10F00 		add	r0, r3, #15
ARM GAS  C:\Users\ep_ygh\AppData\Local\Temp\cctjGRE4.s 			page 46


 599:Projects/STM32F401RE-Nucleo/Examples/MotionControl/MicrosteppingMotor/Src/example_usart.c **** 					L6470_ActId++;
 1785              		.loc 1 599 40
 1786 085a 97F82420 		ldrb	r2, [r7, #36]	@ zero_extendqisi2
 599:Projects/STM32F401RE-Nucleo/Examples/MotionControl/MicrosteppingMotor/Src/example_usart.c **** 					L6470_ActId++;
 1787              		.loc 1 599 18
 1788 085e 1346     		mov	r3, r2
 1789 0860 9B00     		lsls	r3, r3, #2
 1790 0862 1344     		add	r3, r3, r2
 1791 0864 8C4A     		ldr	r2, .L115+20
 1792 0866 1344     		add	r3, r3, r2
 597:Projects/STM32F401RE-Nucleo/Examples/MotionControl/MicrosteppingMotor/Src/example_usart.c **** 						(uint8_t*) (pL6470_TextCommandBundle + CmdTxt_id)->Param[0],
 1793              		.loc 1 597 13
 1794 0868 1946     		mov	r1, r3
 1795 086a FFF7FEFF 		bl	CompareTwoTextString
 1796 086e 0346     		mov	r3, r0
 597:Projects/STM32F401RE-Nucleo/Examples/MotionControl/MicrosteppingMotor/Src/example_usart.c **** 						(uint8_t*) (pL6470_TextCommandBundle + CmdTxt_id)->Param[0],
 1797              		.loc 1 597 11
 1798 0870 002B     		cmp	r3, #0
 1799 0872 D8D0     		beq	.L95
 606:Projects/STM32F401RE-Nucleo/Examples/MotionControl/MicrosteppingMotor/Src/example_usart.c **** 					}
 607:Projects/STM32F401RE-Nucleo/Examples/MotionControl/MicrosteppingMotor/Src/example_usart.c **** 				}
 608:Projects/STM32F401RE-Nucleo/Examples/MotionControl/MicrosteppingMotor/Src/example_usart.c **** 				/* The 1st application command parameter (as ACT) is known **************** */
 609:Projects/STM32F401RE-Nucleo/Examples/MotionControl/MicrosteppingMotor/Src/example_usart.c **** 				/* Build the 1st byte to transmit */
 610:Projects/STM32F401RE-Nucleo/Examples/MotionControl/MicrosteppingMotor/Src/example_usart.c **** 				*(pL6470_DaisyChainSpiTxStruct
 611:Projects/STM32F401RE-Nucleo/Examples/MotionControl/MicrosteppingMotor/Src/example_usart.c **** 						+ ((0 * L6470DAISYCHAINSIZE) + L6470_Id)) = 0x82
 612:Projects/STM32F401RE-Nucleo/Examples/MotionControl/MicrosteppingMotor/Src/example_usart.c **** 						| (L6470_ActId << 3);
 1800              		.loc 1 612 22
 1801 0874 97F82430 		ldrb	r3, [r7, #36]	@ zero_extendqisi2
 1802 0878 DB00     		lsls	r3, r3, #3
 1803              		.loc 1 612 7
 1804 087a 5BB2     		sxtb	r3, r3
 1805 087c 63F07D03 		orn	r3, r3, #125
 1806 0880 59B2     		sxtb	r1, r3
 611:Projects/STM32F401RE-Nucleo/Examples/MotionControl/MicrosteppingMotor/Src/example_usart.c **** 						| (L6470_ActId << 3);
 1807              		.loc 1 611 36
 1808 0882 97F82330 		ldrb	r3, [r7, #35]	@ zero_extendqisi2
 611:Projects/STM32F401RE-Nucleo/Examples/MotionControl/MicrosteppingMotor/Src/example_usart.c **** 						| (L6470_ActId << 3);
 1809              		.loc 1 611 7
 1810 0886 3A68     		ldr	r2, [r7]
 1811 0888 1344     		add	r3, r3, r2
 1812              		.loc 1 612 7
 1813 088a CAB2     		uxtb	r2, r1
 611:Projects/STM32F401RE-Nucleo/Examples/MotionControl/MicrosteppingMotor/Src/example_usart.c **** 						| (L6470_ActId << 3);
 1814              		.loc 1 611 49
 1815 088c 1A70     		strb	r2, [r3]
 613:Projects/STM32F401RE-Nucleo/Examples/MotionControl/MicrosteppingMotor/Src/example_usart.c **** 
 614:Projects/STM32F401RE-Nucleo/Examples/MotionControl/MicrosteppingMotor/Src/example_usart.c **** 				/* Checks the Motor Direction that has been entered (as 2nd parameter) */
 615:Projects/STM32F401RE-Nucleo/Examples/MotionControl/MicrosteppingMotor/Src/example_usart.c **** 				L6470_DirId = (eL6470_DirId_t) 0;
 1816              		.loc 1 615 17
 1817 088e 0023     		movs	r3, #0
 1818 0890 87F82530 		strb	r3, [r7, #37]
 616:Projects/STM32F401RE-Nucleo/Examples/MotionControl/MicrosteppingMotor/Src/example_usart.c **** 				while (!CompareTwoTextString(
 1819              		.loc 1 616 11
 1820 0894 0EE0     		b	.L96
 1821              	.L97:
 617:Projects/STM32F401RE-Nucleo/Examples/MotionControl/MicrosteppingMotor/Src/example_usart.c **** 						(uint8_t*) (pL6470_TextCommandBundle + CmdTxt_id)->Param[1],
 618:Projects/STM32F401RE-Nucleo/Examples/MotionControl/MicrosteppingMotor/Src/example_usart.c **** 						(uint8_t*) L6470_Direction[L6470_DirId].Mnemonic)) {
ARM GAS  C:\Users\ep_ygh\AppData\Local\Temp\cctjGRE4.s 			page 47


 619:Projects/STM32F401RE-Nucleo/Examples/MotionControl/MicrosteppingMotor/Src/example_usart.c **** 					L6470_DirId++;
 1822              		.loc 1 619 17
 1823 0896 97F82530 		ldrb	r3, [r7, #37]	@ zero_extendqisi2
 1824 089a 0133     		adds	r3, r3, #1
 1825 089c 87F82530 		strb	r3, [r7, #37]
 620:Projects/STM32F401RE-Nucleo/Examples/MotionControl/MicrosteppingMotor/Src/example_usart.c **** 					if (L6470_DirId == L6470DIRIDSIZE) {
 1826              		.loc 1 620 9
 1827 08a0 97F82530 		ldrb	r3, [r7, #37]	@ zero_extendqisi2
 1828 08a4 022B     		cmp	r3, #2
 1829 08a6 05D1     		bne	.L96
 621:Projects/STM32F401RE-Nucleo/Examples/MotionControl/MicrosteppingMotor/Src/example_usart.c **** #ifdef NUCLEO_USE_USART
 622:Projects/STM32F401RE-Nucleo/Examples/MotionControl/MicrosteppingMotor/Src/example_usart.c **** 						USART_Transmit(&huart2, (uint8_t *)"It is not possible to recognize any direction.\r\n\r\n");
 1830              		.loc 1 622 7
 1831 08a8 7649     		ldr	r1, .L115
 1832 08aa 7748     		ldr	r0, .L115+4
 1833 08ac FFF7FEFF 		bl	USART_Transmit
 623:Projects/STM32F401RE-Nucleo/Examples/MotionControl/MicrosteppingMotor/Src/example_usart.c **** #endif
 624:Projects/STM32F401RE-Nucleo/Examples/MotionControl/MicrosteppingMotor/Src/example_usart.c **** 						return RESET;
 1834              		.loc 1 624 14
 1835 08b0 0023     		movs	r3, #0
 1836 08b2 98E1     		b	.L110
 1837              	.L96:
 617:Projects/STM32F401RE-Nucleo/Examples/MotionControl/MicrosteppingMotor/Src/example_usart.c **** 						(uint8_t*) L6470_Direction[L6470_DirId].Mnemonic)) {
 1838              		.loc 1 617 44
 1839 08b4 97F82C20 		ldrb	r2, [r7, #44]	@ zero_extendqisi2
 1840 08b8 1346     		mov	r3, r2
 1841 08ba 5B00     		lsls	r3, r3, #1
 1842 08bc 1344     		add	r3, r3, r2
 1843 08be 1B01     		lsls	r3, r3, #4
 1844 08c0 1A46     		mov	r2, r3
 1845 08c2 7B68     		ldr	r3, [r7, #4]
 1846 08c4 1344     		add	r3, r3, r2
 617:Projects/STM32F401RE-Nucleo/Examples/MotionControl/MicrosteppingMotor/Src/example_usart.c **** 						(uint8_t*) L6470_Direction[L6470_DirId].Mnemonic)) {
 1847              		.loc 1 617 18
 1848 08c6 03F11A00 		add	r0, r3, #26
 618:Projects/STM32F401RE-Nucleo/Examples/MotionControl/MicrosteppingMotor/Src/example_usart.c **** 					L6470_DirId++;
 1849              		.loc 1 618 46
 1850 08ca 97F82520 		ldrb	r2, [r7, #37]	@ zero_extendqisi2
 618:Projects/STM32F401RE-Nucleo/Examples/MotionControl/MicrosteppingMotor/Src/example_usart.c **** 					L6470_DirId++;
 1851              		.loc 1 618 18
 1852 08ce 1346     		mov	r3, r2
 1853 08d0 DB00     		lsls	r3, r3, #3
 1854 08d2 1344     		add	r3, r3, r2
 1855 08d4 6D4A     		ldr	r2, .L115+8
 1856 08d6 1344     		add	r3, r3, r2
 616:Projects/STM32F401RE-Nucleo/Examples/MotionControl/MicrosteppingMotor/Src/example_usart.c **** 						(uint8_t*) (pL6470_TextCommandBundle + CmdTxt_id)->Param[1],
 1857              		.loc 1 616 13
 1858 08d8 1946     		mov	r1, r3
 1859 08da FFF7FEFF 		bl	CompareTwoTextString
 1860 08de 0346     		mov	r3, r0
 616:Projects/STM32F401RE-Nucleo/Examples/MotionControl/MicrosteppingMotor/Src/example_usart.c **** 						(uint8_t*) (pL6470_TextCommandBundle + CmdTxt_id)->Param[1],
 1861              		.loc 1 616 11
 1862 08e0 002B     		cmp	r3, #0
 1863 08e2 D8D0     		beq	.L97
 625:Projects/STM32F401RE-Nucleo/Examples/MotionControl/MicrosteppingMotor/Src/example_usart.c **** 					}
 626:Projects/STM32F401RE-Nucleo/Examples/MotionControl/MicrosteppingMotor/Src/example_usart.c **** 				}
 627:Projects/STM32F401RE-Nucleo/Examples/MotionControl/MicrosteppingMotor/Src/example_usart.c **** 				/* The 2nd application command parameter (as DIR) is known ************** */
ARM GAS  C:\Users\ep_ygh\AppData\Local\Temp\cctjGRE4.s 			page 48


 628:Projects/STM32F401RE-Nucleo/Examples/MotionControl/MicrosteppingMotor/Src/example_usart.c **** 				/* Build the 1st byte to transmit */
 629:Projects/STM32F401RE-Nucleo/Examples/MotionControl/MicrosteppingMotor/Src/example_usart.c **** 				*(pL6470_DaisyChainSpiTxStruct
 630:Projects/STM32F401RE-Nucleo/Examples/MotionControl/MicrosteppingMotor/Src/example_usart.c **** 						+ ((0 * L6470DAISYCHAINSIZE) + L6470_Id)) |=
 1864              		.loc 1 630 49
 1865 08e4 97F82330 		ldrb	r3, [r7, #35]	@ zero_extendqisi2
 1866 08e8 3A68     		ldr	r2, [r7]
 1867 08ea 1344     		add	r3, r3, r2
 1868 08ec 1978     		ldrb	r1, [r3]	@ zero_extendqisi2
 1869 08ee 97F82330 		ldrb	r3, [r7, #35]	@ zero_extendqisi2
 1870 08f2 3A68     		ldr	r2, [r7]
 1871 08f4 1344     		add	r3, r3, r2
 1872 08f6 97F82520 		ldrb	r2, [r7, #37]
 1873 08fa 0A43     		orrs	r2, r2, r1
 1874 08fc D2B2     		uxtb	r2, r2
 1875 08fe 1A70     		strb	r2, [r3]
 631:Projects/STM32F401RE-Nucleo/Examples/MotionControl/MicrosteppingMotor/Src/example_usart.c **** 						L6470_DirId;
 632:Projects/STM32F401RE-Nucleo/Examples/MotionControl/MicrosteppingMotor/Src/example_usart.c **** 
 633:Projects/STM32F401RE-Nucleo/Examples/MotionControl/MicrosteppingMotor/Src/example_usart.c **** 				/* Checks the numeric parameter that has been entered (as 3rd parameter) */
 634:Projects/STM32F401RE-Nucleo/Examples/MotionControl/MicrosteppingMotor/Src/example_usart.c **** 				if (!str2num(
 635:Projects/STM32F401RE-Nucleo/Examples/MotionControl/MicrosteppingMotor/Src/example_usart.c **** 						(uint8_t*) (pL6470_TextCommandBundle + CmdTxt_id)->Param[2],
 1876              		.loc 1 635 44
 1877 0900 97F82C20 		ldrb	r2, [r7, #44]	@ zero_extendqisi2
 1878 0904 1346     		mov	r3, r2
 1879 0906 5B00     		lsls	r3, r3, #1
 1880 0908 1344     		add	r3, r3, r2
 1881 090a 1B01     		lsls	r3, r3, #4
 1882 090c 1A46     		mov	r2, r3
 1883 090e 7B68     		ldr	r3, [r7, #4]
 1884 0910 1344     		add	r3, r3, r2
 1885              		.loc 1 635 18
 1886 0912 2533     		adds	r3, r3, #37
 634:Projects/STM32F401RE-Nucleo/Examples/MotionControl/MicrosteppingMotor/Src/example_usart.c **** 						(uint8_t*) (pL6470_TextCommandBundle + CmdTxt_id)->Param[2],
 1887              		.loc 1 634 10
 1888 0914 07F10C02 		add	r2, r7, #12
 1889 0918 1146     		mov	r1, r2
 1890 091a 1846     		mov	r0, r3
 1891 091c FFF7FEFF 		bl	str2num
 1892 0920 0346     		mov	r3, r0
 634:Projects/STM32F401RE-Nucleo/Examples/MotionControl/MicrosteppingMotor/Src/example_usart.c **** 						(uint8_t*) (pL6470_TextCommandBundle + CmdTxt_id)->Param[2],
 1893              		.loc 1 634 8
 1894 0922 002B     		cmp	r3, #0
 1895 0924 05D1     		bne	.L98
 636:Projects/STM32F401RE-Nucleo/Examples/MotionControl/MicrosteppingMotor/Src/example_usart.c **** 						&NumericValue)) {
 637:Projects/STM32F401RE-Nucleo/Examples/MotionControl/MicrosteppingMotor/Src/example_usart.c **** #ifdef NUCLEO_USE_USART
 638:Projects/STM32F401RE-Nucleo/Examples/MotionControl/MicrosteppingMotor/Src/example_usart.c **** 					USART_Transmit(&huart2, (uint8_t *)"It is not possible to recognize any numeric value.\r\n\r\n
 1896              		.loc 1 638 6
 1897 0926 5A49     		ldr	r1, .L115+12
 1898 0928 5748     		ldr	r0, .L115+4
 1899 092a FFF7FEFF 		bl	USART_Transmit
 639:Projects/STM32F401RE-Nucleo/Examples/MotionControl/MicrosteppingMotor/Src/example_usart.c **** #endif
 640:Projects/STM32F401RE-Nucleo/Examples/MotionControl/MicrosteppingMotor/Src/example_usart.c **** 					return RESET;
 1900              		.loc 1 640 13
 1901 092e 0023     		movs	r3, #0
 1902 0930 59E1     		b	.L110
 1903              	.L98:
 641:Projects/STM32F401RE-Nucleo/Examples/MotionControl/MicrosteppingMotor/Src/example_usart.c **** 				}
 642:Projects/STM32F401RE-Nucleo/Examples/MotionControl/MicrosteppingMotor/Src/example_usart.c **** 				/* The 3rd application command parameter (as a numeric value) is known */
ARM GAS  C:\Users\ep_ygh\AppData\Local\Temp\cctjGRE4.s 			page 49


 643:Projects/STM32F401RE-Nucleo/Examples/MotionControl/MicrosteppingMotor/Src/example_usart.c **** 
 644:Projects/STM32F401RE-Nucleo/Examples/MotionControl/MicrosteppingMotor/Src/example_usart.c **** 				/* Build the others bytes to transmit (SPD) */
 645:Projects/STM32F401RE-Nucleo/Examples/MotionControl/MicrosteppingMotor/Src/example_usart.c **** 				for (spibyte = 1; spibyte < (3 + 1); spibyte++) {
 1904              		.loc 1 645 18
 1905 0932 0123     		movs	r3, #1
 1906 0934 87F82E30 		strb	r3, [r7, #46]
 1907              		.loc 1 645 5
 1908 0938 17E0     		b	.L99
 1909              	.L100:
 646:Projects/STM32F401RE-Nucleo/Examples/MotionControl/MicrosteppingMotor/Src/example_usart.c **** 					*(pL6470_DaisyChainSpiTxStruct
 647:Projects/STM32F401RE-Nucleo/Examples/MotionControl/MicrosteppingMotor/Src/example_usart.c **** 							+ ((spibyte * L6470DAISYCHAINSIZE) + L6470_Id)) =
 648:Projects/STM32F401RE-Nucleo/Examples/MotionControl/MicrosteppingMotor/Src/example_usart.c **** 							(uint8_t) (NumericValue >> (8 * (3 - spibyte)));
 1910              		.loc 1 648 32 discriminator 3
 1911 093a FA68     		ldr	r2, [r7, #12]
 1912              		.loc 1 648 43 discriminator 3
 1913 093c 97F82E30 		ldrb	r3, [r7, #46]	@ zero_extendqisi2
 1914 0940 C3F10303 		rsb	r3, r3, #3
 1915              		.loc 1 648 38 discriminator 3
 1916 0944 DB00     		lsls	r3, r3, #3
 1917              		.loc 1 648 32 discriminator 3
 1918 0946 22FA03F1 		lsr	r1, r2, r3
 647:Projects/STM32F401RE-Nucleo/Examples/MotionControl/MicrosteppingMotor/Src/example_usart.c **** 							(uint8_t) (NumericValue >> (8 * (3 - spibyte)));
 1919              		.loc 1 647 20 discriminator 3
 1920 094a 97F82E30 		ldrb	r3, [r7, #46]	@ zero_extendqisi2
 1921 094e 5A00     		lsls	r2, r3, #1
 647:Projects/STM32F401RE-Nucleo/Examples/MotionControl/MicrosteppingMotor/Src/example_usart.c **** 							(uint8_t) (NumericValue >> (8 * (3 - spibyte)));
 1922              		.loc 1 647 43 discriminator 3
 1923 0950 97F82330 		ldrb	r3, [r7, #35]	@ zero_extendqisi2
 1924 0954 1344     		add	r3, r3, r2
 1925 0956 1A46     		mov	r2, r3
 647:Projects/STM32F401RE-Nucleo/Examples/MotionControl/MicrosteppingMotor/Src/example_usart.c **** 							(uint8_t) (NumericValue >> (8 * (3 - spibyte)));
 1926              		.loc 1 647 8 discriminator 3
 1927 0958 3B68     		ldr	r3, [r7]
 1928 095a 1344     		add	r3, r3, r2
 1929              		.loc 1 648 8 discriminator 3
 1930 095c CAB2     		uxtb	r2, r1
 647:Projects/STM32F401RE-Nucleo/Examples/MotionControl/MicrosteppingMotor/Src/example_usart.c **** 							(uint8_t) (NumericValue >> (8 * (3 - spibyte)));
 1931              		.loc 1 647 56 discriminator 3
 1932 095e 1A70     		strb	r2, [r3]
 645:Projects/STM32F401RE-Nucleo/Examples/MotionControl/MicrosteppingMotor/Src/example_usart.c **** 					*(pL6470_DaisyChainSpiTxStruct
 1933              		.loc 1 645 49 discriminator 3
 1934 0960 97F82E30 		ldrb	r3, [r7, #46]	@ zero_extendqisi2
 1935 0964 0133     		adds	r3, r3, #1
 1936 0966 87F82E30 		strb	r3, [r7, #46]
 1937              	.L99:
 645:Projects/STM32F401RE-Nucleo/Examples/MotionControl/MicrosteppingMotor/Src/example_usart.c **** 					*(pL6470_DaisyChainSpiTxStruct
 1938              		.loc 1 645 5 discriminator 1
 1939 096a 97F82E30 		ldrb	r3, [r7, #46]	@ zero_extendqisi2
 1940 096e 032B     		cmp	r3, #3
 1941 0970 E3D9     		bls	.L100
 649:Projects/STM32F401RE-Nucleo/Examples/MotionControl/MicrosteppingMotor/Src/example_usart.c **** 				}
 650:Projects/STM32F401RE-Nucleo/Examples/MotionControl/MicrosteppingMotor/Src/example_usart.c **** 				break;
 1942              		.loc 1 650 5
 1943 0972 ECE0     		b	.L107
 1944              	.L55:
 651:Projects/STM32F401RE-Nucleo/Examples/MotionControl/MicrosteppingMotor/Src/example_usart.c **** 			case L6470_RELEASESW_ID:
 652:Projects/STM32F401RE-Nucleo/Examples/MotionControl/MicrosteppingMotor/Src/example_usart.c **** 				/* Checks the Action about ABS_POS register that has been entered (as 1st parameter) */
ARM GAS  C:\Users\ep_ygh\AppData\Local\Temp\cctjGRE4.s 			page 50


 653:Projects/STM32F401RE-Nucleo/Examples/MotionControl/MicrosteppingMotor/Src/example_usart.c **** 				L6470_ActId = (eL6470_ActId_t) 0;
 1945              		.loc 1 653 17
 1946 0974 0023     		movs	r3, #0
 1947 0976 87F82430 		strb	r3, [r7, #36]
 654:Projects/STM32F401RE-Nucleo/Examples/MotionControl/MicrosteppingMotor/Src/example_usart.c **** 				while (!CompareTwoTextString(
 1948              		.loc 1 654 11
 1949 097a 0EE0     		b	.L101
 1950              	.L102:
 655:Projects/STM32F401RE-Nucleo/Examples/MotionControl/MicrosteppingMotor/Src/example_usart.c **** 						(uint8_t*) (pL6470_TextCommandBundle + CmdTxt_id)->Param[0],
 656:Projects/STM32F401RE-Nucleo/Examples/MotionControl/MicrosteppingMotor/Src/example_usart.c **** 						(uint8_t*) L6470_ACT[L6470_ActId].Mnemonic)) {
 657:Projects/STM32F401RE-Nucleo/Examples/MotionControl/MicrosteppingMotor/Src/example_usart.c **** 					L6470_ActId++;
 1951              		.loc 1 657 17
 1952 097c 97F82430 		ldrb	r3, [r7, #36]	@ zero_extendqisi2
 1953 0980 0133     		adds	r3, r3, #1
 1954 0982 87F82430 		strb	r3, [r7, #36]
 658:Projects/STM32F401RE-Nucleo/Examples/MotionControl/MicrosteppingMotor/Src/example_usart.c **** 					if (L6470_ActId == L6470ACTIDSIZE) {
 1955              		.loc 1 658 9
 1956 0986 97F82430 		ldrb	r3, [r7, #36]	@ zero_extendqisi2
 1957 098a 022B     		cmp	r3, #2
 1958 098c 05D1     		bne	.L101
 659:Projects/STM32F401RE-Nucleo/Examples/MotionControl/MicrosteppingMotor/Src/example_usart.c **** #ifdef NUCLEO_USE_USART
 660:Projects/STM32F401RE-Nucleo/Examples/MotionControl/MicrosteppingMotor/Src/example_usart.c **** 						USART_Transmit(&huart2, (uint8_t *)"It is not possible to recognize any action.\r\n\r\n");
 1959              		.loc 1 660 7
 1960 098e 4149     		ldr	r1, .L115+16
 1961 0990 3D48     		ldr	r0, .L115+4
 1962 0992 FFF7FEFF 		bl	USART_Transmit
 661:Projects/STM32F401RE-Nucleo/Examples/MotionControl/MicrosteppingMotor/Src/example_usart.c **** #endif
 662:Projects/STM32F401RE-Nucleo/Examples/MotionControl/MicrosteppingMotor/Src/example_usart.c **** 						return RESET;
 1963              		.loc 1 662 14
 1964 0996 0023     		movs	r3, #0
 1965 0998 25E1     		b	.L110
 1966              	.L101:
 655:Projects/STM32F401RE-Nucleo/Examples/MotionControl/MicrosteppingMotor/Src/example_usart.c **** 						(uint8_t*) L6470_ACT[L6470_ActId].Mnemonic)) {
 1967              		.loc 1 655 44
 1968 099a 97F82C20 		ldrb	r2, [r7, #44]	@ zero_extendqisi2
 1969 099e 1346     		mov	r3, r2
 1970 09a0 5B00     		lsls	r3, r3, #1
 1971 09a2 1344     		add	r3, r3, r2
 1972 09a4 1B01     		lsls	r3, r3, #4
 1973 09a6 1A46     		mov	r2, r3
 1974 09a8 7B68     		ldr	r3, [r7, #4]
 1975 09aa 1344     		add	r3, r3, r2
 655:Projects/STM32F401RE-Nucleo/Examples/MotionControl/MicrosteppingMotor/Src/example_usart.c **** 						(uint8_t*) L6470_ACT[L6470_ActId].Mnemonic)) {
 1976              		.loc 1 655 18
 1977 09ac 03F10F00 		add	r0, r3, #15
 656:Projects/STM32F401RE-Nucleo/Examples/MotionControl/MicrosteppingMotor/Src/example_usart.c **** 					L6470_ActId++;
 1978              		.loc 1 656 40
 1979 09b0 97F82420 		ldrb	r2, [r7, #36]	@ zero_extendqisi2
 656:Projects/STM32F401RE-Nucleo/Examples/MotionControl/MicrosteppingMotor/Src/example_usart.c **** 					L6470_ActId++;
 1980              		.loc 1 656 18
 1981 09b4 1346     		mov	r3, r2
 1982 09b6 9B00     		lsls	r3, r3, #2
 1983 09b8 1344     		add	r3, r3, r2
 1984 09ba 374A     		ldr	r2, .L115+20
 1985 09bc 1344     		add	r3, r3, r2
 654:Projects/STM32F401RE-Nucleo/Examples/MotionControl/MicrosteppingMotor/Src/example_usart.c **** 						(uint8_t*) (pL6470_TextCommandBundle + CmdTxt_id)->Param[0],
 1986              		.loc 1 654 13
ARM GAS  C:\Users\ep_ygh\AppData\Local\Temp\cctjGRE4.s 			page 51


 1987 09be 1946     		mov	r1, r3
 1988 09c0 FFF7FEFF 		bl	CompareTwoTextString
 1989 09c4 0346     		mov	r3, r0
 654:Projects/STM32F401RE-Nucleo/Examples/MotionControl/MicrosteppingMotor/Src/example_usart.c **** 						(uint8_t*) (pL6470_TextCommandBundle + CmdTxt_id)->Param[0],
 1990              		.loc 1 654 11
 1991 09c6 002B     		cmp	r3, #0
 1992 09c8 D8D0     		beq	.L102
 663:Projects/STM32F401RE-Nucleo/Examples/MotionControl/MicrosteppingMotor/Src/example_usart.c **** 					}
 664:Projects/STM32F401RE-Nucleo/Examples/MotionControl/MicrosteppingMotor/Src/example_usart.c **** 				}
 665:Projects/STM32F401RE-Nucleo/Examples/MotionControl/MicrosteppingMotor/Src/example_usart.c **** 				/* The 1st application command parameter (as ACT) is known **************** */
 666:Projects/STM32F401RE-Nucleo/Examples/MotionControl/MicrosteppingMotor/Src/example_usart.c **** 				/* Build the 1st byte to transmit */
 667:Projects/STM32F401RE-Nucleo/Examples/MotionControl/MicrosteppingMotor/Src/example_usart.c **** 				*(pL6470_DaisyChainSpiTxStruct
 668:Projects/STM32F401RE-Nucleo/Examples/MotionControl/MicrosteppingMotor/Src/example_usart.c **** 						+ ((0 * L6470DAISYCHAINSIZE) + L6470_Id)) = 0x92
 669:Projects/STM32F401RE-Nucleo/Examples/MotionControl/MicrosteppingMotor/Src/example_usart.c **** 						| (L6470_ActId << 3);
 1993              		.loc 1 669 22
 1994 09ca 97F82430 		ldrb	r3, [r7, #36]	@ zero_extendqisi2
 1995 09ce DB00     		lsls	r3, r3, #3
 1996              		.loc 1 669 7
 1997 09d0 5BB2     		sxtb	r3, r3
 1998 09d2 63F06D03 		orn	r3, r3, #109
 1999 09d6 59B2     		sxtb	r1, r3
 668:Projects/STM32F401RE-Nucleo/Examples/MotionControl/MicrosteppingMotor/Src/example_usart.c **** 						| (L6470_ActId << 3);
 2000              		.loc 1 668 36
 2001 09d8 97F82330 		ldrb	r3, [r7, #35]	@ zero_extendqisi2
 668:Projects/STM32F401RE-Nucleo/Examples/MotionControl/MicrosteppingMotor/Src/example_usart.c **** 						| (L6470_ActId << 3);
 2002              		.loc 1 668 7
 2003 09dc 3A68     		ldr	r2, [r7]
 2004 09de 1344     		add	r3, r3, r2
 2005              		.loc 1 669 7
 2006 09e0 CAB2     		uxtb	r2, r1
 668:Projects/STM32F401RE-Nucleo/Examples/MotionControl/MicrosteppingMotor/Src/example_usart.c **** 						| (L6470_ActId << 3);
 2007              		.loc 1 668 49
 2008 09e2 1A70     		strb	r2, [r3]
 670:Projects/STM32F401RE-Nucleo/Examples/MotionControl/MicrosteppingMotor/Src/example_usart.c **** 
 671:Projects/STM32F401RE-Nucleo/Examples/MotionControl/MicrosteppingMotor/Src/example_usart.c **** 				/* Checks the Motor Direction that has been entered (as 2nd parameter) */
 672:Projects/STM32F401RE-Nucleo/Examples/MotionControl/MicrosteppingMotor/Src/example_usart.c **** 				L6470_DirId = (eL6470_DirId_t) 0;
 2009              		.loc 1 672 17
 2010 09e4 0023     		movs	r3, #0
 2011 09e6 87F82530 		strb	r3, [r7, #37]
 673:Projects/STM32F401RE-Nucleo/Examples/MotionControl/MicrosteppingMotor/Src/example_usart.c **** 				while (!CompareTwoTextString(
 2012              		.loc 1 673 11
 2013 09ea 0EE0     		b	.L103
 2014              	.L104:
 674:Projects/STM32F401RE-Nucleo/Examples/MotionControl/MicrosteppingMotor/Src/example_usart.c **** 						(uint8_t*) (pL6470_TextCommandBundle + CmdTxt_id)->Param[1],
 675:Projects/STM32F401RE-Nucleo/Examples/MotionControl/MicrosteppingMotor/Src/example_usart.c **** 						(uint8_t*) L6470_Direction[L6470_DirId].Mnemonic)) {
 676:Projects/STM32F401RE-Nucleo/Examples/MotionControl/MicrosteppingMotor/Src/example_usart.c **** 					L6470_DirId++;
 2015              		.loc 1 676 17
 2016 09ec 97F82530 		ldrb	r3, [r7, #37]	@ zero_extendqisi2
 2017 09f0 0133     		adds	r3, r3, #1
 2018 09f2 87F82530 		strb	r3, [r7, #37]
 677:Projects/STM32F401RE-Nucleo/Examples/MotionControl/MicrosteppingMotor/Src/example_usart.c **** 					if (L6470_DirId == L6470DIRIDSIZE) {
 2019              		.loc 1 677 9
 2020 09f6 97F82530 		ldrb	r3, [r7, #37]	@ zero_extendqisi2
 2021 09fa 022B     		cmp	r3, #2
 2022 09fc 05D1     		bne	.L103
 678:Projects/STM32F401RE-Nucleo/Examples/MotionControl/MicrosteppingMotor/Src/example_usart.c **** #ifdef NUCLEO_USE_USART
 679:Projects/STM32F401RE-Nucleo/Examples/MotionControl/MicrosteppingMotor/Src/example_usart.c **** 						USART_Transmit(&huart2, (uint8_t *)"It is not possible to recognize any direction.\r\n\r\n");
ARM GAS  C:\Users\ep_ygh\AppData\Local\Temp\cctjGRE4.s 			page 52


 2023              		.loc 1 679 7
 2024 09fe 2149     		ldr	r1, .L115
 2025 0a00 2148     		ldr	r0, .L115+4
 2026 0a02 FFF7FEFF 		bl	USART_Transmit
 680:Projects/STM32F401RE-Nucleo/Examples/MotionControl/MicrosteppingMotor/Src/example_usart.c **** #endif
 681:Projects/STM32F401RE-Nucleo/Examples/MotionControl/MicrosteppingMotor/Src/example_usart.c **** 						return RESET;
 2027              		.loc 1 681 14
 2028 0a06 0023     		movs	r3, #0
 2029 0a08 EDE0     		b	.L110
 2030              	.L103:
 674:Projects/STM32F401RE-Nucleo/Examples/MotionControl/MicrosteppingMotor/Src/example_usart.c **** 						(uint8_t*) L6470_Direction[L6470_DirId].Mnemonic)) {
 2031              		.loc 1 674 44
 2032 0a0a 97F82C20 		ldrb	r2, [r7, #44]	@ zero_extendqisi2
 2033 0a0e 1346     		mov	r3, r2
 2034 0a10 5B00     		lsls	r3, r3, #1
 2035 0a12 1344     		add	r3, r3, r2
 2036 0a14 1B01     		lsls	r3, r3, #4
 2037 0a16 1A46     		mov	r2, r3
 2038 0a18 7B68     		ldr	r3, [r7, #4]
 2039 0a1a 1344     		add	r3, r3, r2
 674:Projects/STM32F401RE-Nucleo/Examples/MotionControl/MicrosteppingMotor/Src/example_usart.c **** 						(uint8_t*) L6470_Direction[L6470_DirId].Mnemonic)) {
 2040              		.loc 1 674 18
 2041 0a1c 03F11A00 		add	r0, r3, #26
 675:Projects/STM32F401RE-Nucleo/Examples/MotionControl/MicrosteppingMotor/Src/example_usart.c **** 					L6470_DirId++;
 2042              		.loc 1 675 46
 2043 0a20 97F82520 		ldrb	r2, [r7, #37]	@ zero_extendqisi2
 675:Projects/STM32F401RE-Nucleo/Examples/MotionControl/MicrosteppingMotor/Src/example_usart.c **** 					L6470_DirId++;
 2044              		.loc 1 675 18
 2045 0a24 1346     		mov	r3, r2
 2046 0a26 DB00     		lsls	r3, r3, #3
 2047 0a28 1344     		add	r3, r3, r2
 2048 0a2a 184A     		ldr	r2, .L115+8
 2049 0a2c 1344     		add	r3, r3, r2
 673:Projects/STM32F401RE-Nucleo/Examples/MotionControl/MicrosteppingMotor/Src/example_usart.c **** 						(uint8_t*) (pL6470_TextCommandBundle + CmdTxt_id)->Param[1],
 2050              		.loc 1 673 13
 2051 0a2e 1946     		mov	r1, r3
 2052 0a30 FFF7FEFF 		bl	CompareTwoTextString
 2053 0a34 0346     		mov	r3, r0
 673:Projects/STM32F401RE-Nucleo/Examples/MotionControl/MicrosteppingMotor/Src/example_usart.c **** 						(uint8_t*) (pL6470_TextCommandBundle + CmdTxt_id)->Param[1],
 2054              		.loc 1 673 11
 2055 0a36 002B     		cmp	r3, #0
 2056 0a38 D8D0     		beq	.L104
 682:Projects/STM32F401RE-Nucleo/Examples/MotionControl/MicrosteppingMotor/Src/example_usart.c **** 					}
 683:Projects/STM32F401RE-Nucleo/Examples/MotionControl/MicrosteppingMotor/Src/example_usart.c **** 				}
 684:Projects/STM32F401RE-Nucleo/Examples/MotionControl/MicrosteppingMotor/Src/example_usart.c **** 				/* The 2nd application command parameter (as DIR) is known ************** */
 685:Projects/STM32F401RE-Nucleo/Examples/MotionControl/MicrosteppingMotor/Src/example_usart.c **** 				/* Build the 1st byte to transmit */
 686:Projects/STM32F401RE-Nucleo/Examples/MotionControl/MicrosteppingMotor/Src/example_usart.c **** 				*(pL6470_DaisyChainSpiTxStruct
 687:Projects/STM32F401RE-Nucleo/Examples/MotionControl/MicrosteppingMotor/Src/example_usart.c **** 						+ ((0 * L6470DAISYCHAINSIZE) + L6470_Id)) |=
 2057              		.loc 1 687 49
 2058 0a3a 97F82330 		ldrb	r3, [r7, #35]	@ zero_extendqisi2
 2059 0a3e 3A68     		ldr	r2, [r7]
 2060 0a40 1344     		add	r3, r3, r2
 2061 0a42 1978     		ldrb	r1, [r3]	@ zero_extendqisi2
 2062 0a44 97F82330 		ldrb	r3, [r7, #35]	@ zero_extendqisi2
 2063 0a48 3A68     		ldr	r2, [r7]
 2064 0a4a 1344     		add	r3, r3, r2
 2065 0a4c 97F82520 		ldrb	r2, [r7, #37]
ARM GAS  C:\Users\ep_ygh\AppData\Local\Temp\cctjGRE4.s 			page 53


 2066 0a50 0A43     		orrs	r2, r2, r1
 2067 0a52 D2B2     		uxtb	r2, r2
 2068 0a54 1A70     		strb	r2, [r3]
 688:Projects/STM32F401RE-Nucleo/Examples/MotionControl/MicrosteppingMotor/Src/example_usart.c **** 						L6470_DirId;
 689:Projects/STM32F401RE-Nucleo/Examples/MotionControl/MicrosteppingMotor/Src/example_usart.c **** 				break;
 2069              		.loc 1 689 5
 2070 0a56 7AE0     		b	.L107
 2071              	.L54:
 690:Projects/STM32F401RE-Nucleo/Examples/MotionControl/MicrosteppingMotor/Src/example_usart.c **** 			case L6470_GOHOME_ID:
 691:Projects/STM32F401RE-Nucleo/Examples/MotionControl/MicrosteppingMotor/Src/example_usart.c **** 				/* Build the 1st byte to transmit */
 692:Projects/STM32F401RE-Nucleo/Examples/MotionControl/MicrosteppingMotor/Src/example_usart.c **** 				*(pL6470_DaisyChainSpiTxStruct
 693:Projects/STM32F401RE-Nucleo/Examples/MotionControl/MicrosteppingMotor/Src/example_usart.c **** 						+ ((0 * L6470DAISYCHAINSIZE) + L6470_Id)) = 0x70;
 2072              		.loc 1 693 36
 2073 0a58 97F82330 		ldrb	r3, [r7, #35]	@ zero_extendqisi2
 2074              		.loc 1 693 7
 2075 0a5c 3A68     		ldr	r2, [r7]
 2076 0a5e 1344     		add	r3, r3, r2
 2077              		.loc 1 693 49
 2078 0a60 7022     		movs	r2, #112
 2079 0a62 1A70     		strb	r2, [r3]
 694:Projects/STM32F401RE-Nucleo/Examples/MotionControl/MicrosteppingMotor/Src/example_usart.c **** 				break;
 2080              		.loc 1 694 5
 2081 0a64 73E0     		b	.L107
 2082              	.L53:
 695:Projects/STM32F401RE-Nucleo/Examples/MotionControl/MicrosteppingMotor/Src/example_usart.c **** 			case L6470_GOMARK_ID:
 696:Projects/STM32F401RE-Nucleo/Examples/MotionControl/MicrosteppingMotor/Src/example_usart.c **** 				/* Build the 1st byte to transmit */
 697:Projects/STM32F401RE-Nucleo/Examples/MotionControl/MicrosteppingMotor/Src/example_usart.c **** 				*(pL6470_DaisyChainSpiTxStruct
 698:Projects/STM32F401RE-Nucleo/Examples/MotionControl/MicrosteppingMotor/Src/example_usart.c **** 						+ ((0 * L6470DAISYCHAINSIZE) + L6470_Id)) = 0x78;
 2083              		.loc 1 698 36
 2084 0a66 97F82330 		ldrb	r3, [r7, #35]	@ zero_extendqisi2
 2085              		.loc 1 698 7
 2086 0a6a 3A68     		ldr	r2, [r7]
 2087 0a6c 1344     		add	r3, r3, r2
 2088              		.loc 1 698 49
 2089 0a6e 7822     		movs	r2, #120
 2090 0a70 1A70     		strb	r2, [r3]
 699:Projects/STM32F401RE-Nucleo/Examples/MotionControl/MicrosteppingMotor/Src/example_usart.c **** 				break;
 2091              		.loc 1 699 5
 2092 0a72 6CE0     		b	.L107
 2093              	.L52:
 700:Projects/STM32F401RE-Nucleo/Examples/MotionControl/MicrosteppingMotor/Src/example_usart.c **** 			case L6470_RESETPOS_ID:
 701:Projects/STM32F401RE-Nucleo/Examples/MotionControl/MicrosteppingMotor/Src/example_usart.c **** 				/* Build the 1st byte to transmit */
 702:Projects/STM32F401RE-Nucleo/Examples/MotionControl/MicrosteppingMotor/Src/example_usart.c **** 				*(pL6470_DaisyChainSpiTxStruct
 703:Projects/STM32F401RE-Nucleo/Examples/MotionControl/MicrosteppingMotor/Src/example_usart.c **** 						+ ((0 * L6470DAISYCHAINSIZE) + L6470_Id)) = 0xD8;
 2094              		.loc 1 703 36
 2095 0a74 97F82330 		ldrb	r3, [r7, #35]	@ zero_extendqisi2
 2096              		.loc 1 703 7
 2097 0a78 3A68     		ldr	r2, [r7]
 2098 0a7a 1344     		add	r3, r3, r2
 2099              		.loc 1 703 49
 2100 0a7c D822     		movs	r2, #216
 2101 0a7e 1A70     		strb	r2, [r3]
 704:Projects/STM32F401RE-Nucleo/Examples/MotionControl/MicrosteppingMotor/Src/example_usart.c **** 				break;
 2102              		.loc 1 704 5
 2103 0a80 65E0     		b	.L107
 2104              	.L116:
 2105 0a82 00BF     		.align	2
ARM GAS  C:\Users\ep_ygh\AppData\Local\Temp\cctjGRE4.s 			page 54


 2106              	.L115:
 2107 0a84 A0010000 		.word	.LC8
 2108 0a88 00000000 		.word	huart2
 2109 0a8c 00000000 		.word	L6470_Direction
 2110 0a90 68010000 		.word	.LC7
 2111 0a94 D4010000 		.word	.LC9
 2112 0a98 00000000 		.word	L6470_ACT
 2113              	.L51:
 705:Projects/STM32F401RE-Nucleo/Examples/MotionControl/MicrosteppingMotor/Src/example_usart.c **** 			case L6470_RESETDEVICE_ID:
 706:Projects/STM32F401RE-Nucleo/Examples/MotionControl/MicrosteppingMotor/Src/example_usart.c **** 				/* Build the 1st byte to transmit */
 707:Projects/STM32F401RE-Nucleo/Examples/MotionControl/MicrosteppingMotor/Src/example_usart.c **** 				*(pL6470_DaisyChainSpiTxStruct
 708:Projects/STM32F401RE-Nucleo/Examples/MotionControl/MicrosteppingMotor/Src/example_usart.c **** 						+ ((0 * L6470DAISYCHAINSIZE) + L6470_Id)) = 0xC0;
 2114              		.loc 1 708 36
 2115 0a9c 97F82330 		ldrb	r3, [r7, #35]	@ zero_extendqisi2
 2116              		.loc 1 708 7
 2117 0aa0 3A68     		ldr	r2, [r7]
 2118 0aa2 1344     		add	r3, r3, r2
 2119              		.loc 1 708 49
 2120 0aa4 C022     		movs	r2, #192
 2121 0aa6 1A70     		strb	r2, [r3]
 709:Projects/STM32F401RE-Nucleo/Examples/MotionControl/MicrosteppingMotor/Src/example_usart.c **** 				break;
 2122              		.loc 1 709 5
 2123 0aa8 51E0     		b	.L107
 2124              	.L50:
 710:Projects/STM32F401RE-Nucleo/Examples/MotionControl/MicrosteppingMotor/Src/example_usart.c **** 			case L6470_SOFTSTOP_ID:
 711:Projects/STM32F401RE-Nucleo/Examples/MotionControl/MicrosteppingMotor/Src/example_usart.c **** 				/* Build the 1st byte to transmit */
 712:Projects/STM32F401RE-Nucleo/Examples/MotionControl/MicrosteppingMotor/Src/example_usart.c **** 				*(pL6470_DaisyChainSpiTxStruct
 713:Projects/STM32F401RE-Nucleo/Examples/MotionControl/MicrosteppingMotor/Src/example_usart.c **** 						+ ((0 * L6470DAISYCHAINSIZE) + L6470_Id)) = 0xB0;
 2125              		.loc 1 713 36
 2126 0aaa 97F82330 		ldrb	r3, [r7, #35]	@ zero_extendqisi2
 2127              		.loc 1 713 7
 2128 0aae 3A68     		ldr	r2, [r7]
 2129 0ab0 1344     		add	r3, r3, r2
 2130              		.loc 1 713 49
 2131 0ab2 B022     		movs	r2, #176
 2132 0ab4 1A70     		strb	r2, [r3]
 714:Projects/STM32F401RE-Nucleo/Examples/MotionControl/MicrosteppingMotor/Src/example_usart.c **** 				break;
 2133              		.loc 1 714 5
 2134 0ab6 4AE0     		b	.L107
 2135              	.L49:
 715:Projects/STM32F401RE-Nucleo/Examples/MotionControl/MicrosteppingMotor/Src/example_usart.c **** 			case L6470_HARDSTOP_ID:
 716:Projects/STM32F401RE-Nucleo/Examples/MotionControl/MicrosteppingMotor/Src/example_usart.c **** 				/* Build the 1st byte to transmit */
 717:Projects/STM32F401RE-Nucleo/Examples/MotionControl/MicrosteppingMotor/Src/example_usart.c **** 				*(pL6470_DaisyChainSpiTxStruct
 718:Projects/STM32F401RE-Nucleo/Examples/MotionControl/MicrosteppingMotor/Src/example_usart.c **** 						+ ((0 * L6470DAISYCHAINSIZE) + L6470_Id)) = 0xB8;
 2136              		.loc 1 718 36
 2137 0ab8 97F82330 		ldrb	r3, [r7, #35]	@ zero_extendqisi2
 2138              		.loc 1 718 7
 2139 0abc 3A68     		ldr	r2, [r7]
 2140 0abe 1344     		add	r3, r3, r2
 2141              		.loc 1 718 49
 2142 0ac0 B822     		movs	r2, #184
 2143 0ac2 1A70     		strb	r2, [r3]
 719:Projects/STM32F401RE-Nucleo/Examples/MotionControl/MicrosteppingMotor/Src/example_usart.c **** 				break;
 2144              		.loc 1 719 5
 2145 0ac4 43E0     		b	.L107
 2146              	.L48:
 720:Projects/STM32F401RE-Nucleo/Examples/MotionControl/MicrosteppingMotor/Src/example_usart.c **** 			case L6470_SOFTHIZ_ID:
ARM GAS  C:\Users\ep_ygh\AppData\Local\Temp\cctjGRE4.s 			page 55


 721:Projects/STM32F401RE-Nucleo/Examples/MotionControl/MicrosteppingMotor/Src/example_usart.c **** 				/* Build the 1st byte to transmit */
 722:Projects/STM32F401RE-Nucleo/Examples/MotionControl/MicrosteppingMotor/Src/example_usart.c **** 				*(pL6470_DaisyChainSpiTxStruct
 723:Projects/STM32F401RE-Nucleo/Examples/MotionControl/MicrosteppingMotor/Src/example_usart.c **** 						+ ((0 * L6470DAISYCHAINSIZE) + L6470_Id)) = 0xA0;
 2147              		.loc 1 723 36
 2148 0ac6 97F82330 		ldrb	r3, [r7, #35]	@ zero_extendqisi2
 2149              		.loc 1 723 7
 2150 0aca 3A68     		ldr	r2, [r7]
 2151 0acc 1344     		add	r3, r3, r2
 2152              		.loc 1 723 49
 2153 0ace A022     		movs	r2, #160
 2154 0ad0 1A70     		strb	r2, [r3]
 724:Projects/STM32F401RE-Nucleo/Examples/MotionControl/MicrosteppingMotor/Src/example_usart.c **** 				break;
 2155              		.loc 1 724 5
 2156 0ad2 3CE0     		b	.L107
 2157              	.L47:
 725:Projects/STM32F401RE-Nucleo/Examples/MotionControl/MicrosteppingMotor/Src/example_usart.c **** 			case L6470_HARDHIZ_ID:
 726:Projects/STM32F401RE-Nucleo/Examples/MotionControl/MicrosteppingMotor/Src/example_usart.c **** 				/* Build the 1st byte to transmit */
 727:Projects/STM32F401RE-Nucleo/Examples/MotionControl/MicrosteppingMotor/Src/example_usart.c **** 				*(pL6470_DaisyChainSpiTxStruct
 728:Projects/STM32F401RE-Nucleo/Examples/MotionControl/MicrosteppingMotor/Src/example_usart.c **** 						+ ((0 * L6470DAISYCHAINSIZE) + L6470_Id)) = 0xA8;
 2158              		.loc 1 728 36
 2159 0ad4 97F82330 		ldrb	r3, [r7, #35]	@ zero_extendqisi2
 2160              		.loc 1 728 7
 2161 0ad8 3A68     		ldr	r2, [r7]
 2162 0ada 1344     		add	r3, r3, r2
 2163              		.loc 1 728 49
 2164 0adc A822     		movs	r2, #168
 2165 0ade 1A70     		strb	r2, [r3]
 729:Projects/STM32F401RE-Nucleo/Examples/MotionControl/MicrosteppingMotor/Src/example_usart.c **** 				break;
 2166              		.loc 1 729 5
 2167 0ae0 35E0     		b	.L107
 2168              	.L46:
 730:Projects/STM32F401RE-Nucleo/Examples/MotionControl/MicrosteppingMotor/Src/example_usart.c **** 			case L6470_GETSTATUS_ID:
 731:Projects/STM32F401RE-Nucleo/Examples/MotionControl/MicrosteppingMotor/Src/example_usart.c **** 				/* Build the 1st byte to transmit */
 732:Projects/STM32F401RE-Nucleo/Examples/MotionControl/MicrosteppingMotor/Src/example_usart.c **** 				*(pL6470_DaisyChainSpiTxStruct
 733:Projects/STM32F401RE-Nucleo/Examples/MotionControl/MicrosteppingMotor/Src/example_usart.c **** 						+ ((0 * L6470DAISYCHAINSIZE) + L6470_Id)) = 0xD0;
 2169              		.loc 1 733 36
 2170 0ae2 97F82330 		ldrb	r3, [r7, #35]	@ zero_extendqisi2
 2171              		.loc 1 733 7
 2172 0ae6 3A68     		ldr	r2, [r7]
 2173 0ae8 1344     		add	r3, r3, r2
 2174              		.loc 1 733 49
 2175 0aea D022     		movs	r2, #208
 2176 0aec 1A70     		strb	r2, [r3]
 734:Projects/STM32F401RE-Nucleo/Examples/MotionControl/MicrosteppingMotor/Src/example_usart.c **** 				/* Build the others bytes to transmit (SPD) */
 735:Projects/STM32F401RE-Nucleo/Examples/MotionControl/MicrosteppingMotor/Src/example_usart.c **** 				for (spibyte = 1; spibyte < 2 + 1; spibyte++) {
 2177              		.loc 1 735 18
 2178 0aee 0123     		movs	r3, #1
 2179 0af0 87F82E30 		strb	r3, [r7, #46]
 2180              		.loc 1 735 5
 2181 0af4 0FE0     		b	.L105
 2182              	.L106:
 736:Projects/STM32F401RE-Nucleo/Examples/MotionControl/MicrosteppingMotor/Src/example_usart.c **** 					*(pL6470_DaisyChainSpiTxStruct
 737:Projects/STM32F401RE-Nucleo/Examples/MotionControl/MicrosteppingMotor/Src/example_usart.c **** 							+ ((spibyte * L6470DAISYCHAINSIZE) + L6470_Id)) =
 2183              		.loc 1 737 20 discriminator 3
 2184 0af6 97F82E30 		ldrb	r3, [r7, #46]	@ zero_extendqisi2
 2185 0afa 5A00     		lsls	r2, r3, #1
 2186              		.loc 1 737 43 discriminator 3
ARM GAS  C:\Users\ep_ygh\AppData\Local\Temp\cctjGRE4.s 			page 56


 2187 0afc 97F82330 		ldrb	r3, [r7, #35]	@ zero_extendqisi2
 2188 0b00 1344     		add	r3, r3, r2
 2189 0b02 1A46     		mov	r2, r3
 2190              		.loc 1 737 8 discriminator 3
 2191 0b04 3B68     		ldr	r3, [r7]
 2192 0b06 1344     		add	r3, r3, r2
 2193              		.loc 1 737 56 discriminator 3
 2194 0b08 0022     		movs	r2, #0
 2195 0b0a 1A70     		strb	r2, [r3]
 735:Projects/STM32F401RE-Nucleo/Examples/MotionControl/MicrosteppingMotor/Src/example_usart.c **** 					*(pL6470_DaisyChainSpiTxStruct
 2196              		.loc 1 735 47 discriminator 3
 2197 0b0c 97F82E30 		ldrb	r3, [r7, #46]	@ zero_extendqisi2
 2198 0b10 0133     		adds	r3, r3, #1
 2199 0b12 87F82E30 		strb	r3, [r7, #46]
 2200              	.L105:
 735:Projects/STM32F401RE-Nucleo/Examples/MotionControl/MicrosteppingMotor/Src/example_usart.c **** 					*(pL6470_DaisyChainSpiTxStruct
 2201              		.loc 1 735 5 discriminator 1
 2202 0b16 97F82E30 		ldrb	r3, [r7, #46]	@ zero_extendqisi2
 2203 0b1a 022B     		cmp	r3, #2
 2204 0b1c EBD9     		bls	.L106
 738:Projects/STM32F401RE-Nucleo/Examples/MotionControl/MicrosteppingMotor/Src/example_usart.c **** 							0x00;
 739:Projects/STM32F401RE-Nucleo/Examples/MotionControl/MicrosteppingMotor/Src/example_usart.c **** 				}
 740:Projects/STM32F401RE-Nucleo/Examples/MotionControl/MicrosteppingMotor/Src/example_usart.c **** 				break;
 2205              		.loc 1 740 5
 2206 0b1e 16E0     		b	.L107
 2207              	.L44:
 741:Projects/STM32F401RE-Nucleo/Examples/MotionControl/MicrosteppingMotor/Src/example_usart.c **** 			case L6470_SAVE_ID:
 742:Projects/STM32F401RE-Nucleo/Examples/MotionControl/MicrosteppingMotor/Src/example_usart.c **** 					/* getPosition*/
 743:Projects/STM32F401RE-Nucleo/Examples/MotionControl/MicrosteppingMotor/Src/example_usart.c **** 					motorPosition0 = BSP_L6470_GetParam(0, 1, L6470_ABS_POS_ID);  //L6470_1
 2208              		.loc 1 743 23
 2209 0b20 0022     		movs	r2, #0
 2210 0b22 0121     		movs	r1, #1
 2211 0b24 0020     		movs	r0, #0
 2212 0b26 FFF7FEFF 		bl	BSP_L6470_GetParam
 2213 0b2a F861     		str	r0, [r7, #28]
 744:Projects/STM32F401RE-Nucleo/Examples/MotionControl/MicrosteppingMotor/Src/example_usart.c **** 					motorPosition1 = BSP_L6470_GetParam(0, 0, L6470_ABS_POS_ID);  //L6470_0
 2214              		.loc 1 744 23
 2215 0b2c 0022     		movs	r2, #0
 2216 0b2e 0021     		movs	r1, #0
 2217 0b30 0020     		movs	r0, #0
 2218 0b32 FFF7FEFF 		bl	BSP_L6470_GetParam
 2219 0b36 B861     		str	r0, [r7, #24]
 745:Projects/STM32F401RE-Nucleo/Examples/MotionControl/MicrosteppingMotor/Src/example_usart.c **** 
 746:Projects/STM32F401RE-Nucleo/Examples/MotionControl/MicrosteppingMotor/Src/example_usart.c **** 					SaveMotorPositions(motorPosition0, motorPosition1);
 2220              		.loc 1 746 6
 2221 0b38 B969     		ldr	r1, [r7, #24]
 2222 0b3a F869     		ldr	r0, [r7, #28]
 2223 0b3c FFF7FEFF 		bl	SaveMotorPositions
 747:Projects/STM32F401RE-Nucleo/Examples/MotionControl/MicrosteppingMotor/Src/example_usart.c **** 
 748:Projects/STM32F401RE-Nucleo/Examples/MotionControl/MicrosteppingMotor/Src/example_usart.c **** 
 749:Projects/STM32F401RE-Nucleo/Examples/MotionControl/MicrosteppingMotor/Src/example_usart.c **** 
 750:Projects/STM32F401RE-Nucleo/Examples/MotionControl/MicrosteppingMotor/Src/example_usart.c **** 
 751:Projects/STM32F401RE-Nucleo/Examples/MotionControl/MicrosteppingMotor/Src/example_usart.c **** 				break;
 2224              		.loc 1 751 5
 2225 0b40 05E0     		b	.L107
 2226              	.L36:
 752:Projects/STM32F401RE-Nucleo/Examples/MotionControl/MicrosteppingMotor/Src/example_usart.c **** 
ARM GAS  C:\Users\ep_ygh\AppData\Local\Temp\cctjGRE4.s 			page 57


 753:Projects/STM32F401RE-Nucleo/Examples/MotionControl/MicrosteppingMotor/Src/example_usart.c **** 			}
 754:Projects/STM32F401RE-Nucleo/Examples/MotionControl/MicrosteppingMotor/Src/example_usart.c **** 		} else {
 755:Projects/STM32F401RE-Nucleo/Examples/MotionControl/MicrosteppingMotor/Src/example_usart.c **** #ifdef NUCLEO_USE_USART
 756:Projects/STM32F401RE-Nucleo/Examples/MotionControl/MicrosteppingMotor/Src/example_usart.c **** 			USART_Transmit(&huart2, (uint8_t *)"Both entered commands are addressing the same L6470.\r\n\r\n
 2227              		.loc 1 756 4
 2228 0b42 2B49     		ldr	r1, .L117
 2229 0b44 2B48     		ldr	r0, .L117+4
 2230 0b46 FFF7FEFF 		bl	USART_Transmit
 757:Projects/STM32F401RE-Nucleo/Examples/MotionControl/MicrosteppingMotor/Src/example_usart.c **** #endif
 758:Projects/STM32F401RE-Nucleo/Examples/MotionControl/MicrosteppingMotor/Src/example_usart.c **** 			return RESET;
 2231              		.loc 1 758 11
 2232 0b4a 0023     		movs	r3, #0
 2233 0b4c 4BE0     		b	.L110
 2234              	.L107:
 759:Projects/STM32F401RE-Nucleo/Examples/MotionControl/MicrosteppingMotor/Src/example_usart.c **** 		}
 760:Projects/STM32F401RE-Nucleo/Examples/MotionControl/MicrosteppingMotor/Src/example_usart.c **** 		CmdTxt_id++;
 2235              		.loc 1 760 12
 2236 0b4e 97F82C30 		ldrb	r3, [r7, #44]	@ zero_extendqisi2
 2237 0b52 0133     		adds	r3, r3, #1
 2238 0b54 87F82C30 		strb	r3, [r7, #44]
 761:Projects/STM32F401RE-Nucleo/Examples/MotionControl/MicrosteppingMotor/Src/example_usart.c **** 	} while ((CmdTxt_id < L6470DAISYCHAINSIZE)
 762:Projects/STM32F401RE-Nucleo/Examples/MotionControl/MicrosteppingMotor/Src/example_usart.c **** 			&& (((*((pL6470_TextCommandBundle + CmdTxt_id)->MotorName)) != '\0')
 763:Projects/STM32F401RE-Nucleo/Examples/MotionControl/MicrosteppingMotor/Src/example_usart.c **** 					|| ((*((pL6470_TextCommandBundle + CmdTxt_id)->CommandName))
 764:Projects/STM32F401RE-Nucleo/Examples/MotionControl/MicrosteppingMotor/Src/example_usart.c **** 							!= '\0')
 765:Projects/STM32F401RE-Nucleo/Examples/MotionControl/MicrosteppingMotor/Src/example_usart.c **** 					|| ((*((pL6470_TextCommandBundle + CmdTxt_id)->Param[0]))
 766:Projects/STM32F401RE-Nucleo/Examples/MotionControl/MicrosteppingMotor/Src/example_usart.c **** 							!= '\0')
 767:Projects/STM32F401RE-Nucleo/Examples/MotionControl/MicrosteppingMotor/Src/example_usart.c **** 					|| ((*((pL6470_TextCommandBundle + CmdTxt_id)->Param[1]))
 768:Projects/STM32F401RE-Nucleo/Examples/MotionControl/MicrosteppingMotor/Src/example_usart.c **** 							!= '\0')
 769:Projects/STM32F401RE-Nucleo/Examples/MotionControl/MicrosteppingMotor/Src/example_usart.c **** 					|| ((*((pL6470_TextCommandBundle + CmdTxt_id)->Param[2]))
 770:Projects/STM32F401RE-Nucleo/Examples/MotionControl/MicrosteppingMotor/Src/example_usart.c **** 							!= '\0')));
 2239              		.loc 1 770 8
 2240 0b58 97F82C30 		ldrb	r3, [r7, #44]	@ zero_extendqisi2
 2241 0b5c 012B     		cmp	r3, #1
 2242 0b5e 41D8     		bhi	.L108
 762:Projects/STM32F401RE-Nucleo/Examples/MotionControl/MicrosteppingMotor/Src/example_usart.c **** 					|| ((*((pL6470_TextCommandBundle + CmdTxt_id)->CommandName))
 2243              		.loc 1 762 38
 2244 0b60 97F82C20 		ldrb	r2, [r7, #44]	@ zero_extendqisi2
 2245 0b64 1346     		mov	r3, r2
 2246 0b66 5B00     		lsls	r3, r3, #1
 2247 0b68 1344     		add	r3, r3, r2
 2248 0b6a 1B01     		lsls	r3, r3, #4
 2249 0b6c 1A46     		mov	r2, r3
 2250 0b6e 7B68     		ldr	r3, [r7, #4]
 2251 0b70 1344     		add	r3, r3, r2
 762:Projects/STM32F401RE-Nucleo/Examples/MotionControl/MicrosteppingMotor/Src/example_usart.c **** 					|| ((*((pL6470_TextCommandBundle + CmdTxt_id)->CommandName))
 2252              		.loc 1 762 10
 2253 0b72 1B78     		ldrb	r3, [r3]	@ zero_extendqisi2
 762:Projects/STM32F401RE-Nucleo/Examples/MotionControl/MicrosteppingMotor/Src/example_usart.c **** 					|| ((*((pL6470_TextCommandBundle + CmdTxt_id)->CommandName))
 2254              		.loc 1 762 4
 2255 0b74 002B     		cmp	r3, #0
 2256 0b76 7FF47AAA 		bne	.L109
 763:Projects/STM32F401RE-Nucleo/Examples/MotionControl/MicrosteppingMotor/Src/example_usart.c **** 							!= '\0')
 2257              		.loc 1 763 39
 2258 0b7a 97F82C20 		ldrb	r2, [r7, #44]	@ zero_extendqisi2
 2259 0b7e 1346     		mov	r3, r2
 2260 0b80 5B00     		lsls	r3, r3, #1
 2261 0b82 1344     		add	r3, r3, r2
ARM GAS  C:\Users\ep_ygh\AppData\Local\Temp\cctjGRE4.s 			page 58


 2262 0b84 1B01     		lsls	r3, r3, #4
 2263 0b86 1A46     		mov	r2, r3
 2264 0b88 7B68     		ldr	r3, [r7, #4]
 2265 0b8a 1344     		add	r3, r3, r2
 763:Projects/STM32F401RE-Nucleo/Examples/MotionControl/MicrosteppingMotor/Src/example_usart.c **** 							!= '\0')
 2266              		.loc 1 763 11
 2267 0b8c DB78     		ldrb	r3, [r3, #3]	@ zero_extendqisi2
 763:Projects/STM32F401RE-Nucleo/Examples/MotionControl/MicrosteppingMotor/Src/example_usart.c **** 							!= '\0')
 2268              		.loc 1 763 6
 2269 0b8e 002B     		cmp	r3, #0
 2270 0b90 7FF46DAA 		bne	.L109
 765:Projects/STM32F401RE-Nucleo/Examples/MotionControl/MicrosteppingMotor/Src/example_usart.c **** 							!= '\0')
 2271              		.loc 1 765 39
 2272 0b94 97F82C20 		ldrb	r2, [r7, #44]	@ zero_extendqisi2
 2273 0b98 1346     		mov	r3, r2
 2274 0b9a 5B00     		lsls	r3, r3, #1
 2275 0b9c 1344     		add	r3, r3, r2
 2276 0b9e 1B01     		lsls	r3, r3, #4
 2277 0ba0 1A46     		mov	r2, r3
 2278 0ba2 7B68     		ldr	r3, [r7, #4]
 2279 0ba4 1344     		add	r3, r3, r2
 765:Projects/STM32F401RE-Nucleo/Examples/MotionControl/MicrosteppingMotor/Src/example_usart.c **** 							!= '\0')
 2280              		.loc 1 765 11
 2281 0ba6 DB7B     		ldrb	r3, [r3, #15]	@ zero_extendqisi2
 765:Projects/STM32F401RE-Nucleo/Examples/MotionControl/MicrosteppingMotor/Src/example_usart.c **** 							!= '\0')
 2282              		.loc 1 765 6
 2283 0ba8 002B     		cmp	r3, #0
 2284 0baa 7FF460AA 		bne	.L109
 767:Projects/STM32F401RE-Nucleo/Examples/MotionControl/MicrosteppingMotor/Src/example_usart.c **** 							!= '\0')
 2285              		.loc 1 767 39
 2286 0bae 97F82C20 		ldrb	r2, [r7, #44]	@ zero_extendqisi2
 2287 0bb2 1346     		mov	r3, r2
 2288 0bb4 5B00     		lsls	r3, r3, #1
 2289 0bb6 1344     		add	r3, r3, r2
 2290 0bb8 1B01     		lsls	r3, r3, #4
 2291 0bba 1A46     		mov	r2, r3
 2292 0bbc 7B68     		ldr	r3, [r7, #4]
 2293 0bbe 1344     		add	r3, r3, r2
 767:Projects/STM32F401RE-Nucleo/Examples/MotionControl/MicrosteppingMotor/Src/example_usart.c **** 							!= '\0')
 2294              		.loc 1 767 11
 2295 0bc0 9B7E     		ldrb	r3, [r3, #26]	@ zero_extendqisi2
 767:Projects/STM32F401RE-Nucleo/Examples/MotionControl/MicrosteppingMotor/Src/example_usart.c **** 							!= '\0')
 2296              		.loc 1 767 6
 2297 0bc2 002B     		cmp	r3, #0
 2298 0bc4 7FF453AA 		bne	.L109
 769:Projects/STM32F401RE-Nucleo/Examples/MotionControl/MicrosteppingMotor/Src/example_usart.c **** 							!= '\0')));
 2299              		.loc 1 769 39
 2300 0bc8 97F82C20 		ldrb	r2, [r7, #44]	@ zero_extendqisi2
 2301 0bcc 1346     		mov	r3, r2
 2302 0bce 5B00     		lsls	r3, r3, #1
 2303 0bd0 1344     		add	r3, r3, r2
 2304 0bd2 1B01     		lsls	r3, r3, #4
 2305 0bd4 1A46     		mov	r2, r3
 2306 0bd6 7B68     		ldr	r3, [r7, #4]
 2307 0bd8 1344     		add	r3, r3, r2
 769:Projects/STM32F401RE-Nucleo/Examples/MotionControl/MicrosteppingMotor/Src/example_usart.c **** 							!= '\0')));
 2308              		.loc 1 769 11
ARM GAS  C:\Users\ep_ygh\AppData\Local\Temp\cctjGRE4.s 			page 59


 2309 0bda 93F82530 		ldrb	r3, [r3, #37]	@ zero_extendqisi2
 769:Projects/STM32F401RE-Nucleo/Examples/MotionControl/MicrosteppingMotor/Src/example_usart.c **** 							!= '\0')));
 2310              		.loc 1 769 6
 2311 0bde 002B     		cmp	r3, #0
 2312 0be0 7FF445AA 		bne	.L109
 2313              	.L108:
 771:Projects/STM32F401RE-Nucleo/Examples/MotionControl/MicrosteppingMotor/Src/example_usart.c **** 
 772:Projects/STM32F401RE-Nucleo/Examples/MotionControl/MicrosteppingMotor/Src/example_usart.c **** 	return SET;
 2314              		.loc 1 772 9
 2315 0be4 0123     		movs	r3, #1
 2316              	.L110:
 773:Projects/STM32F401RE-Nucleo/Examples/MotionControl/MicrosteppingMotor/Src/example_usart.c **** }
 2317              		.loc 1 773 1 discriminator 1
 2318 0be6 1846     		mov	r0, r3
 2319 0be8 3037     		adds	r7, r7, #48
 2320              	.LCFI8:
 2321              		.cfi_def_cfa_offset 8
 2322 0bea BD46     		mov	sp, r7
 2323              	.LCFI9:
 2324              		.cfi_def_cfa_register 13
 2325              		@ sp needed
 2326 0bec 80BD     		pop	{r7, pc}
 2327              	.L118:
 2328 0bee 00BF     		.align	2
 2329              	.L117:
 2330 0bf0 04020000 		.word	.LC10
 2331 0bf4 00000000 		.word	huart2
 2332              		.cfi_endproc
 2333              	.LFE129:
 2335              		.section	.text.SaveMotorPositions,"ax",%progbits
 2336              		.align	1
 2337              		.global	SaveMotorPositions
 2338              		.syntax unified
 2339              		.thumb
 2340              		.thumb_func
 2342              	SaveMotorPositions:
 2343              	.LFB130:
 774:Projects/STM32F401RE-Nucleo/Examples/MotionControl/MicrosteppingMotor/Src/example_usart.c **** 
 775:Projects/STM32F401RE-Nucleo/Examples/MotionControl/MicrosteppingMotor/Src/example_usart.c **** 
 776:Projects/STM32F401RE-Nucleo/Examples/MotionControl/MicrosteppingMotor/Src/example_usart.c **** void SaveMotorPositions(uint32_t motorPosition0, uint32_t motorPosition1) {
 2344              		.loc 1 776 75
 2345              		.cfi_startproc
 2346              		@ args = 0, pretend = 0, frame = 24
 2347              		@ frame_needed = 1, uses_anonymous_args = 0
 2348 0000 80B5     		push	{r7, lr}
 2349              	.LCFI10:
 2350              		.cfi_def_cfa_offset 8
 2351              		.cfi_offset 7, -8
 2352              		.cfi_offset 14, -4
 2353 0002 86B0     		sub	sp, sp, #24
 2354              	.LCFI11:
 2355              		.cfi_def_cfa_offset 32
 2356 0004 00AF     		add	r7, sp, #0
 2357              	.LCFI12:
 2358              		.cfi_def_cfa_register 7
 2359 0006 7860     		str	r0, [r7, #4]
 2360 0008 3960     		str	r1, [r7]
ARM GAS  C:\Users\ep_ygh\AppData\Local\Temp\cctjGRE4.s 			page 60


 777:Projects/STM32F401RE-Nucleo/Examples/MotionControl/MicrosteppingMotor/Src/example_usart.c ****     uint32_t data[2];
 778:Projects/STM32F401RE-Nucleo/Examples/MotionControl/MicrosteppingMotor/Src/example_usart.c ****     data[0] = motorPosition0; // Stocke la position du premier moteur
 2361              		.loc 1 778 13
 2362 000a 7B68     		ldr	r3, [r7, #4]
 2363 000c FB60     		str	r3, [r7, #12]
 779:Projects/STM32F401RE-Nucleo/Examples/MotionControl/MicrosteppingMotor/Src/example_usart.c ****     data[1] = motorPosition1; // Stocke la position du deuxime moteur
 2364              		.loc 1 779 13
 2365 000e 3B68     		ldr	r3, [r7]
 2366 0010 3B61     		str	r3, [r7, #16]
 780:Projects/STM32F401RE-Nucleo/Examples/MotionControl/MicrosteppingMotor/Src/example_usart.c **** 
 781:Projects/STM32F401RE-Nucleo/Examples/MotionControl/MicrosteppingMotor/Src/example_usart.c ****     // Adresse du dbut du secteur 7, cette valeur est un exemple
 782:Projects/STM32F401RE-Nucleo/Examples/MotionControl/MicrosteppingMotor/Src/example_usart.c ****     uint32_t sectorAddress = 0x08060000; 
 2367              		.loc 1 782 14
 2368 0012 064B     		ldr	r3, .L120
 2369 0014 7B61     		str	r3, [r7, #20]
 783:Projects/STM32F401RE-Nucleo/Examples/MotionControl/MicrosteppingMotor/Src/example_usart.c ****     Flash_WriteData(sectorAddress, data, 2); // crit deux mots de 32 bits
 2370              		.loc 1 783 5
 2371 0016 07F10C03 		add	r3, r7, #12
 2372 001a 0222     		movs	r2, #2
 2373 001c 1946     		mov	r1, r3
 2374 001e 7869     		ldr	r0, [r7, #20]
 2375 0020 FFF7FEFF 		bl	Flash_WriteData
 784:Projects/STM32F401RE-Nucleo/Examples/MotionControl/MicrosteppingMotor/Src/example_usart.c **** }
 2376              		.loc 1 784 1
 2377 0024 00BF     		nop
 2378 0026 1837     		adds	r7, r7, #24
 2379              	.LCFI13:
 2380              		.cfi_def_cfa_offset 8
 2381 0028 BD46     		mov	sp, r7
 2382              	.LCFI14:
 2383              		.cfi_def_cfa_register 13
 2384              		@ sp needed
 2385 002a 80BD     		pop	{r7, pc}
 2386              	.L121:
 2387              		.align	2
 2388              	.L120:
 2389 002c 00000608 		.word	134610944
 2390              		.cfi_endproc
 2391              	.LFE130:
 2393              		.section	.text.Flash_WriteData,"ax",%progbits
 2394              		.align	1
 2395              		.global	Flash_WriteData
 2396              		.syntax unified
 2397              		.thumb
 2398              		.thumb_func
 2400              	Flash_WriteData:
 2401              	.LFB131:
 785:Projects/STM32F401RE-Nucleo/Examples/MotionControl/MicrosteppingMotor/Src/example_usart.c **** 
 786:Projects/STM32F401RE-Nucleo/Examples/MotionControl/MicrosteppingMotor/Src/example_usart.c **** void Flash_WriteData(uint32_t StartSectorAddress, uint32_t *Data, uint32_t numberOfWords) {
 2402              		.loc 1 786 91
 2403              		.cfi_startproc
 2404              		@ args = 0, pretend = 0, frame = 48
 2405              		@ frame_needed = 1, uses_anonymous_args = 0
 2406 0000 B0B5     		push	{r4, r5, r7, lr}
 2407              	.LCFI15:
 2408              		.cfi_def_cfa_offset 16
 2409              		.cfi_offset 4, -16
ARM GAS  C:\Users\ep_ygh\AppData\Local\Temp\cctjGRE4.s 			page 61


 2410              		.cfi_offset 5, -12
 2411              		.cfi_offset 7, -8
 2412              		.cfi_offset 14, -4
 2413 0002 8CB0     		sub	sp, sp, #48
 2414              	.LCFI16:
 2415              		.cfi_def_cfa_offset 64
 2416 0004 00AF     		add	r7, sp, #0
 2417              	.LCFI17:
 2418              		.cfi_def_cfa_register 7
 2419 0006 F860     		str	r0, [r7, #12]
 2420 0008 B960     		str	r1, [r7, #8]
 2421 000a 7A60     		str	r2, [r7, #4]
 787:Projects/STM32F401RE-Nucleo/Examples/MotionControl/MicrosteppingMotor/Src/example_usart.c ****     HAL_FLASH_Unlock();
 2422              		.loc 1 787 5
 2423 000c FFF7FEFF 		bl	HAL_FLASH_Unlock
 788:Projects/STM32F401RE-Nucleo/Examples/MotionControl/MicrosteppingMotor/Src/example_usart.c **** 
 789:Projects/STM32F401RE-Nucleo/Examples/MotionControl/MicrosteppingMotor/Src/example_usart.c ****     // Configuration pour l'effacement du secteur
 790:Projects/STM32F401RE-Nucleo/Examples/MotionControl/MicrosteppingMotor/Src/example_usart.c ****     FLASH_EraseInitTypeDef EraseInitStruct;
 791:Projects/STM32F401RE-Nucleo/Examples/MotionControl/MicrosteppingMotor/Src/example_usart.c ****     uint32_t SectorError;
 792:Projects/STM32F401RE-Nucleo/Examples/MotionControl/MicrosteppingMotor/Src/example_usart.c ****     EraseInitStruct.TypeErase = FLASH_TYPEERASE_SECTORS;
 2424              		.loc 1 792 31
 2425 0010 0023     		movs	r3, #0
 2426 0012 BB61     		str	r3, [r7, #24]
 793:Projects/STM32F401RE-Nucleo/Examples/MotionControl/MicrosteppingMotor/Src/example_usart.c ****     EraseInitStruct.VoltageRange = FLASH_VOLTAGE_RANGE_3;
 2427              		.loc 1 793 34
 2428 0014 0223     		movs	r3, #2
 2429 0016 BB62     		str	r3, [r7, #40]
 794:Projects/STM32F401RE-Nucleo/Examples/MotionControl/MicrosteppingMotor/Src/example_usart.c ****     EraseInitStruct.Sector = FLASH_SECTOR_7;
 2430              		.loc 1 794 28
 2431 0018 0723     		movs	r3, #7
 2432 001a 3B62     		str	r3, [r7, #32]
 795:Projects/STM32F401RE-Nucleo/Examples/MotionControl/MicrosteppingMotor/Src/example_usart.c ****     EraseInitStruct.NbSectors = 1;
 2433              		.loc 1 795 31
 2434 001c 0123     		movs	r3, #1
 2435 001e 7B62     		str	r3, [r7, #36]
 796:Projects/STM32F401RE-Nucleo/Examples/MotionControl/MicrosteppingMotor/Src/example_usart.c **** 
 797:Projects/STM32F401RE-Nucleo/Examples/MotionControl/MicrosteppingMotor/Src/example_usart.c ****    // Erase memory
 798:Projects/STM32F401RE-Nucleo/Examples/MotionControl/MicrosteppingMotor/Src/example_usart.c ****     if (HAL_FLASHEx_Erase(&EraseInitStruct, &SectorError) != HAL_OK) {
 2436              		.loc 1 798 9
 2437 0020 07F11402 		add	r2, r7, #20
 2438 0024 07F11803 		add	r3, r7, #24
 2439 0028 1146     		mov	r1, r2
 2440 002a 1846     		mov	r0, r3
 2441 002c FFF7FEFF 		bl	HAL_FLASHEx_Erase
 2442 0030 0346     		mov	r3, r0
 2443              		.loc 1 798 8
 2444 0032 002B     		cmp	r3, #0
 2445 0034 02D0     		beq	.L123
 799:Projects/STM32F401RE-Nucleo/Examples/MotionControl/MicrosteppingMotor/Src/example_usart.c ****         // Gestion d'erreur
 800:Projects/STM32F401RE-Nucleo/Examples/MotionControl/MicrosteppingMotor/Src/example_usart.c ****         HAL_FLASH_Lock();
 2446              		.loc 1 800 9
 2447 0036 FFF7FEFF 		bl	HAL_FLASH_Lock
 801:Projects/STM32F401RE-Nucleo/Examples/MotionControl/MicrosteppingMotor/Src/example_usart.c ****         return;
 2448              		.loc 1 801 9
 2449 003a 22E0     		b	.L122
 2450              	.L123:
 2451              	.LBB2:
ARM GAS  C:\Users\ep_ygh\AppData\Local\Temp\cctjGRE4.s 			page 62


 802:Projects/STM32F401RE-Nucleo/Examples/MotionControl/MicrosteppingMotor/Src/example_usart.c ****     }
 803:Projects/STM32F401RE-Nucleo/Examples/MotionControl/MicrosteppingMotor/Src/example_usart.c **** 
 804:Projects/STM32F401RE-Nucleo/Examples/MotionControl/MicrosteppingMotor/Src/example_usart.c ****     // Write memory
 805:Projects/STM32F401RE-Nucleo/Examples/MotionControl/MicrosteppingMotor/Src/example_usart.c ****     for (uint32_t i = 0; i < numberOfWords; i++) {
 2452              		.loc 1 805 19
 2453 003c 0023     		movs	r3, #0
 2454 003e FB62     		str	r3, [r7, #44]
 2455              		.loc 1 805 5
 2456 0040 19E0     		b	.L125
 2457              	.L127:
 806:Projects/STM32F401RE-Nucleo/Examples/MotionControl/MicrosteppingMotor/Src/example_usart.c ****         if (HAL_FLASH_Program(FLASH_TYPEPROGRAM_WORD, StartSectorAddress + i * 4, Data[i]) != HAL_O
 2458              		.loc 1 806 78
 2459 0042 FB6A     		ldr	r3, [r7, #44]
 2460 0044 9A00     		lsls	r2, r3, #2
 2461              		.loc 1 806 13
 2462 0046 FB68     		ldr	r3, [r7, #12]
 2463 0048 D118     		adds	r1, r2, r3
 2464              		.loc 1 806 87
 2465 004a FB6A     		ldr	r3, [r7, #44]
 2466 004c 9B00     		lsls	r3, r3, #2
 2467 004e BA68     		ldr	r2, [r7, #8]
 2468 0050 1344     		add	r3, r3, r2
 2469 0052 1B68     		ldr	r3, [r3]
 2470              		.loc 1 806 13
 2471 0054 0022     		movs	r2, #0
 2472 0056 1C46     		mov	r4, r3
 2473 0058 1546     		mov	r5, r2
 2474 005a 2246     		mov	r2, r4
 2475 005c 2B46     		mov	r3, r5
 2476 005e 0220     		movs	r0, #2
 2477 0060 FFF7FEFF 		bl	HAL_FLASH_Program
 2478 0064 0346     		mov	r3, r0
 2479              		.loc 1 806 12
 2480 0066 002B     		cmp	r3, #0
 2481 0068 02D0     		beq	.L126
 807:Projects/STM32F401RE-Nucleo/Examples/MotionControl/MicrosteppingMotor/Src/example_usart.c ****             //manage error
 808:Projects/STM32F401RE-Nucleo/Examples/MotionControl/MicrosteppingMotor/Src/example_usart.c ****             HAL_FLASH_Lock();
 2482              		.loc 1 808 13
 2483 006a FFF7FEFF 		bl	HAL_FLASH_Lock
 809:Projects/STM32F401RE-Nucleo/Examples/MotionControl/MicrosteppingMotor/Src/example_usart.c ****             return;
 2484              		.loc 1 809 13
 2485 006e 08E0     		b	.L122
 2486              	.L126:
 805:Projects/STM32F401RE-Nucleo/Examples/MotionControl/MicrosteppingMotor/Src/example_usart.c ****         if (HAL_FLASH_Program(FLASH_TYPEPROGRAM_WORD, StartSectorAddress + i * 4, Data[i]) != HAL_O
 2487              		.loc 1 805 46 discriminator 2
 2488 0070 FB6A     		ldr	r3, [r7, #44]
 2489 0072 0133     		adds	r3, r3, #1
 2490 0074 FB62     		str	r3, [r7, #44]
 2491              	.L125:
 805:Projects/STM32F401RE-Nucleo/Examples/MotionControl/MicrosteppingMotor/Src/example_usart.c ****         if (HAL_FLASH_Program(FLASH_TYPEPROGRAM_WORD, StartSectorAddress + i * 4, Data[i]) != HAL_O
 2492              		.loc 1 805 5 discriminator 1
 2493 0076 FA6A     		ldr	r2, [r7, #44]
 2494 0078 7B68     		ldr	r3, [r7, #4]
 2495 007a 9A42     		cmp	r2, r3
 2496 007c E1D3     		bcc	.L127
 2497              	.LBE2:
 810:Projects/STM32F401RE-Nucleo/Examples/MotionControl/MicrosteppingMotor/Src/example_usart.c ****         }
ARM GAS  C:\Users\ep_ygh\AppData\Local\Temp\cctjGRE4.s 			page 63


 811:Projects/STM32F401RE-Nucleo/Examples/MotionControl/MicrosteppingMotor/Src/example_usart.c ****     }
 812:Projects/STM32F401RE-Nucleo/Examples/MotionControl/MicrosteppingMotor/Src/example_usart.c **** 
 813:Projects/STM32F401RE-Nucleo/Examples/MotionControl/MicrosteppingMotor/Src/example_usart.c ****     HAL_FLASH_Lock();
 2498              		.loc 1 813 5
 2499 007e FFF7FEFF 		bl	HAL_FLASH_Lock
 2500              	.L122:
 814:Projects/STM32F401RE-Nucleo/Examples/MotionControl/MicrosteppingMotor/Src/example_usart.c **** }
 2501              		.loc 1 814 1
 2502 0082 3037     		adds	r7, r7, #48
 2503              	.LCFI18:
 2504              		.cfi_def_cfa_offset 16
 2505 0084 BD46     		mov	sp, r7
 2506              	.LCFI19:
 2507              		.cfi_def_cfa_register 13
 2508              		@ sp needed
 2509 0086 B0BD     		pop	{r4, r5, r7, pc}
 2510              		.cfi_endproc
 2511              	.LFE131:
 2513              		.section	.rodata
 2514 023d 000000   		.align	2
 2515              	.LC11:
 2516 0240 50657266 		.ascii	"Perform the entered L6470 Application Command...\015"
 2516      6F726D20 
 2516      74686520 
 2516      656E7465 
 2516      72656420 
 2517 0271 0A00     		.ascii	"\012\000"
 2518 0273 00       		.align	2
 2519              	.LC12:
 2520 0274 2000     		.ascii	" \000"
 2521 0276 0000     		.align	2
 2522              	.LC13:
 2523 0278 2076616C 		.ascii	" value is 0x\000"
 2523      75652069 
 2523      73203078 
 2523      00
 2524 0285 000000   		.align	2
 2525              	.LC14:
 2526 0288 0D0A00   		.ascii	"\015\012\000"
 2527 028b 00       		.align	2
 2528              	.LC15:
 2529 028c 20535441 		.ascii	" STATUS value is 0x\000"
 2529      54555320 
 2529      76616C75 
 2529      65206973 
 2529      20307800 
 2530              		.align	2
 2531              	.LC16:
 2532 02a0 506C6561 		.ascii	"Please, enter a new command string!\015\012\015\012"
 2532      73652C20 
 2532      656E7465 
 2532      72206120 
 2532      6E657720 
 2533 02c7 00       		.ascii	"\000"
 2534              		.section	.text.USART_DecodeTextString,"ax",%progbits
 2535              		.align	1
 2536              		.global	USART_DecodeTextString
ARM GAS  C:\Users\ep_ygh\AppData\Local\Temp\cctjGRE4.s 			page 64


 2537              		.syntax unified
 2538              		.thumb
 2539              		.thumb_func
 2541              	USART_DecodeTextString:
 2542              	.LFB132:
 815:Projects/STM32F401RE-Nucleo/Examples/MotionControl/MicrosteppingMotor/Src/example_usart.c **** 
 816:Projects/STM32F401RE-Nucleo/Examples/MotionControl/MicrosteppingMotor/Src/example_usart.c **** 
 817:Projects/STM32F401RE-Nucleo/Examples/MotionControl/MicrosteppingMotor/Src/example_usart.c **** 
 818:Projects/STM32F401RE-Nucleo/Examples/MotionControl/MicrosteppingMotor/Src/example_usart.c **** // void SaveMotorPositions(uint32_t motorPosition0, uint32_t motorPosition1) {
 819:Projects/STM32F401RE-Nucleo/Examples/MotionControl/MicrosteppingMotor/Src/example_usart.c **** //     uint64_t data[2];
 820:Projects/STM32F401RE-Nucleo/Examples/MotionControl/MicrosteppingMotor/Src/example_usart.c **** //     data[0] = motorPosition0; // Assurez-vous que les donnes correspondent  la taille de l'
 821:Projects/STM32F401RE-Nucleo/Examples/MotionControl/MicrosteppingMotor/Src/example_usart.c **** //     data[1] = motorPosition1;
 822:Projects/STM32F401RE-Nucleo/Examples/MotionControl/MicrosteppingMotor/Src/example_usart.c **** 
 823:Projects/STM32F401RE-Nucleo/Examples/MotionControl/MicrosteppingMotor/Src/example_usart.c **** //     // Adresse du dbut du secteur 7, cette valeur est un exemple
 824:Projects/STM32F401RE-Nucleo/Examples/MotionControl/MicrosteppingMotor/Src/example_usart.c **** //     uint32_t sectorAddress = 0x08060000; 
 825:Projects/STM32F401RE-Nucleo/Examples/MotionControl/MicrosteppingMotor/Src/example_usart.c **** //     Flash_WriteData(sectorAddress, data, 2);
 826:Projects/STM32F401RE-Nucleo/Examples/MotionControl/MicrosteppingMotor/Src/example_usart.c **** // }
 827:Projects/STM32F401RE-Nucleo/Examples/MotionControl/MicrosteppingMotor/Src/example_usart.c **** 
 828:Projects/STM32F401RE-Nucleo/Examples/MotionControl/MicrosteppingMotor/Src/example_usart.c **** 
 829:Projects/STM32F401RE-Nucleo/Examples/MotionControl/MicrosteppingMotor/Src/example_usart.c **** // void Flash_WriteData(uint32_t StartSectorAddress, uint64_t *Data, uint32_t numberOfWords) {
 830:Projects/STM32F401RE-Nucleo/Examples/MotionControl/MicrosteppingMotor/Src/example_usart.c **** //     HAL_FLASH_Unlock();
 831:Projects/STM32F401RE-Nucleo/Examples/MotionControl/MicrosteppingMotor/Src/example_usart.c **** 
 832:Projects/STM32F401RE-Nucleo/Examples/MotionControl/MicrosteppingMotor/Src/example_usart.c **** //     // Effacement de la mmoire
 833:Projects/STM32F401RE-Nucleo/Examples/MotionControl/MicrosteppingMotor/Src/example_usart.c **** //     FLASH_Erase_Sector(FLASH_SECTOR_7, VOLTAGE_RANGE_3);
 834:Projects/STM32F401RE-Nucleo/Examples/MotionControl/MicrosteppingMotor/Src/example_usart.c **** 
 835:Projects/STM32F401RE-Nucleo/Examples/MotionControl/MicrosteppingMotor/Src/example_usart.c **** //     // criture de la mmoire
 836:Projects/STM32F401RE-Nucleo/Examples/MotionControl/MicrosteppingMotor/Src/example_usart.c **** //     for (uint32_t i = 0; i < numberOfWords; i++) {
 837:Projects/STM32F401RE-Nucleo/Examples/MotionControl/MicrosteppingMotor/Src/example_usart.c **** //         HAL_FLASH_Program(FLASH_TYPEPROGRAM_DOUBLEWORD, StartSectorAddress + i * 8, Data[i]);
 838:Projects/STM32F401RE-Nucleo/Examples/MotionControl/MicrosteppingMotor/Src/example_usart.c **** //     }
 839:Projects/STM32F401RE-Nucleo/Examples/MotionControl/MicrosteppingMotor/Src/example_usart.c **** 
 840:Projects/STM32F401RE-Nucleo/Examples/MotionControl/MicrosteppingMotor/Src/example_usart.c **** //     HAL_FLASH_Lock();
 841:Projects/STM32F401RE-Nucleo/Examples/MotionControl/MicrosteppingMotor/Src/example_usart.c **** // }
 842:Projects/STM32F401RE-Nucleo/Examples/MotionControl/MicrosteppingMotor/Src/example_usart.c **** 
 843:Projects/STM32F401RE-Nucleo/Examples/MotionControl/MicrosteppingMotor/Src/example_usart.c **** 
 844:Projects/STM32F401RE-Nucleo/Examples/MotionControl/MicrosteppingMotor/Src/example_usart.c **** 
 845:Projects/STM32F401RE-Nucleo/Examples/MotionControl/MicrosteppingMotor/Src/example_usart.c **** 
 846:Projects/STM32F401RE-Nucleo/Examples/MotionControl/MicrosteppingMotor/Src/example_usart.c **** /**
 847:Projects/STM32F401RE-Nucleo/Examples/MotionControl/MicrosteppingMotor/Src/example_usart.c ****  * @brief Decode the command string entered via USART
 848:Projects/STM32F401RE-Nucleo/Examples/MotionControl/MicrosteppingMotor/Src/example_usart.c ****  * @retval None
 849:Projects/STM32F401RE-Nucleo/Examples/MotionControl/MicrosteppingMotor/Src/example_usart.c ****  * @note It use two function, one to split the whole entered command string and
 850:Projects/STM32F401RE-Nucleo/Examples/MotionControl/MicrosteppingMotor/Src/example_usart.c ****  *       another one to check for the application command
 851:Projects/STM32F401RE-Nucleo/Examples/MotionControl/MicrosteppingMotor/Src/example_usart.c ****  */
 852:Projects/STM32F401RE-Nucleo/Examples/MotionControl/MicrosteppingMotor/Src/example_usart.c **** uint32_t* USART_DecodeTextString(uint8_t *pTextString,
 853:Projects/STM32F401RE-Nucleo/Examples/MotionControl/MicrosteppingMotor/Src/example_usart.c **** 		sL6470_TextCommandBundle *pL6470_TextCommandBundle,
 854:Projects/STM32F401RE-Nucleo/Examples/MotionControl/MicrosteppingMotor/Src/example_usart.c **** 		uint8_t* pL6470_DaisyChainSpiTxStruct,
 855:Projects/STM32F401RE-Nucleo/Examples/MotionControl/MicrosteppingMotor/Src/example_usart.c **** 		uint8_t* pL6470_DaisyChainSpiRxStruct) {
 2543              		.loc 1 855 42
 2544              		.cfi_startproc
 2545              		@ args = 0, pretend = 0, frame = 24
 2546              		@ frame_needed = 1, uses_anonymous_args = 0
 2547 0000 90B5     		push	{r4, r7, lr}
 2548              	.LCFI20:
 2549              		.cfi_def_cfa_offset 12
 2550              		.cfi_offset 4, -12
 2551              		.cfi_offset 7, -8
 2552              		.cfi_offset 14, -4
 2553 0002 87B0     		sub	sp, sp, #28
ARM GAS  C:\Users\ep_ygh\AppData\Local\Temp\cctjGRE4.s 			page 65


 2554              	.LCFI21:
 2555              		.cfi_def_cfa_offset 40
 2556 0004 00AF     		add	r7, sp, #0
 2557              	.LCFI22:
 2558              		.cfi_def_cfa_register 7
 2559 0006 F860     		str	r0, [r7, #12]
 2560 0008 B960     		str	r1, [r7, #8]
 2561 000a 7A60     		str	r2, [r7, #4]
 2562 000c 3B60     		str	r3, [r7]
 856:Projects/STM32F401RE-Nucleo/Examples/MotionControl/MicrosteppingMotor/Src/example_usart.c **** 	static uint32_t ReceivedValue[L6470DAISYCHAINSIZE];
 857:Projects/STM32F401RE-Nucleo/Examples/MotionControl/MicrosteppingMotor/Src/example_usart.c **** 	uint8_t L6470_Id;
 858:Projects/STM32F401RE-Nucleo/Examples/MotionControl/MicrosteppingMotor/Src/example_usart.c **** 	eL6470_RegId_t L6470_RegId;
 859:Projects/STM32F401RE-Nucleo/Examples/MotionControl/MicrosteppingMotor/Src/example_usart.c **** 	uint8_t PARAMLengthBytes; /* The number of bytes related to the numeric value for the addressed re
 860:Projects/STM32F401RE-Nucleo/Examples/MotionControl/MicrosteppingMotor/Src/example_usart.c **** 	eHexFormat HexFormat;
 861:Projects/STM32F401RE-Nucleo/Examples/MotionControl/MicrosteppingMotor/Src/example_usart.c **** 
 862:Projects/STM32F401RE-Nucleo/Examples/MotionControl/MicrosteppingMotor/Src/example_usart.c **** 	if (USART_SplitTextString(pTextString, pL6470_TextCommandBundle)
 2563              		.loc 1 862 6
 2564 000e B968     		ldr	r1, [r7, #8]
 2565 0010 F868     		ldr	r0, [r7, #12]
 2566 0012 FFF7FEFF 		bl	USART_SplitTextString
 2567 0016 0346     		mov	r3, r0
 2568              		.loc 1 862 5
 2569 0018 002B     		cmp	r3, #0
 2570 001a 00F0CA80 		beq	.L130
 863:Projects/STM32F401RE-Nucleo/Examples/MotionControl/MicrosteppingMotor/Src/example_usart.c **** 			&& USART_CheckTextCommandBundle(pL6470_TextCommandBundle,
 2571              		.loc 1 863 7
 2572 001e 7968     		ldr	r1, [r7, #4]
 2573 0020 B868     		ldr	r0, [r7, #8]
 2574 0022 FFF7FEFF 		bl	USART_CheckTextCommandBundle
 2575 0026 0346     		mov	r3, r0
 2576              		.loc 1 863 4
 2577 0028 002B     		cmp	r3, #0
 2578 002a 00F0C280 		beq	.L130
 864:Projects/STM32F401RE-Nucleo/Examples/MotionControl/MicrosteppingMotor/Src/example_usart.c **** 					pL6470_DaisyChainSpiTxStruct)) {
 865:Projects/STM32F401RE-Nucleo/Examples/MotionControl/MicrosteppingMotor/Src/example_usart.c **** #ifdef NUCLEO_USE_USART
 866:Projects/STM32F401RE-Nucleo/Examples/MotionControl/MicrosteppingMotor/Src/example_usart.c **** 		USART_Transmit(&huart2, (uint8_t *)"Perform the entered L6470 Application Command...\r\n");
 2579              		.loc 1 866 3
 2580 002e 6549     		ldr	r1, .L144
 2581 0030 6548     		ldr	r0, .L144+4
 2582 0032 FFF7FEFF 		bl	USART_Transmit
 867:Projects/STM32F401RE-Nucleo/Examples/MotionControl/MicrosteppingMotor/Src/example_usart.c **** #endif
 868:Projects/STM32F401RE-Nucleo/Examples/MotionControl/MicrosteppingMotor/Src/example_usart.c **** 		L6470_DaisyChainCommand(pL6470_DaisyChainSpiTxStruct,
 2583              		.loc 1 868 3
 2584 0036 3968     		ldr	r1, [r7]
 2585 0038 7868     		ldr	r0, [r7, #4]
 2586 003a FFF7FEFF 		bl	L6470_DaisyChainCommand
 869:Projects/STM32F401RE-Nucleo/Examples/MotionControl/MicrosteppingMotor/Src/example_usart.c **** 				pL6470_DaisyChainSpiRxStruct);
 870:Projects/STM32F401RE-Nucleo/Examples/MotionControl/MicrosteppingMotor/Src/example_usart.c **** 
 871:Projects/STM32F401RE-Nucleo/Examples/MotionControl/MicrosteppingMotor/Src/example_usart.c **** 		/* Check if a value has to be returned */
 872:Projects/STM32F401RE-Nucleo/Examples/MotionControl/MicrosteppingMotor/Src/example_usart.c **** 		for (L6470_Id = 0; L6470_Id < L6470DAISYCHAINSIZE; L6470_Id++) {
 2587              		.loc 1 872 17
 2588 003e 0023     		movs	r3, #0
 2589 0040 FB75     		strb	r3, [r7, #23]
 2590              		.loc 1 872 3
 2591 0042 ADE0     		b	.L131
 2592              	.L140:
 873:Projects/STM32F401RE-Nucleo/Examples/MotionControl/MicrosteppingMotor/Src/example_usart.c **** 			/* Reset the value before fill with the new value */
ARM GAS  C:\Users\ep_ygh\AppData\Local\Temp\cctjGRE4.s 			page 66


 874:Projects/STM32F401RE-Nucleo/Examples/MotionControl/MicrosteppingMotor/Src/example_usart.c **** 			ReceivedValue[L6470_Id] = 0x00;
 2593              		.loc 1 874 17
 2594 0044 FB7D     		ldrb	r3, [r7, #23]	@ zero_extendqisi2
 2595              		.loc 1 874 28
 2596 0046 614A     		ldr	r2, .L144+8
 2597 0048 0021     		movs	r1, #0
 2598 004a 42F82310 		str	r1, [r2, r3, lsl #2]
 875:Projects/STM32F401RE-Nucleo/Examples/MotionControl/MicrosteppingMotor/Src/example_usart.c **** 
 876:Projects/STM32F401RE-Nucleo/Examples/MotionControl/MicrosteppingMotor/Src/example_usart.c **** 			if ((*(pL6470_DaisyChainSpiTxStruct
 877:Projects/STM32F401RE-Nucleo/Examples/MotionControl/MicrosteppingMotor/Src/example_usart.c **** 					+ ((0 * L6470DAISYCHAINSIZE) + L6470_Id)) & 0xE0) == 0x20) // The AppCmd has been "GetParam"
 2599              		.loc 1 877 35
 2600 004e FB7D     		ldrb	r3, [r7, #23]	@ zero_extendqisi2
 2601              		.loc 1 877 6
 2602 0050 7A68     		ldr	r2, [r7, #4]
 2603 0052 1344     		add	r3, r3, r2
 876:Projects/STM32F401RE-Nucleo/Examples/MotionControl/MicrosteppingMotor/Src/example_usart.c **** 					+ ((0 * L6470DAISYCHAINSIZE) + L6470_Id)) & 0xE0) == 0x20) // The AppCmd has been "GetParam"
 2604              		.loc 1 876 9
 2605 0054 1B78     		ldrb	r3, [r3]	@ zero_extendqisi2
 2606              		.loc 1 877 48
 2607 0056 03F0E003 		and	r3, r3, #224
 876:Projects/STM32F401RE-Nucleo/Examples/MotionControl/MicrosteppingMotor/Src/example_usart.c **** 					+ ((0 * L6470DAISYCHAINSIZE) + L6470_Id)) & 0xE0) == 0x20) // The AppCmd has been "GetParam"
 2608              		.loc 1 876 7
 2609 005a 202B     		cmp	r3, #32
 2610 005c 6BD1     		bne	.L132
 878:Projects/STM32F401RE-Nucleo/Examples/MotionControl/MicrosteppingMotor/Src/example_usart.c **** 					{
 879:Projects/STM32F401RE-Nucleo/Examples/MotionControl/MicrosteppingMotor/Src/example_usart.c **** 				/* The length, in byte, of this register (PARAM) is... */
 880:Projects/STM32F401RE-Nucleo/Examples/MotionControl/MicrosteppingMotor/Src/example_usart.c **** 				/* Check for the Register address */
 881:Projects/STM32F401RE-Nucleo/Examples/MotionControl/MicrosteppingMotor/Src/example_usart.c **** 				L6470_RegId = (eL6470_RegId_t) 0;
 2611              		.loc 1 881 17
 2612 005e 0023     		movs	r3, #0
 2613 0060 BB75     		strb	r3, [r7, #22]
 882:Projects/STM32F401RE-Nucleo/Examples/MotionControl/MicrosteppingMotor/Src/example_usart.c **** 				while ((*(pL6470_DaisyChainSpiTxStruct
 2614              		.loc 1 882 11
 2615 0062 02E0     		b	.L133
 2616              	.L134:
 883:Projects/STM32F401RE-Nucleo/Examples/MotionControl/MicrosteppingMotor/Src/example_usart.c **** 						+ ((0 * L6470DAISYCHAINSIZE) + L6470_Id)) & 0x1F)
 884:Projects/STM32F401RE-Nucleo/Examples/MotionControl/MicrosteppingMotor/Src/example_usart.c **** 						!= (L6470_Register[L6470_RegId].Address))
 885:Projects/STM32F401RE-Nucleo/Examples/MotionControl/MicrosteppingMotor/Src/example_usart.c **** 					L6470_RegId++;
 2617              		.loc 1 885 17
 2618 0064 BB7D     		ldrb	r3, [r7, #22]	@ zero_extendqisi2
 2619 0066 0133     		adds	r3, r3, #1
 2620 0068 BB75     		strb	r3, [r7, #22]
