ARM GAS  C:\Users\ep_ygh\AppData\Local\Temp\ccqIQPDc.s 			page 1


   1              		.cpu cortex-m4
   2              		.arch armv7e-m
   3              		.fpu fpv4-sp-d16
   4              		.eabi_attribute 27, 1
   5              		.eabi_attribute 28, 1
   6              		.eabi_attribute 20, 1
   7              		.eabi_attribute 21, 1
   8              		.eabi_attribute 23, 3
   9              		.eabi_attribute 24, 1
  10              		.eabi_attribute 25, 1
  11              		.eabi_attribute 26, 1
  12              		.eabi_attribute 30, 6
  13              		.eabi_attribute 34, 1
  14              		.eabi_attribute 18, 4
  15              		.file	"example_usart.c"
  16              		.text
  17              	.Ltext0:
  18              		.cfi_sections	.debug_frame
  19              		.global	huart2
  20              		.section	.bss.huart2,"aw",%nobits
  21              		.align	2
  24              	huart2:
  25 0000 00000000 		.space	64
  25      00000000 
  25      00000000 
  25      00000000 
  25      00000000 
  26              		.global	L6470_DaisyChainMnemonic
  27              		.section	.bss.L6470_DaisyChainMnemonic,"aw",%nobits
  28              		.align	2
  31              	L6470_DaisyChainMnemonic:
  32 0000 00000000 		.space	26
  32      00000000 
  32      00000000 
  32      00000000 
  32      00000000 
  33              		.global	UsartTextString
  34              		.section	.bss.UsartTextString,"aw",%nobits
  35              		.align	2
  38              	UsartTextString:
  39 0000 00000000 		.space	64
  39      00000000 
  39      00000000 
  39      00000000 
  39      00000000 
  40              		.global	L6470_TextCommandBundle
  41              		.section	.bss.L6470_TextCommandBundle,"aw",%nobits
  42              		.align	2
  45              	L6470_TextCommandBundle:
  46 0000 00000000 		.space	96
  46      00000000 
  46      00000000 
  46      00000000 
  46      00000000 
  47              		.section	.rodata
  48              		.align	2
  49              	.LC0:
ARM GAS  C:\Users\ep_ygh\AppData\Local\Temp\ccqIQPDc.s 			page 2


  50 0000 546F6F20 		.ascii	"Too much entered parameters.\015\012\015\012\000"
  50      6D756368 
  50      20656E74 
  50      65726564 
  50      20706172 
  51 0021 000000   		.align	2
  52              	.LC1:
  53 0024 546F6F20 		.ascii	"Too much addressed L6470.\015\012\015\012\000"
  53      6D756368 
  53      20616464 
  53      72657373 
  53      6564204C 
  54 0042 0000     		.align	2
  55              	.LC2:
  56 0044 546F6F20 		.ascii	"Too much entered character.\015\012\015\012\000"
  56      6D756368 
  56      20656E74 
  56      65726564 
  56      20636861 
  57              		.section	.text.USART_SplitTextString,"ax",%progbits
  58              		.align	1
  59              		.global	USART_SplitTextString
  60              		.syntax unified
  61              		.thumb
  62              		.thumb_func
  64              	USART_SplitTextString:
  65              	.LFB128:
  66              		.file 1 "Projects/STM32F401RE-Nucleo/Examples/MotionControl/MicrosteppingMotor/Src/example_usart.c
   1:Projects/STM32F401RE-Nucleo/Examples/MotionControl/MicrosteppingMotor/Src/example_usart.c **** /**
   2:Projects/STM32F401RE-Nucleo/Examples/MotionControl/MicrosteppingMotor/Src/example_usart.c ****  ******************************************************************************
   3:Projects/STM32F401RE-Nucleo/Examples/MotionControl/MicrosteppingMotor/Src/example_usart.c ****  * @file       nucleo_xnucleo_usart.c
   4:Projects/STM32F401RE-Nucleo/Examples/MotionControl/MicrosteppingMotor/Src/example_usart.c ****  * @date       01/10/2014 12:00:00
   5:Projects/STM32F401RE-Nucleo/Examples/MotionControl/MicrosteppingMotor/Src/example_usart.c ****  * @brief      This file provides the functions to send commands to the L6470
   6:Projects/STM32F401RE-Nucleo/Examples/MotionControl/MicrosteppingMotor/Src/example_usart.c ****  *             via Nucleo USART 
   7:Projects/STM32F401RE-Nucleo/Examples/MotionControl/MicrosteppingMotor/Src/example_usart.c ****  ******************************************************************************
   8:Projects/STM32F401RE-Nucleo/Examples/MotionControl/MicrosteppingMotor/Src/example_usart.c ****  *
   9:Projects/STM32F401RE-Nucleo/Examples/MotionControl/MicrosteppingMotor/Src/example_usart.c ****  * COPYRIGHT(c) 2014 STMicroelectronics
  10:Projects/STM32F401RE-Nucleo/Examples/MotionControl/MicrosteppingMotor/Src/example_usart.c ****  *
  11:Projects/STM32F401RE-Nucleo/Examples/MotionControl/MicrosteppingMotor/Src/example_usart.c ****  * Redistribution and use in source and binary forms, with or without modification,
  12:Projects/STM32F401RE-Nucleo/Examples/MotionControl/MicrosteppingMotor/Src/example_usart.c ****  * are permitted provided that the following conditions are met:
  13:Projects/STM32F401RE-Nucleo/Examples/MotionControl/MicrosteppingMotor/Src/example_usart.c ****  *   1. Redistributions of source code must retain the above copyright notice,
  14:Projects/STM32F401RE-Nucleo/Examples/MotionControl/MicrosteppingMotor/Src/example_usart.c ****  *      this list of conditions and the following disclaimer.
  15:Projects/STM32F401RE-Nucleo/Examples/MotionControl/MicrosteppingMotor/Src/example_usart.c ****  *   2. Redistributions in binary form must reproduce the above copyright notice,
  16:Projects/STM32F401RE-Nucleo/Examples/MotionControl/MicrosteppingMotor/Src/example_usart.c ****  *      this list of conditions and the following disclaimer in the documentation
  17:Projects/STM32F401RE-Nucleo/Examples/MotionControl/MicrosteppingMotor/Src/example_usart.c ****  *      and/or other materials provided with the distribution.
  18:Projects/STM32F401RE-Nucleo/Examples/MotionControl/MicrosteppingMotor/Src/example_usart.c ****  *   3. Neither the name of STMicroelectronics nor the names of its contributors
  19:Projects/STM32F401RE-Nucleo/Examples/MotionControl/MicrosteppingMotor/Src/example_usart.c ****  *      may be used to endorse or promote products derived from this software
  20:Projects/STM32F401RE-Nucleo/Examples/MotionControl/MicrosteppingMotor/Src/example_usart.c ****  *      without specific prior written permission.
  21:Projects/STM32F401RE-Nucleo/Examples/MotionControl/MicrosteppingMotor/Src/example_usart.c ****  *
  22:Projects/STM32F401RE-Nucleo/Examples/MotionControl/MicrosteppingMotor/Src/example_usart.c ****  * THIS SOFTWARE IS PROVIDED BY THE COPYRIGHT HOLDERS AND CONTRIBUTORS "AS IS"
  23:Projects/STM32F401RE-Nucleo/Examples/MotionControl/MicrosteppingMotor/Src/example_usart.c ****  * AND ANY EXPRESS OR IMPLIED WARRANTIES, INCLUDING, BUT NOT LIMITED TO, THE
  24:Projects/STM32F401RE-Nucleo/Examples/MotionControl/MicrosteppingMotor/Src/example_usart.c ****  * IMPLIED WARRANTIES OF MERCHANTABILITY AND FITNESS FOR A PARTICULAR PURPOSE ARE
  25:Projects/STM32F401RE-Nucleo/Examples/MotionControl/MicrosteppingMotor/Src/example_usart.c ****  * DISCLAIMED. IN NO EVENT SHALL THE COPYRIGHT HOLDER OR CONTRIBUTORS BE LIABLE
  26:Projects/STM32F401RE-Nucleo/Examples/MotionControl/MicrosteppingMotor/Src/example_usart.c ****  * FOR ANY DIRECT, INDIRECT, INCIDENTAL, SPECIAL, EXEMPLARY, OR CONSEQUENTIAL
  27:Projects/STM32F401RE-Nucleo/Examples/MotionControl/MicrosteppingMotor/Src/example_usart.c ****  * DAMAGES (INCLUDING, BUT NOT LIMITED TO, PROCUREMENT OF SUBSTITUTE GOODS OR
  28:Projects/STM32F401RE-Nucleo/Examples/MotionControl/MicrosteppingMotor/Src/example_usart.c ****  * SERVICES; LOSS OF USE, DATA, OR PROFITS; OR BUSINESS INTERRUPTION) HOWEVER
  29:Projects/STM32F401RE-Nucleo/Examples/MotionControl/MicrosteppingMotor/Src/example_usart.c ****  * CAUSED AND ON ANY THEORY OF LIABILITY, WHETHER IN CONTRACT, STRICT LIABILITY,
ARM GAS  C:\Users\ep_ygh\AppData\Local\Temp\ccqIQPDc.s 			page 3


  30:Projects/STM32F401RE-Nucleo/Examples/MotionControl/MicrosteppingMotor/Src/example_usart.c ****  * OR TORT (INCLUDING NEGLIGENCE OR OTHERWISE) ARISING IN ANY WAY OUT OF THE USE
  31:Projects/STM32F401RE-Nucleo/Examples/MotionControl/MicrosteppingMotor/Src/example_usart.c ****  * OF THIS SOFTWARE, EVEN IF ADVISED OF THE POSSIBILITY OF SUCH DAMAGE.
  32:Projects/STM32F401RE-Nucleo/Examples/MotionControl/MicrosteppingMotor/Src/example_usart.c ****  *
  33:Projects/STM32F401RE-Nucleo/Examples/MotionControl/MicrosteppingMotor/Src/example_usart.c ****  ******************************************************************************
  34:Projects/STM32F401RE-Nucleo/Examples/MotionControl/MicrosteppingMotor/Src/example_usart.c ****  */
  35:Projects/STM32F401RE-Nucleo/Examples/MotionControl/MicrosteppingMotor/Src/example_usart.c **** 
  36:Projects/STM32F401RE-Nucleo/Examples/MotionControl/MicrosteppingMotor/Src/example_usart.c **** #include "example_usart.h"
  37:Projects/STM32F401RE-Nucleo/Examples/MotionControl/MicrosteppingMotor/Src/example_usart.c **** #include "xnucleoihm02a1.h"
  38:Projects/STM32F401RE-Nucleo/Examples/MotionControl/MicrosteppingMotor/Src/example_usart.c **** 
  39:Projects/STM32F401RE-Nucleo/Examples/MotionControl/MicrosteppingMotor/Src/example_usart.c **** /**
  40:Projects/STM32F401RE-Nucleo/Examples/MotionControl/MicrosteppingMotor/Src/example_usart.c ****  * @addtogroup MicrosteppingMotor_Example
  41:Projects/STM32F401RE-Nucleo/Examples/MotionControl/MicrosteppingMotor/Src/example_usart.c ****  * @{
  42:Projects/STM32F401RE-Nucleo/Examples/MotionControl/MicrosteppingMotor/Src/example_usart.c ****  */
  43:Projects/STM32F401RE-Nucleo/Examples/MotionControl/MicrosteppingMotor/Src/example_usart.c **** 
  44:Projects/STM32F401RE-Nucleo/Examples/MotionControl/MicrosteppingMotor/Src/example_usart.c **** /**
  45:Projects/STM32F401RE-Nucleo/Examples/MotionControl/MicrosteppingMotor/Src/example_usart.c ****  * @addtogroup   ExampleUsart
  46:Projects/STM32F401RE-Nucleo/Examples/MotionControl/MicrosteppingMotor/Src/example_usart.c ****  * @{
  47:Projects/STM32F401RE-Nucleo/Examples/MotionControl/MicrosteppingMotor/Src/example_usart.c ****  */
  48:Projects/STM32F401RE-Nucleo/Examples/MotionControl/MicrosteppingMotor/Src/example_usart.c **** 
  49:Projects/STM32F401RE-Nucleo/Examples/MotionControl/MicrosteppingMotor/Src/example_usart.c **** /**
  50:Projects/STM32F401RE-Nucleo/Examples/MotionControl/MicrosteppingMotor/Src/example_usart.c ****  * @addtogroup ExampleUsartPrivateTypes
  51:Projects/STM32F401RE-Nucleo/Examples/MotionControl/MicrosteppingMotor/Src/example_usart.c ****  * @{
  52:Projects/STM32F401RE-Nucleo/Examples/MotionControl/MicrosteppingMotor/Src/example_usart.c ****  */
  53:Projects/STM32F401RE-Nucleo/Examples/MotionControl/MicrosteppingMotor/Src/example_usart.c **** 
  54:Projects/STM32F401RE-Nucleo/Examples/MotionControl/MicrosteppingMotor/Src/example_usart.c **** /**
  55:Projects/STM32F401RE-Nucleo/Examples/MotionControl/MicrosteppingMotor/Src/example_usart.c ****  * @brief The states while USART text decoding
  56:Projects/STM32F401RE-Nucleo/Examples/MotionControl/MicrosteppingMotor/Src/example_usart.c ****  */
  57:Projects/STM32F401RE-Nucleo/Examples/MotionControl/MicrosteppingMotor/Src/example_usart.c **** typedef enum {
  58:Projects/STM32F401RE-Nucleo/Examples/MotionControl/MicrosteppingMotor/Src/example_usart.c **** 	DECODE_MOTOR,       //!< Motor name decoding
  59:Projects/STM32F401RE-Nucleo/Examples/MotionControl/MicrosteppingMotor/Src/example_usart.c **** 	DECODE_COMMAND,     //!< L6470 Application Commad decoding
  60:Projects/STM32F401RE-Nucleo/Examples/MotionControl/MicrosteppingMotor/Src/example_usart.c **** 	DECODE_1st_PARAM,   //!< L6470 Application Commad 1st parameter decoding
  61:Projects/STM32F401RE-Nucleo/Examples/MotionControl/MicrosteppingMotor/Src/example_usart.c **** 	DECODE_2nd_PARAM,   //!< L6470 Application Commad 2nd parameter decoding
  62:Projects/STM32F401RE-Nucleo/Examples/MotionControl/MicrosteppingMotor/Src/example_usart.c **** 	DECODE_3rd_PARAM,   //!< L6470 Application Commad 3rd parameter decoding
  63:Projects/STM32F401RE-Nucleo/Examples/MotionControl/MicrosteppingMotor/Src/example_usart.c **** } eL6470_UsartTextStringDecodingStatus;
  64:Projects/STM32F401RE-Nucleo/Examples/MotionControl/MicrosteppingMotor/Src/example_usart.c **** 
  65:Projects/STM32F401RE-Nucleo/Examples/MotionControl/MicrosteppingMotor/Src/example_usart.c **** /**
  66:Projects/STM32F401RE-Nucleo/Examples/MotionControl/MicrosteppingMotor/Src/example_usart.c ****  * @}
  67:Projects/STM32F401RE-Nucleo/Examples/MotionControl/MicrosteppingMotor/Src/example_usart.c ****  *//* End of ExampleUsartPrivateTypes */
  68:Projects/STM32F401RE-Nucleo/Examples/MotionControl/MicrosteppingMotor/Src/example_usart.c **** 
  69:Projects/STM32F401RE-Nucleo/Examples/MotionControl/MicrosteppingMotor/Src/example_usart.c **** /**
  70:Projects/STM32F401RE-Nucleo/Examples/MotionControl/MicrosteppingMotor/Src/example_usart.c ****  * @addtogroup ExampleUsartPrivateMacros
  71:Projects/STM32F401RE-Nucleo/Examples/MotionControl/MicrosteppingMotor/Src/example_usart.c ****  * @{
  72:Projects/STM32F401RE-Nucleo/Examples/MotionControl/MicrosteppingMotor/Src/example_usart.c ****  */
  73:Projects/STM32F401RE-Nucleo/Examples/MotionControl/MicrosteppingMotor/Src/example_usart.c **** 
  74:Projects/STM32F401RE-Nucleo/Examples/MotionControl/MicrosteppingMotor/Src/example_usart.c **** #define NucleoUsartReceiveIT    HAL_UART_Receive_IT     //!< Rename the HAL function to receive an 
  75:Projects/STM32F401RE-Nucleo/Examples/MotionControl/MicrosteppingMotor/Src/example_usart.c **** #ifdef STM32F072xB
  76:Projects/STM32F401RE-Nucleo/Examples/MotionControl/MicrosteppingMotor/Src/example_usart.c **** #define NUCLEO_BOARD_NAME       (uint8_t *)"NUCLEO-F072RB"
  77:Projects/STM32F401RE-Nucleo/Examples/MotionControl/MicrosteppingMotor/Src/example_usart.c **** #define USART_STATUS_REGISTER   ISR                     //!< HAL USART status register name adapter
  78:Projects/STM32F401RE-Nucleo/Examples/MotionControl/MicrosteppingMotor/Src/example_usart.c **** #define USART_DATA_REGISTER     RDR                     //!< HAL UART data register name adapter.
  79:Projects/STM32F401RE-Nucleo/Examples/MotionControl/MicrosteppingMotor/Src/example_usart.c **** #endif
  80:Projects/STM32F401RE-Nucleo/Examples/MotionControl/MicrosteppingMotor/Src/example_usart.c **** #ifdef STM32F302x8
  81:Projects/STM32F401RE-Nucleo/Examples/MotionControl/MicrosteppingMotor/Src/example_usart.c **** #define NUCLEO_BOARD_NAME       (uint8_t *)"NUCLEO-F302R8"
  82:Projects/STM32F401RE-Nucleo/Examples/MotionControl/MicrosteppingMotor/Src/example_usart.c **** #define USART_STATUS_REGISTER   ISR                     //!< HAL USART status register name adapter
  83:Projects/STM32F401RE-Nucleo/Examples/MotionControl/MicrosteppingMotor/Src/example_usart.c **** #define USART_DATA_REGISTER     RDR                     //!< HAL UART data register name adapter.
  84:Projects/STM32F401RE-Nucleo/Examples/MotionControl/MicrosteppingMotor/Src/example_usart.c **** #endif
  85:Projects/STM32F401RE-Nucleo/Examples/MotionControl/MicrosteppingMotor/Src/example_usart.c **** #ifdef STM32F401xE
  86:Projects/STM32F401RE-Nucleo/Examples/MotionControl/MicrosteppingMotor/Src/example_usart.c **** #define NUCLEO_BOARD_NAME       (uint8_t *)"NUCLEO-F401RE"
ARM GAS  C:\Users\ep_ygh\AppData\Local\Temp\ccqIQPDc.s 			page 4


  87:Projects/STM32F401RE-Nucleo/Examples/MotionControl/MicrosteppingMotor/Src/example_usart.c **** #define USART_STATUS_REGISTER   SR                      //!< HAL USART status register name adapter
  88:Projects/STM32F401RE-Nucleo/Examples/MotionControl/MicrosteppingMotor/Src/example_usart.c **** #define USART_DATA_REGISTER     DR                      //!< HAL UART data register name adapter.
  89:Projects/STM32F401RE-Nucleo/Examples/MotionControl/MicrosteppingMotor/Src/example_usart.c **** #endif
  90:Projects/STM32F401RE-Nucleo/Examples/MotionControl/MicrosteppingMotor/Src/example_usart.c **** 
  91:Projects/STM32F401RE-Nucleo/Examples/MotionControl/MicrosteppingMotor/Src/example_usart.c **** /**
  92:Projects/STM32F401RE-Nucleo/Examples/MotionControl/MicrosteppingMotor/Src/example_usart.c ****  * @}
  93:Projects/STM32F401RE-Nucleo/Examples/MotionControl/MicrosteppingMotor/Src/example_usart.c ****  *//* End of ExampleUsartPrivateMacros */
  94:Projects/STM32F401RE-Nucleo/Examples/MotionControl/MicrosteppingMotor/Src/example_usart.c **** 
  95:Projects/STM32F401RE-Nucleo/Examples/MotionControl/MicrosteppingMotor/Src/example_usart.c **** /**
  96:Projects/STM32F401RE-Nucleo/Examples/MotionControl/MicrosteppingMotor/Src/example_usart.c ****  * @addtogroup ExampleUsartPrivateVariables
  97:Projects/STM32F401RE-Nucleo/Examples/MotionControl/MicrosteppingMotor/Src/example_usart.c ****  * @{
  98:Projects/STM32F401RE-Nucleo/Examples/MotionControl/MicrosteppingMotor/Src/example_usart.c ****  */
  99:Projects/STM32F401RE-Nucleo/Examples/MotionControl/MicrosteppingMotor/Src/example_usart.c **** 
 100:Projects/STM32F401RE-Nucleo/Examples/MotionControl/MicrosteppingMotor/Src/example_usart.c **** UART_HandleTypeDef huart2; //!< The data structure for all further instances to USART2.
 101:Projects/STM32F401RE-Nucleo/Examples/MotionControl/MicrosteppingMotor/Src/example_usart.c **** sL6470_DaisyChainMnemonic L6470_DaisyChainMnemonic[L6470DAISYCHAINSIZE]; //!< The mnemonic names fo
 102:Projects/STM32F401RE-Nucleo/Examples/MotionControl/MicrosteppingMotor/Src/example_usart.c **** uint8_t UsartTextString[USARTTEXTSTRINGSIZE]; //!< To store the USART input text string.
 103:Projects/STM32F401RE-Nucleo/Examples/MotionControl/MicrosteppingMotor/Src/example_usart.c **** sL6470_TextCommandBundle L6470_TextCommandBundle[L6470DAISYCHAINSIZE]; //!< To store the splitted U
 104:Projects/STM32F401RE-Nucleo/Examples/MotionControl/MicrosteppingMotor/Src/example_usart.c **** 
 105:Projects/STM32F401RE-Nucleo/Examples/MotionControl/MicrosteppingMotor/Src/example_usart.c **** /**
 106:Projects/STM32F401RE-Nucleo/Examples/MotionControl/MicrosteppingMotor/Src/example_usart.c ****  * @}
 107:Projects/STM32F401RE-Nucleo/Examples/MotionControl/MicrosteppingMotor/Src/example_usart.c ****  *//* End of ExampleUsartPrivateVariables */
 108:Projects/STM32F401RE-Nucleo/Examples/MotionControl/MicrosteppingMotor/Src/example_usart.c **** 
 109:Projects/STM32F401RE-Nucleo/Examples/MotionControl/MicrosteppingMotor/Src/example_usart.c **** /**
 110:Projects/STM32F401RE-Nucleo/Examples/MotionControl/MicrosteppingMotor/Src/example_usart.c ****  * @defgroup   ExampleUsartPrivateFunctions
 111:Projects/STM32F401RE-Nucleo/Examples/MotionControl/MicrosteppingMotor/Src/example_usart.c ****  * @{
 112:Projects/STM32F401RE-Nucleo/Examples/MotionControl/MicrosteppingMotor/Src/example_usart.c ****  */
 113:Projects/STM32F401RE-Nucleo/Examples/MotionControl/MicrosteppingMotor/Src/example_usart.c **** 
 114:Projects/STM32F401RE-Nucleo/Examples/MotionControl/MicrosteppingMotor/Src/example_usart.c **** FlagStatus USART_SplitTextString(uint8_t *pTextString,
 115:Projects/STM32F401RE-Nucleo/Examples/MotionControl/MicrosteppingMotor/Src/example_usart.c **** 		sL6470_TextCommandBundle *pL6470_TextCommandBundle);
 116:Projects/STM32F401RE-Nucleo/Examples/MotionControl/MicrosteppingMotor/Src/example_usart.c **** FlagStatus USART_CheckTextCommandBundle(
 117:Projects/STM32F401RE-Nucleo/Examples/MotionControl/MicrosteppingMotor/Src/example_usart.c **** 		sL6470_TextCommandBundle *pL6470_TextCommandBundle,
 118:Projects/STM32F401RE-Nucleo/Examples/MotionControl/MicrosteppingMotor/Src/example_usart.c **** 		uint8_t* pL6470_DaisyChainSpiTxStruct);
 119:Projects/STM32F401RE-Nucleo/Examples/MotionControl/MicrosteppingMotor/Src/example_usart.c **** uint32_t* USART_DecodeTextString(uint8_t *pTextString,
 120:Projects/STM32F401RE-Nucleo/Examples/MotionControl/MicrosteppingMotor/Src/example_usart.c **** 		sL6470_TextCommandBundle *pL6470_TextCommandBundle,
 121:Projects/STM32F401RE-Nucleo/Examples/MotionControl/MicrosteppingMotor/Src/example_usart.c **** 		uint8_t* pL6470_DaisyChainSpiTxStruct,
 122:Projects/STM32F401RE-Nucleo/Examples/MotionControl/MicrosteppingMotor/Src/example_usart.c **** 		uint8_t* pL6470_DaisyChainSpiRxStruct);
 123:Projects/STM32F401RE-Nucleo/Examples/MotionControl/MicrosteppingMotor/Src/example_usart.c **** FlagStatus CompareTwoTextString(uint8_t* TextString1, uint8_t* TextString2);
 124:Projects/STM32F401RE-Nucleo/Examples/MotionControl/MicrosteppingMotor/Src/example_usart.c **** FlagStatus str2num(uint8_t* str, uint32_t* pnum);
 125:Projects/STM32F401RE-Nucleo/Examples/MotionControl/MicrosteppingMotor/Src/example_usart.c **** 
 126:Projects/STM32F401RE-Nucleo/Examples/MotionControl/MicrosteppingMotor/Src/example_usart.c **** /**
 127:Projects/STM32F401RE-Nucleo/Examples/MotionControl/MicrosteppingMotor/Src/example_usart.c ****  * @}
 128:Projects/STM32F401RE-Nucleo/Examples/MotionControl/MicrosteppingMotor/Src/example_usart.c ****  *//* End of ExampleUsartPrivateFunctions */
 129:Projects/STM32F401RE-Nucleo/Examples/MotionControl/MicrosteppingMotor/Src/example_usart.c **** 
 130:Projects/STM32F401RE-Nucleo/Examples/MotionControl/MicrosteppingMotor/Src/example_usart.c **** /**
 131:Projects/STM32F401RE-Nucleo/Examples/MotionControl/MicrosteppingMotor/Src/example_usart.c ****  * @addtogroup ExampleUsartPrivateFunctions
 132:Projects/STM32F401RE-Nucleo/Examples/MotionControl/MicrosteppingMotor/Src/example_usart.c ****  * @{
 133:Projects/STM32F401RE-Nucleo/Examples/MotionControl/MicrosteppingMotor/Src/example_usart.c ****  */
 134:Projects/STM32F401RE-Nucleo/Examples/MotionControl/MicrosteppingMotor/Src/example_usart.c **** 
 135:Projects/STM32F401RE-Nucleo/Examples/MotionControl/MicrosteppingMotor/Src/example_usart.c **** /**
 136:Projects/STM32F401RE-Nucleo/Examples/MotionControl/MicrosteppingMotor/Src/example_usart.c ****  * @brief Split the whole command string entered via USART into single text
 137:Projects/STM32F401RE-Nucleo/Examples/MotionControl/MicrosteppingMotor/Src/example_usart.c ****  *        strings to be used
 138:Projects/STM32F401RE-Nucleo/Examples/MotionControl/MicrosteppingMotor/Src/example_usart.c ****  * @retval FlagStatus  SET or RESET related to the result
 139:Projects/STM32F401RE-Nucleo/Examples/MotionControl/MicrosteppingMotor/Src/example_usart.c ****  */
 140:Projects/STM32F401RE-Nucleo/Examples/MotionControl/MicrosteppingMotor/Src/example_usart.c **** FlagStatus USART_SplitTextString(uint8_t *pTextString,
 141:Projects/STM32F401RE-Nucleo/Examples/MotionControl/MicrosteppingMotor/Src/example_usart.c **** 		sL6470_TextCommandBundle *pL6470_TextCommandBundle) {
  67              		.loc 1 141 55
  68              		.cfi_startproc
ARM GAS  C:\Users\ep_ygh\AppData\Local\Temp\ccqIQPDc.s 			page 5


  69              		@ args = 0, pretend = 0, frame = 16
  70              		@ frame_needed = 1, uses_anonymous_args = 0
  71 0000 80B5     		push	{r7, lr}
  72              	.LCFI0:
  73              		.cfi_def_cfa_offset 8
  74              		.cfi_offset 7, -8
  75              		.cfi_offset 14, -4
  76 0002 84B0     		sub	sp, sp, #16
  77              	.LCFI1:
  78              		.cfi_def_cfa_offset 24
  79 0004 00AF     		add	r7, sp, #0
  80              	.LCFI2:
  81              		.cfi_def_cfa_register 7
  82 0006 7860     		str	r0, [r7, #4]
  83 0008 3960     		str	r1, [r7]
 142:Projects/STM32F401RE-Nucleo/Examples/MotionControl/MicrosteppingMotor/Src/example_usart.c **** 	uint8_t CmdTxt_id; /* To index the text command string inside the whole text string */
 143:Projects/STM32F401RE-Nucleo/Examples/MotionControl/MicrosteppingMotor/Src/example_usart.c **** 	uint8_t c_id; /* To index the characters of the command string */
 144:Projects/STM32F401RE-Nucleo/Examples/MotionControl/MicrosteppingMotor/Src/example_usart.c **** 	uint8_t ch; /* The actual character to be checked */
 145:Projects/STM32F401RE-Nucleo/Examples/MotionControl/MicrosteppingMotor/Src/example_usart.c **** 	uint8_t k_id; /* To index the characters of each word of the command string */
 146:Projects/STM32F401RE-Nucleo/Examples/MotionControl/MicrosteppingMotor/Src/example_usart.c **** 	uint8_t k_idmax; /* To store the actual max value for k */
 147:Projects/STM32F401RE-Nucleo/Examples/MotionControl/MicrosteppingMotor/Src/example_usart.c **** 	eL6470_UsartTextStringDecodingStatus UsartTextStringDecodingStatus; /* The store the actual state 
 148:Projects/STM32F401RE-Nucleo/Examples/MotionControl/MicrosteppingMotor/Src/example_usart.c **** 
 149:Projects/STM32F401RE-Nucleo/Examples/MotionControl/MicrosteppingMotor/Src/example_usart.c **** 	for (CmdTxt_id = 0; CmdTxt_id < L6470DAISYCHAINSIZE; CmdTxt_id++) {
  84              		.loc 1 149 17
  85 000a 0023     		movs	r3, #0
  86 000c FB73     		strb	r3, [r7, #15]
  87              		.loc 1 149 2
  88 000e 35E0     		b	.L2
  89              	.L3:
 150:Projects/STM32F401RE-Nucleo/Examples/MotionControl/MicrosteppingMotor/Src/example_usart.c **** 		*((pL6470_TextCommandBundle + CmdTxt_id)->MotorName) = '\0';
  90              		.loc 1 150 31 discriminator 3
  91 0010 FA7B     		ldrb	r2, [r7, #15]	@ zero_extendqisi2
  92 0012 1346     		mov	r3, r2
  93 0014 5B00     		lsls	r3, r3, #1
  94 0016 1344     		add	r3, r3, r2
  95 0018 1B01     		lsls	r3, r3, #4
  96 001a 1A46     		mov	r2, r3
  97 001c 3B68     		ldr	r3, [r7]
  98 001e 1344     		add	r3, r3, r2
  99              		.loc 1 150 56 discriminator 3
 100 0020 0022     		movs	r2, #0
 101 0022 1A70     		strb	r2, [r3]
 151:Projects/STM32F401RE-Nucleo/Examples/MotionControl/MicrosteppingMotor/Src/example_usart.c **** 		*((pL6470_TextCommandBundle + CmdTxt_id)->CommandName) = '\0';
 102              		.loc 1 151 31 discriminator 3
 103 0024 FA7B     		ldrb	r2, [r7, #15]	@ zero_extendqisi2
 104 0026 1346     		mov	r3, r2
 105 0028 5B00     		lsls	r3, r3, #1
 106 002a 1344     		add	r3, r3, r2
 107 002c 1B01     		lsls	r3, r3, #4
 108 002e 1A46     		mov	r2, r3
 109 0030 3B68     		ldr	r3, [r7]
 110 0032 1344     		add	r3, r3, r2
 111              		.loc 1 151 58 discriminator 3
 112 0034 0022     		movs	r2, #0
 113 0036 DA70     		strb	r2, [r3, #3]
 152:Projects/STM32F401RE-Nucleo/Examples/MotionControl/MicrosteppingMotor/Src/example_usart.c **** 		*((pL6470_TextCommandBundle + CmdTxt_id)->Param[0]) = '\0';
 114              		.loc 1 152 31 discriminator 3
ARM GAS  C:\Users\ep_ygh\AppData\Local\Temp\ccqIQPDc.s 			page 6


 115 0038 FA7B     		ldrb	r2, [r7, #15]	@ zero_extendqisi2
 116 003a 1346     		mov	r3, r2
 117 003c 5B00     		lsls	r3, r3, #1
 118 003e 1344     		add	r3, r3, r2
 119 0040 1B01     		lsls	r3, r3, #4
 120 0042 1A46     		mov	r2, r3
 121 0044 3B68     		ldr	r3, [r7]
 122 0046 1344     		add	r3, r3, r2
 123              		.loc 1 152 55 discriminator 3
 124 0048 0022     		movs	r2, #0
 125 004a DA73     		strb	r2, [r3, #15]
 153:Projects/STM32F401RE-Nucleo/Examples/MotionControl/MicrosteppingMotor/Src/example_usart.c **** 		*((pL6470_TextCommandBundle + CmdTxt_id)->Param[1]) = '\0';
 126              		.loc 1 153 31 discriminator 3
 127 004c FA7B     		ldrb	r2, [r7, #15]	@ zero_extendqisi2
 128 004e 1346     		mov	r3, r2
 129 0050 5B00     		lsls	r3, r3, #1
 130 0052 1344     		add	r3, r3, r2
 131 0054 1B01     		lsls	r3, r3, #4
 132 0056 1A46     		mov	r2, r3
 133 0058 3B68     		ldr	r3, [r7]
 134 005a 1344     		add	r3, r3, r2
 135              		.loc 1 153 55 discriminator 3
 136 005c 0022     		movs	r2, #0
 137 005e 9A76     		strb	r2, [r3, #26]
 154:Projects/STM32F401RE-Nucleo/Examples/MotionControl/MicrosteppingMotor/Src/example_usart.c **** 		*((pL6470_TextCommandBundle + CmdTxt_id)->Param[2]) = '\0';
 138              		.loc 1 154 31 discriminator 3
 139 0060 FA7B     		ldrb	r2, [r7, #15]	@ zero_extendqisi2
 140 0062 1346     		mov	r3, r2
 141 0064 5B00     		lsls	r3, r3, #1
 142 0066 1344     		add	r3, r3, r2
 143 0068 1B01     		lsls	r3, r3, #4
 144 006a 1A46     		mov	r2, r3
 145 006c 3B68     		ldr	r3, [r7]
 146 006e 1344     		add	r3, r3, r2
 147              		.loc 1 154 55 discriminator 3
 148 0070 0022     		movs	r2, #0
 149 0072 83F82520 		strb	r2, [r3, #37]
 149:Projects/STM32F401RE-Nucleo/Examples/MotionControl/MicrosteppingMotor/Src/example_usart.c **** 		*((pL6470_TextCommandBundle + CmdTxt_id)->MotorName) = '\0';
 150              		.loc 1 149 64 discriminator 3
 151 0076 FB7B     		ldrb	r3, [r7, #15]	@ zero_extendqisi2
 152 0078 0133     		adds	r3, r3, #1
 153 007a FB73     		strb	r3, [r7, #15]
 154              	.L2:
 149:Projects/STM32F401RE-Nucleo/Examples/MotionControl/MicrosteppingMotor/Src/example_usart.c **** 		*((pL6470_TextCommandBundle + CmdTxt_id)->MotorName) = '\0';
 155              		.loc 1 149 2 discriminator 1
 156 007c FB7B     		ldrb	r3, [r7, #15]	@ zero_extendqisi2
 157 007e 012B     		cmp	r3, #1
 158 0080 C6D9     		bls	.L3
 155:Projects/STM32F401RE-Nucleo/Examples/MotionControl/MicrosteppingMotor/Src/example_usart.c **** 	}
 156:Projects/STM32F401RE-Nucleo/Examples/MotionControl/MicrosteppingMotor/Src/example_usart.c **** 
 157:Projects/STM32F401RE-Nucleo/Examples/MotionControl/MicrosteppingMotor/Src/example_usart.c **** 	c_id = 0;
 159              		.loc 1 157 7
 160 0082 0023     		movs	r3, #0
 161 0084 BB73     		strb	r3, [r7, #14]
 158:Projects/STM32F401RE-Nucleo/Examples/MotionControl/MicrosteppingMotor/Src/example_usart.c **** 	ch = *(pTextString + c_id);
 162              		.loc 1 158 21
 163 0086 BB7B     		ldrb	r3, [r7, #14]	@ zero_extendqisi2
ARM GAS  C:\Users\ep_ygh\AppData\Local\Temp\ccqIQPDc.s 			page 7


 164 0088 7A68     		ldr	r2, [r7, #4]
 165 008a 1344     		add	r3, r3, r2
 166              		.loc 1 158 5
 167 008c 1B78     		ldrb	r3, [r3]
 168 008e 7B73     		strb	r3, [r7, #13]
 159:Projects/STM32F401RE-Nucleo/Examples/MotionControl/MicrosteppingMotor/Src/example_usart.c **** 	k_id = 0;
 169              		.loc 1 159 7
 170 0090 0023     		movs	r3, #0
 171 0092 3B73     		strb	r3, [r7, #12]
 160:Projects/STM32F401RE-Nucleo/Examples/MotionControl/MicrosteppingMotor/Src/example_usart.c **** 	k_idmax = 2;
 172              		.loc 1 160 10
 173 0094 0223     		movs	r3, #2
 174 0096 FB72     		strb	r3, [r7, #11]
 161:Projects/STM32F401RE-Nucleo/Examples/MotionControl/MicrosteppingMotor/Src/example_usart.c **** 	CmdTxt_id = 0;
 175              		.loc 1 161 12
 176 0098 0023     		movs	r3, #0
 177 009a FB73     		strb	r3, [r7, #15]
 162:Projects/STM32F401RE-Nucleo/Examples/MotionControl/MicrosteppingMotor/Src/example_usart.c **** 
 163:Projects/STM32F401RE-Nucleo/Examples/MotionControl/MicrosteppingMotor/Src/example_usart.c **** 	UsartTextStringDecodingStatus = DECODE_MOTOR;
 178              		.loc 1 163 32
 179 009c 0023     		movs	r3, #0
 180 009e BB72     		strb	r3, [r7, #10]
 164:Projects/STM32F401RE-Nucleo/Examples/MotionControl/MicrosteppingMotor/Src/example_usart.c **** 
 165:Projects/STM32F401RE-Nucleo/Examples/MotionControl/MicrosteppingMotor/Src/example_usart.c **** 	while (ch != '\0') {
 181              		.loc 1 165 8
 182 00a0 E9E0     		b	.L4
 183              	.L23:
 166:Projects/STM32F401RE-Nucleo/Examples/MotionControl/MicrosteppingMotor/Src/example_usart.c **** 		switch (ch) {
 184              		.loc 1 166 3
 185 00a2 7B7B     		ldrb	r3, [r7, #13]	@ zero_extendqisi2
 186 00a4 2C2B     		cmp	r3, #44
 187 00a6 10D0     		beq	.L5
 188 00a8 2E2B     		cmp	r3, #46
 189 00aa 1FD1     		bne	.L6
 167:Projects/STM32F401RE-Nucleo/Examples/MotionControl/MicrosteppingMotor/Src/example_usart.c **** 		case '.':
 168:Projects/STM32F401RE-Nucleo/Examples/MotionControl/MicrosteppingMotor/Src/example_usart.c **** 			if (UsartTextStringDecodingStatus != DECODE_3rd_PARAM) {
 190              		.loc 1 168 7
 191 00ac BB7A     		ldrb	r3, [r7, #10]	@ zero_extendqisi2
 192 00ae 042B     		cmp	r3, #4
 193 00b0 05D0     		beq	.L7
 169:Projects/STM32F401RE-Nucleo/Examples/MotionControl/MicrosteppingMotor/Src/example_usart.c **** 				UsartTextStringDecodingStatus++;
 194              		.loc 1 169 34
 195 00b2 BB7A     		ldrb	r3, [r7, #10]	@ zero_extendqisi2
 196 00b4 0133     		adds	r3, r3, #1
 197 00b6 BB72     		strb	r3, [r7, #10]
 170:Projects/STM32F401RE-Nucleo/Examples/MotionControl/MicrosteppingMotor/Src/example_usart.c **** 				k_id = 0;
 198              		.loc 1 170 10
 199 00b8 0023     		movs	r3, #0
 200 00ba 3B73     		strb	r3, [r7, #12]
 171:Projects/STM32F401RE-Nucleo/Examples/MotionControl/MicrosteppingMotor/Src/example_usart.c **** 			} else {
 172:Projects/STM32F401RE-Nucleo/Examples/MotionControl/MicrosteppingMotor/Src/example_usart.c **** #ifdef NUCLEO_USE_USART
 173:Projects/STM32F401RE-Nucleo/Examples/MotionControl/MicrosteppingMotor/Src/example_usart.c **** 				USART_Transmit(&huart2, (uint8_t* )"Too much entered parameters.\r\n\r\n");
 174:Projects/STM32F401RE-Nucleo/Examples/MotionControl/MicrosteppingMotor/Src/example_usart.c **** #endif
 175:Projects/STM32F401RE-Nucleo/Examples/MotionControl/MicrosteppingMotor/Src/example_usart.c **** 				return RESET;
 176:Projects/STM32F401RE-Nucleo/Examples/MotionControl/MicrosteppingMotor/Src/example_usart.c **** 			}
 177:Projects/STM32F401RE-Nucleo/Examples/MotionControl/MicrosteppingMotor/Src/example_usart.c **** 			break;
 201              		.loc 1 177 4
ARM GAS  C:\Users\ep_ygh\AppData\Local\Temp\ccqIQPDc.s 			page 8


 202 00bc D3E0     		b	.L10
 203              	.L7:
 173:Projects/STM32F401RE-Nucleo/Examples/MotionControl/MicrosteppingMotor/Src/example_usart.c **** #endif
 204              		.loc 1 173 5
 205 00be 7249     		ldr	r1, .L25
 206 00c0 7248     		ldr	r0, .L25+4
 207 00c2 FFF7FEFF 		bl	USART_Transmit
 175:Projects/STM32F401RE-Nucleo/Examples/MotionControl/MicrosteppingMotor/Src/example_usart.c **** 			}
 208              		.loc 1 175 12
 209 00c6 0023     		movs	r3, #0
 210 00c8 DAE0     		b	.L9
 211              	.L5:
 178:Projects/STM32F401RE-Nucleo/Examples/MotionControl/MicrosteppingMotor/Src/example_usart.c **** 		case ',':
 179:Projects/STM32F401RE-Nucleo/Examples/MotionControl/MicrosteppingMotor/Src/example_usart.c **** 			CmdTxt_id++;
 212              		.loc 1 179 13
 213 00ca FB7B     		ldrb	r3, [r7, #15]	@ zero_extendqisi2
 214 00cc 0133     		adds	r3, r3, #1
 215 00ce FB73     		strb	r3, [r7, #15]
 180:Projects/STM32F401RE-Nucleo/Examples/MotionControl/MicrosteppingMotor/Src/example_usart.c **** 			if (CmdTxt_id != L6470DAISYCHAINSIZE) {
 216              		.loc 1 180 7
 217 00d0 FB7B     		ldrb	r3, [r7, #15]	@ zero_extendqisi2
 218 00d2 022B     		cmp	r3, #2
 219 00d4 04D0     		beq	.L11
 181:Projects/STM32F401RE-Nucleo/Examples/MotionControl/MicrosteppingMotor/Src/example_usart.c **** 				UsartTextStringDecodingStatus = DECODE_MOTOR;
 220              		.loc 1 181 35
 221 00d6 0023     		movs	r3, #0
 222 00d8 BB72     		strb	r3, [r7, #10]
 182:Projects/STM32F401RE-Nucleo/Examples/MotionControl/MicrosteppingMotor/Src/example_usart.c **** 				k_id = 0;
 223              		.loc 1 182 10
 224 00da 0023     		movs	r3, #0
 225 00dc 3B73     		strb	r3, [r7, #12]
 183:Projects/STM32F401RE-Nucleo/Examples/MotionControl/MicrosteppingMotor/Src/example_usart.c **** 			} else {
 184:Projects/STM32F401RE-Nucleo/Examples/MotionControl/MicrosteppingMotor/Src/example_usart.c **** #ifdef NUCLEO_USE_USART
 185:Projects/STM32F401RE-Nucleo/Examples/MotionControl/MicrosteppingMotor/Src/example_usart.c **** 				USART_Transmit(&huart2, (uint8_t* )"Too much addressed L6470.\r\n\r\n");
 186:Projects/STM32F401RE-Nucleo/Examples/MotionControl/MicrosteppingMotor/Src/example_usart.c **** #endif
 187:Projects/STM32F401RE-Nucleo/Examples/MotionControl/MicrosteppingMotor/Src/example_usart.c **** 				return RESET;
 188:Projects/STM32F401RE-Nucleo/Examples/MotionControl/MicrosteppingMotor/Src/example_usart.c **** 			}
 189:Projects/STM32F401RE-Nucleo/Examples/MotionControl/MicrosteppingMotor/Src/example_usart.c **** 			break;
 226              		.loc 1 189 4
 227 00de C2E0     		b	.L10
 228              	.L11:
 185:Projects/STM32F401RE-Nucleo/Examples/MotionControl/MicrosteppingMotor/Src/example_usart.c **** #endif
 229              		.loc 1 185 5
 230 00e0 6B49     		ldr	r1, .L25+8
 231 00e2 6A48     		ldr	r0, .L25+4
 232 00e4 FFF7FEFF 		bl	USART_Transmit
 187:Projects/STM32F401RE-Nucleo/Examples/MotionControl/MicrosteppingMotor/Src/example_usart.c **** 			}
 233              		.loc 1 187 12
 234 00e8 0023     		movs	r3, #0
 235 00ea C9E0     		b	.L9
 236              	.L6:
 190:Projects/STM32F401RE-Nucleo/Examples/MotionControl/MicrosteppingMotor/Src/example_usart.c **** 		default:
 191:Projects/STM32F401RE-Nucleo/Examples/MotionControl/MicrosteppingMotor/Src/example_usart.c **** 			if (k_id != k_idmax) {
 237              		.loc 1 191 7
 238 00ec 3A7B     		ldrb	r2, [r7, #12]	@ zero_extendqisi2
 239 00ee FB7A     		ldrb	r3, [r7, #11]	@ zero_extendqisi2
 240 00f0 9A42     		cmp	r2, r3
ARM GAS  C:\Users\ep_ygh\AppData\Local\Temp\ccqIQPDc.s 			page 9


 241 00f2 00F0B280 		beq	.L13
 192:Projects/STM32F401RE-Nucleo/Examples/MotionControl/MicrosteppingMotor/Src/example_usart.c **** 				switch (UsartTextStringDecodingStatus) {
 242              		.loc 1 192 5
 243 00f6 BB7A     		ldrb	r3, [r7, #10]	@ zero_extendqisi2
 244 00f8 042B     		cmp	r3, #4
 245 00fa 00F2A980 		bhi	.L24
 246 00fe 01A2     		adr	r2, .L16
 247 0100 52F823F0 		ldr	pc, [r2, r3, lsl #2]
 248              		.p2align 2
 249              	.L16:
 250 0104 19010000 		.word	.L20+1
 251 0108 55010000 		.word	.L19+1
 252 010c 91010000 		.word	.L18+1
 253 0110 D1010000 		.word	.L17+1
 254 0114 11020000 		.word	.L15+1
 255              		.p2align 1
 256              	.L20:
 193:Projects/STM32F401RE-Nucleo/Examples/MotionControl/MicrosteppingMotor/Src/example_usart.c **** 				case DECODE_MOTOR:
 194:Projects/STM32F401RE-Nucleo/Examples/MotionControl/MicrosteppingMotor/Src/example_usart.c **** 					k_idmax = 2;
 257              		.loc 1 194 14
 258 0118 0223     		movs	r3, #2
 259 011a FB72     		strb	r3, [r7, #11]
 195:Projects/STM32F401RE-Nucleo/Examples/MotionControl/MicrosteppingMotor/Src/example_usart.c **** 					*(((pL6470_TextCommandBundle + CmdTxt_id)->MotorName) + k_id) =
 260              		.loc 1 195 35
 261 011c FA7B     		ldrb	r2, [r7, #15]	@ zero_extendqisi2
 262 011e 1346     		mov	r3, r2
 263 0120 5B00     		lsls	r3, r3, #1
 264 0122 1344     		add	r3, r3, r2
 265 0124 1B01     		lsls	r3, r3, #4
 266 0126 1A46     		mov	r2, r3
 267 0128 3B68     		ldr	r3, [r7]
 268 012a 1344     		add	r3, r3, r2
 269              		.loc 1 195 8
 270 012c 1A46     		mov	r2, r3
 271              		.loc 1 195 60
 272 012e 3B7B     		ldrb	r3, [r7, #12]	@ zero_extendqisi2
 273 0130 1344     		add	r3, r3, r2
 274              		.loc 1 195 68
 275 0132 7A7B     		ldrb	r2, [r7, #13]
 276 0134 1A70     		strb	r2, [r3]
 196:Projects/STM32F401RE-Nucleo/Examples/MotionControl/MicrosteppingMotor/Src/example_usart.c **** 							ch;
 197:Projects/STM32F401RE-Nucleo/Examples/MotionControl/MicrosteppingMotor/Src/example_usart.c **** 					*(((pL6470_TextCommandBundle + CmdTxt_id)->MotorName)
 277              		.loc 1 197 35
 278 0136 FA7B     		ldrb	r2, [r7, #15]	@ zero_extendqisi2
 279 0138 1346     		mov	r3, r2
 280 013a 5B00     		lsls	r3, r3, #1
 281 013c 1344     		add	r3, r3, r2
 282 013e 1B01     		lsls	r3, r3, #4
 283 0140 1A46     		mov	r2, r3
 284 0142 3B68     		ldr	r3, [r7]
 285 0144 1344     		add	r3, r3, r2
 286              		.loc 1 197 8
 287 0146 1A46     		mov	r2, r3
 198:Projects/STM32F401RE-Nucleo/Examples/MotionControl/MicrosteppingMotor/Src/example_usart.c **** 							+ (k_id + 1)) = '\0';
 288              		.loc 1 198 8
 289 0148 3B7B     		ldrb	r3, [r7, #12]	@ zero_extendqisi2
 290 014a 0133     		adds	r3, r3, #1
ARM GAS  C:\Users\ep_ygh\AppData\Local\Temp\ccqIQPDc.s 			page 10


 291 014c 1344     		add	r3, r3, r2
 292              		.loc 1 198 22
 293 014e 0022     		movs	r2, #0
 294 0150 1A70     		strb	r2, [r3]
 199:Projects/STM32F401RE-Nucleo/Examples/MotionControl/MicrosteppingMotor/Src/example_usart.c **** 					break;
 295              		.loc 1 199 6
 296 0152 7EE0     		b	.L21
 297              	.L19:
 200:Projects/STM32F401RE-Nucleo/Examples/MotionControl/MicrosteppingMotor/Src/example_usart.c **** 				case DECODE_COMMAND:
 201:Projects/STM32F401RE-Nucleo/Examples/MotionControl/MicrosteppingMotor/Src/example_usart.c **** 					k_idmax = 11;
 298              		.loc 1 201 14
 299 0154 0B23     		movs	r3, #11
 300 0156 FB72     		strb	r3, [r7, #11]
 202:Projects/STM32F401RE-Nucleo/Examples/MotionControl/MicrosteppingMotor/Src/example_usart.c **** 					*(((pL6470_TextCommandBundle + CmdTxt_id)->CommandName)
 301              		.loc 1 202 35
 302 0158 FA7B     		ldrb	r2, [r7, #15]	@ zero_extendqisi2
 303 015a 1346     		mov	r3, r2
 304 015c 5B00     		lsls	r3, r3, #1
 305 015e 1344     		add	r3, r3, r2
 306 0160 1B01     		lsls	r3, r3, #4
 307 0162 1A46     		mov	r2, r3
 308 0164 3B68     		ldr	r3, [r7]
 309 0166 1344     		add	r3, r3, r2
 310              		.loc 1 202 8
 311 0168 DA1C     		adds	r2, r3, #3
 203:Projects/STM32F401RE-Nucleo/Examples/MotionControl/MicrosteppingMotor/Src/example_usart.c **** 							+ k_id) = ch;
 312              		.loc 1 203 8
 313 016a 3B7B     		ldrb	r3, [r7, #12]	@ zero_extendqisi2
 314 016c 1344     		add	r3, r3, r2
 315              		.loc 1 203 16
 316 016e 7A7B     		ldrb	r2, [r7, #13]
 317 0170 1A70     		strb	r2, [r3]
 204:Projects/STM32F401RE-Nucleo/Examples/MotionControl/MicrosteppingMotor/Src/example_usart.c **** 					*(((pL6470_TextCommandBundle + CmdTxt_id)->CommandName)
 318              		.loc 1 204 35
 319 0172 FA7B     		ldrb	r2, [r7, #15]	@ zero_extendqisi2
 320 0174 1346     		mov	r3, r2
 321 0176 5B00     		lsls	r3, r3, #1
 322 0178 1344     		add	r3, r3, r2
 323 017a 1B01     		lsls	r3, r3, #4
 324 017c 1A46     		mov	r2, r3
 325 017e 3B68     		ldr	r3, [r7]
 326 0180 1344     		add	r3, r3, r2
 327              		.loc 1 204 8
 328 0182 DA1C     		adds	r2, r3, #3
 205:Projects/STM32F401RE-Nucleo/Examples/MotionControl/MicrosteppingMotor/Src/example_usart.c **** 							+ (k_id + 1)) = '\0';
 329              		.loc 1 205 8
 330 0184 3B7B     		ldrb	r3, [r7, #12]	@ zero_extendqisi2
 331 0186 0133     		adds	r3, r3, #1
 332 0188 1344     		add	r3, r3, r2
 333              		.loc 1 205 22
 334 018a 0022     		movs	r2, #0
 335 018c 1A70     		strb	r2, [r3]
 206:Projects/STM32F401RE-Nucleo/Examples/MotionControl/MicrosteppingMotor/Src/example_usart.c **** 					break;
 336              		.loc 1 206 6
 337 018e 60E0     		b	.L21
 338              	.L18:
 207:Projects/STM32F401RE-Nucleo/Examples/MotionControl/MicrosteppingMotor/Src/example_usart.c **** 				case DECODE_1st_PARAM:
ARM GAS  C:\Users\ep_ygh\AppData\Local\Temp\ccqIQPDc.s 			page 11


 208:Projects/STM32F401RE-Nucleo/Examples/MotionControl/MicrosteppingMotor/Src/example_usart.c **** 					k_idmax = 10;
 339              		.loc 1 208 14
 340 0190 0A23     		movs	r3, #10
 341 0192 FB72     		strb	r3, [r7, #11]
 209:Projects/STM32F401RE-Nucleo/Examples/MotionControl/MicrosteppingMotor/Src/example_usart.c **** 					*(((pL6470_TextCommandBundle + CmdTxt_id)->Param[0]) + k_id) =
 342              		.loc 1 209 35
 343 0194 FA7B     		ldrb	r2, [r7, #15]	@ zero_extendqisi2
 344 0196 1346     		mov	r3, r2
 345 0198 5B00     		lsls	r3, r3, #1
 346 019a 1344     		add	r3, r3, r2
 347 019c 1B01     		lsls	r3, r3, #4
 348 019e 1A46     		mov	r2, r3
 349 01a0 3B68     		ldr	r3, [r7]
 350 01a2 1344     		add	r3, r3, r2
 351              		.loc 1 209 8
 352 01a4 03F10F02 		add	r2, r3, #15
 353              		.loc 1 209 59
 354 01a8 3B7B     		ldrb	r3, [r7, #12]	@ zero_extendqisi2
 355 01aa 1344     		add	r3, r3, r2
 356              		.loc 1 209 67
 357 01ac 7A7B     		ldrb	r2, [r7, #13]
 358 01ae 1A70     		strb	r2, [r3]
 210:Projects/STM32F401RE-Nucleo/Examples/MotionControl/MicrosteppingMotor/Src/example_usart.c **** 							ch;
 211:Projects/STM32F401RE-Nucleo/Examples/MotionControl/MicrosteppingMotor/Src/example_usart.c **** 					*(((pL6470_TextCommandBundle + CmdTxt_id)->Param[0])
 359              		.loc 1 211 35
 360 01b0 FA7B     		ldrb	r2, [r7, #15]	@ zero_extendqisi2
 361 01b2 1346     		mov	r3, r2
 362 01b4 5B00     		lsls	r3, r3, #1
 363 01b6 1344     		add	r3, r3, r2
 364 01b8 1B01     		lsls	r3, r3, #4
 365 01ba 1A46     		mov	r2, r3
 366 01bc 3B68     		ldr	r3, [r7]
 367 01be 1344     		add	r3, r3, r2
 368              		.loc 1 211 8
 369 01c0 03F10F02 		add	r2, r3, #15
 212:Projects/STM32F401RE-Nucleo/Examples/MotionControl/MicrosteppingMotor/Src/example_usart.c **** 							+ (k_id + 1)) = '\0';
 370              		.loc 1 212 8
 371 01c4 3B7B     		ldrb	r3, [r7, #12]	@ zero_extendqisi2
 372 01c6 0133     		adds	r3, r3, #1
 373 01c8 1344     		add	r3, r3, r2
 374              		.loc 1 212 22
 375 01ca 0022     		movs	r2, #0
 376 01cc 1A70     		strb	r2, [r3]
 213:Projects/STM32F401RE-Nucleo/Examples/MotionControl/MicrosteppingMotor/Src/example_usart.c **** 					break;
 377              		.loc 1 213 6
 378 01ce 40E0     		b	.L21
 379              	.L17:
 214:Projects/STM32F401RE-Nucleo/Examples/MotionControl/MicrosteppingMotor/Src/example_usart.c **** 				case DECODE_2nd_PARAM:
 215:Projects/STM32F401RE-Nucleo/Examples/MotionControl/MicrosteppingMotor/Src/example_usart.c **** 					k_idmax = 7;
 380              		.loc 1 215 14
 381 01d0 0723     		movs	r3, #7
 382 01d2 FB72     		strb	r3, [r7, #11]
 216:Projects/STM32F401RE-Nucleo/Examples/MotionControl/MicrosteppingMotor/Src/example_usart.c **** 					*(((pL6470_TextCommandBundle + CmdTxt_id)->Param[1]) + k_id) =
 383              		.loc 1 216 35
 384 01d4 FA7B     		ldrb	r2, [r7, #15]	@ zero_extendqisi2
 385 01d6 1346     		mov	r3, r2
 386 01d8 5B00     		lsls	r3, r3, #1
ARM GAS  C:\Users\ep_ygh\AppData\Local\Temp\ccqIQPDc.s 			page 12


 387 01da 1344     		add	r3, r3, r2
 388 01dc 1B01     		lsls	r3, r3, #4
 389 01de 1A46     		mov	r2, r3
 390 01e0 3B68     		ldr	r3, [r7]
 391 01e2 1344     		add	r3, r3, r2
 392              		.loc 1 216 8
 393 01e4 03F11A02 		add	r2, r3, #26
 394              		.loc 1 216 59
 395 01e8 3B7B     		ldrb	r3, [r7, #12]	@ zero_extendqisi2
 396 01ea 1344     		add	r3, r3, r2
 397              		.loc 1 216 67
 398 01ec 7A7B     		ldrb	r2, [r7, #13]
 399 01ee 1A70     		strb	r2, [r3]
 217:Projects/STM32F401RE-Nucleo/Examples/MotionControl/MicrosteppingMotor/Src/example_usart.c **** 							ch;
 218:Projects/STM32F401RE-Nucleo/Examples/MotionControl/MicrosteppingMotor/Src/example_usart.c **** 					*(((pL6470_TextCommandBundle + CmdTxt_id)->Param[1])
 400              		.loc 1 218 35
 401 01f0 FA7B     		ldrb	r2, [r7, #15]	@ zero_extendqisi2
 402 01f2 1346     		mov	r3, r2
 403 01f4 5B00     		lsls	r3, r3, #1
 404 01f6 1344     		add	r3, r3, r2
 405 01f8 1B01     		lsls	r3, r3, #4
 406 01fa 1A46     		mov	r2, r3
 407 01fc 3B68     		ldr	r3, [r7]
 408 01fe 1344     		add	r3, r3, r2
 409              		.loc 1 218 8
 410 0200 03F11A02 		add	r2, r3, #26
 219:Projects/STM32F401RE-Nucleo/Examples/MotionControl/MicrosteppingMotor/Src/example_usart.c **** 							+ (k_id + 1)) = '\0';
 411              		.loc 1 219 8
 412 0204 3B7B     		ldrb	r3, [r7, #12]	@ zero_extendqisi2
 413 0206 0133     		adds	r3, r3, #1
 414 0208 1344     		add	r3, r3, r2
 415              		.loc 1 219 22
 416 020a 0022     		movs	r2, #0
 417 020c 1A70     		strb	r2, [r3]
 220:Projects/STM32F401RE-Nucleo/Examples/MotionControl/MicrosteppingMotor/Src/example_usart.c **** 					break;
 418              		.loc 1 220 6
 419 020e 20E0     		b	.L21
 420              	.L15:
 221:Projects/STM32F401RE-Nucleo/Examples/MotionControl/MicrosteppingMotor/Src/example_usart.c **** 				case DECODE_3rd_PARAM:
 222:Projects/STM32F401RE-Nucleo/Examples/MotionControl/MicrosteppingMotor/Src/example_usart.c **** 					k_idmax = 7;
 421              		.loc 1 222 14
 422 0210 0723     		movs	r3, #7
 423 0212 FB72     		strb	r3, [r7, #11]
 223:Projects/STM32F401RE-Nucleo/Examples/MotionControl/MicrosteppingMotor/Src/example_usart.c **** 					*(((pL6470_TextCommandBundle + CmdTxt_id)->Param[2]) + k_id) =
 424              		.loc 1 223 35
 425 0214 FA7B     		ldrb	r2, [r7, #15]	@ zero_extendqisi2
 426 0216 1346     		mov	r3, r2
 427 0218 5B00     		lsls	r3, r3, #1
 428 021a 1344     		add	r3, r3, r2
 429 021c 1B01     		lsls	r3, r3, #4
 430 021e 1A46     		mov	r2, r3
 431 0220 3B68     		ldr	r3, [r7]
 432 0222 1344     		add	r3, r3, r2
 433              		.loc 1 223 8
 434 0224 03F12502 		add	r2, r3, #37
 435              		.loc 1 223 59
 436 0228 3B7B     		ldrb	r3, [r7, #12]	@ zero_extendqisi2
ARM GAS  C:\Users\ep_ygh\AppData\Local\Temp\ccqIQPDc.s 			page 13


 437 022a 1344     		add	r3, r3, r2
 438              		.loc 1 223 67
 439 022c 7A7B     		ldrb	r2, [r7, #13]
 440 022e 1A70     		strb	r2, [r3]
 224:Projects/STM32F401RE-Nucleo/Examples/MotionControl/MicrosteppingMotor/Src/example_usart.c **** 							ch;
 225:Projects/STM32F401RE-Nucleo/Examples/MotionControl/MicrosteppingMotor/Src/example_usart.c **** 					*(((pL6470_TextCommandBundle + CmdTxt_id)->Param[2])
 441              		.loc 1 225 35
 442 0230 FA7B     		ldrb	r2, [r7, #15]	@ zero_extendqisi2
 443 0232 1346     		mov	r3, r2
 444 0234 5B00     		lsls	r3, r3, #1
 445 0236 1344     		add	r3, r3, r2
 446 0238 1B01     		lsls	r3, r3, #4
 447 023a 1A46     		mov	r2, r3
 448 023c 3B68     		ldr	r3, [r7]
 449 023e 1344     		add	r3, r3, r2
 450              		.loc 1 225 8
 451 0240 03F12502 		add	r2, r3, #37
 226:Projects/STM32F401RE-Nucleo/Examples/MotionControl/MicrosteppingMotor/Src/example_usart.c **** 							+ (k_id + 1)) = '\0';
 452              		.loc 1 226 8
 453 0244 3B7B     		ldrb	r3, [r7, #12]	@ zero_extendqisi2
 454 0246 0133     		adds	r3, r3, #1
 455 0248 1344     		add	r3, r3, r2
 456              		.loc 1 226 22
 457 024a 0022     		movs	r2, #0
 458 024c 1A70     		strb	r2, [r3]
 227:Projects/STM32F401RE-Nucleo/Examples/MotionControl/MicrosteppingMotor/Src/example_usart.c **** 					break;
 459              		.loc 1 227 6
 460 024e 00E0     		b	.L21
 461              	.L24:
 228:Projects/STM32F401RE-Nucleo/Examples/MotionControl/MicrosteppingMotor/Src/example_usart.c **** 				default:
 229:Projects/STM32F401RE-Nucleo/Examples/MotionControl/MicrosteppingMotor/Src/example_usart.c **** 					break;
 462              		.loc 1 229 6
 463 0250 00BF     		nop
 464              	.L21:
 230:Projects/STM32F401RE-Nucleo/Examples/MotionControl/MicrosteppingMotor/Src/example_usart.c **** 				}
 231:Projects/STM32F401RE-Nucleo/Examples/MotionControl/MicrosteppingMotor/Src/example_usart.c **** 				k_id++;
 465              		.loc 1 231 9
 466 0252 3B7B     		ldrb	r3, [r7, #12]	@ zero_extendqisi2
 467 0254 0133     		adds	r3, r3, #1
 468 0256 3B73     		strb	r3, [r7, #12]
 232:Projects/STM32F401RE-Nucleo/Examples/MotionControl/MicrosteppingMotor/Src/example_usart.c **** 			} else {
 233:Projects/STM32F401RE-Nucleo/Examples/MotionControl/MicrosteppingMotor/Src/example_usart.c **** #ifdef NUCLEO_USE_USART
 234:Projects/STM32F401RE-Nucleo/Examples/MotionControl/MicrosteppingMotor/Src/example_usart.c **** 				USART_Transmit(&huart2, (uint8_t* )"Too much entered character.\r\n\r\n");
 235:Projects/STM32F401RE-Nucleo/Examples/MotionControl/MicrosteppingMotor/Src/example_usart.c **** #endif
 236:Projects/STM32F401RE-Nucleo/Examples/MotionControl/MicrosteppingMotor/Src/example_usart.c **** 				return RESET;
 237:Projects/STM32F401RE-Nucleo/Examples/MotionControl/MicrosteppingMotor/Src/example_usart.c **** 			}
 238:Projects/STM32F401RE-Nucleo/Examples/MotionControl/MicrosteppingMotor/Src/example_usart.c **** 			break;
 469              		.loc 1 238 4
 470 0258 05E0     		b	.L10
 471              	.L13:
 234:Projects/STM32F401RE-Nucleo/Examples/MotionControl/MicrosteppingMotor/Src/example_usart.c **** #endif
 472              		.loc 1 234 5
 473 025a 0E49     		ldr	r1, .L25+12
 474 025c 0B48     		ldr	r0, .L25+4
 475 025e FFF7FEFF 		bl	USART_Transmit
 236:Projects/STM32F401RE-Nucleo/Examples/MotionControl/MicrosteppingMotor/Src/example_usart.c **** 			}
 476              		.loc 1 236 12
ARM GAS  C:\Users\ep_ygh\AppData\Local\Temp\ccqIQPDc.s 			page 14


 477 0262 0023     		movs	r3, #0
 478 0264 0CE0     		b	.L9
 479              	.L10:
 239:Projects/STM32F401RE-Nucleo/Examples/MotionControl/MicrosteppingMotor/Src/example_usart.c **** 		}
 240:Projects/STM32F401RE-Nucleo/Examples/MotionControl/MicrosteppingMotor/Src/example_usart.c **** 
 241:Projects/STM32F401RE-Nucleo/Examples/MotionControl/MicrosteppingMotor/Src/example_usart.c **** 		c_id++;
 480              		.loc 1 241 7
 481 0266 BB7B     		ldrb	r3, [r7, #14]	@ zero_extendqisi2
 482 0268 0133     		adds	r3, r3, #1
 483 026a BB73     		strb	r3, [r7, #14]
 242:Projects/STM32F401RE-Nucleo/Examples/MotionControl/MicrosteppingMotor/Src/example_usart.c **** 		ch = *(pTextString + c_id);
 484              		.loc 1 242 22
 485 026c BB7B     		ldrb	r3, [r7, #14]	@ zero_extendqisi2
 486 026e 7A68     		ldr	r2, [r7, #4]
 487 0270 1344     		add	r3, r3, r2
 488              		.loc 1 242 6
 489 0272 1B78     		ldrb	r3, [r3]
 490 0274 7B73     		strb	r3, [r7, #13]
 491              	.L4:
 165:Projects/STM32F401RE-Nucleo/Examples/MotionControl/MicrosteppingMotor/Src/example_usart.c **** 		switch (ch) {
 492              		.loc 1 165 8
 493 0276 7B7B     		ldrb	r3, [r7, #13]	@ zero_extendqisi2
 494 0278 002B     		cmp	r3, #0
 495 027a 7FF412AF 		bne	.L23
 243:Projects/STM32F401RE-Nucleo/Examples/MotionControl/MicrosteppingMotor/Src/example_usart.c **** 	}
 244:Projects/STM32F401RE-Nucleo/Examples/MotionControl/MicrosteppingMotor/Src/example_usart.c **** 	return SET;
 496              		.loc 1 244 9
 497 027e 0123     		movs	r3, #1
 498              	.L9:
 245:Projects/STM32F401RE-Nucleo/Examples/MotionControl/MicrosteppingMotor/Src/example_usart.c **** }
 499              		.loc 1 245 1
 500 0280 1846     		mov	r0, r3
 501 0282 1037     		adds	r7, r7, #16
 502              	.LCFI3:
 503              		.cfi_def_cfa_offset 8
 504 0284 BD46     		mov	sp, r7
 505              	.LCFI4:
 506              		.cfi_def_cfa_register 13
 507              		@ sp needed
 508 0286 80BD     		pop	{r7, pc}
 509              	.L26:
 510              		.align	2
 511              	.L25:
 512 0288 00000000 		.word	.LC0
 513 028c 00000000 		.word	huart2
 514 0290 24000000 		.word	.LC1
 515 0294 44000000 		.word	.LC2
 516              		.cfi_endproc
 517              	.LFE128:
 519              		.section	.rodata
 520              		.align	2
 521              	.LC3:
 522 0064 49742069 		.ascii	"It is not possible to identify the L6470.\015\012\015"
 522      73206E6F 
 522      7420706F 
 522      73736962 
 522      6C652074 
ARM GAS  C:\Users\ep_ygh\AppData\Local\Temp\ccqIQPDc.s 			page 15


 523 0090 0A00     		.ascii	"\012\000"
 524 0092 0000     		.align	2
 525              	.LC4:
 526 0094 49742069 		.ascii	"It is not possible to recognize any L6470 applicati"
 526      73206E6F 
 526      7420706F 
 526      73736962 
 526      6C652074 
 527 00c7 6F6E2063 		.ascii	"on command.\015\012\015\012\000"
 527      6F6D6D61 
 527      6E642E0D 
 527      0A0D0A00 
 528 00d7 00       		.align	2
 529              	.LC5:
 530 00d8 54686520 		.ascii	"The number of parameters related to the application"
 530      6E756D62 
 530      6572206F 
 530      66207061 
 530      72616D65 
 531 010b 20636F6D 		.ascii	" command is not right.\015\012\015\012\000"
 531      6D616E64 
 531      20697320 
 531      6E6F7420 
 531      72696768 
 532 0126 0000     		.align	2
 533              	.LC6:
 534 0128 49742069 		.ascii	"It is not possible to recognize any L6470 register "
 534      73206E6F 
 534      7420706F 
 534      73736962 
 534      6C652074 
 535 015b 6E616D65 		.ascii	"name.\015\012\015\012\000"
 535      2E0D0A0D 
 535      0A00
 536 0165 000000   		.align	2
 537              	.LC7:
 538 0168 49742069 		.ascii	"It is not possible to recognize any numeric value.\015"
 538      73206E6F 
 538      7420706F 
 538      73736962 
 538      6C652074 
 539 019b 0A0D0A00 		.ascii	"\012\015\012\000"
 540 019f 00       		.align	2
 541              	.LC8:
 542 01a0 49742069 		.ascii	"It is not possible to recognize any direction.\015\012"
 542      73206E6F 
 542      7420706F 
 542      73736962 
 542      6C652074 
 543 01d0 0D0A00   		.ascii	"\015\012\000"
 544 01d3 00       		.align	2
 545              	.LC9:
 546 01d4 49742069 		.ascii	"It is not possible to recognize any action.\015\012"
 546      73206E6F 
 546      7420706F 
 546      73736962 
 546      6C652074 
ARM GAS  C:\Users\ep_ygh\AppData\Local\Temp\ccqIQPDc.s 			page 16


 547 0201 0D0A00   		.ascii	"\015\012\000"
 548              		.align	2
 549              	.LC10:
 550 0204 426F7468 		.ascii	"Both entered commands are addressing the same L6470"
 550      20656E74 
 550      65726564 
 550      20636F6D 
 550      6D616E64 
 551 0237 2E0D0A0D 		.ascii	".\015\012\015\012\000"
 551      0A00
 552              		.section	.text.USART_CheckTextCommandBundle,"ax",%progbits
 553              		.align	1
 554              		.global	USART_CheckTextCommandBundle
 555              		.syntax unified
 556              		.thumb
 557              		.thumb_func
 559              	USART_CheckTextCommandBundle:
 560              	.LFB129:
 246:Projects/STM32F401RE-Nucleo/Examples/MotionControl/MicrosteppingMotor/Src/example_usart.c **** 
 247:Projects/STM32F401RE-Nucleo/Examples/MotionControl/MicrosteppingMotor/Src/example_usart.c **** /**
 248:Projects/STM32F401RE-Nucleo/Examples/MotionControl/MicrosteppingMotor/Src/example_usart.c ****  * @brief Check the entered command for L6470
 249:Projects/STM32F401RE-Nucleo/Examples/MotionControl/MicrosteppingMotor/Src/example_usart.c ****  * @retval FlagStatus  SET or RESET related to the result
 250:Projects/STM32F401RE-Nucleo/Examples/MotionControl/MicrosteppingMotor/Src/example_usart.c ****  */
 251:Projects/STM32F401RE-Nucleo/Examples/MotionControl/MicrosteppingMotor/Src/example_usart.c **** FlagStatus USART_CheckTextCommandBundle(
 252:Projects/STM32F401RE-Nucleo/Examples/MotionControl/MicrosteppingMotor/Src/example_usart.c **** 		sL6470_TextCommandBundle *pL6470_TextCommandBundle,
 253:Projects/STM32F401RE-Nucleo/Examples/MotionControl/MicrosteppingMotor/Src/example_usart.c **** 		uint8_t* pL6470_DaisyChainSpiTxStruct) {
 561              		.loc 1 253 42
 562              		.cfi_startproc
 563              		@ args = 0, pretend = 0, frame = 32
 564              		@ frame_needed = 1, uses_anonymous_args = 0
 565 0000 80B5     		push	{r7, lr}
 566              	.LCFI5:
 567              		.cfi_def_cfa_offset 8
 568              		.cfi_offset 7, -8
 569              		.cfi_offset 14, -4
 570 0002 88B0     		sub	sp, sp, #32
 571              	.LCFI6:
 572              		.cfi_def_cfa_offset 40
 573 0004 00AF     		add	r7, sp, #0
 574              	.LCFI7:
 575              		.cfi_def_cfa_register 7
 576 0006 7860     		str	r0, [r7, #4]
 577 0008 3960     		str	r1, [r7]
 254:Projects/STM32F401RE-Nucleo/Examples/MotionControl/MicrosteppingMotor/Src/example_usart.c **** 	uint8_t PkgId;
 255:Projects/STM32F401RE-Nucleo/Examples/MotionControl/MicrosteppingMotor/Src/example_usart.c **** 	uint8_t spibyte;
 256:Projects/STM32F401RE-Nucleo/Examples/MotionControl/MicrosteppingMotor/Src/example_usart.c **** 	uint8_t i;
 257:Projects/STM32F401RE-Nucleo/Examples/MotionControl/MicrosteppingMotor/Src/example_usart.c **** 	uint8_t CmdTxt_id; /* To index the string command */
 258:Projects/STM32F401RE-Nucleo/Examples/MotionControl/MicrosteppingMotor/Src/example_usart.c **** 	uint8_t MotorMnemonic[4] = "";
 578              		.loc 1 258 10
 579 000a 0023     		movs	r3, #0
 580 000c FB60     		str	r3, [r7, #12]
 259:Projects/STM32F401RE-Nucleo/Examples/MotionControl/MicrosteppingMotor/Src/example_usart.c **** 	uint8_t* pMotorMnemonic = MotorMnemonic;
 581              		.loc 1 259 11
 582 000e 07F10C03 		add	r3, r7, #12
 583 0012 BB61     		str	r3, [r7, #24]
 260:Projects/STM32F401RE-Nucleo/Examples/MotionControl/MicrosteppingMotor/Src/example_usart.c **** 	uint8_t L6470_Id;
 261:Projects/STM32F401RE-Nucleo/Examples/MotionControl/MicrosteppingMotor/Src/example_usart.c **** 	eL6470_AppCmdId_t L6470_AppCmdId;
ARM GAS  C:\Users\ep_ygh\AppData\Local\Temp\ccqIQPDc.s 			page 17


 262:Projects/STM32F401RE-Nucleo/Examples/MotionControl/MicrosteppingMotor/Src/example_usart.c **** 	uint8_t nr_parameters; /* The max number of parameters related to the actual L6470 Application Com
 263:Projects/STM32F401RE-Nucleo/Examples/MotionControl/MicrosteppingMotor/Src/example_usart.c **** 	eL6470_RegId_t L6470_RegId;
 264:Projects/STM32F401RE-Nucleo/Examples/MotionControl/MicrosteppingMotor/Src/example_usart.c **** 	uint8_t PARAMLengthBytes; /* The number of bytes related to the numeric value for the addressed re
 265:Projects/STM32F401RE-Nucleo/Examples/MotionControl/MicrosteppingMotor/Src/example_usart.c **** 	uint32_t NumericValue; /* The numeric value to be used into the application command */
 266:Projects/STM32F401RE-Nucleo/Examples/MotionControl/MicrosteppingMotor/Src/example_usart.c **** 	eL6470_DirId_t L6470_DirId;
 267:Projects/STM32F401RE-Nucleo/Examples/MotionControl/MicrosteppingMotor/Src/example_usart.c **** 	eL6470_ActId_t L6470_ActId;
 268:Projects/STM32F401RE-Nucleo/Examples/MotionControl/MicrosteppingMotor/Src/example_usart.c **** 
 269:Projects/STM32F401RE-Nucleo/Examples/MotionControl/MicrosteppingMotor/Src/example_usart.c **** 	/* Reset the structure used to send the command to the L6470 Daisy Chain through the SPI */
 270:Projects/STM32F401RE-Nucleo/Examples/MotionControl/MicrosteppingMotor/Src/example_usart.c **** 	i = 0;
 584              		.loc 1 270 4
 585 0014 0023     		movs	r3, #0
 586 0016 7B77     		strb	r3, [r7, #29]
 271:Projects/STM32F401RE-Nucleo/Examples/MotionControl/MicrosteppingMotor/Src/example_usart.c **** 	for (spibyte = 0; spibyte < L6470MAXSPICMDBYTESIZE; spibyte++)
 587              		.loc 1 271 15
 588 0018 0023     		movs	r3, #0
 589 001a BB77     		strb	r3, [r7, #30]
 590              		.loc 1 271 2
 591 001c 13E0     		b	.L28
 592              	.L31:
 272:Projects/STM32F401RE-Nucleo/Examples/MotionControl/MicrosteppingMotor/Src/example_usart.c **** 		for (PkgId = 0; PkgId < L6470DAISYCHAINSIZE; PkgId++)
 593              		.loc 1 272 14
 594 001e 0023     		movs	r3, #0
 595 0020 FB77     		strb	r3, [r7, #31]
 596              		.loc 1 272 3
 597 0022 0AE0     		b	.L29
 598              	.L30:
 273:Projects/STM32F401RE-Nucleo/Examples/MotionControl/MicrosteppingMotor/Src/example_usart.c **** 			*(pL6470_DaisyChainSpiTxStruct + (i++)) = 0x00;
 599              		.loc 1 273 39 discriminator 3
 600 0024 7B7F     		ldrb	r3, [r7, #29]	@ zero_extendqisi2
 601 0026 5A1C     		adds	r2, r3, #1
 602 0028 7A77     		strb	r2, [r7, #29]
 603 002a 1A46     		mov	r2, r3
 604              		.loc 1 273 35 discriminator 3
 605 002c 3B68     		ldr	r3, [r7]
 606 002e 1344     		add	r3, r3, r2
 607              		.loc 1 273 44 discriminator 3
 608 0030 0022     		movs	r2, #0
 609 0032 1A70     		strb	r2, [r3]
 272:Projects/STM32F401RE-Nucleo/Examples/MotionControl/MicrosteppingMotor/Src/example_usart.c **** 		for (PkgId = 0; PkgId < L6470DAISYCHAINSIZE; PkgId++)
 610              		.loc 1 272 53 discriminator 3
 611 0034 FB7F     		ldrb	r3, [r7, #31]	@ zero_extendqisi2
 612 0036 0133     		adds	r3, r3, #1
 613 0038 FB77     		strb	r3, [r7, #31]
 614              	.L29:
 272:Projects/STM32F401RE-Nucleo/Examples/MotionControl/MicrosteppingMotor/Src/example_usart.c **** 		for (PkgId = 0; PkgId < L6470DAISYCHAINSIZE; PkgId++)
 615              		.loc 1 272 3 discriminator 1
 616 003a FB7F     		ldrb	r3, [r7, #31]	@ zero_extendqisi2
 617 003c 012B     		cmp	r3, #1
 618 003e F1D9     		bls	.L30
 271:Projects/STM32F401RE-Nucleo/Examples/MotionControl/MicrosteppingMotor/Src/example_usart.c **** 	for (spibyte = 0; spibyte < L6470MAXSPICMDBYTESIZE; spibyte++)
 619              		.loc 1 271 61 discriminator 2
 620 0040 BB7F     		ldrb	r3, [r7, #30]	@ zero_extendqisi2
 621 0042 0133     		adds	r3, r3, #1
 622 0044 BB77     		strb	r3, [r7, #30]
 623              	.L28:
 271:Projects/STM32F401RE-Nucleo/Examples/MotionControl/MicrosteppingMotor/Src/example_usart.c **** 	for (spibyte = 0; spibyte < L6470MAXSPICMDBYTESIZE; spibyte++)
 624              		.loc 1 271 2 discriminator 1
ARM GAS  C:\Users\ep_ygh\AppData\Local\Temp\ccqIQPDc.s 			page 18


 625 0046 BB7F     		ldrb	r3, [r7, #30]	@ zero_extendqisi2
 626 0048 032B     		cmp	r3, #3
 627 004a E8D9     		bls	.L31
 274:Projects/STM32F401RE-Nucleo/Examples/MotionControl/MicrosteppingMotor/Src/example_usart.c **** 
 275:Projects/STM32F401RE-Nucleo/Examples/MotionControl/MicrosteppingMotor/Src/example_usart.c **** 	/* Reset the object pointed by mMnemonic */
 276:Projects/STM32F401RE-Nucleo/Examples/MotionControl/MicrosteppingMotor/Src/example_usart.c **** 	*pMotorMnemonic = '\0';
 628              		.loc 1 276 18
 629 004c BB69     		ldr	r3, [r7, #24]
 630 004e 0022     		movs	r2, #0
 631 0050 1A70     		strb	r2, [r3]
 277:Projects/STM32F401RE-Nucleo/Examples/MotionControl/MicrosteppingMotor/Src/example_usart.c **** 
 278:Projects/STM32F401RE-Nucleo/Examples/MotionControl/MicrosteppingMotor/Src/example_usart.c **** 	CmdTxt_id = 0;
 632              		.loc 1 278 12
 633 0052 0023     		movs	r3, #0
 634 0054 3B77     		strb	r3, [r7, #28]
 635              	.L107:
 279:Projects/STM32F401RE-Nucleo/Examples/MotionControl/MicrosteppingMotor/Src/example_usart.c **** 	do {
 280:Projects/STM32F401RE-Nucleo/Examples/MotionControl/MicrosteppingMotor/Src/example_usart.c **** 
 281:Projects/STM32F401RE-Nucleo/Examples/MotionControl/MicrosteppingMotor/Src/example_usart.c **** 		/* Checks which L6470 in the daisy chain has to be addressed ************** */
 282:Projects/STM32F401RE-Nucleo/Examples/MotionControl/MicrosteppingMotor/Src/example_usart.c **** 		i = 0;
 636              		.loc 1 282 5
 637 0056 0023     		movs	r3, #0
 638 0058 7B77     		strb	r3, [r7, #29]
 283:Projects/STM32F401RE-Nucleo/Examples/MotionControl/MicrosteppingMotor/Src/example_usart.c **** 		while (!CompareTwoTextString(
 639              		.loc 1 283 9
 640 005a 0CE0     		b	.L32
 641              	.L34:
 284:Projects/STM32F401RE-Nucleo/Examples/MotionControl/MicrosteppingMotor/Src/example_usart.c **** 				(uint8_t*) (pL6470_TextCommandBundle + CmdTxt_id)->MotorName,
 285:Projects/STM32F401RE-Nucleo/Examples/MotionControl/MicrosteppingMotor/Src/example_usart.c **** 				(uint8_t*) L6470_DaisyChainMnemonic[i].MotorIdMnemonic)) {
 286:Projects/STM32F401RE-Nucleo/Examples/MotionControl/MicrosteppingMotor/Src/example_usart.c **** 			i++;
 642              		.loc 1 286 5
 643 005c 7B7F     		ldrb	r3, [r7, #29]	@ zero_extendqisi2
 644 005e 0133     		adds	r3, r3, #1
 645 0060 7B77     		strb	r3, [r7, #29]
 287:Projects/STM32F401RE-Nucleo/Examples/MotionControl/MicrosteppingMotor/Src/example_usart.c **** 			if (i == L6470DAISYCHAINSIZE) {
 646              		.loc 1 287 7
 647 0062 7B7F     		ldrb	r3, [r7, #29]	@ zero_extendqisi2
 648 0064 022B     		cmp	r3, #2
 649 0066 06D1     		bne	.L32
 288:Projects/STM32F401RE-Nucleo/Examples/MotionControl/MicrosteppingMotor/Src/example_usart.c **** #ifdef NUCLEO_USE_USART
 289:Projects/STM32F401RE-Nucleo/Examples/MotionControl/MicrosteppingMotor/Src/example_usart.c **** 				USART_Transmit(&huart2, (uint8_t* )"It is not possible to identify the L6470.\r\n\r\n");
 650              		.loc 1 289 5
 651 0068 B349     		ldr	r1, .L109
 652 006a B448     		ldr	r0, .L109+4
 653 006c FFF7FEFF 		bl	USART_Transmit
 290:Projects/STM32F401RE-Nucleo/Examples/MotionControl/MicrosteppingMotor/Src/example_usart.c **** #endif
 291:Projects/STM32F401RE-Nucleo/Examples/MotionControl/MicrosteppingMotor/Src/example_usart.c **** 				return RESET;
 654              		.loc 1 291 12
 655 0070 0023     		movs	r3, #0
 656 0072 00F0D7BC 		b	.L108
 657              	.L32:
 284:Projects/STM32F401RE-Nucleo/Examples/MotionControl/MicrosteppingMotor/Src/example_usart.c **** 				(uint8_t*) L6470_DaisyChainMnemonic[i].MotorIdMnemonic)) {
 658              		.loc 1 284 42
 659 0076 3A7F     		ldrb	r2, [r7, #28]	@ zero_extendqisi2
 660 0078 1346     		mov	r3, r2
 661 007a 5B00     		lsls	r3, r3, #1
 662 007c 1344     		add	r3, r3, r2
ARM GAS  C:\Users\ep_ygh\AppData\Local\Temp\ccqIQPDc.s 			page 19


 663 007e 1B01     		lsls	r3, r3, #4
 664 0080 1A46     		mov	r2, r3
 665 0082 7B68     		ldr	r3, [r7, #4]
 666 0084 1344     		add	r3, r3, r2
 284:Projects/STM32F401RE-Nucleo/Examples/MotionControl/MicrosteppingMotor/Src/example_usart.c **** 				(uint8_t*) L6470_DaisyChainMnemonic[i].MotorIdMnemonic)) {
 667              		.loc 1 284 16
 668 0086 1846     		mov	r0, r3
 285:Projects/STM32F401RE-Nucleo/Examples/MotionControl/MicrosteppingMotor/Src/example_usart.c **** 			i++;
 669              		.loc 1 285 43
 670 0088 7A7F     		ldrb	r2, [r7, #29]	@ zero_extendqisi2
 285:Projects/STM32F401RE-Nucleo/Examples/MotionControl/MicrosteppingMotor/Src/example_usart.c **** 			i++;
 671              		.loc 1 285 16
 672 008a 1346     		mov	r3, r2
 673 008c 5B00     		lsls	r3, r3, #1
 674 008e 1344     		add	r3, r3, r2
 675 0090 9B00     		lsls	r3, r3, #2
 676 0092 1344     		add	r3, r3, r2
 677 0094 0833     		adds	r3, r3, #8
 678 0096 AA4A     		ldr	r2, .L109+8
 679 0098 1344     		add	r3, r3, r2
 680 009a 0133     		adds	r3, r3, #1
 283:Projects/STM32F401RE-Nucleo/Examples/MotionControl/MicrosteppingMotor/Src/example_usart.c **** 				(uint8_t*) (pL6470_TextCommandBundle + CmdTxt_id)->MotorName,
 681              		.loc 1 283 11
 682 009c 1946     		mov	r1, r3
 683 009e FFF7FEFF 		bl	CompareTwoTextString
 684 00a2 0346     		mov	r3, r0
 283:Projects/STM32F401RE-Nucleo/Examples/MotionControl/MicrosteppingMotor/Src/example_usart.c **** 				(uint8_t*) (pL6470_TextCommandBundle + CmdTxt_id)->MotorName,
 685              		.loc 1 283 9
 686 00a4 002B     		cmp	r3, #0
 687 00a6 D9D0     		beq	.L34
 292:Projects/STM32F401RE-Nucleo/Examples/MotionControl/MicrosteppingMotor/Src/example_usart.c **** 			}
 293:Projects/STM32F401RE-Nucleo/Examples/MotionControl/MicrosteppingMotor/Src/example_usart.c **** 		}
 294:Projects/STM32F401RE-Nucleo/Examples/MotionControl/MicrosteppingMotor/Src/example_usart.c **** 
 295:Projects/STM32F401RE-Nucleo/Examples/MotionControl/MicrosteppingMotor/Src/example_usart.c **** 		/* The L6470 to address is known */
 296:Projects/STM32F401RE-Nucleo/Examples/MotionControl/MicrosteppingMotor/Src/example_usart.c **** 		L6470_Id = L6470_ID(i);
 688              		.loc 1 296 14
 689 00a8 7B7F     		ldrb	r3, [r7, #29]	@ zero_extendqisi2
 690 00aa 1846     		mov	r0, r3
 691 00ac FFF7FEFF 		bl	L6470_ID
 692 00b0 0346     		mov	r3, r0
 693 00b2 FB74     		strb	r3, [r7, #19]
 297:Projects/STM32F401RE-Nucleo/Examples/MotionControl/MicrosteppingMotor/Src/example_usart.c **** 
 298:Projects/STM32F401RE-Nucleo/Examples/MotionControl/MicrosteppingMotor/Src/example_usart.c **** 		/* Check for different addressed L6470 */
 299:Projects/STM32F401RE-Nucleo/Examples/MotionControl/MicrosteppingMotor/Src/example_usart.c **** 		if (!CompareTwoTextString(
 300:Projects/STM32F401RE-Nucleo/Examples/MotionControl/MicrosteppingMotor/Src/example_usart.c **** 				(uint8_t*) L6470_DaisyChainMnemonic[i].MotorIdMnemonic,
 694              		.loc 1 300 43
 695 00b4 7A7F     		ldrb	r2, [r7, #29]	@ zero_extendqisi2
 696              		.loc 1 300 16
 697 00b6 1346     		mov	r3, r2
 698 00b8 5B00     		lsls	r3, r3, #1
 699 00ba 1344     		add	r3, r3, r2
 700 00bc 9B00     		lsls	r3, r3, #2
 701 00be 1344     		add	r3, r3, r2
 702 00c0 0833     		adds	r3, r3, #8
 703 00c2 9F4A     		ldr	r2, .L109+8
 704 00c4 1344     		add	r3, r3, r2
 705 00c6 0133     		adds	r3, r3, #1
ARM GAS  C:\Users\ep_ygh\AppData\Local\Temp\ccqIQPDc.s 			page 20


 299:Projects/STM32F401RE-Nucleo/Examples/MotionControl/MicrosteppingMotor/Src/example_usart.c **** 				(uint8_t*) L6470_DaisyChainMnemonic[i].MotorIdMnemonic,
 706              		.loc 1 299 8
 707 00c8 B969     		ldr	r1, [r7, #24]
 708 00ca 1846     		mov	r0, r3
 709 00cc FFF7FEFF 		bl	CompareTwoTextString
 710 00d0 0346     		mov	r3, r0
 299:Projects/STM32F401RE-Nucleo/Examples/MotionControl/MicrosteppingMotor/Src/example_usart.c **** 				(uint8_t*) L6470_DaisyChainMnemonic[i].MotorIdMnemonic,
 711              		.loc 1 299 6
 712 00d2 002B     		cmp	r3, #0
 713 00d4 40F05C84 		bne	.L35
 301:Projects/STM32F401RE-Nucleo/Examples/MotionControl/MicrosteppingMotor/Src/example_usart.c **** 				pMotorMnemonic)) {
 302:Projects/STM32F401RE-Nucleo/Examples/MotionControl/MicrosteppingMotor/Src/example_usart.c **** 			pMotorMnemonic =
 303:Projects/STM32F401RE-Nucleo/Examples/MotionControl/MicrosteppingMotor/Src/example_usart.c **** 					(uint8_t*) L6470_DaisyChainMnemonic[i].MotorIdMnemonic;
 714              		.loc 1 303 44
 715 00d8 7A7F     		ldrb	r2, [r7, #29]	@ zero_extendqisi2
 302:Projects/STM32F401RE-Nucleo/Examples/MotionControl/MicrosteppingMotor/Src/example_usart.c **** 					(uint8_t*) L6470_DaisyChainMnemonic[i].MotorIdMnemonic;
 716              		.loc 1 302 19
 717 00da 1346     		mov	r3, r2
 718 00dc 5B00     		lsls	r3, r3, #1
 719 00de 1344     		add	r3, r3, r2
 720 00e0 9B00     		lsls	r3, r3, #2
 721 00e2 1344     		add	r3, r3, r2
 722 00e4 0833     		adds	r3, r3, #8
 723 00e6 964A     		ldr	r2, .L109+8
 724 00e8 1344     		add	r3, r3, r2
 725 00ea 0133     		adds	r3, r3, #1
 726 00ec BB61     		str	r3, [r7, #24]
 304:Projects/STM32F401RE-Nucleo/Examples/MotionControl/MicrosteppingMotor/Src/example_usart.c **** 			/* ************************************************************************ */
 305:Projects/STM32F401RE-Nucleo/Examples/MotionControl/MicrosteppingMotor/Src/example_usart.c **** 
 306:Projects/STM32F401RE-Nucleo/Examples/MotionControl/MicrosteppingMotor/Src/example_usart.c **** 			/* Checks which Application Command has to be performed ******************* */
 307:Projects/STM32F401RE-Nucleo/Examples/MotionControl/MicrosteppingMotor/Src/example_usart.c **** 			L6470_AppCmdId = (eL6470_AppCmdId_t) 0;
 727              		.loc 1 307 19
 728 00ee 0023     		movs	r3, #0
 729 00f0 FB75     		strb	r3, [r7, #23]
 308:Projects/STM32F401RE-Nucleo/Examples/MotionControl/MicrosteppingMotor/Src/example_usart.c **** 			while (!CompareTwoTextString(
 730              		.loc 1 308 10
 731 00f2 0CE0     		b	.L36
 732              	.L37:
 309:Projects/STM32F401RE-Nucleo/Examples/MotionControl/MicrosteppingMotor/Src/example_usart.c **** 					(uint8_t*) (pL6470_TextCommandBundle + CmdTxt_id)->CommandName,
 310:Projects/STM32F401RE-Nucleo/Examples/MotionControl/MicrosteppingMotor/Src/example_usart.c **** 					(uint8_t*) L6470_ApplicationCommand[L6470_AppCmdId].Mnemonic)) {
 311:Projects/STM32F401RE-Nucleo/Examples/MotionControl/MicrosteppingMotor/Src/example_usart.c **** 				L6470_AppCmdId++;
 733              		.loc 1 311 19
 734 00f4 FB7D     		ldrb	r3, [r7, #23]	@ zero_extendqisi2
 735 00f6 0133     		adds	r3, r3, #1
 736 00f8 FB75     		strb	r3, [r7, #23]
 312:Projects/STM32F401RE-Nucleo/Examples/MotionControl/MicrosteppingMotor/Src/example_usart.c **** 				if (L6470_AppCmdId == L6470APPCMDIDSIZE) {
 737              		.loc 1 312 8
 738 00fa FB7D     		ldrb	r3, [r7, #23]	@ zero_extendqisi2
 739 00fc 132B     		cmp	r3, #19
 740 00fe 06D1     		bne	.L36
 313:Projects/STM32F401RE-Nucleo/Examples/MotionControl/MicrosteppingMotor/Src/example_usart.c **** #ifdef NUCLEO_USE_USART
 314:Projects/STM32F401RE-Nucleo/Examples/MotionControl/MicrosteppingMotor/Src/example_usart.c **** 					USART_Transmit(&huart2, (uint8_t* )"It is not possible to recognize any L6470 application comm
 741              		.loc 1 314 6
 742 0100 9049     		ldr	r1, .L109+12
 743 0102 8E48     		ldr	r0, .L109+4
 744 0104 FFF7FEFF 		bl	USART_Transmit
 315:Projects/STM32F401RE-Nucleo/Examples/MotionControl/MicrosteppingMotor/Src/example_usart.c **** #endif
ARM GAS  C:\Users\ep_ygh\AppData\Local\Temp\ccqIQPDc.s 			page 21


 316:Projects/STM32F401RE-Nucleo/Examples/MotionControl/MicrosteppingMotor/Src/example_usart.c **** 					return RESET;
 745              		.loc 1 316 13
 746 0108 0023     		movs	r3, #0
 747 010a 00F08BBC 		b	.L108
 748              	.L36:
 309:Projects/STM32F401RE-Nucleo/Examples/MotionControl/MicrosteppingMotor/Src/example_usart.c **** 					(uint8_t*) L6470_ApplicationCommand[L6470_AppCmdId].Mnemonic)) {
 749              		.loc 1 309 43
 750 010e 3A7F     		ldrb	r2, [r7, #28]	@ zero_extendqisi2
 751 0110 1346     		mov	r3, r2
 752 0112 5B00     		lsls	r3, r3, #1
 753 0114 1344     		add	r3, r3, r2
 754 0116 1B01     		lsls	r3, r3, #4
 755 0118 1A46     		mov	r2, r3
 756 011a 7B68     		ldr	r3, [r7, #4]
 757 011c 1344     		add	r3, r3, r2
 309:Projects/STM32F401RE-Nucleo/Examples/MotionControl/MicrosteppingMotor/Src/example_usart.c **** 					(uint8_t*) L6470_ApplicationCommand[L6470_AppCmdId].Mnemonic)) {
 758              		.loc 1 309 17
 759 011e D81C     		adds	r0, r3, #3
 310:Projects/STM32F401RE-Nucleo/Examples/MotionControl/MicrosteppingMotor/Src/example_usart.c **** 				L6470_AppCmdId++;
 760              		.loc 1 310 57
 761 0120 FA7D     		ldrb	r2, [r7, #23]	@ zero_extendqisi2
 310:Projects/STM32F401RE-Nucleo/Examples/MotionControl/MicrosteppingMotor/Src/example_usart.c **** 				L6470_AppCmdId++;
 762              		.loc 1 310 17
 763 0122 1346     		mov	r3, r2
 764 0124 DB00     		lsls	r3, r3, #3
 765 0126 9B1A     		subs	r3, r3, r2
 766 0128 5B00     		lsls	r3, r3, #1
 767 012a 874A     		ldr	r2, .L109+16
 768 012c 1344     		add	r3, r3, r2
 308:Projects/STM32F401RE-Nucleo/Examples/MotionControl/MicrosteppingMotor/Src/example_usart.c **** 					(uint8_t*) (pL6470_TextCommandBundle + CmdTxt_id)->CommandName,
 769              		.loc 1 308 12
 770 012e 1946     		mov	r1, r3
 771 0130 FFF7FEFF 		bl	CompareTwoTextString
 772 0134 0346     		mov	r3, r0
 308:Projects/STM32F401RE-Nucleo/Examples/MotionControl/MicrosteppingMotor/Src/example_usart.c **** 					(uint8_t*) (pL6470_TextCommandBundle + CmdTxt_id)->CommandName,
 773              		.loc 1 308 10
 774 0136 002B     		cmp	r3, #0
 775 0138 DCD0     		beq	.L37
 317:Projects/STM32F401RE-Nucleo/Examples/MotionControl/MicrosteppingMotor/Src/example_usart.c **** 				}
 318:Projects/STM32F401RE-Nucleo/Examples/MotionControl/MicrosteppingMotor/Src/example_usart.c **** 			}
 319:Projects/STM32F401RE-Nucleo/Examples/MotionControl/MicrosteppingMotor/Src/example_usart.c **** 			/* The application Command to perform is known */
 320:Projects/STM32F401RE-Nucleo/Examples/MotionControl/MicrosteppingMotor/Src/example_usart.c **** 			/* The max number of parameters has to be the following */
 321:Projects/STM32F401RE-Nucleo/Examples/MotionControl/MicrosteppingMotor/Src/example_usart.c **** 			nr_parameters =
 322:Projects/STM32F401RE-Nucleo/Examples/MotionControl/MicrosteppingMotor/Src/example_usart.c **** 					L6470_ApplicationCommand[L6470_AppCmdId].NrOfParameters;
 776              		.loc 1 322 46
 777 013a FA7D     		ldrb	r2, [r7, #23]	@ zero_extendqisi2
 321:Projects/STM32F401RE-Nucleo/Examples/MotionControl/MicrosteppingMotor/Src/example_usart.c **** 					L6470_ApplicationCommand[L6470_AppCmdId].NrOfParameters;
 778              		.loc 1 321 18
 779 013c 8249     		ldr	r1, .L109+16
 780 013e 1346     		mov	r3, r2
 781 0140 DB00     		lsls	r3, r3, #3
 782 0142 9B1A     		subs	r3, r3, r2
 783 0144 5B00     		lsls	r3, r3, #1
 784 0146 0B44     		add	r3, r3, r1
 785 0148 0D33     		adds	r3, r3, #13
 786 014a 1B78     		ldrb	r3, [r3]
 787 014c BB74     		strb	r3, [r7, #18]
ARM GAS  C:\Users\ep_ygh\AppData\Local\Temp\ccqIQPDc.s 			page 22


 323:Projects/STM32F401RE-Nucleo/Examples/MotionControl/MicrosteppingMotor/Src/example_usart.c **** 
 324:Projects/STM32F401RE-Nucleo/Examples/MotionControl/MicrosteppingMotor/Src/example_usart.c **** 			/* Check for a right number of entered command parameters */
 325:Projects/STM32F401RE-Nucleo/Examples/MotionControl/MicrosteppingMotor/Src/example_usart.c **** 			i = 0;
 788              		.loc 1 325 6
 789 014e 0023     		movs	r3, #0
 790 0150 7B77     		strb	r3, [r7, #29]
 326:Projects/STM32F401RE-Nucleo/Examples/MotionControl/MicrosteppingMotor/Src/example_usart.c **** 			while (i < nr_parameters) {
 791              		.loc 1 326 10
 792 0152 1CE0     		b	.L38
 793              	.L40:
 327:Projects/STM32F401RE-Nucleo/Examples/MotionControl/MicrosteppingMotor/Src/example_usart.c **** 				if ((*((pL6470_TextCommandBundle + CmdTxt_id)->Param[i]))
 794              		.loc 1 327 38
 795 0154 3A7F     		ldrb	r2, [r7, #28]	@ zero_extendqisi2
 796 0156 1346     		mov	r3, r2
 797 0158 5B00     		lsls	r3, r3, #1
 798 015a 1344     		add	r3, r3, r2
 799 015c 1B01     		lsls	r3, r3, #4
 800 015e 1A46     		mov	r2, r3
 801 0160 7B68     		ldr	r3, [r7, #4]
 802 0162 9918     		adds	r1, r3, r2
 803              		.loc 1 327 10
 804 0164 7A7F     		ldrb	r2, [r7, #29]	@ zero_extendqisi2
 805 0166 1346     		mov	r3, r2
 806 0168 9B00     		lsls	r3, r3, #2
 807 016a 1344     		add	r3, r3, r2
 808 016c 5B00     		lsls	r3, r3, #1
 809 016e 1344     		add	r3, r3, r2
 810 0170 0B44     		add	r3, r3, r1
 811 0172 0F33     		adds	r3, r3, #15
 812 0174 1B78     		ldrb	r3, [r3]	@ zero_extendqisi2
 813              		.loc 1 327 8
 814 0176 002B     		cmp	r3, #0
 815 0178 06D1     		bne	.L39
 328:Projects/STM32F401RE-Nucleo/Examples/MotionControl/MicrosteppingMotor/Src/example_usart.c **** 						== '\0') {
 329:Projects/STM32F401RE-Nucleo/Examples/MotionControl/MicrosteppingMotor/Src/example_usart.c **** #ifdef NUCLEO_USE_USART
 330:Projects/STM32F401RE-Nucleo/Examples/MotionControl/MicrosteppingMotor/Src/example_usart.c **** 					USART_Transmit(&huart2, (uint8_t* )"The number of parameters related to the application comman
 816              		.loc 1 330 6
 817 017a 7449     		ldr	r1, .L109+20
 818 017c 6F48     		ldr	r0, .L109+4
 819 017e FFF7FEFF 		bl	USART_Transmit
 331:Projects/STM32F401RE-Nucleo/Examples/MotionControl/MicrosteppingMotor/Src/example_usart.c **** #endif
 332:Projects/STM32F401RE-Nucleo/Examples/MotionControl/MicrosteppingMotor/Src/example_usart.c **** 					return RESET;
 820              		.loc 1 332 13
 821 0182 0023     		movs	r3, #0
 822 0184 00F04EBC 		b	.L108
 823              	.L39:
 333:Projects/STM32F401RE-Nucleo/Examples/MotionControl/MicrosteppingMotor/Src/example_usart.c **** 				} else {
 334:Projects/STM32F401RE-Nucleo/Examples/MotionControl/MicrosteppingMotor/Src/example_usart.c **** 					i++;
 824              		.loc 1 334 7
 825 0188 7B7F     		ldrb	r3, [r7, #29]	@ zero_extendqisi2
 826 018a 0133     		adds	r3, r3, #1
 827 018c 7B77     		strb	r3, [r7, #29]
 828              	.L38:
 326:Projects/STM32F401RE-Nucleo/Examples/MotionControl/MicrosteppingMotor/Src/example_usart.c **** 				if ((*((pL6470_TextCommandBundle + CmdTxt_id)->Param[i]))
 829              		.loc 1 326 10
 830 018e 7A7F     		ldrb	r2, [r7, #29]	@ zero_extendqisi2
 831 0190 BB7C     		ldrb	r3, [r7, #18]	@ zero_extendqisi2
ARM GAS  C:\Users\ep_ygh\AppData\Local\Temp\ccqIQPDc.s 			page 23


 832 0192 9A42     		cmp	r2, r3
 833 0194 DED3     		bcc	.L40
 335:Projects/STM32F401RE-Nucleo/Examples/MotionControl/MicrosteppingMotor/Src/example_usart.c **** 				}
 336:Projects/STM32F401RE-Nucleo/Examples/MotionControl/MicrosteppingMotor/Src/example_usart.c **** 			}
 337:Projects/STM32F401RE-Nucleo/Examples/MotionControl/MicrosteppingMotor/Src/example_usart.c **** 			if (i < 3) /* Max possible parameters */
 834              		.loc 1 337 7
 835 0196 7B7F     		ldrb	r3, [r7, #29]	@ zero_extendqisi2
 836 0198 022B     		cmp	r3, #2
 837 019a 19D8     		bhi	.L41
 338:Projects/STM32F401RE-Nucleo/Examples/MotionControl/MicrosteppingMotor/Src/example_usart.c **** 			{
 339:Projects/STM32F401RE-Nucleo/Examples/MotionControl/MicrosteppingMotor/Src/example_usart.c **** 				if ((*((pL6470_TextCommandBundle + CmdTxt_id)->Param[i]))
 838              		.loc 1 339 38
 839 019c 3A7F     		ldrb	r2, [r7, #28]	@ zero_extendqisi2
 840 019e 1346     		mov	r3, r2
 841 01a0 5B00     		lsls	r3, r3, #1
 842 01a2 1344     		add	r3, r3, r2
 843 01a4 1B01     		lsls	r3, r3, #4
 844 01a6 1A46     		mov	r2, r3
 845 01a8 7B68     		ldr	r3, [r7, #4]
 846 01aa 9918     		adds	r1, r3, r2
 847              		.loc 1 339 10
 848 01ac 7A7F     		ldrb	r2, [r7, #29]	@ zero_extendqisi2
 849 01ae 1346     		mov	r3, r2
 850 01b0 9B00     		lsls	r3, r3, #2
 851 01b2 1344     		add	r3, r3, r2
 852 01b4 5B00     		lsls	r3, r3, #1
 853 01b6 1344     		add	r3, r3, r2
 854 01b8 0B44     		add	r3, r3, r1
 855 01ba 0F33     		adds	r3, r3, #15
 856 01bc 1B78     		ldrb	r3, [r3]	@ zero_extendqisi2
 857              		.loc 1 339 8
 858 01be 002B     		cmp	r3, #0
 859 01c0 06D0     		beq	.L41
 340:Projects/STM32F401RE-Nucleo/Examples/MotionControl/MicrosteppingMotor/Src/example_usart.c **** 						!= '\0') {
 341:Projects/STM32F401RE-Nucleo/Examples/MotionControl/MicrosteppingMotor/Src/example_usart.c **** #ifdef NUCLEO_USE_USART
 342:Projects/STM32F401RE-Nucleo/Examples/MotionControl/MicrosteppingMotor/Src/example_usart.c **** 					USART_Transmit(&huart2, (uint8_t* )"The number of parameters related to the application comman
 860              		.loc 1 342 6
 861 01c2 6249     		ldr	r1, .L109+20
 862 01c4 5D48     		ldr	r0, .L109+4
 863 01c6 FFF7FEFF 		bl	USART_Transmit
 343:Projects/STM32F401RE-Nucleo/Examples/MotionControl/MicrosteppingMotor/Src/example_usart.c **** #endif
 344:Projects/STM32F401RE-Nucleo/Examples/MotionControl/MicrosteppingMotor/Src/example_usart.c **** 					return RESET;
 864              		.loc 1 344 13
 865 01ca 0023     		movs	r3, #0
 866 01cc 00F02ABC 		b	.L108
 867              	.L41:
 345:Projects/STM32F401RE-Nucleo/Examples/MotionControl/MicrosteppingMotor/Src/example_usart.c **** 				}
 346:Projects/STM32F401RE-Nucleo/Examples/MotionControl/MicrosteppingMotor/Src/example_usart.c **** 			}
 347:Projects/STM32F401RE-Nucleo/Examples/MotionControl/MicrosteppingMotor/Src/example_usart.c **** 			/* ************************************************************************ */
 348:Projects/STM32F401RE-Nucleo/Examples/MotionControl/MicrosteppingMotor/Src/example_usart.c **** 
 349:Projects/STM32F401RE-Nucleo/Examples/MotionControl/MicrosteppingMotor/Src/example_usart.c **** 			/* Checks the application command parameter ******************************* */
 350:Projects/STM32F401RE-Nucleo/Examples/MotionControl/MicrosteppingMotor/Src/example_usart.c **** 			switch (L6470_AppCmdId) {
 868              		.loc 1 350 4
 869 01d0 FB7D     		ldrb	r3, [r7, #23]	@ zero_extendqisi2
 870 01d2 122B     		cmp	r3, #18
 871 01d4 00F2E283 		bhi	.L105
 872 01d8 01A2     		adr	r2, .L44
ARM GAS  C:\Users\ep_ygh\AppData\Local\Temp\ccqIQPDc.s 			page 24


 873 01da 52F823F0 		ldr	pc, [r2, r3, lsl #2]
 874 01de 00BF     		.p2align 2
 875              	.L44:
 876 01e0 2D020000 		.word	.L62+1
 877 01e4 39020000 		.word	.L61+1
 878 01e8 19030000 		.word	.L60+1
 879 01ec E7030000 		.word	.L59+1
 880 01f0 A5040000 		.word	.L58+1
 881 01f4 01050000 		.word	.L57+1
 882 01f8 BF050000 		.word	.L56+1
 883 01fc 2D060000 		.word	.L55+1
 884 0200 01070000 		.word	.L54+1
 885 0204 25080000 		.word	.L53+1
 886 0208 E7080000 		.word	.L52+1
 887 020c F3080000 		.word	.L51+1
 888 0210 FF080000 		.word	.L50+1
 889 0214 0B090000 		.word	.L49+1
 890 0218 17090000 		.word	.L48+1
 891 021c 23090000 		.word	.L47+1
 892 0220 2F090000 		.word	.L46+1
 893 0224 3B090000 		.word	.L45+1
 894 0228 61090000 		.word	.L43+1
 895              		.p2align 1
 896              	.L62:
 351:Projects/STM32F401RE-Nucleo/Examples/MotionControl/MicrosteppingMotor/Src/example_usart.c **** 			case L6470_NOP_ID:
 352:Projects/STM32F401RE-Nucleo/Examples/MotionControl/MicrosteppingMotor/Src/example_usart.c **** 				*(pL6470_DaisyChainSpiTxStruct
 353:Projects/STM32F401RE-Nucleo/Examples/MotionControl/MicrosteppingMotor/Src/example_usart.c **** 						+ ((0 * L6470DAISYCHAINSIZE) + L6470_Id)) = 0x00;
 897              		.loc 1 353 36
 898 022c FB7C     		ldrb	r3, [r7, #19]	@ zero_extendqisi2
 899              		.loc 1 353 7
 900 022e 3A68     		ldr	r2, [r7]
 901 0230 1344     		add	r3, r3, r2
 902              		.loc 1 353 49
 903 0232 0022     		movs	r2, #0
 904 0234 1A70     		strb	r2, [r3]
 354:Projects/STM32F401RE-Nucleo/Examples/MotionControl/MicrosteppingMotor/Src/example_usart.c **** 				break;
 905              		.loc 1 354 5
 906 0236 B1E3     		b	.L105
 907              	.L61:
 355:Projects/STM32F401RE-Nucleo/Examples/MotionControl/MicrosteppingMotor/Src/example_usart.c **** 			case L6470_SETPARAM_ID:
 356:Projects/STM32F401RE-Nucleo/Examples/MotionControl/MicrosteppingMotor/Src/example_usart.c **** 				/* Check for possible Register to be addresses */
 357:Projects/STM32F401RE-Nucleo/Examples/MotionControl/MicrosteppingMotor/Src/example_usart.c **** 				L6470_RegId = (eL6470_RegId_t) 0;
 908              		.loc 1 357 17
 909 0238 0023     		movs	r3, #0
 910 023a BB75     		strb	r3, [r7, #22]
 358:Projects/STM32F401RE-Nucleo/Examples/MotionControl/MicrosteppingMotor/Src/example_usart.c **** 				while (!CompareTwoTextString(
 911              		.loc 1 358 11
 912 023c 0BE0     		b	.L63
 913              	.L64:
 359:Projects/STM32F401RE-Nucleo/Examples/MotionControl/MicrosteppingMotor/Src/example_usart.c **** 						(uint8_t*) (pL6470_TextCommandBundle + CmdTxt_id)->Param[0],
 360:Projects/STM32F401RE-Nucleo/Examples/MotionControl/MicrosteppingMotor/Src/example_usart.c **** 						(uint8_t*) L6470_Register[L6470_RegId].Name)) {
 361:Projects/STM32F401RE-Nucleo/Examples/MotionControl/MicrosteppingMotor/Src/example_usart.c **** 					L6470_RegId++;
 914              		.loc 1 361 17
 915 023e BB7D     		ldrb	r3, [r7, #22]	@ zero_extendqisi2
 916 0240 0133     		adds	r3, r3, #1
 917 0242 BB75     		strb	r3, [r7, #22]
 362:Projects/STM32F401RE-Nucleo/Examples/MotionControl/MicrosteppingMotor/Src/example_usart.c **** 					if (L6470_RegId == L6470REGIDSIZE) {
ARM GAS  C:\Users\ep_ygh\AppData\Local\Temp\ccqIQPDc.s 			page 25


 918              		.loc 1 362 9
 919 0244 BB7D     		ldrb	r3, [r7, #22]	@ zero_extendqisi2
 920 0246 192B     		cmp	r3, #25
 921 0248 05D1     		bne	.L63
 363:Projects/STM32F401RE-Nucleo/Examples/MotionControl/MicrosteppingMotor/Src/example_usart.c **** #ifdef NUCLEO_USE_USART
 364:Projects/STM32F401RE-Nucleo/Examples/MotionControl/MicrosteppingMotor/Src/example_usart.c **** 						USART_Transmit(&huart2, (uint8_t *)"It is not possible to recognize any L6470 register name.\
 922              		.loc 1 364 7
 923 024a 4149     		ldr	r1, .L109+24
 924 024c 3B48     		ldr	r0, .L109+4
 925 024e FFF7FEFF 		bl	USART_Transmit
 365:Projects/STM32F401RE-Nucleo/Examples/MotionControl/MicrosteppingMotor/Src/example_usart.c **** #endif
 366:Projects/STM32F401RE-Nucleo/Examples/MotionControl/MicrosteppingMotor/Src/example_usart.c **** 						return RESET;
 926              		.loc 1 366 14
 927 0252 0023     		movs	r3, #0
 928 0254 E6E3     		b	.L108
 929              	.L63:
 359:Projects/STM32F401RE-Nucleo/Examples/MotionControl/MicrosteppingMotor/Src/example_usart.c **** 						(uint8_t*) L6470_Register[L6470_RegId].Name)) {
 930              		.loc 1 359 44
 931 0256 3A7F     		ldrb	r2, [r7, #28]	@ zero_extendqisi2
 932 0258 1346     		mov	r3, r2
 933 025a 5B00     		lsls	r3, r3, #1
 934 025c 1344     		add	r3, r3, r2
 935 025e 1B01     		lsls	r3, r3, #4
 936 0260 1A46     		mov	r2, r3
 937 0262 7B68     		ldr	r3, [r7, #4]
 938 0264 1344     		add	r3, r3, r2
 359:Projects/STM32F401RE-Nucleo/Examples/MotionControl/MicrosteppingMotor/Src/example_usart.c **** 						(uint8_t*) L6470_Register[L6470_RegId].Name)) {
 939              		.loc 1 359 18
 940 0266 03F10F00 		add	r0, r3, #15
 360:Projects/STM32F401RE-Nucleo/Examples/MotionControl/MicrosteppingMotor/Src/example_usart.c **** 					L6470_RegId++;
 941              		.loc 1 360 45
 942 026a BA7D     		ldrb	r2, [r7, #22]	@ zero_extendqisi2
 360:Projects/STM32F401RE-Nucleo/Examples/MotionControl/MicrosteppingMotor/Src/example_usart.c **** 					L6470_RegId++;
 943              		.loc 1 360 18
 944 026c 1346     		mov	r3, r2
 945 026e 9B00     		lsls	r3, r3, #2
 946 0270 1344     		add	r3, r3, r2
 947 0272 9B00     		lsls	r3, r3, #2
 948 0274 374A     		ldr	r2, .L109+28
 949 0276 1344     		add	r3, r3, r2
 950 0278 0133     		adds	r3, r3, #1
 358:Projects/STM32F401RE-Nucleo/Examples/MotionControl/MicrosteppingMotor/Src/example_usart.c **** 						(uint8_t*) (pL6470_TextCommandBundle + CmdTxt_id)->Param[0],
 951              		.loc 1 358 13
 952 027a 1946     		mov	r1, r3
 953 027c FFF7FEFF 		bl	CompareTwoTextString
 954 0280 0346     		mov	r3, r0
 358:Projects/STM32F401RE-Nucleo/Examples/MotionControl/MicrosteppingMotor/Src/example_usart.c **** 						(uint8_t*) (pL6470_TextCommandBundle + CmdTxt_id)->Param[0],
 955              		.loc 1 358 11
 956 0282 002B     		cmp	r3, #0
 957 0284 DBD0     		beq	.L64
 367:Projects/STM32F401RE-Nucleo/Examples/MotionControl/MicrosteppingMotor/Src/example_usart.c **** 					}
 368:Projects/STM32F401RE-Nucleo/Examples/MotionControl/MicrosteppingMotor/Src/example_usart.c **** 				}
 369:Projects/STM32F401RE-Nucleo/Examples/MotionControl/MicrosteppingMotor/Src/example_usart.c **** 				/* The 1st application command parameter (as PARAM) is known ************ */
 370:Projects/STM32F401RE-Nucleo/Examples/MotionControl/MicrosteppingMotor/Src/example_usart.c **** 				*(pL6470_DaisyChainSpiTxStruct
 371:Projects/STM32F401RE-Nucleo/Examples/MotionControl/MicrosteppingMotor/Src/example_usart.c **** 						+ ((0 * L6470DAISYCHAINSIZE) + L6470_Id)) = 0x00
 372:Projects/STM32F401RE-Nucleo/Examples/MotionControl/MicrosteppingMotor/Src/example_usart.c **** 						| L6470_Register[L6470_RegId].Address;
 958              		.loc 1 372 36
ARM GAS  C:\Users\ep_ygh\AppData\Local\Temp\ccqIQPDc.s 			page 26


 959 0286 BA7D     		ldrb	r2, [r7, #22]	@ zero_extendqisi2
 371:Projects/STM32F401RE-Nucleo/Examples/MotionControl/MicrosteppingMotor/Src/example_usart.c **** 						| L6470_Register[L6470_RegId].Address;
 960              		.loc 1 371 36
 961 0288 FB7C     		ldrb	r3, [r7, #19]	@ zero_extendqisi2
 371:Projects/STM32F401RE-Nucleo/Examples/MotionControl/MicrosteppingMotor/Src/example_usart.c **** 						| L6470_Register[L6470_RegId].Address;
 962              		.loc 1 371 7
 963 028a 3968     		ldr	r1, [r7]
 964 028c 1944     		add	r1, r1, r3
 965              		.loc 1 372 36
 966 028e 3148     		ldr	r0, .L109+28
 967 0290 1346     		mov	r3, r2
 968 0292 9B00     		lsls	r3, r3, #2
 969 0294 1344     		add	r3, r3, r2
 970 0296 9B00     		lsls	r3, r3, #2
 971 0298 0344     		add	r3, r3, r0
 972 029a 1B78     		ldrb	r3, [r3]	@ zero_extendqisi2
 371:Projects/STM32F401RE-Nucleo/Examples/MotionControl/MicrosteppingMotor/Src/example_usart.c **** 						| L6470_Register[L6470_RegId].Address;
 973              		.loc 1 371 49
 974 029c 0B70     		strb	r3, [r1]
 373:Projects/STM32F401RE-Nucleo/Examples/MotionControl/MicrosteppingMotor/Src/example_usart.c **** 
 374:Projects/STM32F401RE-Nucleo/Examples/MotionControl/MicrosteppingMotor/Src/example_usart.c **** 				/* The length, in byte, of this register (PARAM) is... */
 375:Projects/STM32F401RE-Nucleo/Examples/MotionControl/MicrosteppingMotor/Src/example_usart.c **** 				PARAMLengthBytes = L6470_Register[L6470_RegId].LengthByte;
 975              		.loc 1 375 51
 976 029e BA7D     		ldrb	r2, [r7, #22]	@ zero_extendqisi2
 977              		.loc 1 375 22
 978 02a0 2C49     		ldr	r1, .L109+28
 979 02a2 1346     		mov	r3, r2
 980 02a4 9B00     		lsls	r3, r3, #2
 981 02a6 1344     		add	r3, r3, r2
 982 02a8 9B00     		lsls	r3, r3, #2
 983 02aa 0B44     		add	r3, r3, r1
 984 02ac 0E33     		adds	r3, r3, #14
 985 02ae 1B78     		ldrb	r3, [r3]
 986 02b0 7B74     		strb	r3, [r7, #17]
 376:Projects/STM32F401RE-Nucleo/Examples/MotionControl/MicrosteppingMotor/Src/example_usart.c **** 
 377:Projects/STM32F401RE-Nucleo/Examples/MotionControl/MicrosteppingMotor/Src/example_usart.c **** 				/* Checks the numeric parameter that has been entered (as 2nd parameter) */
 378:Projects/STM32F401RE-Nucleo/Examples/MotionControl/MicrosteppingMotor/Src/example_usart.c **** 				if (!str2num(
 379:Projects/STM32F401RE-Nucleo/Examples/MotionControl/MicrosteppingMotor/Src/example_usart.c **** 						(uint8_t*) (pL6470_TextCommandBundle + CmdTxt_id)->Param[1],
 987              		.loc 1 379 44
 988 02b2 3A7F     		ldrb	r2, [r7, #28]	@ zero_extendqisi2
 989 02b4 1346     		mov	r3, r2
 990 02b6 5B00     		lsls	r3, r3, #1
 991 02b8 1344     		add	r3, r3, r2
 992 02ba 1B01     		lsls	r3, r3, #4
 993 02bc 1A46     		mov	r2, r3
 994 02be 7B68     		ldr	r3, [r7, #4]
 995 02c0 1344     		add	r3, r3, r2
 996              		.loc 1 379 18
 997 02c2 1A33     		adds	r3, r3, #26
 378:Projects/STM32F401RE-Nucleo/Examples/MotionControl/MicrosteppingMotor/Src/example_usart.c **** 						(uint8_t*) (pL6470_TextCommandBundle + CmdTxt_id)->Param[1],
 998              		.loc 1 378 10
 999 02c4 07F10802 		add	r2, r7, #8
 1000 02c8 1146     		mov	r1, r2
 1001 02ca 1846     		mov	r0, r3
 1002 02cc FFF7FEFF 		bl	str2num
 1003 02d0 0346     		mov	r3, r0
 378:Projects/STM32F401RE-Nucleo/Examples/MotionControl/MicrosteppingMotor/Src/example_usart.c **** 						(uint8_t*) (pL6470_TextCommandBundle + CmdTxt_id)->Param[1],
ARM GAS  C:\Users\ep_ygh\AppData\Local\Temp\ccqIQPDc.s 			page 27


 1004              		.loc 1 378 8
 1005 02d2 002B     		cmp	r3, #0
 1006 02d4 05D1     		bne	.L65
 380:Projects/STM32F401RE-Nucleo/Examples/MotionControl/MicrosteppingMotor/Src/example_usart.c **** 						&NumericValue)) {
 381:Projects/STM32F401RE-Nucleo/Examples/MotionControl/MicrosteppingMotor/Src/example_usart.c **** #ifdef NUCLEO_USE_USART
 382:Projects/STM32F401RE-Nucleo/Examples/MotionControl/MicrosteppingMotor/Src/example_usart.c **** 					USART_Transmit(&huart2, (uint8_t *)"It is not possible to recognize any numeric value.\r\n\r\n
 1007              		.loc 1 382 6
 1008 02d6 2049     		ldr	r1, .L109+32
 1009 02d8 1848     		ldr	r0, .L109+4
 1010 02da FFF7FEFF 		bl	USART_Transmit
 383:Projects/STM32F401RE-Nucleo/Examples/MotionControl/MicrosteppingMotor/Src/example_usart.c **** #endif
 384:Projects/STM32F401RE-Nucleo/Examples/MotionControl/MicrosteppingMotor/Src/example_usart.c **** 					return RESET;
 1011              		.loc 1 384 13
 1012 02de 0023     		movs	r3, #0
 1013 02e0 A0E3     		b	.L108
 1014              	.L65:
 385:Projects/STM32F401RE-Nucleo/Examples/MotionControl/MicrosteppingMotor/Src/example_usart.c **** 				}
 386:Projects/STM32F401RE-Nucleo/Examples/MotionControl/MicrosteppingMotor/Src/example_usart.c **** 				/* The 2nd application command parameter (as a numeric value) is known */
 387:Projects/STM32F401RE-Nucleo/Examples/MotionControl/MicrosteppingMotor/Src/example_usart.c **** 
 388:Projects/STM32F401RE-Nucleo/Examples/MotionControl/MicrosteppingMotor/Src/example_usart.c **** 				/* Build the others bytes to transmit (VALUE) */
 389:Projects/STM32F401RE-Nucleo/Examples/MotionControl/MicrosteppingMotor/Src/example_usart.c **** 				for (spibyte = 1; spibyte < (PARAMLengthBytes + 1); spibyte++) {
 1015              		.loc 1 389 18
 1016 02e2 0123     		movs	r3, #1
 1017 02e4 BB77     		strb	r3, [r7, #30]
 1018              		.loc 1 389 5
 1019 02e6 12E0     		b	.L66
 1020              	.L67:
 390:Projects/STM32F401RE-Nucleo/Examples/MotionControl/MicrosteppingMotor/Src/example_usart.c **** 					*(pL6470_DaisyChainSpiTxStruct
 391:Projects/STM32F401RE-Nucleo/Examples/MotionControl/MicrosteppingMotor/Src/example_usart.c **** 							+ ((spibyte * L6470DAISYCHAINSIZE) + L6470_Id)) =
 392:Projects/STM32F401RE-Nucleo/Examples/MotionControl/MicrosteppingMotor/Src/example_usart.c **** 							(uint8_t) (NumericValue
 393:Projects/STM32F401RE-Nucleo/Examples/MotionControl/MicrosteppingMotor/Src/example_usart.c **** 									>> (8 * (PARAMLengthBytes - spibyte)));
 1021              		.loc 1 393 10 discriminator 3
 1022 02e8 BA68     		ldr	r2, [r7, #8]
 1023              		.loc 1 393 36 discriminator 3
 1024 02ea 797C     		ldrb	r1, [r7, #17]	@ zero_extendqisi2
 1025 02ec BB7F     		ldrb	r3, [r7, #30]	@ zero_extendqisi2
 1026 02ee CB1A     		subs	r3, r1, r3
 1027              		.loc 1 393 16 discriminator 3
 1028 02f0 DB00     		lsls	r3, r3, #3
 1029              		.loc 1 393 10 discriminator 3
 1030 02f2 22FA03F1 		lsr	r1, r2, r3
 391:Projects/STM32F401RE-Nucleo/Examples/MotionControl/MicrosteppingMotor/Src/example_usart.c **** 							(uint8_t) (NumericValue
 1031              		.loc 1 391 20 discriminator 3
 1032 02f6 BB7F     		ldrb	r3, [r7, #30]	@ zero_extendqisi2
 1033 02f8 5A00     		lsls	r2, r3, #1
 391:Projects/STM32F401RE-Nucleo/Examples/MotionControl/MicrosteppingMotor/Src/example_usart.c **** 							(uint8_t) (NumericValue
 1034              		.loc 1 391 43 discriminator 3
 1035 02fa FB7C     		ldrb	r3, [r7, #19]	@ zero_extendqisi2
 1036 02fc 1344     		add	r3, r3, r2
 1037 02fe 1A46     		mov	r2, r3
 391:Projects/STM32F401RE-Nucleo/Examples/MotionControl/MicrosteppingMotor/Src/example_usart.c **** 							(uint8_t) (NumericValue
 1038              		.loc 1 391 8 discriminator 3
 1039 0300 3B68     		ldr	r3, [r7]
 1040 0302 1344     		add	r3, r3, r2
 392:Projects/STM32F401RE-Nucleo/Examples/MotionControl/MicrosteppingMotor/Src/example_usart.c **** 									>> (8 * (PARAMLengthBytes - spibyte)));
 1041              		.loc 1 392 8 discriminator 3
 1042 0304 CAB2     		uxtb	r2, r1
ARM GAS  C:\Users\ep_ygh\AppData\Local\Temp\ccqIQPDc.s 			page 28


 391:Projects/STM32F401RE-Nucleo/Examples/MotionControl/MicrosteppingMotor/Src/example_usart.c **** 							(uint8_t) (NumericValue
 1043              		.loc 1 391 56 discriminator 3
 1044 0306 1A70     		strb	r2, [r3]
 389:Projects/STM32F401RE-Nucleo/Examples/MotionControl/MicrosteppingMotor/Src/example_usart.c **** 					*(pL6470_DaisyChainSpiTxStruct
 1045              		.loc 1 389 64 discriminator 3
 1046 0308 BB7F     		ldrb	r3, [r7, #30]	@ zero_extendqisi2
 1047 030a 0133     		adds	r3, r3, #1
 1048 030c BB77     		strb	r3, [r7, #30]
 1049              	.L66:
 389:Projects/STM32F401RE-Nucleo/Examples/MotionControl/MicrosteppingMotor/Src/example_usart.c **** 					*(pL6470_DaisyChainSpiTxStruct
 1050              		.loc 1 389 5 discriminator 1
 1051 030e 7A7C     		ldrb	r2, [r7, #17]	@ zero_extendqisi2
 1052 0310 BB7F     		ldrb	r3, [r7, #30]	@ zero_extendqisi2
 1053 0312 9A42     		cmp	r2, r3
 1054 0314 E8D2     		bcs	.L67
 394:Projects/STM32F401RE-Nucleo/Examples/MotionControl/MicrosteppingMotor/Src/example_usart.c **** 				}
 395:Projects/STM32F401RE-Nucleo/Examples/MotionControl/MicrosteppingMotor/Src/example_usart.c **** 				break;
 1055              		.loc 1 395 5
 1056 0316 41E3     		b	.L105
 1057              	.L60:
 396:Projects/STM32F401RE-Nucleo/Examples/MotionControl/MicrosteppingMotor/Src/example_usart.c **** 			case L6470_GETPARAM_ID:
 397:Projects/STM32F401RE-Nucleo/Examples/MotionControl/MicrosteppingMotor/Src/example_usart.c **** 				/* Check for possible Register to be addresses */
 398:Projects/STM32F401RE-Nucleo/Examples/MotionControl/MicrosteppingMotor/Src/example_usart.c **** 				L6470_RegId = (eL6470_RegId_t) 0;
 1058              		.loc 1 398 17
 1059 0318 0023     		movs	r3, #0
 1060 031a BB75     		strb	r3, [r7, #22]
 399:Projects/STM32F401RE-Nucleo/Examples/MotionControl/MicrosteppingMotor/Src/example_usart.c **** 				while (!CompareTwoTextString(
 1061              		.loc 1 399 11
 1062 031c 1EE0     		b	.L68
 1063              	.L69:
 400:Projects/STM32F401RE-Nucleo/Examples/MotionControl/MicrosteppingMotor/Src/example_usart.c **** 						(uint8_t*) (pL6470_TextCommandBundle + CmdTxt_id)->Param[0],
 401:Projects/STM32F401RE-Nucleo/Examples/MotionControl/MicrosteppingMotor/Src/example_usart.c **** 						(uint8_t*) L6470_Register[L6470_RegId].Name)) {
 402:Projects/STM32F401RE-Nucleo/Examples/MotionControl/MicrosteppingMotor/Src/example_usart.c **** 					L6470_RegId++;
 1064              		.loc 1 402 17
 1065 031e BB7D     		ldrb	r3, [r7, #22]	@ zero_extendqisi2
 1066 0320 0133     		adds	r3, r3, #1
 1067 0322 BB75     		strb	r3, [r7, #22]
 403:Projects/STM32F401RE-Nucleo/Examples/MotionControl/MicrosteppingMotor/Src/example_usart.c **** 					if (L6470_RegId == L6470REGIDSIZE) {
 1068              		.loc 1 403 9
 1069 0324 BB7D     		ldrb	r3, [r7, #22]	@ zero_extendqisi2
 1070 0326 192B     		cmp	r3, #25
 1071 0328 18D1     		bne	.L68
 404:Projects/STM32F401RE-Nucleo/Examples/MotionControl/MicrosteppingMotor/Src/example_usart.c **** #ifdef NUCLEO_USE_USART
 405:Projects/STM32F401RE-Nucleo/Examples/MotionControl/MicrosteppingMotor/Src/example_usart.c **** 						USART_Transmit(&huart2, (uint8_t *)"It is not possible to recognize any L6470 register name.\
 1072              		.loc 1 405 7
 1073 032a 0949     		ldr	r1, .L109+24
 1074 032c 0348     		ldr	r0, .L109+4
 1075 032e FFF7FEFF 		bl	USART_Transmit
 406:Projects/STM32F401RE-Nucleo/Examples/MotionControl/MicrosteppingMotor/Src/example_usart.c **** #endif
 407:Projects/STM32F401RE-Nucleo/Examples/MotionControl/MicrosteppingMotor/Src/example_usart.c **** 						return RESET;
 1076              		.loc 1 407 14
 1077 0332 0023     		movs	r3, #0
 1078 0334 76E3     		b	.L108
 1079              	.L110:
 1080 0336 00BF     		.align	2
 1081              	.L109:
 1082 0338 64000000 		.word	.LC3
ARM GAS  C:\Users\ep_ygh\AppData\Local\Temp\ccqIQPDc.s 			page 29


 1083 033c 00000000 		.word	huart2
 1084 0340 00000000 		.word	L6470_DaisyChainMnemonic
 1085 0344 94000000 		.word	.LC4
 1086 0348 00000000 		.word	L6470_ApplicationCommand
 1087 034c D8000000 		.word	.LC5
 1088 0350 28010000 		.word	.LC6
 1089 0354 00000000 		.word	L6470_Register
 1090 0358 68010000 		.word	.LC7
 1091              	.L68:
 400:Projects/STM32F401RE-Nucleo/Examples/MotionControl/MicrosteppingMotor/Src/example_usart.c **** 						(uint8_t*) L6470_Register[L6470_RegId].Name)) {
 1092              		.loc 1 400 44
 1093 035c 3A7F     		ldrb	r2, [r7, #28]	@ zero_extendqisi2
 1094 035e 1346     		mov	r3, r2
 1095 0360 5B00     		lsls	r3, r3, #1
 1096 0362 1344     		add	r3, r3, r2
 1097 0364 1B01     		lsls	r3, r3, #4
 1098 0366 1A46     		mov	r2, r3
 1099 0368 7B68     		ldr	r3, [r7, #4]
 1100 036a 1344     		add	r3, r3, r2
 400:Projects/STM32F401RE-Nucleo/Examples/MotionControl/MicrosteppingMotor/Src/example_usart.c **** 						(uint8_t*) L6470_Register[L6470_RegId].Name)) {
 1101              		.loc 1 400 18
 1102 036c 03F10F00 		add	r0, r3, #15
 401:Projects/STM32F401RE-Nucleo/Examples/MotionControl/MicrosteppingMotor/Src/example_usart.c **** 					L6470_RegId++;
 1103              		.loc 1 401 45
 1104 0370 BA7D     		ldrb	r2, [r7, #22]	@ zero_extendqisi2
 401:Projects/STM32F401RE-Nucleo/Examples/MotionControl/MicrosteppingMotor/Src/example_usart.c **** 					L6470_RegId++;
 1105              		.loc 1 401 18
 1106 0372 1346     		mov	r3, r2
 1107 0374 9B00     		lsls	r3, r3, #2
 1108 0376 1344     		add	r3, r3, r2
 1109 0378 9B00     		lsls	r3, r3, #2
 1110 037a B44A     		ldr	r2, .L111
 1111 037c 1344     		add	r3, r3, r2
 1112 037e 0133     		adds	r3, r3, #1
 399:Projects/STM32F401RE-Nucleo/Examples/MotionControl/MicrosteppingMotor/Src/example_usart.c **** 						(uint8_t*) (pL6470_TextCommandBundle + CmdTxt_id)->Param[0],
 1113              		.loc 1 399 13
 1114 0380 1946     		mov	r1, r3
 1115 0382 FFF7FEFF 		bl	CompareTwoTextString
 1116 0386 0346     		mov	r3, r0
 399:Projects/STM32F401RE-Nucleo/Examples/MotionControl/MicrosteppingMotor/Src/example_usart.c **** 						(uint8_t*) (pL6470_TextCommandBundle + CmdTxt_id)->Param[0],
 1117              		.loc 1 399 11
 1118 0388 002B     		cmp	r3, #0
 1119 038a C8D0     		beq	.L69
 408:Projects/STM32F401RE-Nucleo/Examples/MotionControl/MicrosteppingMotor/Src/example_usart.c **** 					}
 409:Projects/STM32F401RE-Nucleo/Examples/MotionControl/MicrosteppingMotor/Src/example_usart.c **** 				}
 410:Projects/STM32F401RE-Nucleo/Examples/MotionControl/MicrosteppingMotor/Src/example_usart.c **** 				/* The 1st application command parameter (as PARAM) is known ************ */
 411:Projects/STM32F401RE-Nucleo/Examples/MotionControl/MicrosteppingMotor/Src/example_usart.c **** 				*(pL6470_DaisyChainSpiTxStruct
 412:Projects/STM32F401RE-Nucleo/Examples/MotionControl/MicrosteppingMotor/Src/example_usart.c **** 						+ ((0 * L6470DAISYCHAINSIZE) + L6470_Id)) = 0x20
 413:Projects/STM32F401RE-Nucleo/Examples/MotionControl/MicrosteppingMotor/Src/example_usart.c **** 						| L6470_Register[L6470_RegId].Address;
 1120              		.loc 1 413 36
 1121 038c BA7D     		ldrb	r2, [r7, #22]	@ zero_extendqisi2
 1122 038e AF49     		ldr	r1, .L111
 1123 0390 1346     		mov	r3, r2
 1124 0392 9B00     		lsls	r3, r3, #2
 1125 0394 1344     		add	r3, r3, r2
 1126 0396 9B00     		lsls	r3, r3, #2
 1127 0398 0B44     		add	r3, r3, r1
ARM GAS  C:\Users\ep_ygh\AppData\Local\Temp\ccqIQPDc.s 			page 30


 1128 039a 1A78     		ldrb	r2, [r3]	@ zero_extendqisi2
 412:Projects/STM32F401RE-Nucleo/Examples/MotionControl/MicrosteppingMotor/Src/example_usart.c **** 						| L6470_Register[L6470_RegId].Address;
 1129              		.loc 1 412 36
 1130 039c FB7C     		ldrb	r3, [r7, #19]	@ zero_extendqisi2
 412:Projects/STM32F401RE-Nucleo/Examples/MotionControl/MicrosteppingMotor/Src/example_usart.c **** 						| L6470_Register[L6470_RegId].Address;
 1131              		.loc 1 412 7
 1132 039e 3968     		ldr	r1, [r7]
 1133 03a0 0B44     		add	r3, r3, r1
 412:Projects/STM32F401RE-Nucleo/Examples/MotionControl/MicrosteppingMotor/Src/example_usart.c **** 						| L6470_Register[L6470_RegId].Address;
 1134              		.loc 1 412 49
 1135 03a2 42F02002 		orr	r2, r2, #32
 1136 03a6 D2B2     		uxtb	r2, r2
 1137 03a8 1A70     		strb	r2, [r3]
 414:Projects/STM32F401RE-Nucleo/Examples/MotionControl/MicrosteppingMotor/Src/example_usart.c **** 
 415:Projects/STM32F401RE-Nucleo/Examples/MotionControl/MicrosteppingMotor/Src/example_usart.c **** 				/* The length, in byte, of this register (PARAM) is... */
 416:Projects/STM32F401RE-Nucleo/Examples/MotionControl/MicrosteppingMotor/Src/example_usart.c **** 				PARAMLengthBytes = L6470_Register[L6470_RegId].LengthByte;
 1138              		.loc 1 416 51
 1139 03aa BA7D     		ldrb	r2, [r7, #22]	@ zero_extendqisi2
 1140              		.loc 1 416 22
 1141 03ac A749     		ldr	r1, .L111
 1142 03ae 1346     		mov	r3, r2
 1143 03b0 9B00     		lsls	r3, r3, #2
 1144 03b2 1344     		add	r3, r3, r2
 1145 03b4 9B00     		lsls	r3, r3, #2
 1146 03b6 0B44     		add	r3, r3, r1
 1147 03b8 0E33     		adds	r3, r3, #14
 1148 03ba 1B78     		ldrb	r3, [r3]
 1149 03bc 7B74     		strb	r3, [r7, #17]
 417:Projects/STM32F401RE-Nucleo/Examples/MotionControl/MicrosteppingMotor/Src/example_usart.c **** 
 418:Projects/STM32F401RE-Nucleo/Examples/MotionControl/MicrosteppingMotor/Src/example_usart.c **** 				/* Build the others bytes to transmit (VALUE) */
 419:Projects/STM32F401RE-Nucleo/Examples/MotionControl/MicrosteppingMotor/Src/example_usart.c **** 				for (spibyte = 1; spibyte < (PARAMLengthBytes + 1); spibyte++) {
 1150              		.loc 1 419 18
 1151 03be 0123     		movs	r3, #1
 1152 03c0 BB77     		strb	r3, [r7, #30]
 1153              		.loc 1 419 5
 1154 03c2 0BE0     		b	.L70
 1155              	.L71:
 420:Projects/STM32F401RE-Nucleo/Examples/MotionControl/MicrosteppingMotor/Src/example_usart.c **** 					*(pL6470_DaisyChainSpiTxStruct
 421:Projects/STM32F401RE-Nucleo/Examples/MotionControl/MicrosteppingMotor/Src/example_usart.c **** 							+ ((spibyte * L6470DAISYCHAINSIZE) + L6470_Id)) =
 1156              		.loc 1 421 20 discriminator 3
 1157 03c4 BB7F     		ldrb	r3, [r7, #30]	@ zero_extendqisi2
 1158 03c6 5A00     		lsls	r2, r3, #1
 1159              		.loc 1 421 43 discriminator 3
 1160 03c8 FB7C     		ldrb	r3, [r7, #19]	@ zero_extendqisi2
 1161 03ca 1344     		add	r3, r3, r2
 1162 03cc 1A46     		mov	r2, r3
 1163              		.loc 1 421 8 discriminator 3
 1164 03ce 3B68     		ldr	r3, [r7]
 1165 03d0 1344     		add	r3, r3, r2
 1166              		.loc 1 421 56 discriminator 3
 1167 03d2 0022     		movs	r2, #0
 1168 03d4 1A70     		strb	r2, [r3]
 419:Projects/STM32F401RE-Nucleo/Examples/MotionControl/MicrosteppingMotor/Src/example_usart.c **** 					*(pL6470_DaisyChainSpiTxStruct
 1169              		.loc 1 419 64 discriminator 3
 1170 03d6 BB7F     		ldrb	r3, [r7, #30]	@ zero_extendqisi2
 1171 03d8 0133     		adds	r3, r3, #1
 1172 03da BB77     		strb	r3, [r7, #30]
ARM GAS  C:\Users\ep_ygh\AppData\Local\Temp\ccqIQPDc.s 			page 31


 1173              	.L70:
 419:Projects/STM32F401RE-Nucleo/Examples/MotionControl/MicrosteppingMotor/Src/example_usart.c **** 					*(pL6470_DaisyChainSpiTxStruct
 1174              		.loc 1 419 5 discriminator 1
 1175 03dc 7A7C     		ldrb	r2, [r7, #17]	@ zero_extendqisi2
 1176 03de BB7F     		ldrb	r3, [r7, #30]	@ zero_extendqisi2
 1177 03e0 9A42     		cmp	r2, r3
 1178 03e2 EFD2     		bcs	.L71
 422:Projects/STM32F401RE-Nucleo/Examples/MotionControl/MicrosteppingMotor/Src/example_usart.c **** 							0x00;
 423:Projects/STM32F401RE-Nucleo/Examples/MotionControl/MicrosteppingMotor/Src/example_usart.c **** 				}
 424:Projects/STM32F401RE-Nucleo/Examples/MotionControl/MicrosteppingMotor/Src/example_usart.c **** 				break;
 1179              		.loc 1 424 5
 1180 03e4 DAE2     		b	.L105
 1181              	.L59:
 425:Projects/STM32F401RE-Nucleo/Examples/MotionControl/MicrosteppingMotor/Src/example_usart.c **** 			case L6470_RUN_ID:
 426:Projects/STM32F401RE-Nucleo/Examples/MotionControl/MicrosteppingMotor/Src/example_usart.c **** 				/* Checks the Motor Direction that has been entered (as 1st parameter) */
 427:Projects/STM32F401RE-Nucleo/Examples/MotionControl/MicrosteppingMotor/Src/example_usart.c **** 				L6470_DirId = (eL6470_DirId_t) 0;
 1182              		.loc 1 427 17
 1183 03e6 0023     		movs	r3, #0
 1184 03e8 7B75     		strb	r3, [r7, #21]
 428:Projects/STM32F401RE-Nucleo/Examples/MotionControl/MicrosteppingMotor/Src/example_usart.c **** 				while (!CompareTwoTextString(
 1185              		.loc 1 428 11
 1186 03ea 0BE0     		b	.L72
 1187              	.L73:
 429:Projects/STM32F401RE-Nucleo/Examples/MotionControl/MicrosteppingMotor/Src/example_usart.c **** 						(uint8_t*) (pL6470_TextCommandBundle + CmdTxt_id)->Param[0],
 430:Projects/STM32F401RE-Nucleo/Examples/MotionControl/MicrosteppingMotor/Src/example_usart.c **** 						(uint8_t*) L6470_Direction[L6470_DirId].Mnemonic)) {
 431:Projects/STM32F401RE-Nucleo/Examples/MotionControl/MicrosteppingMotor/Src/example_usart.c **** 					L6470_DirId++;
 1188              		.loc 1 431 17
 1189 03ec 7B7D     		ldrb	r3, [r7, #21]	@ zero_extendqisi2
 1190 03ee 0133     		adds	r3, r3, #1
 1191 03f0 7B75     		strb	r3, [r7, #21]
 432:Projects/STM32F401RE-Nucleo/Examples/MotionControl/MicrosteppingMotor/Src/example_usart.c **** 					if (L6470_DirId == L6470DIRIDSIZE) {
 1192              		.loc 1 432 9
 1193 03f2 7B7D     		ldrb	r3, [r7, #21]	@ zero_extendqisi2
 1194 03f4 022B     		cmp	r3, #2
 1195 03f6 05D1     		bne	.L72
 433:Projects/STM32F401RE-Nucleo/Examples/MotionControl/MicrosteppingMotor/Src/example_usart.c **** #ifdef NUCLEO_USE_USART
 434:Projects/STM32F401RE-Nucleo/Examples/MotionControl/MicrosteppingMotor/Src/example_usart.c **** 						USART_Transmit(&huart2, (uint8_t *)"It is not possible to recognize any direction.\r\n\r\n");
 1196              		.loc 1 434 7
 1197 03f8 9549     		ldr	r1, .L111+4
 1198 03fa 9648     		ldr	r0, .L111+8
 1199 03fc FFF7FEFF 		bl	USART_Transmit
 435:Projects/STM32F401RE-Nucleo/Examples/MotionControl/MicrosteppingMotor/Src/example_usart.c **** #endif
 436:Projects/STM32F401RE-Nucleo/Examples/MotionControl/MicrosteppingMotor/Src/example_usart.c **** 						return RESET;
 1200              		.loc 1 436 14
 1201 0400 0023     		movs	r3, #0
 1202 0402 0FE3     		b	.L108
 1203              	.L72:
 429:Projects/STM32F401RE-Nucleo/Examples/MotionControl/MicrosteppingMotor/Src/example_usart.c **** 						(uint8_t*) L6470_Direction[L6470_DirId].Mnemonic)) {
 1204              		.loc 1 429 44
 1205 0404 3A7F     		ldrb	r2, [r7, #28]	@ zero_extendqisi2
 1206 0406 1346     		mov	r3, r2
 1207 0408 5B00     		lsls	r3, r3, #1
 1208 040a 1344     		add	r3, r3, r2
 1209 040c 1B01     		lsls	r3, r3, #4
 1210 040e 1A46     		mov	r2, r3
 1211 0410 7B68     		ldr	r3, [r7, #4]
 1212 0412 1344     		add	r3, r3, r2
ARM GAS  C:\Users\ep_ygh\AppData\Local\Temp\ccqIQPDc.s 			page 32


 429:Projects/STM32F401RE-Nucleo/Examples/MotionControl/MicrosteppingMotor/Src/example_usart.c **** 						(uint8_t*) L6470_Direction[L6470_DirId].Mnemonic)) {
 1213              		.loc 1 429 18
 1214 0414 03F10F00 		add	r0, r3, #15
 430:Projects/STM32F401RE-Nucleo/Examples/MotionControl/MicrosteppingMotor/Src/example_usart.c **** 					L6470_DirId++;
 1215              		.loc 1 430 46
 1216 0418 7A7D     		ldrb	r2, [r7, #21]	@ zero_extendqisi2
 430:Projects/STM32F401RE-Nucleo/Examples/MotionControl/MicrosteppingMotor/Src/example_usart.c **** 					L6470_DirId++;
 1217              		.loc 1 430 18
 1218 041a 1346     		mov	r3, r2
 1219 041c DB00     		lsls	r3, r3, #3
 1220 041e 1344     		add	r3, r3, r2
 1221 0420 8D4A     		ldr	r2, .L111+12
 1222 0422 1344     		add	r3, r3, r2
 428:Projects/STM32F401RE-Nucleo/Examples/MotionControl/MicrosteppingMotor/Src/example_usart.c **** 						(uint8_t*) (pL6470_TextCommandBundle + CmdTxt_id)->Param[0],
 1223              		.loc 1 428 13
 1224 0424 1946     		mov	r1, r3
 1225 0426 FFF7FEFF 		bl	CompareTwoTextString
 1226 042a 0346     		mov	r3, r0
 428:Projects/STM32F401RE-Nucleo/Examples/MotionControl/MicrosteppingMotor/Src/example_usart.c **** 						(uint8_t*) (pL6470_TextCommandBundle + CmdTxt_id)->Param[0],
 1227              		.loc 1 428 11
 1228 042c 002B     		cmp	r3, #0
 1229 042e DDD0     		beq	.L73
 437:Projects/STM32F401RE-Nucleo/Examples/MotionControl/MicrosteppingMotor/Src/example_usart.c **** 					}
 438:Projects/STM32F401RE-Nucleo/Examples/MotionControl/MicrosteppingMotor/Src/example_usart.c **** 				}
 439:Projects/STM32F401RE-Nucleo/Examples/MotionControl/MicrosteppingMotor/Src/example_usart.c **** 				/* The 1st application command parameter (as DIR) is known ************** */
 440:Projects/STM32F401RE-Nucleo/Examples/MotionControl/MicrosteppingMotor/Src/example_usart.c **** 				*(pL6470_DaisyChainSpiTxStruct
 441:Projects/STM32F401RE-Nucleo/Examples/MotionControl/MicrosteppingMotor/Src/example_usart.c **** 						+ ((0 * L6470DAISYCHAINSIZE) + L6470_Id)) = 0x50
 1230              		.loc 1 441 36
 1231 0430 FB7C     		ldrb	r3, [r7, #19]	@ zero_extendqisi2
 1232              		.loc 1 441 7
 1233 0432 3A68     		ldr	r2, [r7]
 1234 0434 1344     		add	r3, r3, r2
 1235              		.loc 1 441 49
 1236 0436 7A7D     		ldrb	r2, [r7, #21]
 1237 0438 42F05002 		orr	r2, r2, #80
 1238 043c D2B2     		uxtb	r2, r2
 1239 043e 1A70     		strb	r2, [r3]
 442:Projects/STM32F401RE-Nucleo/Examples/MotionControl/MicrosteppingMotor/Src/example_usart.c **** 						| L6470_DirId;
 443:Projects/STM32F401RE-Nucleo/Examples/MotionControl/MicrosteppingMotor/Src/example_usart.c **** 
 444:Projects/STM32F401RE-Nucleo/Examples/MotionControl/MicrosteppingMotor/Src/example_usart.c **** 				/* Checks the numeric parameter that has been entered (as 2nd parameter) */
 445:Projects/STM32F401RE-Nucleo/Examples/MotionControl/MicrosteppingMotor/Src/example_usart.c **** 				if (!str2num(
 446:Projects/STM32F401RE-Nucleo/Examples/MotionControl/MicrosteppingMotor/Src/example_usart.c **** 						(uint8_t*) (pL6470_TextCommandBundle + CmdTxt_id)->Param[1],
 1240              		.loc 1 446 44
 1241 0440 3A7F     		ldrb	r2, [r7, #28]	@ zero_extendqisi2
 1242 0442 1346     		mov	r3, r2
 1243 0444 5B00     		lsls	r3, r3, #1
 1244 0446 1344     		add	r3, r3, r2
 1245 0448 1B01     		lsls	r3, r3, #4
 1246 044a 1A46     		mov	r2, r3
 1247 044c 7B68     		ldr	r3, [r7, #4]
 1248 044e 1344     		add	r3, r3, r2
 1249              		.loc 1 446 18
 1250 0450 1A33     		adds	r3, r3, #26
 445:Projects/STM32F401RE-Nucleo/Examples/MotionControl/MicrosteppingMotor/Src/example_usart.c **** 						(uint8_t*) (pL6470_TextCommandBundle + CmdTxt_id)->Param[1],
 1251              		.loc 1 445 10
 1252 0452 07F10802 		add	r2, r7, #8
 1253 0456 1146     		mov	r1, r2
ARM GAS  C:\Users\ep_ygh\AppData\Local\Temp\ccqIQPDc.s 			page 33


 1254 0458 1846     		mov	r0, r3
 1255 045a FFF7FEFF 		bl	str2num
 1256 045e 0346     		mov	r3, r0
 445:Projects/STM32F401RE-Nucleo/Examples/MotionControl/MicrosteppingMotor/Src/example_usart.c **** 						(uint8_t*) (pL6470_TextCommandBundle + CmdTxt_id)->Param[1],
 1257              		.loc 1 445 8
 1258 0460 002B     		cmp	r3, #0
 1259 0462 05D1     		bne	.L74
 447:Projects/STM32F401RE-Nucleo/Examples/MotionControl/MicrosteppingMotor/Src/example_usart.c **** 						&NumericValue)) {
 448:Projects/STM32F401RE-Nucleo/Examples/MotionControl/MicrosteppingMotor/Src/example_usart.c **** #ifdef NUCLEO_USE_USART
 449:Projects/STM32F401RE-Nucleo/Examples/MotionControl/MicrosteppingMotor/Src/example_usart.c **** 					USART_Transmit(&huart2, (uint8_t *)"It is not possible to recognize any numeric value.\r\n\r\n
 1260              		.loc 1 449 6
 1261 0464 7D49     		ldr	r1, .L111+16
 1262 0466 7B48     		ldr	r0, .L111+8
 1263 0468 FFF7FEFF 		bl	USART_Transmit
 450:Projects/STM32F401RE-Nucleo/Examples/MotionControl/MicrosteppingMotor/Src/example_usart.c **** #endif
 451:Projects/STM32F401RE-Nucleo/Examples/MotionControl/MicrosteppingMotor/Src/example_usart.c **** 					return RESET;
 1264              		.loc 1 451 13
 1265 046c 0023     		movs	r3, #0
 1266 046e D9E2     		b	.L108
 1267              	.L74:
 452:Projects/STM32F401RE-Nucleo/Examples/MotionControl/MicrosteppingMotor/Src/example_usart.c **** 				}
 453:Projects/STM32F401RE-Nucleo/Examples/MotionControl/MicrosteppingMotor/Src/example_usart.c **** 				/* The 2nd application command parameter (as a numeric value) is known */
 454:Projects/STM32F401RE-Nucleo/Examples/MotionControl/MicrosteppingMotor/Src/example_usart.c **** 
 455:Projects/STM32F401RE-Nucleo/Examples/MotionControl/MicrosteppingMotor/Src/example_usart.c **** 				/* Build the others bytes to transmit (SPD) */
 456:Projects/STM32F401RE-Nucleo/Examples/MotionControl/MicrosteppingMotor/Src/example_usart.c **** 				for (spibyte = 1; spibyte < (3 + 1); spibyte++) {
 1268              		.loc 1 456 18
 1269 0470 0123     		movs	r3, #1
 1270 0472 BB77     		strb	r3, [r7, #30]
 1271              		.loc 1 456 5
 1272 0474 12E0     		b	.L75
 1273              	.L76:
 457:Projects/STM32F401RE-Nucleo/Examples/MotionControl/MicrosteppingMotor/Src/example_usart.c **** 					*(pL6470_DaisyChainSpiTxStruct
 458:Projects/STM32F401RE-Nucleo/Examples/MotionControl/MicrosteppingMotor/Src/example_usart.c **** 							+ ((spibyte * L6470DAISYCHAINSIZE) + L6470_Id)) =
 459:Projects/STM32F401RE-Nucleo/Examples/MotionControl/MicrosteppingMotor/Src/example_usart.c **** 							(uint8_t) (NumericValue >> (8 * (3 - spibyte)));
 1274              		.loc 1 459 32 discriminator 3
 1275 0476 BA68     		ldr	r2, [r7, #8]
 1276              		.loc 1 459 43 discriminator 3
 1277 0478 BB7F     		ldrb	r3, [r7, #30]	@ zero_extendqisi2
 1278 047a C3F10303 		rsb	r3, r3, #3
 1279              		.loc 1 459 38 discriminator 3
 1280 047e DB00     		lsls	r3, r3, #3
 1281              		.loc 1 459 32 discriminator 3
 1282 0480 22FA03F1 		lsr	r1, r2, r3
 458:Projects/STM32F401RE-Nucleo/Examples/MotionControl/MicrosteppingMotor/Src/example_usart.c **** 							(uint8_t) (NumericValue >> (8 * (3 - spibyte)));
 1283              		.loc 1 458 20 discriminator 3
 1284 0484 BB7F     		ldrb	r3, [r7, #30]	@ zero_extendqisi2
 1285 0486 5A00     		lsls	r2, r3, #1
 458:Projects/STM32F401RE-Nucleo/Examples/MotionControl/MicrosteppingMotor/Src/example_usart.c **** 							(uint8_t) (NumericValue >> (8 * (3 - spibyte)));
 1286              		.loc 1 458 43 discriminator 3
 1287 0488 FB7C     		ldrb	r3, [r7, #19]	@ zero_extendqisi2
 1288 048a 1344     		add	r3, r3, r2
 1289 048c 1A46     		mov	r2, r3
 458:Projects/STM32F401RE-Nucleo/Examples/MotionControl/MicrosteppingMotor/Src/example_usart.c **** 							(uint8_t) (NumericValue >> (8 * (3 - spibyte)));
 1290              		.loc 1 458 8 discriminator 3
 1291 048e 3B68     		ldr	r3, [r7]
 1292 0490 1344     		add	r3, r3, r2
 1293              		.loc 1 459 8 discriminator 3
ARM GAS  C:\Users\ep_ygh\AppData\Local\Temp\ccqIQPDc.s 			page 34


 1294 0492 CAB2     		uxtb	r2, r1
 458:Projects/STM32F401RE-Nucleo/Examples/MotionControl/MicrosteppingMotor/Src/example_usart.c **** 							(uint8_t) (NumericValue >> (8 * (3 - spibyte)));
 1295              		.loc 1 458 56 discriminator 3
 1296 0494 1A70     		strb	r2, [r3]
 456:Projects/STM32F401RE-Nucleo/Examples/MotionControl/MicrosteppingMotor/Src/example_usart.c **** 					*(pL6470_DaisyChainSpiTxStruct
 1297              		.loc 1 456 49 discriminator 3
 1298 0496 BB7F     		ldrb	r3, [r7, #30]	@ zero_extendqisi2
 1299 0498 0133     		adds	r3, r3, #1
 1300 049a BB77     		strb	r3, [r7, #30]
 1301              	.L75:
 456:Projects/STM32F401RE-Nucleo/Examples/MotionControl/MicrosteppingMotor/Src/example_usart.c **** 					*(pL6470_DaisyChainSpiTxStruct
 1302              		.loc 1 456 5 discriminator 1
 1303 049c BB7F     		ldrb	r3, [r7, #30]	@ zero_extendqisi2
 1304 049e 032B     		cmp	r3, #3
 1305 04a0 E9D9     		bls	.L76
 460:Projects/STM32F401RE-Nucleo/Examples/MotionControl/MicrosteppingMotor/Src/example_usart.c **** 				}
 461:Projects/STM32F401RE-Nucleo/Examples/MotionControl/MicrosteppingMotor/Src/example_usart.c **** 				break;
 1306              		.loc 1 461 5
 1307 04a2 7BE2     		b	.L105
 1308              	.L58:
 462:Projects/STM32F401RE-Nucleo/Examples/MotionControl/MicrosteppingMotor/Src/example_usart.c **** 			case L6470_STEPCLOCK_ID:
 463:Projects/STM32F401RE-Nucleo/Examples/MotionControl/MicrosteppingMotor/Src/example_usart.c **** 				/* Checks the Motor Direction that has been entered */
 464:Projects/STM32F401RE-Nucleo/Examples/MotionControl/MicrosteppingMotor/Src/example_usart.c **** 				L6470_DirId = (eL6470_DirId_t) 0;
 1309              		.loc 1 464 17
 1310 04a4 0023     		movs	r3, #0
 1311 04a6 7B75     		strb	r3, [r7, #21]
 465:Projects/STM32F401RE-Nucleo/Examples/MotionControl/MicrosteppingMotor/Src/example_usart.c **** 				while (!CompareTwoTextString(
 1312              		.loc 1 465 11
 1313 04a8 0BE0     		b	.L77
 1314              	.L78:
 466:Projects/STM32F401RE-Nucleo/Examples/MotionControl/MicrosteppingMotor/Src/example_usart.c **** 						(uint8_t*) (pL6470_TextCommandBundle + CmdTxt_id)->Param[0],
 467:Projects/STM32F401RE-Nucleo/Examples/MotionControl/MicrosteppingMotor/Src/example_usart.c **** 						(uint8_t*) L6470_Direction[L6470_DirId].Mnemonic)) {
 468:Projects/STM32F401RE-Nucleo/Examples/MotionControl/MicrosteppingMotor/Src/example_usart.c **** 					L6470_DirId++;
 1315              		.loc 1 468 17
 1316 04aa 7B7D     		ldrb	r3, [r7, #21]	@ zero_extendqisi2
 1317 04ac 0133     		adds	r3, r3, #1
 1318 04ae 7B75     		strb	r3, [r7, #21]
 469:Projects/STM32F401RE-Nucleo/Examples/MotionControl/MicrosteppingMotor/Src/example_usart.c **** 					if (L6470_DirId == L6470DIRIDSIZE) {
 1319              		.loc 1 469 9
 1320 04b0 7B7D     		ldrb	r3, [r7, #21]	@ zero_extendqisi2
 1321 04b2 022B     		cmp	r3, #2
 1322 04b4 05D1     		bne	.L77
 470:Projects/STM32F401RE-Nucleo/Examples/MotionControl/MicrosteppingMotor/Src/example_usart.c **** #ifdef NUCLEO_USE_USART
 471:Projects/STM32F401RE-Nucleo/Examples/MotionControl/MicrosteppingMotor/Src/example_usart.c **** 						USART_Transmit(&huart2, (uint8_t *)"It is not possible to recognize any direction.\r\n\r\n");
 1323              		.loc 1 471 7
 1324 04b6 6649     		ldr	r1, .L111+4
 1325 04b8 6648     		ldr	r0, .L111+8
 1326 04ba FFF7FEFF 		bl	USART_Transmit
 472:Projects/STM32F401RE-Nucleo/Examples/MotionControl/MicrosteppingMotor/Src/example_usart.c **** #endif
 473:Projects/STM32F401RE-Nucleo/Examples/MotionControl/MicrosteppingMotor/Src/example_usart.c **** 						return RESET;
 1327              		.loc 1 473 14
 1328 04be 0023     		movs	r3, #0
 1329 04c0 B0E2     		b	.L108
 1330              	.L77:
 466:Projects/STM32F401RE-Nucleo/Examples/MotionControl/MicrosteppingMotor/Src/example_usart.c **** 						(uint8_t*) L6470_Direction[L6470_DirId].Mnemonic)) {
 1331              		.loc 1 466 44
 1332 04c2 3A7F     		ldrb	r2, [r7, #28]	@ zero_extendqisi2
ARM GAS  C:\Users\ep_ygh\AppData\Local\Temp\ccqIQPDc.s 			page 35


 1333 04c4 1346     		mov	r3, r2
 1334 04c6 5B00     		lsls	r3, r3, #1
 1335 04c8 1344     		add	r3, r3, r2
 1336 04ca 1B01     		lsls	r3, r3, #4
 1337 04cc 1A46     		mov	r2, r3
 1338 04ce 7B68     		ldr	r3, [r7, #4]
 1339 04d0 1344     		add	r3, r3, r2
 466:Projects/STM32F401RE-Nucleo/Examples/MotionControl/MicrosteppingMotor/Src/example_usart.c **** 						(uint8_t*) L6470_Direction[L6470_DirId].Mnemonic)) {
 1340              		.loc 1 466 18
 1341 04d2 03F10F00 		add	r0, r3, #15
 467:Projects/STM32F401RE-Nucleo/Examples/MotionControl/MicrosteppingMotor/Src/example_usart.c **** 					L6470_DirId++;
 1342              		.loc 1 467 46
 1343 04d6 7A7D     		ldrb	r2, [r7, #21]	@ zero_extendqisi2
 467:Projects/STM32F401RE-Nucleo/Examples/MotionControl/MicrosteppingMotor/Src/example_usart.c **** 					L6470_DirId++;
 1344              		.loc 1 467 18
 1345 04d8 1346     		mov	r3, r2
 1346 04da DB00     		lsls	r3, r3, #3
 1347 04dc 1344     		add	r3, r3, r2
 1348 04de 5E4A     		ldr	r2, .L111+12
 1349 04e0 1344     		add	r3, r3, r2
 465:Projects/STM32F401RE-Nucleo/Examples/MotionControl/MicrosteppingMotor/Src/example_usart.c **** 						(uint8_t*) (pL6470_TextCommandBundle + CmdTxt_id)->Param[0],
 1350              		.loc 1 465 13
 1351 04e2 1946     		mov	r1, r3
 1352 04e4 FFF7FEFF 		bl	CompareTwoTextString
 1353 04e8 0346     		mov	r3, r0
 465:Projects/STM32F401RE-Nucleo/Examples/MotionControl/MicrosteppingMotor/Src/example_usart.c **** 						(uint8_t*) (pL6470_TextCommandBundle + CmdTxt_id)->Param[0],
 1354              		.loc 1 465 11
 1355 04ea 002B     		cmp	r3, #0
 1356 04ec DDD0     		beq	.L78
 474:Projects/STM32F401RE-Nucleo/Examples/MotionControl/MicrosteppingMotor/Src/example_usart.c **** 					}
 475:Projects/STM32F401RE-Nucleo/Examples/MotionControl/MicrosteppingMotor/Src/example_usart.c **** 				}
 476:Projects/STM32F401RE-Nucleo/Examples/MotionControl/MicrosteppingMotor/Src/example_usart.c **** 				/* The application command parameter (as DIR) is known ************** */
 477:Projects/STM32F401RE-Nucleo/Examples/MotionControl/MicrosteppingMotor/Src/example_usart.c **** 				*(pL6470_DaisyChainSpiTxStruct
 478:Projects/STM32F401RE-Nucleo/Examples/MotionControl/MicrosteppingMotor/Src/example_usart.c **** 						+ ((0 * L6470DAISYCHAINSIZE) + L6470_Id)) = 0x58
 1357              		.loc 1 478 36
 1358 04ee FB7C     		ldrb	r3, [r7, #19]	@ zero_extendqisi2
 1359              		.loc 1 478 7
 1360 04f0 3A68     		ldr	r2, [r7]
 1361 04f2 1344     		add	r3, r3, r2
 1362              		.loc 1 478 49
 1363 04f4 7A7D     		ldrb	r2, [r7, #21]
 1364 04f6 42F05802 		orr	r2, r2, #88
 1365 04fa D2B2     		uxtb	r2, r2
 1366 04fc 1A70     		strb	r2, [r3]
 479:Projects/STM32F401RE-Nucleo/Examples/MotionControl/MicrosteppingMotor/Src/example_usart.c **** 						| L6470_DirId;
 480:Projects/STM32F401RE-Nucleo/Examples/MotionControl/MicrosteppingMotor/Src/example_usart.c **** 				break;
 1367              		.loc 1 480 5
 1368 04fe 4DE2     		b	.L105
 1369              	.L57:
 481:Projects/STM32F401RE-Nucleo/Examples/MotionControl/MicrosteppingMotor/Src/example_usart.c **** 			case L6470_MOVE_ID:
 482:Projects/STM32F401RE-Nucleo/Examples/MotionControl/MicrosteppingMotor/Src/example_usart.c **** 				/* Checks the Motor Direction that has been entered (as 1st parameter) */
 483:Projects/STM32F401RE-Nucleo/Examples/MotionControl/MicrosteppingMotor/Src/example_usart.c **** 				L6470_DirId = (eL6470_DirId_t) 0;
 1370              		.loc 1 483 17
 1371 0500 0023     		movs	r3, #0
 1372 0502 7B75     		strb	r3, [r7, #21]
 484:Projects/STM32F401RE-Nucleo/Examples/MotionControl/MicrosteppingMotor/Src/example_usart.c **** 				while (!CompareTwoTextString(
 1373              		.loc 1 484 11
ARM GAS  C:\Users\ep_ygh\AppData\Local\Temp\ccqIQPDc.s 			page 36


 1374 0504 0BE0     		b	.L79
 1375              	.L80:
 485:Projects/STM32F401RE-Nucleo/Examples/MotionControl/MicrosteppingMotor/Src/example_usart.c **** 						(uint8_t*) (pL6470_TextCommandBundle + CmdTxt_id)->Param[0],
 486:Projects/STM32F401RE-Nucleo/Examples/MotionControl/MicrosteppingMotor/Src/example_usart.c **** 						(uint8_t*) L6470_Direction[L6470_DirId].Mnemonic)) {
 487:Projects/STM32F401RE-Nucleo/Examples/MotionControl/MicrosteppingMotor/Src/example_usart.c **** 					L6470_DirId++;
 1376              		.loc 1 487 17
 1377 0506 7B7D     		ldrb	r3, [r7, #21]	@ zero_extendqisi2
 1378 0508 0133     		adds	r3, r3, #1
 1379 050a 7B75     		strb	r3, [r7, #21]
 488:Projects/STM32F401RE-Nucleo/Examples/MotionControl/MicrosteppingMotor/Src/example_usart.c **** 					if (L6470_DirId == L6470DIRIDSIZE) {
 1380              		.loc 1 488 9
 1381 050c 7B7D     		ldrb	r3, [r7, #21]	@ zero_extendqisi2
 1382 050e 022B     		cmp	r3, #2
 1383 0510 05D1     		bne	.L79
 489:Projects/STM32F401RE-Nucleo/Examples/MotionControl/MicrosteppingMotor/Src/example_usart.c **** #ifdef NUCLEO_USE_USART
 490:Projects/STM32F401RE-Nucleo/Examples/MotionControl/MicrosteppingMotor/Src/example_usart.c **** 						USART_Transmit(&huart2, (uint8_t *)"It is not possible to recognize any direction.\r\n\r\n");
 1384              		.loc 1 490 7
 1385 0512 4F49     		ldr	r1, .L111+4
 1386 0514 4F48     		ldr	r0, .L111+8
 1387 0516 FFF7FEFF 		bl	USART_Transmit
 491:Projects/STM32F401RE-Nucleo/Examples/MotionControl/MicrosteppingMotor/Src/example_usart.c **** #endif
 492:Projects/STM32F401RE-Nucleo/Examples/MotionControl/MicrosteppingMotor/Src/example_usart.c **** 						return RESET;
 1388              		.loc 1 492 14
 1389 051a 0023     		movs	r3, #0
 1390 051c 82E2     		b	.L108
 1391              	.L79:
 485:Projects/STM32F401RE-Nucleo/Examples/MotionControl/MicrosteppingMotor/Src/example_usart.c **** 						(uint8_t*) L6470_Direction[L6470_DirId].Mnemonic)) {
 1392              		.loc 1 485 44
 1393 051e 3A7F     		ldrb	r2, [r7, #28]	@ zero_extendqisi2
 1394 0520 1346     		mov	r3, r2
 1395 0522 5B00     		lsls	r3, r3, #1
 1396 0524 1344     		add	r3, r3, r2
 1397 0526 1B01     		lsls	r3, r3, #4
 1398 0528 1A46     		mov	r2, r3
 1399 052a 7B68     		ldr	r3, [r7, #4]
 1400 052c 1344     		add	r3, r3, r2
 485:Projects/STM32F401RE-Nucleo/Examples/MotionControl/MicrosteppingMotor/Src/example_usart.c **** 						(uint8_t*) L6470_Direction[L6470_DirId].Mnemonic)) {
 1401              		.loc 1 485 18
 1402 052e 03F10F00 		add	r0, r3, #15
 486:Projects/STM32F401RE-Nucleo/Examples/MotionControl/MicrosteppingMotor/Src/example_usart.c **** 					L6470_DirId++;
 1403              		.loc 1 486 46
 1404 0532 7A7D     		ldrb	r2, [r7, #21]	@ zero_extendqisi2
 486:Projects/STM32F401RE-Nucleo/Examples/MotionControl/MicrosteppingMotor/Src/example_usart.c **** 					L6470_DirId++;
 1405              		.loc 1 486 18
 1406 0534 1346     		mov	r3, r2
 1407 0536 DB00     		lsls	r3, r3, #3
 1408 0538 1344     		add	r3, r3, r2
 1409 053a 474A     		ldr	r2, .L111+12
 1410 053c 1344     		add	r3, r3, r2
 484:Projects/STM32F401RE-Nucleo/Examples/MotionControl/MicrosteppingMotor/Src/example_usart.c **** 						(uint8_t*) (pL6470_TextCommandBundle + CmdTxt_id)->Param[0],
 1411              		.loc 1 484 13
 1412 053e 1946     		mov	r1, r3
 1413 0540 FFF7FEFF 		bl	CompareTwoTextString
 1414 0544 0346     		mov	r3, r0
 484:Projects/STM32F401RE-Nucleo/Examples/MotionControl/MicrosteppingMotor/Src/example_usart.c **** 						(uint8_t*) (pL6470_TextCommandBundle + CmdTxt_id)->Param[0],
 1415              		.loc 1 484 11
 1416 0546 002B     		cmp	r3, #0
ARM GAS  C:\Users\ep_ygh\AppData\Local\Temp\ccqIQPDc.s 			page 37


 1417 0548 DDD0     		beq	.L80
 493:Projects/STM32F401RE-Nucleo/Examples/MotionControl/MicrosteppingMotor/Src/example_usart.c **** 					}
 494:Projects/STM32F401RE-Nucleo/Examples/MotionControl/MicrosteppingMotor/Src/example_usart.c **** 				}
 495:Projects/STM32F401RE-Nucleo/Examples/MotionControl/MicrosteppingMotor/Src/example_usart.c **** 				/* The 1st application command parameter (as DIR) is known ************** */
 496:Projects/STM32F401RE-Nucleo/Examples/MotionControl/MicrosteppingMotor/Src/example_usart.c **** 				*(pL6470_DaisyChainSpiTxStruct
 497:Projects/STM32F401RE-Nucleo/Examples/MotionControl/MicrosteppingMotor/Src/example_usart.c **** 						+ ((0 * L6470DAISYCHAINSIZE) + L6470_Id)) = 0x40
 1418              		.loc 1 497 36
 1419 054a FB7C     		ldrb	r3, [r7, #19]	@ zero_extendqisi2
 1420              		.loc 1 497 7
 1421 054c 3A68     		ldr	r2, [r7]
 1422 054e 1344     		add	r3, r3, r2
 1423              		.loc 1 497 49
 1424 0550 7A7D     		ldrb	r2, [r7, #21]
 1425 0552 42F04002 		orr	r2, r2, #64
 1426 0556 D2B2     		uxtb	r2, r2
 1427 0558 1A70     		strb	r2, [r3]
 498:Projects/STM32F401RE-Nucleo/Examples/MotionControl/MicrosteppingMotor/Src/example_usart.c **** 						| L6470_DirId;
 499:Projects/STM32F401RE-Nucleo/Examples/MotionControl/MicrosteppingMotor/Src/example_usart.c **** 
 500:Projects/STM32F401RE-Nucleo/Examples/MotionControl/MicrosteppingMotor/Src/example_usart.c **** 				/* Checks the numeric parameter that has been entered (as 2nd parameter) */
 501:Projects/STM32F401RE-Nucleo/Examples/MotionControl/MicrosteppingMotor/Src/example_usart.c **** 				if (!str2num(
 502:Projects/STM32F401RE-Nucleo/Examples/MotionControl/MicrosteppingMotor/Src/example_usart.c **** 						(uint8_t*) (pL6470_TextCommandBundle + CmdTxt_id)->Param[1],
 1428              		.loc 1 502 44
 1429 055a 3A7F     		ldrb	r2, [r7, #28]	@ zero_extendqisi2
 1430 055c 1346     		mov	r3, r2
 1431 055e 5B00     		lsls	r3, r3, #1
 1432 0560 1344     		add	r3, r3, r2
 1433 0562 1B01     		lsls	r3, r3, #4
 1434 0564 1A46     		mov	r2, r3
 1435 0566 7B68     		ldr	r3, [r7, #4]
 1436 0568 1344     		add	r3, r3, r2
 1437              		.loc 1 502 18
 1438 056a 1A33     		adds	r3, r3, #26
 501:Projects/STM32F401RE-Nucleo/Examples/MotionControl/MicrosteppingMotor/Src/example_usart.c **** 						(uint8_t*) (pL6470_TextCommandBundle + CmdTxt_id)->Param[1],
 1439              		.loc 1 501 10
 1440 056c 07F10802 		add	r2, r7, #8
 1441 0570 1146     		mov	r1, r2
 1442 0572 1846     		mov	r0, r3
 1443 0574 FFF7FEFF 		bl	str2num
 1444 0578 0346     		mov	r3, r0
 501:Projects/STM32F401RE-Nucleo/Examples/MotionControl/MicrosteppingMotor/Src/example_usart.c **** 						(uint8_t*) (pL6470_TextCommandBundle + CmdTxt_id)->Param[1],
 1445              		.loc 1 501 8
 1446 057a 002B     		cmp	r3, #0
 1447 057c 05D1     		bne	.L81
 503:Projects/STM32F401RE-Nucleo/Examples/MotionControl/MicrosteppingMotor/Src/example_usart.c **** 						&NumericValue)) {
 504:Projects/STM32F401RE-Nucleo/Examples/MotionControl/MicrosteppingMotor/Src/example_usart.c **** #ifdef NUCLEO_USE_USART
 505:Projects/STM32F401RE-Nucleo/Examples/MotionControl/MicrosteppingMotor/Src/example_usart.c **** 					USART_Transmit(&huart2, (uint8_t *)"It is not possible to recognize any numeric value.\r\n\r\n
 1448              		.loc 1 505 6
 1449 057e 3749     		ldr	r1, .L111+16
 1450 0580 3448     		ldr	r0, .L111+8
 1451 0582 FFF7FEFF 		bl	USART_Transmit
 506:Projects/STM32F401RE-Nucleo/Examples/MotionControl/MicrosteppingMotor/Src/example_usart.c **** #endif
 507:Projects/STM32F401RE-Nucleo/Examples/MotionControl/MicrosteppingMotor/Src/example_usart.c **** 					return RESET;
 1452              		.loc 1 507 13
 1453 0586 0023     		movs	r3, #0
 1454 0588 4CE2     		b	.L108
 1455              	.L81:
 508:Projects/STM32F401RE-Nucleo/Examples/MotionControl/MicrosteppingMotor/Src/example_usart.c **** 				}
ARM GAS  C:\Users\ep_ygh\AppData\Local\Temp\ccqIQPDc.s 			page 38


 509:Projects/STM32F401RE-Nucleo/Examples/MotionControl/MicrosteppingMotor/Src/example_usart.c **** 				/* The 2nd application command parameter (as a numeric value) is known */
 510:Projects/STM32F401RE-Nucleo/Examples/MotionControl/MicrosteppingMotor/Src/example_usart.c **** 
 511:Projects/STM32F401RE-Nucleo/Examples/MotionControl/MicrosteppingMotor/Src/example_usart.c **** 				/* Build the others bytes to transmit (N_STEP) */
 512:Projects/STM32F401RE-Nucleo/Examples/MotionControl/MicrosteppingMotor/Src/example_usart.c **** 				for (spibyte = 1; spibyte < (3 + 1); spibyte++) {
 1456              		.loc 1 512 18
 1457 058a 0123     		movs	r3, #1
 1458 058c BB77     		strb	r3, [r7, #30]
 1459              		.loc 1 512 5
 1460 058e 12E0     		b	.L82
 1461              	.L83:
 513:Projects/STM32F401RE-Nucleo/Examples/MotionControl/MicrosteppingMotor/Src/example_usart.c **** 					*(pL6470_DaisyChainSpiTxStruct
 514:Projects/STM32F401RE-Nucleo/Examples/MotionControl/MicrosteppingMotor/Src/example_usart.c **** 							+ ((spibyte * L6470DAISYCHAINSIZE) + L6470_Id)) =
 515:Projects/STM32F401RE-Nucleo/Examples/MotionControl/MicrosteppingMotor/Src/example_usart.c **** 							(uint8_t) (NumericValue >> (8 * (3 - spibyte)));
 1462              		.loc 1 515 32 discriminator 3
 1463 0590 BA68     		ldr	r2, [r7, #8]
 1464              		.loc 1 515 43 discriminator 3
 1465 0592 BB7F     		ldrb	r3, [r7, #30]	@ zero_extendqisi2
 1466 0594 C3F10303 		rsb	r3, r3, #3
 1467              		.loc 1 515 38 discriminator 3
 1468 0598 DB00     		lsls	r3, r3, #3
 1469              		.loc 1 515 32 discriminator 3
 1470 059a 22FA03F1 		lsr	r1, r2, r3
 514:Projects/STM32F401RE-Nucleo/Examples/MotionControl/MicrosteppingMotor/Src/example_usart.c **** 							(uint8_t) (NumericValue >> (8 * (3 - spibyte)));
 1471              		.loc 1 514 20 discriminator 3
 1472 059e BB7F     		ldrb	r3, [r7, #30]	@ zero_extendqisi2
 1473 05a0 5A00     		lsls	r2, r3, #1
 514:Projects/STM32F401RE-Nucleo/Examples/MotionControl/MicrosteppingMotor/Src/example_usart.c **** 							(uint8_t) (NumericValue >> (8 * (3 - spibyte)));
 1474              		.loc 1 514 43 discriminator 3
 1475 05a2 FB7C     		ldrb	r3, [r7, #19]	@ zero_extendqisi2
 1476 05a4 1344     		add	r3, r3, r2
 1477 05a6 1A46     		mov	r2, r3
 514:Projects/STM32F401RE-Nucleo/Examples/MotionControl/MicrosteppingMotor/Src/example_usart.c **** 							(uint8_t) (NumericValue >> (8 * (3 - spibyte)));
 1478              		.loc 1 514 8 discriminator 3
 1479 05a8 3B68     		ldr	r3, [r7]
 1480 05aa 1344     		add	r3, r3, r2
 1481              		.loc 1 515 8 discriminator 3
 1482 05ac CAB2     		uxtb	r2, r1
 514:Projects/STM32F401RE-Nucleo/Examples/MotionControl/MicrosteppingMotor/Src/example_usart.c **** 							(uint8_t) (NumericValue >> (8 * (3 - spibyte)));
 1483              		.loc 1 514 56 discriminator 3
 1484 05ae 1A70     		strb	r2, [r3]
 512:Projects/STM32F401RE-Nucleo/Examples/MotionControl/MicrosteppingMotor/Src/example_usart.c **** 					*(pL6470_DaisyChainSpiTxStruct
 1485              		.loc 1 512 49 discriminator 3
 1486 05b0 BB7F     		ldrb	r3, [r7, #30]	@ zero_extendqisi2
 1487 05b2 0133     		adds	r3, r3, #1
 1488 05b4 BB77     		strb	r3, [r7, #30]
 1489              	.L82:
 512:Projects/STM32F401RE-Nucleo/Examples/MotionControl/MicrosteppingMotor/Src/example_usart.c **** 					*(pL6470_DaisyChainSpiTxStruct
 1490              		.loc 1 512 5 discriminator 1
 1491 05b6 BB7F     		ldrb	r3, [r7, #30]	@ zero_extendqisi2
 1492 05b8 032B     		cmp	r3, #3
 1493 05ba E9D9     		bls	.L83
 516:Projects/STM32F401RE-Nucleo/Examples/MotionControl/MicrosteppingMotor/Src/example_usart.c **** 				}
 517:Projects/STM32F401RE-Nucleo/Examples/MotionControl/MicrosteppingMotor/Src/example_usart.c **** 				break;
 1494              		.loc 1 517 5
 1495 05bc EEE1     		b	.L105
 1496              	.L56:
 518:Projects/STM32F401RE-Nucleo/Examples/MotionControl/MicrosteppingMotor/Src/example_usart.c **** 			case L6470_GOTO_ID:
ARM GAS  C:\Users\ep_ygh\AppData\Local\Temp\ccqIQPDc.s 			page 39


 519:Projects/STM32F401RE-Nucleo/Examples/MotionControl/MicrosteppingMotor/Src/example_usart.c **** 				/* Build the 1st byte to transmit */
 520:Projects/STM32F401RE-Nucleo/Examples/MotionControl/MicrosteppingMotor/Src/example_usart.c **** 				*(pL6470_DaisyChainSpiTxStruct
 521:Projects/STM32F401RE-Nucleo/Examples/MotionControl/MicrosteppingMotor/Src/example_usart.c **** 						+ ((0 * L6470DAISYCHAINSIZE) + L6470_Id)) = 0x60;
 1497              		.loc 1 521 36
 1498 05be FB7C     		ldrb	r3, [r7, #19]	@ zero_extendqisi2
 1499              		.loc 1 521 7
 1500 05c0 3A68     		ldr	r2, [r7]
 1501 05c2 1344     		add	r3, r3, r2
 1502              		.loc 1 521 49
 1503 05c4 6022     		movs	r2, #96
 1504 05c6 1A70     		strb	r2, [r3]
 522:Projects/STM32F401RE-Nucleo/Examples/MotionControl/MicrosteppingMotor/Src/example_usart.c **** 
 523:Projects/STM32F401RE-Nucleo/Examples/MotionControl/MicrosteppingMotor/Src/example_usart.c **** 				/* Checks the numeric parameter that has been entered */
 524:Projects/STM32F401RE-Nucleo/Examples/MotionControl/MicrosteppingMotor/Src/example_usart.c **** 				if (!str2num(
 525:Projects/STM32F401RE-Nucleo/Examples/MotionControl/MicrosteppingMotor/Src/example_usart.c **** 						(uint8_t*) (pL6470_TextCommandBundle + CmdTxt_id)->Param[0],
 1505              		.loc 1 525 44
 1506 05c8 3A7F     		ldrb	r2, [r7, #28]	@ zero_extendqisi2
 1507 05ca 1346     		mov	r3, r2
 1508 05cc 5B00     		lsls	r3, r3, #1
 1509 05ce 1344     		add	r3, r3, r2
 1510 05d0 1B01     		lsls	r3, r3, #4
 1511 05d2 1A46     		mov	r2, r3
 1512 05d4 7B68     		ldr	r3, [r7, #4]
 1513 05d6 1344     		add	r3, r3, r2
 1514              		.loc 1 525 18
 1515 05d8 0F33     		adds	r3, r3, #15
 524:Projects/STM32F401RE-Nucleo/Examples/MotionControl/MicrosteppingMotor/Src/example_usart.c **** 						(uint8_t*) (pL6470_TextCommandBundle + CmdTxt_id)->Param[0],
 1516              		.loc 1 524 10
 1517 05da 07F10802 		add	r2, r7, #8
 1518 05de 1146     		mov	r1, r2
 1519 05e0 1846     		mov	r0, r3
 1520 05e2 FFF7FEFF 		bl	str2num
 1521 05e6 0346     		mov	r3, r0
 524:Projects/STM32F401RE-Nucleo/Examples/MotionControl/MicrosteppingMotor/Src/example_usart.c **** 						(uint8_t*) (pL6470_TextCommandBundle + CmdTxt_id)->Param[0],
 1522              		.loc 1 524 8
 1523 05e8 002B     		cmp	r3, #0
 1524 05ea 05D1     		bne	.L84
 526:Projects/STM32F401RE-Nucleo/Examples/MotionControl/MicrosteppingMotor/Src/example_usart.c **** 						&NumericValue)) {
 527:Projects/STM32F401RE-Nucleo/Examples/MotionControl/MicrosteppingMotor/Src/example_usart.c **** #ifdef NUCLEO_USE_USART
 528:Projects/STM32F401RE-Nucleo/Examples/MotionControl/MicrosteppingMotor/Src/example_usart.c **** 					USART_Transmit(&huart2, (uint8_t *)"It is not possible to recognize any numeric value.\r\n\r\n
 1525              		.loc 1 528 6
 1526 05ec 1B49     		ldr	r1, .L111+16
 1527 05ee 1948     		ldr	r0, .L111+8
 1528 05f0 FFF7FEFF 		bl	USART_Transmit
 529:Projects/STM32F401RE-Nucleo/Examples/MotionControl/MicrosteppingMotor/Src/example_usart.c **** #endif
 530:Projects/STM32F401RE-Nucleo/Examples/MotionControl/MicrosteppingMotor/Src/example_usart.c **** 					return RESET;
 1529              		.loc 1 530 13
 1530 05f4 0023     		movs	r3, #0
 1531 05f6 15E2     		b	.L108
 1532              	.L84:
 531:Projects/STM32F401RE-Nucleo/Examples/MotionControl/MicrosteppingMotor/Src/example_usart.c **** 				}
 532:Projects/STM32F401RE-Nucleo/Examples/MotionControl/MicrosteppingMotor/Src/example_usart.c **** 				/* The application command parameter (as a numeric value) is known */
 533:Projects/STM32F401RE-Nucleo/Examples/MotionControl/MicrosteppingMotor/Src/example_usart.c **** 
 534:Projects/STM32F401RE-Nucleo/Examples/MotionControl/MicrosteppingMotor/Src/example_usart.c **** 				/* Build the others bytes to transmit (ABS_POS) */
 535:Projects/STM32F401RE-Nucleo/Examples/MotionControl/MicrosteppingMotor/Src/example_usart.c **** 				for (spibyte = 1; spibyte < (3 + 1); spibyte++) {
 1533              		.loc 1 535 18
 1534 05f8 0123     		movs	r3, #1
ARM GAS  C:\Users\ep_ygh\AppData\Local\Temp\ccqIQPDc.s 			page 40


 1535 05fa BB77     		strb	r3, [r7, #30]
 1536              		.loc 1 535 5
 1537 05fc 12E0     		b	.L85
 1538              	.L86:
 536:Projects/STM32F401RE-Nucleo/Examples/MotionControl/MicrosteppingMotor/Src/example_usart.c **** 					*(pL6470_DaisyChainSpiTxStruct
 537:Projects/STM32F401RE-Nucleo/Examples/MotionControl/MicrosteppingMotor/Src/example_usart.c **** 							+ ((spibyte * L6470DAISYCHAINSIZE) + L6470_Id)) =
 538:Projects/STM32F401RE-Nucleo/Examples/MotionControl/MicrosteppingMotor/Src/example_usart.c **** 							(uint8_t) (NumericValue >> (8 * (3 - spibyte)));
 1539              		.loc 1 538 32 discriminator 3
 1540 05fe BA68     		ldr	r2, [r7, #8]
 1541              		.loc 1 538 43 discriminator 3
 1542 0600 BB7F     		ldrb	r3, [r7, #30]	@ zero_extendqisi2
 1543 0602 C3F10303 		rsb	r3, r3, #3
 1544              		.loc 1 538 38 discriminator 3
 1545 0606 DB00     		lsls	r3, r3, #3
 1546              		.loc 1 538 32 discriminator 3
 1547 0608 22FA03F1 		lsr	r1, r2, r3
 537:Projects/STM32F401RE-Nucleo/Examples/MotionControl/MicrosteppingMotor/Src/example_usart.c **** 							(uint8_t) (NumericValue >> (8 * (3 - spibyte)));
 1548              		.loc 1 537 20 discriminator 3
 1549 060c BB7F     		ldrb	r3, [r7, #30]	@ zero_extendqisi2
 1550 060e 5A00     		lsls	r2, r3, #1
 537:Projects/STM32F401RE-Nucleo/Examples/MotionControl/MicrosteppingMotor/Src/example_usart.c **** 							(uint8_t) (NumericValue >> (8 * (3 - spibyte)));
 1551              		.loc 1 537 43 discriminator 3
 1552 0610 FB7C     		ldrb	r3, [r7, #19]	@ zero_extendqisi2
 1553 0612 1344     		add	r3, r3, r2
 1554 0614 1A46     		mov	r2, r3
 537:Projects/STM32F401RE-Nucleo/Examples/MotionControl/MicrosteppingMotor/Src/example_usart.c **** 							(uint8_t) (NumericValue >> (8 * (3 - spibyte)));
 1555              		.loc 1 537 8 discriminator 3
 1556 0616 3B68     		ldr	r3, [r7]
 1557 0618 1344     		add	r3, r3, r2
 1558              		.loc 1 538 8 discriminator 3
 1559 061a CAB2     		uxtb	r2, r1
 537:Projects/STM32F401RE-Nucleo/Examples/MotionControl/MicrosteppingMotor/Src/example_usart.c **** 							(uint8_t) (NumericValue >> (8 * (3 - spibyte)));
 1560              		.loc 1 537 56 discriminator 3
 1561 061c 1A70     		strb	r2, [r3]
 535:Projects/STM32F401RE-Nucleo/Examples/MotionControl/MicrosteppingMotor/Src/example_usart.c **** 					*(pL6470_DaisyChainSpiTxStruct
 1562              		.loc 1 535 49 discriminator 3
 1563 061e BB7F     		ldrb	r3, [r7, #30]	@ zero_extendqisi2
 1564 0620 0133     		adds	r3, r3, #1
 1565 0622 BB77     		strb	r3, [r7, #30]
 1566              	.L85:
 535:Projects/STM32F401RE-Nucleo/Examples/MotionControl/MicrosteppingMotor/Src/example_usart.c **** 					*(pL6470_DaisyChainSpiTxStruct
 1567              		.loc 1 535 5 discriminator 1
 1568 0624 BB7F     		ldrb	r3, [r7, #30]	@ zero_extendqisi2
 1569 0626 032B     		cmp	r3, #3
 1570 0628 E9D9     		bls	.L86
 539:Projects/STM32F401RE-Nucleo/Examples/MotionControl/MicrosteppingMotor/Src/example_usart.c **** 				}
 540:Projects/STM32F401RE-Nucleo/Examples/MotionControl/MicrosteppingMotor/Src/example_usart.c **** 				break;
 1571              		.loc 1 540 5
 1572 062a B7E1     		b	.L105
 1573              	.L55:
 541:Projects/STM32F401RE-Nucleo/Examples/MotionControl/MicrosteppingMotor/Src/example_usart.c **** 			case L6470_GOTODIR_ID:
 542:Projects/STM32F401RE-Nucleo/Examples/MotionControl/MicrosteppingMotor/Src/example_usart.c **** 				/* Checks the Motor Direction that has been entered (as 1st parameter) */
 543:Projects/STM32F401RE-Nucleo/Examples/MotionControl/MicrosteppingMotor/Src/example_usart.c **** 				L6470_DirId = (eL6470_DirId_t) 0;
 1574              		.loc 1 543 17
 1575 062c 0023     		movs	r3, #0
 1576 062e 7B75     		strb	r3, [r7, #21]
 544:Projects/STM32F401RE-Nucleo/Examples/MotionControl/MicrosteppingMotor/Src/example_usart.c **** 				while (!CompareTwoTextString(
ARM GAS  C:\Users\ep_ygh\AppData\Local\Temp\ccqIQPDc.s 			page 41


 1577              		.loc 1 544 11
 1578 0630 16E0     		b	.L87
 1579              	.L88:
 545:Projects/STM32F401RE-Nucleo/Examples/MotionControl/MicrosteppingMotor/Src/example_usart.c **** 						(uint8_t*) (pL6470_TextCommandBundle + CmdTxt_id)->Param[0],
 546:Projects/STM32F401RE-Nucleo/Examples/MotionControl/MicrosteppingMotor/Src/example_usart.c **** 						(uint8_t*) L6470_Direction[L6470_DirId].Mnemonic)) {
 547:Projects/STM32F401RE-Nucleo/Examples/MotionControl/MicrosteppingMotor/Src/example_usart.c **** 					L6470_DirId++;
 1580              		.loc 1 547 17
 1581 0632 7B7D     		ldrb	r3, [r7, #21]	@ zero_extendqisi2
 1582 0634 0133     		adds	r3, r3, #1
 1583 0636 7B75     		strb	r3, [r7, #21]
 548:Projects/STM32F401RE-Nucleo/Examples/MotionControl/MicrosteppingMotor/Src/example_usart.c **** 					if (L6470_DirId == L6470DIRIDSIZE) {
 1584              		.loc 1 548 9
 1585 0638 7B7D     		ldrb	r3, [r7, #21]	@ zero_extendqisi2
 1586 063a 022B     		cmp	r3, #2
 1587 063c 10D1     		bne	.L87
 549:Projects/STM32F401RE-Nucleo/Examples/MotionControl/MicrosteppingMotor/Src/example_usart.c **** #ifdef NUCLEO_USE_USART
 550:Projects/STM32F401RE-Nucleo/Examples/MotionControl/MicrosteppingMotor/Src/example_usart.c **** 						USART_Transmit(&huart2, (uint8_t *)"It is not possible to recognize any direction.\r\n\r\n");
 1588              		.loc 1 550 7
 1589 063e 0449     		ldr	r1, .L111+4
 1590 0640 0448     		ldr	r0, .L111+8
 1591 0642 FFF7FEFF 		bl	USART_Transmit
 551:Projects/STM32F401RE-Nucleo/Examples/MotionControl/MicrosteppingMotor/Src/example_usart.c **** #endif
 552:Projects/STM32F401RE-Nucleo/Examples/MotionControl/MicrosteppingMotor/Src/example_usart.c **** 						return RESET;
 1592              		.loc 1 552 14
 1593 0646 0023     		movs	r3, #0
 1594 0648 ECE1     		b	.L108
 1595              	.L112:
 1596 064a 00BF     		.align	2
 1597              	.L111:
 1598 064c 00000000 		.word	L6470_Register
 1599 0650 A0010000 		.word	.LC8
 1600 0654 00000000 		.word	huart2
 1601 0658 00000000 		.word	L6470_Direction
 1602 065c 68010000 		.word	.LC7
 1603              	.L87:
 545:Projects/STM32F401RE-Nucleo/Examples/MotionControl/MicrosteppingMotor/Src/example_usart.c **** 						(uint8_t*) L6470_Direction[L6470_DirId].Mnemonic)) {
 1604              		.loc 1 545 44
 1605 0660 3A7F     		ldrb	r2, [r7, #28]	@ zero_extendqisi2
 1606 0662 1346     		mov	r3, r2
 1607 0664 5B00     		lsls	r3, r3, #1
 1608 0666 1344     		add	r3, r3, r2
 1609 0668 1B01     		lsls	r3, r3, #4
 1610 066a 1A46     		mov	r2, r3
 1611 066c 7B68     		ldr	r3, [r7, #4]
 1612 066e 1344     		add	r3, r3, r2
 545:Projects/STM32F401RE-Nucleo/Examples/MotionControl/MicrosteppingMotor/Src/example_usart.c **** 						(uint8_t*) L6470_Direction[L6470_DirId].Mnemonic)) {
 1613              		.loc 1 545 18
 1614 0670 03F10F00 		add	r0, r3, #15
 546:Projects/STM32F401RE-Nucleo/Examples/MotionControl/MicrosteppingMotor/Src/example_usart.c **** 					L6470_DirId++;
 1615              		.loc 1 546 46
 1616 0674 7A7D     		ldrb	r2, [r7, #21]	@ zero_extendqisi2
 546:Projects/STM32F401RE-Nucleo/Examples/MotionControl/MicrosteppingMotor/Src/example_usart.c **** 					L6470_DirId++;
 1617              		.loc 1 546 18
 1618 0676 1346     		mov	r3, r2
 1619 0678 DB00     		lsls	r3, r3, #3
 1620 067a 1344     		add	r3, r3, r2
 1621 067c B24A     		ldr	r2, .L113
ARM GAS  C:\Users\ep_ygh\AppData\Local\Temp\ccqIQPDc.s 			page 42


 1622 067e 1344     		add	r3, r3, r2
 544:Projects/STM32F401RE-Nucleo/Examples/MotionControl/MicrosteppingMotor/Src/example_usart.c **** 						(uint8_t*) (pL6470_TextCommandBundle + CmdTxt_id)->Param[0],
 1623              		.loc 1 544 13
 1624 0680 1946     		mov	r1, r3
 1625 0682 FFF7FEFF 		bl	CompareTwoTextString
 1626 0686 0346     		mov	r3, r0
 544:Projects/STM32F401RE-Nucleo/Examples/MotionControl/MicrosteppingMotor/Src/example_usart.c **** 						(uint8_t*) (pL6470_TextCommandBundle + CmdTxt_id)->Param[0],
 1627              		.loc 1 544 11
 1628 0688 002B     		cmp	r3, #0
 1629 068a D2D0     		beq	.L88
 553:Projects/STM32F401RE-Nucleo/Examples/MotionControl/MicrosteppingMotor/Src/example_usart.c **** 					}
 554:Projects/STM32F401RE-Nucleo/Examples/MotionControl/MicrosteppingMotor/Src/example_usart.c **** 				}
 555:Projects/STM32F401RE-Nucleo/Examples/MotionControl/MicrosteppingMotor/Src/example_usart.c **** 				/* The 1st application command parameter (as DIR) is known ************** */
 556:Projects/STM32F401RE-Nucleo/Examples/MotionControl/MicrosteppingMotor/Src/example_usart.c **** 				/* Build the 1st byte to transmit */
 557:Projects/STM32F401RE-Nucleo/Examples/MotionControl/MicrosteppingMotor/Src/example_usart.c **** 				*(pL6470_DaisyChainSpiTxStruct
 558:Projects/STM32F401RE-Nucleo/Examples/MotionControl/MicrosteppingMotor/Src/example_usart.c **** 						+ ((0 * L6470DAISYCHAINSIZE) + L6470_Id)) = 0x68
 1630              		.loc 1 558 36
 1631 068c FB7C     		ldrb	r3, [r7, #19]	@ zero_extendqisi2
 1632              		.loc 1 558 7
 1633 068e 3A68     		ldr	r2, [r7]
 1634 0690 1344     		add	r3, r3, r2
 1635              		.loc 1 558 49
 1636 0692 7A7D     		ldrb	r2, [r7, #21]
 1637 0694 42F06802 		orr	r2, r2, #104
 1638 0698 D2B2     		uxtb	r2, r2
 1639 069a 1A70     		strb	r2, [r3]
 559:Projects/STM32F401RE-Nucleo/Examples/MotionControl/MicrosteppingMotor/Src/example_usart.c **** 						| L6470_DirId;
 560:Projects/STM32F401RE-Nucleo/Examples/MotionControl/MicrosteppingMotor/Src/example_usart.c **** 
 561:Projects/STM32F401RE-Nucleo/Examples/MotionControl/MicrosteppingMotor/Src/example_usart.c **** 				/* Checks the numeric parameter that has been entered (as 2nd parameter) */
 562:Projects/STM32F401RE-Nucleo/Examples/MotionControl/MicrosteppingMotor/Src/example_usart.c **** 				if (!str2num(
 563:Projects/STM32F401RE-Nucleo/Examples/MotionControl/MicrosteppingMotor/Src/example_usart.c **** 						(uint8_t*) (pL6470_TextCommandBundle + CmdTxt_id)->Param[1],
 1640              		.loc 1 563 44
 1641 069c 3A7F     		ldrb	r2, [r7, #28]	@ zero_extendqisi2
 1642 069e 1346     		mov	r3, r2
 1643 06a0 5B00     		lsls	r3, r3, #1
 1644 06a2 1344     		add	r3, r3, r2
 1645 06a4 1B01     		lsls	r3, r3, #4
 1646 06a6 1A46     		mov	r2, r3
 1647 06a8 7B68     		ldr	r3, [r7, #4]
 1648 06aa 1344     		add	r3, r3, r2
 1649              		.loc 1 563 18
 1650 06ac 1A33     		adds	r3, r3, #26
 562:Projects/STM32F401RE-Nucleo/Examples/MotionControl/MicrosteppingMotor/Src/example_usart.c **** 						(uint8_t*) (pL6470_TextCommandBundle + CmdTxt_id)->Param[1],
 1651              		.loc 1 562 10
 1652 06ae 07F10802 		add	r2, r7, #8
 1653 06b2 1146     		mov	r1, r2
 1654 06b4 1846     		mov	r0, r3
 1655 06b6 FFF7FEFF 		bl	str2num
 1656 06ba 0346     		mov	r3, r0
 562:Projects/STM32F401RE-Nucleo/Examples/MotionControl/MicrosteppingMotor/Src/example_usart.c **** 						(uint8_t*) (pL6470_TextCommandBundle + CmdTxt_id)->Param[1],
 1657              		.loc 1 562 8
 1658 06bc 002B     		cmp	r3, #0
 1659 06be 05D1     		bne	.L89
 564:Projects/STM32F401RE-Nucleo/Examples/MotionControl/MicrosteppingMotor/Src/example_usart.c **** 						&NumericValue)) {
 565:Projects/STM32F401RE-Nucleo/Examples/MotionControl/MicrosteppingMotor/Src/example_usart.c **** #ifdef NUCLEO_USE_USART
 566:Projects/STM32F401RE-Nucleo/Examples/MotionControl/MicrosteppingMotor/Src/example_usart.c **** 					USART_Transmit(&huart2, (uint8_t *)"It is not possible to recognize any numeric value.\r\n\r\n
 1660              		.loc 1 566 6
ARM GAS  C:\Users\ep_ygh\AppData\Local\Temp\ccqIQPDc.s 			page 43


 1661 06c0 A249     		ldr	r1, .L113+4
 1662 06c2 A348     		ldr	r0, .L113+8
 1663 06c4 FFF7FEFF 		bl	USART_Transmit
 567:Projects/STM32F401RE-Nucleo/Examples/MotionControl/MicrosteppingMotor/Src/example_usart.c **** #endif
 568:Projects/STM32F401RE-Nucleo/Examples/MotionControl/MicrosteppingMotor/Src/example_usart.c **** 					return RESET;
 1664              		.loc 1 568 13
 1665 06c8 0023     		movs	r3, #0
 1666 06ca ABE1     		b	.L108
 1667              	.L89:
 569:Projects/STM32F401RE-Nucleo/Examples/MotionControl/MicrosteppingMotor/Src/example_usart.c **** 				}
 570:Projects/STM32F401RE-Nucleo/Examples/MotionControl/MicrosteppingMotor/Src/example_usart.c **** 				/* The 2nd application command parameter (as a numeric value) is known */
 571:Projects/STM32F401RE-Nucleo/Examples/MotionControl/MicrosteppingMotor/Src/example_usart.c **** 
 572:Projects/STM32F401RE-Nucleo/Examples/MotionControl/MicrosteppingMotor/Src/example_usart.c **** 				/* Build the others bytes to transmit (ABS_POS) */
 573:Projects/STM32F401RE-Nucleo/Examples/MotionControl/MicrosteppingMotor/Src/example_usart.c **** 				for (spibyte = 1; spibyte < (3 + 1); spibyte++) {
 1668              		.loc 1 573 18
 1669 06cc 0123     		movs	r3, #1
 1670 06ce BB77     		strb	r3, [r7, #30]
 1671              		.loc 1 573 5
 1672 06d0 12E0     		b	.L90
 1673              	.L91:
 574:Projects/STM32F401RE-Nucleo/Examples/MotionControl/MicrosteppingMotor/Src/example_usart.c **** 					*(pL6470_DaisyChainSpiTxStruct
 575:Projects/STM32F401RE-Nucleo/Examples/MotionControl/MicrosteppingMotor/Src/example_usart.c **** 							+ ((spibyte * L6470DAISYCHAINSIZE) + L6470_Id)) =
 576:Projects/STM32F401RE-Nucleo/Examples/MotionControl/MicrosteppingMotor/Src/example_usart.c **** 							(uint8_t) (NumericValue >> (8 * (3 - spibyte)));
 1674              		.loc 1 576 32 discriminator 3
 1675 06d2 BA68     		ldr	r2, [r7, #8]
 1676              		.loc 1 576 43 discriminator 3
 1677 06d4 BB7F     		ldrb	r3, [r7, #30]	@ zero_extendqisi2
 1678 06d6 C3F10303 		rsb	r3, r3, #3
 1679              		.loc 1 576 38 discriminator 3
 1680 06da DB00     		lsls	r3, r3, #3
 1681              		.loc 1 576 32 discriminator 3
 1682 06dc 22FA03F1 		lsr	r1, r2, r3
 575:Projects/STM32F401RE-Nucleo/Examples/MotionControl/MicrosteppingMotor/Src/example_usart.c **** 							(uint8_t) (NumericValue >> (8 * (3 - spibyte)));
 1683              		.loc 1 575 20 discriminator 3
 1684 06e0 BB7F     		ldrb	r3, [r7, #30]	@ zero_extendqisi2
 1685 06e2 5A00     		lsls	r2, r3, #1
 575:Projects/STM32F401RE-Nucleo/Examples/MotionControl/MicrosteppingMotor/Src/example_usart.c **** 							(uint8_t) (NumericValue >> (8 * (3 - spibyte)));
 1686              		.loc 1 575 43 discriminator 3
 1687 06e4 FB7C     		ldrb	r3, [r7, #19]	@ zero_extendqisi2
 1688 06e6 1344     		add	r3, r3, r2
 1689 06e8 1A46     		mov	r2, r3
 575:Projects/STM32F401RE-Nucleo/Examples/MotionControl/MicrosteppingMotor/Src/example_usart.c **** 							(uint8_t) (NumericValue >> (8 * (3 - spibyte)));
 1690              		.loc 1 575 8 discriminator 3
 1691 06ea 3B68     		ldr	r3, [r7]
 1692 06ec 1344     		add	r3, r3, r2
 1693              		.loc 1 576 8 discriminator 3
 1694 06ee CAB2     		uxtb	r2, r1
 575:Projects/STM32F401RE-Nucleo/Examples/MotionControl/MicrosteppingMotor/Src/example_usart.c **** 							(uint8_t) (NumericValue >> (8 * (3 - spibyte)));
 1695              		.loc 1 575 56 discriminator 3
 1696 06f0 1A70     		strb	r2, [r3]
 573:Projects/STM32F401RE-Nucleo/Examples/MotionControl/MicrosteppingMotor/Src/example_usart.c **** 					*(pL6470_DaisyChainSpiTxStruct
 1697              		.loc 1 573 49 discriminator 3
 1698 06f2 BB7F     		ldrb	r3, [r7, #30]	@ zero_extendqisi2
 1699 06f4 0133     		adds	r3, r3, #1
 1700 06f6 BB77     		strb	r3, [r7, #30]
 1701              	.L90:
 573:Projects/STM32F401RE-Nucleo/Examples/MotionControl/MicrosteppingMotor/Src/example_usart.c **** 					*(pL6470_DaisyChainSpiTxStruct
ARM GAS  C:\Users\ep_ygh\AppData\Local\Temp\ccqIQPDc.s 			page 44


 1702              		.loc 1 573 5 discriminator 1
 1703 06f8 BB7F     		ldrb	r3, [r7, #30]	@ zero_extendqisi2
 1704 06fa 032B     		cmp	r3, #3
 1705 06fc E9D9     		bls	.L91
 577:Projects/STM32F401RE-Nucleo/Examples/MotionControl/MicrosteppingMotor/Src/example_usart.c **** 				}
 578:Projects/STM32F401RE-Nucleo/Examples/MotionControl/MicrosteppingMotor/Src/example_usart.c **** 				break;
 1706              		.loc 1 578 5
 1707 06fe 4DE1     		b	.L105
 1708              	.L54:
 579:Projects/STM32F401RE-Nucleo/Examples/MotionControl/MicrosteppingMotor/Src/example_usart.c **** 			case L6470_GOUNTIL_ID:
 580:Projects/STM32F401RE-Nucleo/Examples/MotionControl/MicrosteppingMotor/Src/example_usart.c **** 				/* Checks the Action about ABS_POS register that has been entered (as 1st parameter) */
 581:Projects/STM32F401RE-Nucleo/Examples/MotionControl/MicrosteppingMotor/Src/example_usart.c **** 				L6470_ActId = (eL6470_ActId_t) 0;
 1709              		.loc 1 581 17
 1710 0700 0023     		movs	r3, #0
 1711 0702 3B75     		strb	r3, [r7, #20]
 582:Projects/STM32F401RE-Nucleo/Examples/MotionControl/MicrosteppingMotor/Src/example_usart.c **** 				while (!CompareTwoTextString(
 1712              		.loc 1 582 11
 1713 0704 0BE0     		b	.L92
 1714              	.L93:
 583:Projects/STM32F401RE-Nucleo/Examples/MotionControl/MicrosteppingMotor/Src/example_usart.c **** 						(uint8_t*) (pL6470_TextCommandBundle + CmdTxt_id)->Param[0],
 584:Projects/STM32F401RE-Nucleo/Examples/MotionControl/MicrosteppingMotor/Src/example_usart.c **** 						(uint8_t*) L6470_ACT[L6470_ActId].Mnemonic)) {
 585:Projects/STM32F401RE-Nucleo/Examples/MotionControl/MicrosteppingMotor/Src/example_usart.c **** 					L6470_ActId++;
 1715              		.loc 1 585 17
 1716 0706 3B7D     		ldrb	r3, [r7, #20]	@ zero_extendqisi2
 1717 0708 0133     		adds	r3, r3, #1
 1718 070a 3B75     		strb	r3, [r7, #20]
 586:Projects/STM32F401RE-Nucleo/Examples/MotionControl/MicrosteppingMotor/Src/example_usart.c **** 					if (L6470_ActId == L6470ACTIDSIZE) {
 1719              		.loc 1 586 9
 1720 070c 3B7D     		ldrb	r3, [r7, #20]	@ zero_extendqisi2
 1721 070e 022B     		cmp	r3, #2
 1722 0710 05D1     		bne	.L92
 587:Projects/STM32F401RE-Nucleo/Examples/MotionControl/MicrosteppingMotor/Src/example_usart.c **** #ifdef NUCLEO_USE_USART
 588:Projects/STM32F401RE-Nucleo/Examples/MotionControl/MicrosteppingMotor/Src/example_usart.c **** 						USART_Transmit(&huart2, (uint8_t *)"It is not possible to recognize any action.\r\n\r\n");
 1723              		.loc 1 588 7
 1724 0712 9049     		ldr	r1, .L113+12
 1725 0714 8E48     		ldr	r0, .L113+8
 1726 0716 FFF7FEFF 		bl	USART_Transmit
 589:Projects/STM32F401RE-Nucleo/Examples/MotionControl/MicrosteppingMotor/Src/example_usart.c **** #endif
 590:Projects/STM32F401RE-Nucleo/Examples/MotionControl/MicrosteppingMotor/Src/example_usart.c **** 						return RESET;
 1727              		.loc 1 590 14
 1728 071a 0023     		movs	r3, #0
 1729 071c 82E1     		b	.L108
 1730              	.L92:
 583:Projects/STM32F401RE-Nucleo/Examples/MotionControl/MicrosteppingMotor/Src/example_usart.c **** 						(uint8_t*) L6470_ACT[L6470_ActId].Mnemonic)) {
 1731              		.loc 1 583 44
 1732 071e 3A7F     		ldrb	r2, [r7, #28]	@ zero_extendqisi2
 1733 0720 1346     		mov	r3, r2
 1734 0722 5B00     		lsls	r3, r3, #1
 1735 0724 1344     		add	r3, r3, r2
 1736 0726 1B01     		lsls	r3, r3, #4
 1737 0728 1A46     		mov	r2, r3
 1738 072a 7B68     		ldr	r3, [r7, #4]
 1739 072c 1344     		add	r3, r3, r2
 583:Projects/STM32F401RE-Nucleo/Examples/MotionControl/MicrosteppingMotor/Src/example_usart.c **** 						(uint8_t*) L6470_ACT[L6470_ActId].Mnemonic)) {
 1740              		.loc 1 583 18
 1741 072e 03F10F00 		add	r0, r3, #15
 584:Projects/STM32F401RE-Nucleo/Examples/MotionControl/MicrosteppingMotor/Src/example_usart.c **** 					L6470_ActId++;
ARM GAS  C:\Users\ep_ygh\AppData\Local\Temp\ccqIQPDc.s 			page 45


 1742              		.loc 1 584 40
 1743 0732 3A7D     		ldrb	r2, [r7, #20]	@ zero_extendqisi2
 584:Projects/STM32F401RE-Nucleo/Examples/MotionControl/MicrosteppingMotor/Src/example_usart.c **** 					L6470_ActId++;
 1744              		.loc 1 584 18
 1745 0734 1346     		mov	r3, r2
 1746 0736 9B00     		lsls	r3, r3, #2
 1747 0738 1344     		add	r3, r3, r2
 1748 073a 874A     		ldr	r2, .L113+16
 1749 073c 1344     		add	r3, r3, r2
 582:Projects/STM32F401RE-Nucleo/Examples/MotionControl/MicrosteppingMotor/Src/example_usart.c **** 						(uint8_t*) (pL6470_TextCommandBundle + CmdTxt_id)->Param[0],
 1750              		.loc 1 582 13
 1751 073e 1946     		mov	r1, r3
 1752 0740 FFF7FEFF 		bl	CompareTwoTextString
 1753 0744 0346     		mov	r3, r0
 582:Projects/STM32F401RE-Nucleo/Examples/MotionControl/MicrosteppingMotor/Src/example_usart.c **** 						(uint8_t*) (pL6470_TextCommandBundle + CmdTxt_id)->Param[0],
 1754              		.loc 1 582 11
 1755 0746 002B     		cmp	r3, #0
 1756 0748 DDD0     		beq	.L93
 591:Projects/STM32F401RE-Nucleo/Examples/MotionControl/MicrosteppingMotor/Src/example_usart.c **** 					}
 592:Projects/STM32F401RE-Nucleo/Examples/MotionControl/MicrosteppingMotor/Src/example_usart.c **** 				}
 593:Projects/STM32F401RE-Nucleo/Examples/MotionControl/MicrosteppingMotor/Src/example_usart.c **** 				/* The 1st application command parameter (as ACT) is known **************** */
 594:Projects/STM32F401RE-Nucleo/Examples/MotionControl/MicrosteppingMotor/Src/example_usart.c **** 				/* Build the 1st byte to transmit */
 595:Projects/STM32F401RE-Nucleo/Examples/MotionControl/MicrosteppingMotor/Src/example_usart.c **** 				*(pL6470_DaisyChainSpiTxStruct
 596:Projects/STM32F401RE-Nucleo/Examples/MotionControl/MicrosteppingMotor/Src/example_usart.c **** 						+ ((0 * L6470DAISYCHAINSIZE) + L6470_Id)) = 0x82
 597:Projects/STM32F401RE-Nucleo/Examples/MotionControl/MicrosteppingMotor/Src/example_usart.c **** 						| (L6470_ActId << 3);
 1757              		.loc 1 597 22
 1758 074a 3B7D     		ldrb	r3, [r7, #20]	@ zero_extendqisi2
 1759 074c DB00     		lsls	r3, r3, #3
 1760              		.loc 1 597 7
 1761 074e 5BB2     		sxtb	r3, r3
 1762 0750 63F07D03 		orn	r3, r3, #125
 1763 0754 59B2     		sxtb	r1, r3
 596:Projects/STM32F401RE-Nucleo/Examples/MotionControl/MicrosteppingMotor/Src/example_usart.c **** 						| (L6470_ActId << 3);
 1764              		.loc 1 596 36
 1765 0756 FB7C     		ldrb	r3, [r7, #19]	@ zero_extendqisi2
 596:Projects/STM32F401RE-Nucleo/Examples/MotionControl/MicrosteppingMotor/Src/example_usart.c **** 						| (L6470_ActId << 3);
 1766              		.loc 1 596 7
 1767 0758 3A68     		ldr	r2, [r7]
 1768 075a 1344     		add	r3, r3, r2
 1769              		.loc 1 597 7
 1770 075c CAB2     		uxtb	r2, r1
 596:Projects/STM32F401RE-Nucleo/Examples/MotionControl/MicrosteppingMotor/Src/example_usart.c **** 						| (L6470_ActId << 3);
 1771              		.loc 1 596 49
 1772 075e 1A70     		strb	r2, [r3]
 598:Projects/STM32F401RE-Nucleo/Examples/MotionControl/MicrosteppingMotor/Src/example_usart.c **** 
 599:Projects/STM32F401RE-Nucleo/Examples/MotionControl/MicrosteppingMotor/Src/example_usart.c **** 				/* Checks the Motor Direction that has been entered (as 2nd parameter) */
 600:Projects/STM32F401RE-Nucleo/Examples/MotionControl/MicrosteppingMotor/Src/example_usart.c **** 				L6470_DirId = (eL6470_DirId_t) 0;
 1773              		.loc 1 600 17
 1774 0760 0023     		movs	r3, #0
 1775 0762 7B75     		strb	r3, [r7, #21]
 601:Projects/STM32F401RE-Nucleo/Examples/MotionControl/MicrosteppingMotor/Src/example_usart.c **** 				while (!CompareTwoTextString(
 1776              		.loc 1 601 11
 1777 0764 0BE0     		b	.L94
 1778              	.L95:
 602:Projects/STM32F401RE-Nucleo/Examples/MotionControl/MicrosteppingMotor/Src/example_usart.c **** 						(uint8_t*) (pL6470_TextCommandBundle + CmdTxt_id)->Param[1],
 603:Projects/STM32F401RE-Nucleo/Examples/MotionControl/MicrosteppingMotor/Src/example_usart.c **** 						(uint8_t*) L6470_Direction[L6470_DirId].Mnemonic)) {
 604:Projects/STM32F401RE-Nucleo/Examples/MotionControl/MicrosteppingMotor/Src/example_usart.c **** 					L6470_DirId++;
ARM GAS  C:\Users\ep_ygh\AppData\Local\Temp\ccqIQPDc.s 			page 46


 1779              		.loc 1 604 17
 1780 0766 7B7D     		ldrb	r3, [r7, #21]	@ zero_extendqisi2
 1781 0768 0133     		adds	r3, r3, #1
 1782 076a 7B75     		strb	r3, [r7, #21]
 605:Projects/STM32F401RE-Nucleo/Examples/MotionControl/MicrosteppingMotor/Src/example_usart.c **** 					if (L6470_DirId == L6470DIRIDSIZE) {
 1783              		.loc 1 605 9
 1784 076c 7B7D     		ldrb	r3, [r7, #21]	@ zero_extendqisi2
 1785 076e 022B     		cmp	r3, #2
 1786 0770 05D1     		bne	.L94
 606:Projects/STM32F401RE-Nucleo/Examples/MotionControl/MicrosteppingMotor/Src/example_usart.c **** #ifdef NUCLEO_USE_USART
 607:Projects/STM32F401RE-Nucleo/Examples/MotionControl/MicrosteppingMotor/Src/example_usart.c **** 						USART_Transmit(&huart2, (uint8_t *)"It is not possible to recognize any direction.\r\n\r\n");
 1787              		.loc 1 607 7
 1788 0772 7A49     		ldr	r1, .L113+20
 1789 0774 7648     		ldr	r0, .L113+8
 1790 0776 FFF7FEFF 		bl	USART_Transmit
 608:Projects/STM32F401RE-Nucleo/Examples/MotionControl/MicrosteppingMotor/Src/example_usart.c **** #endif
 609:Projects/STM32F401RE-Nucleo/Examples/MotionControl/MicrosteppingMotor/Src/example_usart.c **** 						return RESET;
 1791              		.loc 1 609 14
 1792 077a 0023     		movs	r3, #0
 1793 077c 52E1     		b	.L108
 1794              	.L94:
 602:Projects/STM32F401RE-Nucleo/Examples/MotionControl/MicrosteppingMotor/Src/example_usart.c **** 						(uint8_t*) L6470_Direction[L6470_DirId].Mnemonic)) {
 1795              		.loc 1 602 44
 1796 077e 3A7F     		ldrb	r2, [r7, #28]	@ zero_extendqisi2
 1797 0780 1346     		mov	r3, r2
 1798 0782 5B00     		lsls	r3, r3, #1
 1799 0784 1344     		add	r3, r3, r2
 1800 0786 1B01     		lsls	r3, r3, #4
 1801 0788 1A46     		mov	r2, r3
 1802 078a 7B68     		ldr	r3, [r7, #4]
 1803 078c 1344     		add	r3, r3, r2
 602:Projects/STM32F401RE-Nucleo/Examples/MotionControl/MicrosteppingMotor/Src/example_usart.c **** 						(uint8_t*) L6470_Direction[L6470_DirId].Mnemonic)) {
 1804              		.loc 1 602 18
 1805 078e 03F11A00 		add	r0, r3, #26
 603:Projects/STM32F401RE-Nucleo/Examples/MotionControl/MicrosteppingMotor/Src/example_usart.c **** 					L6470_DirId++;
 1806              		.loc 1 603 46
 1807 0792 7A7D     		ldrb	r2, [r7, #21]	@ zero_extendqisi2
 603:Projects/STM32F401RE-Nucleo/Examples/MotionControl/MicrosteppingMotor/Src/example_usart.c **** 					L6470_DirId++;
 1808              		.loc 1 603 18
 1809 0794 1346     		mov	r3, r2
 1810 0796 DB00     		lsls	r3, r3, #3
 1811 0798 1344     		add	r3, r3, r2
 1812 079a 6B4A     		ldr	r2, .L113
 1813 079c 1344     		add	r3, r3, r2
 601:Projects/STM32F401RE-Nucleo/Examples/MotionControl/MicrosteppingMotor/Src/example_usart.c **** 						(uint8_t*) (pL6470_TextCommandBundle + CmdTxt_id)->Param[1],
 1814              		.loc 1 601 13
 1815 079e 1946     		mov	r1, r3
 1816 07a0 FFF7FEFF 		bl	CompareTwoTextString
 1817 07a4 0346     		mov	r3, r0
 601:Projects/STM32F401RE-Nucleo/Examples/MotionControl/MicrosteppingMotor/Src/example_usart.c **** 						(uint8_t*) (pL6470_TextCommandBundle + CmdTxt_id)->Param[1],
 1818              		.loc 1 601 11
 1819 07a6 002B     		cmp	r3, #0
 1820 07a8 DDD0     		beq	.L95
 610:Projects/STM32F401RE-Nucleo/Examples/MotionControl/MicrosteppingMotor/Src/example_usart.c **** 					}
 611:Projects/STM32F401RE-Nucleo/Examples/MotionControl/MicrosteppingMotor/Src/example_usart.c **** 				}
 612:Projects/STM32F401RE-Nucleo/Examples/MotionControl/MicrosteppingMotor/Src/example_usart.c **** 				/* The 2nd application command parameter (as DIR) is known ************** */
 613:Projects/STM32F401RE-Nucleo/Examples/MotionControl/MicrosteppingMotor/Src/example_usart.c **** 				/* Build the 1st byte to transmit */
ARM GAS  C:\Users\ep_ygh\AppData\Local\Temp\ccqIQPDc.s 			page 47


 614:Projects/STM32F401RE-Nucleo/Examples/MotionControl/MicrosteppingMotor/Src/example_usart.c **** 				*(pL6470_DaisyChainSpiTxStruct
 615:Projects/STM32F401RE-Nucleo/Examples/MotionControl/MicrosteppingMotor/Src/example_usart.c **** 						+ ((0 * L6470DAISYCHAINSIZE) + L6470_Id)) |=
 1821              		.loc 1 615 49
 1822 07aa FB7C     		ldrb	r3, [r7, #19]	@ zero_extendqisi2
 1823 07ac 3A68     		ldr	r2, [r7]
 1824 07ae 1344     		add	r3, r3, r2
 1825 07b0 1978     		ldrb	r1, [r3]	@ zero_extendqisi2
 1826 07b2 FB7C     		ldrb	r3, [r7, #19]	@ zero_extendqisi2
 1827 07b4 3A68     		ldr	r2, [r7]
 1828 07b6 1344     		add	r3, r3, r2
 1829 07b8 7A7D     		ldrb	r2, [r7, #21]
 1830 07ba 0A43     		orrs	r2, r2, r1
 1831 07bc D2B2     		uxtb	r2, r2
 1832 07be 1A70     		strb	r2, [r3]
 616:Projects/STM32F401RE-Nucleo/Examples/MotionControl/MicrosteppingMotor/Src/example_usart.c **** 						L6470_DirId;
 617:Projects/STM32F401RE-Nucleo/Examples/MotionControl/MicrosteppingMotor/Src/example_usart.c **** 
 618:Projects/STM32F401RE-Nucleo/Examples/MotionControl/MicrosteppingMotor/Src/example_usart.c **** 				/* Checks the numeric parameter that has been entered (as 3rd parameter) */
 619:Projects/STM32F401RE-Nucleo/Examples/MotionControl/MicrosteppingMotor/Src/example_usart.c **** 				if (!str2num(
 620:Projects/STM32F401RE-Nucleo/Examples/MotionControl/MicrosteppingMotor/Src/example_usart.c **** 						(uint8_t*) (pL6470_TextCommandBundle + CmdTxt_id)->Param[2],
 1833              		.loc 1 620 44
 1834 07c0 3A7F     		ldrb	r2, [r7, #28]	@ zero_extendqisi2
 1835 07c2 1346     		mov	r3, r2
 1836 07c4 5B00     		lsls	r3, r3, #1
 1837 07c6 1344     		add	r3, r3, r2
 1838 07c8 1B01     		lsls	r3, r3, #4
 1839 07ca 1A46     		mov	r2, r3
 1840 07cc 7B68     		ldr	r3, [r7, #4]
 1841 07ce 1344     		add	r3, r3, r2
 1842              		.loc 1 620 18
 1843 07d0 2533     		adds	r3, r3, #37
 619:Projects/STM32F401RE-Nucleo/Examples/MotionControl/MicrosteppingMotor/Src/example_usart.c **** 						(uint8_t*) (pL6470_TextCommandBundle + CmdTxt_id)->Param[2],
 1844              		.loc 1 619 10
 1845 07d2 07F10802 		add	r2, r7, #8
 1846 07d6 1146     		mov	r1, r2
 1847 07d8 1846     		mov	r0, r3
 1848 07da FFF7FEFF 		bl	str2num
 1849 07de 0346     		mov	r3, r0
 619:Projects/STM32F401RE-Nucleo/Examples/MotionControl/MicrosteppingMotor/Src/example_usart.c **** 						(uint8_t*) (pL6470_TextCommandBundle + CmdTxt_id)->Param[2],
 1850              		.loc 1 619 8
 1851 07e0 002B     		cmp	r3, #0
 1852 07e2 05D1     		bne	.L96
 621:Projects/STM32F401RE-Nucleo/Examples/MotionControl/MicrosteppingMotor/Src/example_usart.c **** 						&NumericValue)) {
 622:Projects/STM32F401RE-Nucleo/Examples/MotionControl/MicrosteppingMotor/Src/example_usart.c **** #ifdef NUCLEO_USE_USART
 623:Projects/STM32F401RE-Nucleo/Examples/MotionControl/MicrosteppingMotor/Src/example_usart.c **** 					USART_Transmit(&huart2, (uint8_t *)"It is not possible to recognize any numeric value.\r\n\r\n
 1853              		.loc 1 623 6
 1854 07e4 5949     		ldr	r1, .L113+4
 1855 07e6 5A48     		ldr	r0, .L113+8
 1856 07e8 FFF7FEFF 		bl	USART_Transmit
 624:Projects/STM32F401RE-Nucleo/Examples/MotionControl/MicrosteppingMotor/Src/example_usart.c **** #endif
 625:Projects/STM32F401RE-Nucleo/Examples/MotionControl/MicrosteppingMotor/Src/example_usart.c **** 					return RESET;
 1857              		.loc 1 625 13
 1858 07ec 0023     		movs	r3, #0
 1859 07ee 19E1     		b	.L108
 1860              	.L96:
 626:Projects/STM32F401RE-Nucleo/Examples/MotionControl/MicrosteppingMotor/Src/example_usart.c **** 				}
 627:Projects/STM32F401RE-Nucleo/Examples/MotionControl/MicrosteppingMotor/Src/example_usart.c **** 				/* The 3rd application command parameter (as a numeric value) is known */
 628:Projects/STM32F401RE-Nucleo/Examples/MotionControl/MicrosteppingMotor/Src/example_usart.c **** 
ARM GAS  C:\Users\ep_ygh\AppData\Local\Temp\ccqIQPDc.s 			page 48


 629:Projects/STM32F401RE-Nucleo/Examples/MotionControl/MicrosteppingMotor/Src/example_usart.c **** 				/* Build the others bytes to transmit (SPD) */
 630:Projects/STM32F401RE-Nucleo/Examples/MotionControl/MicrosteppingMotor/Src/example_usart.c **** 				for (spibyte = 1; spibyte < (3 + 1); spibyte++) {
 1861              		.loc 1 630 18
 1862 07f0 0123     		movs	r3, #1
 1863 07f2 BB77     		strb	r3, [r7, #30]
 1864              		.loc 1 630 5
 1865 07f4 12E0     		b	.L97
 1866              	.L98:
 631:Projects/STM32F401RE-Nucleo/Examples/MotionControl/MicrosteppingMotor/Src/example_usart.c **** 					*(pL6470_DaisyChainSpiTxStruct
 632:Projects/STM32F401RE-Nucleo/Examples/MotionControl/MicrosteppingMotor/Src/example_usart.c **** 							+ ((spibyte * L6470DAISYCHAINSIZE) + L6470_Id)) =
 633:Projects/STM32F401RE-Nucleo/Examples/MotionControl/MicrosteppingMotor/Src/example_usart.c **** 							(uint8_t) (NumericValue >> (8 * (3 - spibyte)));
 1867              		.loc 1 633 32 discriminator 3
 1868 07f6 BA68     		ldr	r2, [r7, #8]
 1869              		.loc 1 633 43 discriminator 3
 1870 07f8 BB7F     		ldrb	r3, [r7, #30]	@ zero_extendqisi2
 1871 07fa C3F10303 		rsb	r3, r3, #3
 1872              		.loc 1 633 38 discriminator 3
 1873 07fe DB00     		lsls	r3, r3, #3
 1874              		.loc 1 633 32 discriminator 3
 1875 0800 22FA03F1 		lsr	r1, r2, r3
 632:Projects/STM32F401RE-Nucleo/Examples/MotionControl/MicrosteppingMotor/Src/example_usart.c **** 							(uint8_t) (NumericValue >> (8 * (3 - spibyte)));
 1876              		.loc 1 632 20 discriminator 3
 1877 0804 BB7F     		ldrb	r3, [r7, #30]	@ zero_extendqisi2
 1878 0806 5A00     		lsls	r2, r3, #1
 632:Projects/STM32F401RE-Nucleo/Examples/MotionControl/MicrosteppingMotor/Src/example_usart.c **** 							(uint8_t) (NumericValue >> (8 * (3 - spibyte)));
 1879              		.loc 1 632 43 discriminator 3
 1880 0808 FB7C     		ldrb	r3, [r7, #19]	@ zero_extendqisi2
 1881 080a 1344     		add	r3, r3, r2
 1882 080c 1A46     		mov	r2, r3
 632:Projects/STM32F401RE-Nucleo/Examples/MotionControl/MicrosteppingMotor/Src/example_usart.c **** 							(uint8_t) (NumericValue >> (8 * (3 - spibyte)));
 1883              		.loc 1 632 8 discriminator 3
 1884 080e 3B68     		ldr	r3, [r7]
 1885 0810 1344     		add	r3, r3, r2
 1886              		.loc 1 633 8 discriminator 3
 1887 0812 CAB2     		uxtb	r2, r1
 632:Projects/STM32F401RE-Nucleo/Examples/MotionControl/MicrosteppingMotor/Src/example_usart.c **** 							(uint8_t) (NumericValue >> (8 * (3 - spibyte)));
 1888              		.loc 1 632 56 discriminator 3
 1889 0814 1A70     		strb	r2, [r3]
 630:Projects/STM32F401RE-Nucleo/Examples/MotionControl/MicrosteppingMotor/Src/example_usart.c **** 					*(pL6470_DaisyChainSpiTxStruct
 1890              		.loc 1 630 49 discriminator 3
 1891 0816 BB7F     		ldrb	r3, [r7, #30]	@ zero_extendqisi2
 1892 0818 0133     		adds	r3, r3, #1
 1893 081a BB77     		strb	r3, [r7, #30]
 1894              	.L97:
 630:Projects/STM32F401RE-Nucleo/Examples/MotionControl/MicrosteppingMotor/Src/example_usart.c **** 					*(pL6470_DaisyChainSpiTxStruct
 1895              		.loc 1 630 5 discriminator 1
 1896 081c BB7F     		ldrb	r3, [r7, #30]	@ zero_extendqisi2
 1897 081e 032B     		cmp	r3, #3
 1898 0820 E9D9     		bls	.L98
 634:Projects/STM32F401RE-Nucleo/Examples/MotionControl/MicrosteppingMotor/Src/example_usart.c **** 				}
 635:Projects/STM32F401RE-Nucleo/Examples/MotionControl/MicrosteppingMotor/Src/example_usart.c **** 				break;
 1899              		.loc 1 635 5
 1900 0822 BBE0     		b	.L105
 1901              	.L53:
 636:Projects/STM32F401RE-Nucleo/Examples/MotionControl/MicrosteppingMotor/Src/example_usart.c **** 			case L6470_RELEASESW_ID:
 637:Projects/STM32F401RE-Nucleo/Examples/MotionControl/MicrosteppingMotor/Src/example_usart.c **** 				/* Checks the Action about ABS_POS register that has been entered (as 1st parameter) */
 638:Projects/STM32F401RE-Nucleo/Examples/MotionControl/MicrosteppingMotor/Src/example_usart.c **** 				L6470_ActId = (eL6470_ActId_t) 0;
ARM GAS  C:\Users\ep_ygh\AppData\Local\Temp\ccqIQPDc.s 			page 49


 1902              		.loc 1 638 17
 1903 0824 0023     		movs	r3, #0
 1904 0826 3B75     		strb	r3, [r7, #20]
 639:Projects/STM32F401RE-Nucleo/Examples/MotionControl/MicrosteppingMotor/Src/example_usart.c **** 				while (!CompareTwoTextString(
 1905              		.loc 1 639 11
 1906 0828 0BE0     		b	.L99
 1907              	.L100:
 640:Projects/STM32F401RE-Nucleo/Examples/MotionControl/MicrosteppingMotor/Src/example_usart.c **** 						(uint8_t*) (pL6470_TextCommandBundle + CmdTxt_id)->Param[0],
 641:Projects/STM32F401RE-Nucleo/Examples/MotionControl/MicrosteppingMotor/Src/example_usart.c **** 						(uint8_t*) L6470_ACT[L6470_ActId].Mnemonic)) {
 642:Projects/STM32F401RE-Nucleo/Examples/MotionControl/MicrosteppingMotor/Src/example_usart.c **** 					L6470_ActId++;
 1908              		.loc 1 642 17
 1909 082a 3B7D     		ldrb	r3, [r7, #20]	@ zero_extendqisi2
 1910 082c 0133     		adds	r3, r3, #1
 1911 082e 3B75     		strb	r3, [r7, #20]
 643:Projects/STM32F401RE-Nucleo/Examples/MotionControl/MicrosteppingMotor/Src/example_usart.c **** 					if (L6470_ActId == L6470ACTIDSIZE) {
 1912              		.loc 1 643 9
 1913 0830 3B7D     		ldrb	r3, [r7, #20]	@ zero_extendqisi2
 1914 0832 022B     		cmp	r3, #2
 1915 0834 05D1     		bne	.L99
 644:Projects/STM32F401RE-Nucleo/Examples/MotionControl/MicrosteppingMotor/Src/example_usart.c **** #ifdef NUCLEO_USE_USART
 645:Projects/STM32F401RE-Nucleo/Examples/MotionControl/MicrosteppingMotor/Src/example_usart.c **** 						USART_Transmit(&huart2, (uint8_t *)"It is not possible to recognize any action.\r\n\r\n");
 1916              		.loc 1 645 7
 1917 0836 4749     		ldr	r1, .L113+12
 1918 0838 4548     		ldr	r0, .L113+8
 1919 083a FFF7FEFF 		bl	USART_Transmit
 646:Projects/STM32F401RE-Nucleo/Examples/MotionControl/MicrosteppingMotor/Src/example_usart.c **** #endif
 647:Projects/STM32F401RE-Nucleo/Examples/MotionControl/MicrosteppingMotor/Src/example_usart.c **** 						return RESET;
 1920              		.loc 1 647 14
 1921 083e 0023     		movs	r3, #0
 1922 0840 F0E0     		b	.L108
 1923              	.L99:
 640:Projects/STM32F401RE-Nucleo/Examples/MotionControl/MicrosteppingMotor/Src/example_usart.c **** 						(uint8_t*) L6470_ACT[L6470_ActId].Mnemonic)) {
 1924              		.loc 1 640 44
 1925 0842 3A7F     		ldrb	r2, [r7, #28]	@ zero_extendqisi2
 1926 0844 1346     		mov	r3, r2
 1927 0846 5B00     		lsls	r3, r3, #1
 1928 0848 1344     		add	r3, r3, r2
 1929 084a 1B01     		lsls	r3, r3, #4
 1930 084c 1A46     		mov	r2, r3
 1931 084e 7B68     		ldr	r3, [r7, #4]
 1932 0850 1344     		add	r3, r3, r2
 640:Projects/STM32F401RE-Nucleo/Examples/MotionControl/MicrosteppingMotor/Src/example_usart.c **** 						(uint8_t*) L6470_ACT[L6470_ActId].Mnemonic)) {
 1933              		.loc 1 640 18
 1934 0852 03F10F00 		add	r0, r3, #15
 641:Projects/STM32F401RE-Nucleo/Examples/MotionControl/MicrosteppingMotor/Src/example_usart.c **** 					L6470_ActId++;
 1935              		.loc 1 641 40
 1936 0856 3A7D     		ldrb	r2, [r7, #20]	@ zero_extendqisi2
 641:Projects/STM32F401RE-Nucleo/Examples/MotionControl/MicrosteppingMotor/Src/example_usart.c **** 					L6470_ActId++;
 1937              		.loc 1 641 18
 1938 0858 1346     		mov	r3, r2
 1939 085a 9B00     		lsls	r3, r3, #2
 1940 085c 1344     		add	r3, r3, r2
 1941 085e 3E4A     		ldr	r2, .L113+16
 1942 0860 1344     		add	r3, r3, r2
 639:Projects/STM32F401RE-Nucleo/Examples/MotionControl/MicrosteppingMotor/Src/example_usart.c **** 						(uint8_t*) (pL6470_TextCommandBundle + CmdTxt_id)->Param[0],
 1943              		.loc 1 639 13
 1944 0862 1946     		mov	r1, r3
ARM GAS  C:\Users\ep_ygh\AppData\Local\Temp\ccqIQPDc.s 			page 50


 1945 0864 FFF7FEFF 		bl	CompareTwoTextString
 1946 0868 0346     		mov	r3, r0
 639:Projects/STM32F401RE-Nucleo/Examples/MotionControl/MicrosteppingMotor/Src/example_usart.c **** 						(uint8_t*) (pL6470_TextCommandBundle + CmdTxt_id)->Param[0],
 1947              		.loc 1 639 11
 1948 086a 002B     		cmp	r3, #0
 1949 086c DDD0     		beq	.L100
 648:Projects/STM32F401RE-Nucleo/Examples/MotionControl/MicrosteppingMotor/Src/example_usart.c **** 					}
 649:Projects/STM32F401RE-Nucleo/Examples/MotionControl/MicrosteppingMotor/Src/example_usart.c **** 				}
 650:Projects/STM32F401RE-Nucleo/Examples/MotionControl/MicrosteppingMotor/Src/example_usart.c **** 				/* The 1st application command parameter (as ACT) is known **************** */
 651:Projects/STM32F401RE-Nucleo/Examples/MotionControl/MicrosteppingMotor/Src/example_usart.c **** 				/* Build the 1st byte to transmit */
 652:Projects/STM32F401RE-Nucleo/Examples/MotionControl/MicrosteppingMotor/Src/example_usart.c **** 				*(pL6470_DaisyChainSpiTxStruct
 653:Projects/STM32F401RE-Nucleo/Examples/MotionControl/MicrosteppingMotor/Src/example_usart.c **** 						+ ((0 * L6470DAISYCHAINSIZE) + L6470_Id)) = 0x92
 654:Projects/STM32F401RE-Nucleo/Examples/MotionControl/MicrosteppingMotor/Src/example_usart.c **** 						| (L6470_ActId << 3);
 1950              		.loc 1 654 22
 1951 086e 3B7D     		ldrb	r3, [r7, #20]	@ zero_extendqisi2
 1952 0870 DB00     		lsls	r3, r3, #3
 1953              		.loc 1 654 7
 1954 0872 5BB2     		sxtb	r3, r3
 1955 0874 63F06D03 		orn	r3, r3, #109
 1956 0878 59B2     		sxtb	r1, r3
 653:Projects/STM32F401RE-Nucleo/Examples/MotionControl/MicrosteppingMotor/Src/example_usart.c **** 						| (L6470_ActId << 3);
 1957              		.loc 1 653 36
 1958 087a FB7C     		ldrb	r3, [r7, #19]	@ zero_extendqisi2
 653:Projects/STM32F401RE-Nucleo/Examples/MotionControl/MicrosteppingMotor/Src/example_usart.c **** 						| (L6470_ActId << 3);
 1959              		.loc 1 653 7
 1960 087c 3A68     		ldr	r2, [r7]
 1961 087e 1344     		add	r3, r3, r2
 1962              		.loc 1 654 7
 1963 0880 CAB2     		uxtb	r2, r1
 653:Projects/STM32F401RE-Nucleo/Examples/MotionControl/MicrosteppingMotor/Src/example_usart.c **** 						| (L6470_ActId << 3);
 1964              		.loc 1 653 49
 1965 0882 1A70     		strb	r2, [r3]
 655:Projects/STM32F401RE-Nucleo/Examples/MotionControl/MicrosteppingMotor/Src/example_usart.c **** 
 656:Projects/STM32F401RE-Nucleo/Examples/MotionControl/MicrosteppingMotor/Src/example_usart.c **** 				/* Checks the Motor Direction that has been entered (as 2nd parameter) */
 657:Projects/STM32F401RE-Nucleo/Examples/MotionControl/MicrosteppingMotor/Src/example_usart.c **** 				L6470_DirId = (eL6470_DirId_t) 0;
 1966              		.loc 1 657 17
 1967 0884 0023     		movs	r3, #0
 1968 0886 7B75     		strb	r3, [r7, #21]
 658:Projects/STM32F401RE-Nucleo/Examples/MotionControl/MicrosteppingMotor/Src/example_usart.c **** 				while (!CompareTwoTextString(
 1969              		.loc 1 658 11
 1970 0888 0BE0     		b	.L101
 1971              	.L102:
 659:Projects/STM32F401RE-Nucleo/Examples/MotionControl/MicrosteppingMotor/Src/example_usart.c **** 						(uint8_t*) (pL6470_TextCommandBundle + CmdTxt_id)->Param[1],
 660:Projects/STM32F401RE-Nucleo/Examples/MotionControl/MicrosteppingMotor/Src/example_usart.c **** 						(uint8_t*) L6470_Direction[L6470_DirId].Mnemonic)) {
 661:Projects/STM32F401RE-Nucleo/Examples/MotionControl/MicrosteppingMotor/Src/example_usart.c **** 					L6470_DirId++;
 1972              		.loc 1 661 17
 1973 088a 7B7D     		ldrb	r3, [r7, #21]	@ zero_extendqisi2
 1974 088c 0133     		adds	r3, r3, #1
 1975 088e 7B75     		strb	r3, [r7, #21]
 662:Projects/STM32F401RE-Nucleo/Examples/MotionControl/MicrosteppingMotor/Src/example_usart.c **** 					if (L6470_DirId == L6470DIRIDSIZE) {
 1976              		.loc 1 662 9
 1977 0890 7B7D     		ldrb	r3, [r7, #21]	@ zero_extendqisi2
 1978 0892 022B     		cmp	r3, #2
 1979 0894 05D1     		bne	.L101
 663:Projects/STM32F401RE-Nucleo/Examples/MotionControl/MicrosteppingMotor/Src/example_usart.c **** #ifdef NUCLEO_USE_USART
 664:Projects/STM32F401RE-Nucleo/Examples/MotionControl/MicrosteppingMotor/Src/example_usart.c **** 						USART_Transmit(&huart2, (uint8_t *)"It is not possible to recognize any direction.\r\n\r\n");
 1980              		.loc 1 664 7
ARM GAS  C:\Users\ep_ygh\AppData\Local\Temp\ccqIQPDc.s 			page 51


 1981 0896 3149     		ldr	r1, .L113+20
 1982 0898 2D48     		ldr	r0, .L113+8
 1983 089a FFF7FEFF 		bl	USART_Transmit
 665:Projects/STM32F401RE-Nucleo/Examples/MotionControl/MicrosteppingMotor/Src/example_usart.c **** #endif
 666:Projects/STM32F401RE-Nucleo/Examples/MotionControl/MicrosteppingMotor/Src/example_usart.c **** 						return RESET;
 1984              		.loc 1 666 14
 1985 089e 0023     		movs	r3, #0
 1986 08a0 C0E0     		b	.L108
 1987              	.L101:
 659:Projects/STM32F401RE-Nucleo/Examples/MotionControl/MicrosteppingMotor/Src/example_usart.c **** 						(uint8_t*) L6470_Direction[L6470_DirId].Mnemonic)) {
 1988              		.loc 1 659 44
 1989 08a2 3A7F     		ldrb	r2, [r7, #28]	@ zero_extendqisi2
 1990 08a4 1346     		mov	r3, r2
 1991 08a6 5B00     		lsls	r3, r3, #1
 1992 08a8 1344     		add	r3, r3, r2
 1993 08aa 1B01     		lsls	r3, r3, #4
 1994 08ac 1A46     		mov	r2, r3
 1995 08ae 7B68     		ldr	r3, [r7, #4]
 1996 08b0 1344     		add	r3, r3, r2
 659:Projects/STM32F401RE-Nucleo/Examples/MotionControl/MicrosteppingMotor/Src/example_usart.c **** 						(uint8_t*) L6470_Direction[L6470_DirId].Mnemonic)) {
 1997              		.loc 1 659 18
 1998 08b2 03F11A00 		add	r0, r3, #26
 660:Projects/STM32F401RE-Nucleo/Examples/MotionControl/MicrosteppingMotor/Src/example_usart.c **** 					L6470_DirId++;
 1999              		.loc 1 660 46
 2000 08b6 7A7D     		ldrb	r2, [r7, #21]	@ zero_extendqisi2
 660:Projects/STM32F401RE-Nucleo/Examples/MotionControl/MicrosteppingMotor/Src/example_usart.c **** 					L6470_DirId++;
 2001              		.loc 1 660 18
 2002 08b8 1346     		mov	r3, r2
 2003 08ba DB00     		lsls	r3, r3, #3
 2004 08bc 1344     		add	r3, r3, r2
 2005 08be 224A     		ldr	r2, .L113
 2006 08c0 1344     		add	r3, r3, r2
 658:Projects/STM32F401RE-Nucleo/Examples/MotionControl/MicrosteppingMotor/Src/example_usart.c **** 						(uint8_t*) (pL6470_TextCommandBundle + CmdTxt_id)->Param[1],
 2007              		.loc 1 658 13
 2008 08c2 1946     		mov	r1, r3
 2009 08c4 FFF7FEFF 		bl	CompareTwoTextString
 2010 08c8 0346     		mov	r3, r0
 658:Projects/STM32F401RE-Nucleo/Examples/MotionControl/MicrosteppingMotor/Src/example_usart.c **** 						(uint8_t*) (pL6470_TextCommandBundle + CmdTxt_id)->Param[1],
 2011              		.loc 1 658 11
 2012 08ca 002B     		cmp	r3, #0
 2013 08cc DDD0     		beq	.L102
 667:Projects/STM32F401RE-Nucleo/Examples/MotionControl/MicrosteppingMotor/Src/example_usart.c **** 					}
 668:Projects/STM32F401RE-Nucleo/Examples/MotionControl/MicrosteppingMotor/Src/example_usart.c **** 				}
 669:Projects/STM32F401RE-Nucleo/Examples/MotionControl/MicrosteppingMotor/Src/example_usart.c **** 				/* The 2nd application command parameter (as DIR) is known ************** */
 670:Projects/STM32F401RE-Nucleo/Examples/MotionControl/MicrosteppingMotor/Src/example_usart.c **** 				/* Build the 1st byte to transmit */
 671:Projects/STM32F401RE-Nucleo/Examples/MotionControl/MicrosteppingMotor/Src/example_usart.c **** 				*(pL6470_DaisyChainSpiTxStruct
 672:Projects/STM32F401RE-Nucleo/Examples/MotionControl/MicrosteppingMotor/Src/example_usart.c **** 						+ ((0 * L6470DAISYCHAINSIZE) + L6470_Id)) |=
 2014              		.loc 1 672 49
 2015 08ce FB7C     		ldrb	r3, [r7, #19]	@ zero_extendqisi2
 2016 08d0 3A68     		ldr	r2, [r7]
 2017 08d2 1344     		add	r3, r3, r2
 2018 08d4 1978     		ldrb	r1, [r3]	@ zero_extendqisi2
 2019 08d6 FB7C     		ldrb	r3, [r7, #19]	@ zero_extendqisi2
 2020 08d8 3A68     		ldr	r2, [r7]
 2021 08da 1344     		add	r3, r3, r2
 2022 08dc 7A7D     		ldrb	r2, [r7, #21]
 2023 08de 0A43     		orrs	r2, r2, r1
ARM GAS  C:\Users\ep_ygh\AppData\Local\Temp\ccqIQPDc.s 			page 52


 2024 08e0 D2B2     		uxtb	r2, r2
 2025 08e2 1A70     		strb	r2, [r3]
 673:Projects/STM32F401RE-Nucleo/Examples/MotionControl/MicrosteppingMotor/Src/example_usart.c **** 						L6470_DirId;
 674:Projects/STM32F401RE-Nucleo/Examples/MotionControl/MicrosteppingMotor/Src/example_usart.c **** 				break;
 2026              		.loc 1 674 5
 2027 08e4 5AE0     		b	.L105
 2028              	.L52:
 675:Projects/STM32F401RE-Nucleo/Examples/MotionControl/MicrosteppingMotor/Src/example_usart.c **** 			case L6470_GOHOME_ID:
 676:Projects/STM32F401RE-Nucleo/Examples/MotionControl/MicrosteppingMotor/Src/example_usart.c **** 				/* Build the 1st byte to transmit */
 677:Projects/STM32F401RE-Nucleo/Examples/MotionControl/MicrosteppingMotor/Src/example_usart.c **** 				*(pL6470_DaisyChainSpiTxStruct
 678:Projects/STM32F401RE-Nucleo/Examples/MotionControl/MicrosteppingMotor/Src/example_usart.c **** 						+ ((0 * L6470DAISYCHAINSIZE) + L6470_Id)) = 0x70;
 2029              		.loc 1 678 36
 2030 08e6 FB7C     		ldrb	r3, [r7, #19]	@ zero_extendqisi2
 2031              		.loc 1 678 7
 2032 08e8 3A68     		ldr	r2, [r7]
 2033 08ea 1344     		add	r3, r3, r2
 2034              		.loc 1 678 49
 2035 08ec 7022     		movs	r2, #112
 2036 08ee 1A70     		strb	r2, [r3]
 679:Projects/STM32F401RE-Nucleo/Examples/MotionControl/MicrosteppingMotor/Src/example_usart.c **** 				break;
 2037              		.loc 1 679 5
 2038 08f0 54E0     		b	.L105
 2039              	.L51:
 680:Projects/STM32F401RE-Nucleo/Examples/MotionControl/MicrosteppingMotor/Src/example_usart.c **** 			case L6470_GOMARK_ID:
 681:Projects/STM32F401RE-Nucleo/Examples/MotionControl/MicrosteppingMotor/Src/example_usart.c **** 				/* Build the 1st byte to transmit */
 682:Projects/STM32F401RE-Nucleo/Examples/MotionControl/MicrosteppingMotor/Src/example_usart.c **** 				*(pL6470_DaisyChainSpiTxStruct
 683:Projects/STM32F401RE-Nucleo/Examples/MotionControl/MicrosteppingMotor/Src/example_usart.c **** 						+ ((0 * L6470DAISYCHAINSIZE) + L6470_Id)) = 0x78;
 2040              		.loc 1 683 36
 2041 08f2 FB7C     		ldrb	r3, [r7, #19]	@ zero_extendqisi2
 2042              		.loc 1 683 7
 2043 08f4 3A68     		ldr	r2, [r7]
 2044 08f6 1344     		add	r3, r3, r2
 2045              		.loc 1 683 49
 2046 08f8 7822     		movs	r2, #120
 2047 08fa 1A70     		strb	r2, [r3]
 684:Projects/STM32F401RE-Nucleo/Examples/MotionControl/MicrosteppingMotor/Src/example_usart.c **** 				break;
 2048              		.loc 1 684 5
 2049 08fc 4EE0     		b	.L105
 2050              	.L50:
 685:Projects/STM32F401RE-Nucleo/Examples/MotionControl/MicrosteppingMotor/Src/example_usart.c **** 			case L6470_RESETPOS_ID:
 686:Projects/STM32F401RE-Nucleo/Examples/MotionControl/MicrosteppingMotor/Src/example_usart.c **** 				/* Build the 1st byte to transmit */
 687:Projects/STM32F401RE-Nucleo/Examples/MotionControl/MicrosteppingMotor/Src/example_usart.c **** 				*(pL6470_DaisyChainSpiTxStruct
 688:Projects/STM32F401RE-Nucleo/Examples/MotionControl/MicrosteppingMotor/Src/example_usart.c **** 						+ ((0 * L6470DAISYCHAINSIZE) + L6470_Id)) = 0xD8;
 2051              		.loc 1 688 36
 2052 08fe FB7C     		ldrb	r3, [r7, #19]	@ zero_extendqisi2
 2053              		.loc 1 688 7
 2054 0900 3A68     		ldr	r2, [r7]
 2055 0902 1344     		add	r3, r3, r2
 2056              		.loc 1 688 49
 2057 0904 D822     		movs	r2, #216
 2058 0906 1A70     		strb	r2, [r3]
 689:Projects/STM32F401RE-Nucleo/Examples/MotionControl/MicrosteppingMotor/Src/example_usart.c **** 				break;
 2059              		.loc 1 689 5
 2060 0908 48E0     		b	.L105
 2061              	.L49:
 690:Projects/STM32F401RE-Nucleo/Examples/MotionControl/MicrosteppingMotor/Src/example_usart.c **** 			case L6470_RESETDEVICE_ID:
 691:Projects/STM32F401RE-Nucleo/Examples/MotionControl/MicrosteppingMotor/Src/example_usart.c **** 				/* Build the 1st byte to transmit */
ARM GAS  C:\Users\ep_ygh\AppData\Local\Temp\ccqIQPDc.s 			page 53


 692:Projects/STM32F401RE-Nucleo/Examples/MotionControl/MicrosteppingMotor/Src/example_usart.c **** 				*(pL6470_DaisyChainSpiTxStruct
 693:Projects/STM32F401RE-Nucleo/Examples/MotionControl/MicrosteppingMotor/Src/example_usart.c **** 						+ ((0 * L6470DAISYCHAINSIZE) + L6470_Id)) = 0xC0;
 2062              		.loc 1 693 36
 2063 090a FB7C     		ldrb	r3, [r7, #19]	@ zero_extendqisi2
 2064              		.loc 1 693 7
 2065 090c 3A68     		ldr	r2, [r7]
 2066 090e 1344     		add	r3, r3, r2
 2067              		.loc 1 693 49
 2068 0910 C022     		movs	r2, #192
 2069 0912 1A70     		strb	r2, [r3]
 694:Projects/STM32F401RE-Nucleo/Examples/MotionControl/MicrosteppingMotor/Src/example_usart.c **** 				break;
 2070              		.loc 1 694 5
 2071 0914 42E0     		b	.L105
 2072              	.L48:
 695:Projects/STM32F401RE-Nucleo/Examples/MotionControl/MicrosteppingMotor/Src/example_usart.c **** 			case L6470_SOFTSTOP_ID:
 696:Projects/STM32F401RE-Nucleo/Examples/MotionControl/MicrosteppingMotor/Src/example_usart.c **** 				/* Build the 1st byte to transmit */
 697:Projects/STM32F401RE-Nucleo/Examples/MotionControl/MicrosteppingMotor/Src/example_usart.c **** 				*(pL6470_DaisyChainSpiTxStruct
 698:Projects/STM32F401RE-Nucleo/Examples/MotionControl/MicrosteppingMotor/Src/example_usart.c **** 						+ ((0 * L6470DAISYCHAINSIZE) + L6470_Id)) = 0xB0;
 2073              		.loc 1 698 36
 2074 0916 FB7C     		ldrb	r3, [r7, #19]	@ zero_extendqisi2
 2075              		.loc 1 698 7
 2076 0918 3A68     		ldr	r2, [r7]
 2077 091a 1344     		add	r3, r3, r2
 2078              		.loc 1 698 49
 2079 091c B022     		movs	r2, #176
 2080 091e 1A70     		strb	r2, [r3]
 699:Projects/STM32F401RE-Nucleo/Examples/MotionControl/MicrosteppingMotor/Src/example_usart.c **** 				break;
 2081              		.loc 1 699 5
 2082 0920 3CE0     		b	.L105
 2083              	.L47:
 700:Projects/STM32F401RE-Nucleo/Examples/MotionControl/MicrosteppingMotor/Src/example_usart.c **** 			case L6470_HARDSTOP_ID:
 701:Projects/STM32F401RE-Nucleo/Examples/MotionControl/MicrosteppingMotor/Src/example_usart.c **** 				/* Build the 1st byte to transmit */
 702:Projects/STM32F401RE-Nucleo/Examples/MotionControl/MicrosteppingMotor/Src/example_usart.c **** 				*(pL6470_DaisyChainSpiTxStruct
 703:Projects/STM32F401RE-Nucleo/Examples/MotionControl/MicrosteppingMotor/Src/example_usart.c **** 						+ ((0 * L6470DAISYCHAINSIZE) + L6470_Id)) = 0xB8;
 2084              		.loc 1 703 36
 2085 0922 FB7C     		ldrb	r3, [r7, #19]	@ zero_extendqisi2
 2086              		.loc 1 703 7
 2087 0924 3A68     		ldr	r2, [r7]
 2088 0926 1344     		add	r3, r3, r2
 2089              		.loc 1 703 49
 2090 0928 B822     		movs	r2, #184
 2091 092a 1A70     		strb	r2, [r3]
 704:Projects/STM32F401RE-Nucleo/Examples/MotionControl/MicrosteppingMotor/Src/example_usart.c **** 				break;
 2092              		.loc 1 704 5
 2093 092c 36E0     		b	.L105
 2094              	.L46:
 705:Projects/STM32F401RE-Nucleo/Examples/MotionControl/MicrosteppingMotor/Src/example_usart.c **** 			case L6470_SOFTHIZ_ID:
 706:Projects/STM32F401RE-Nucleo/Examples/MotionControl/MicrosteppingMotor/Src/example_usart.c **** 				/* Build the 1st byte to transmit */
 707:Projects/STM32F401RE-Nucleo/Examples/MotionControl/MicrosteppingMotor/Src/example_usart.c **** 				*(pL6470_DaisyChainSpiTxStruct
 708:Projects/STM32F401RE-Nucleo/Examples/MotionControl/MicrosteppingMotor/Src/example_usart.c **** 						+ ((0 * L6470DAISYCHAINSIZE) + L6470_Id)) = 0xA0;
 2095              		.loc 1 708 36
 2096 092e FB7C     		ldrb	r3, [r7, #19]	@ zero_extendqisi2
 2097              		.loc 1 708 7
 2098 0930 3A68     		ldr	r2, [r7]
 2099 0932 1344     		add	r3, r3, r2
 2100              		.loc 1 708 49
 2101 0934 A022     		movs	r2, #160
ARM GAS  C:\Users\ep_ygh\AppData\Local\Temp\ccqIQPDc.s 			page 54


 2102 0936 1A70     		strb	r2, [r3]
 709:Projects/STM32F401RE-Nucleo/Examples/MotionControl/MicrosteppingMotor/Src/example_usart.c **** 				break;
 2103              		.loc 1 709 5
 2104 0938 30E0     		b	.L105
 2105              	.L45:
 710:Projects/STM32F401RE-Nucleo/Examples/MotionControl/MicrosteppingMotor/Src/example_usart.c **** 			case L6470_HARDHIZ_ID:
 711:Projects/STM32F401RE-Nucleo/Examples/MotionControl/MicrosteppingMotor/Src/example_usart.c **** 				/* Build the 1st byte to transmit */
 712:Projects/STM32F401RE-Nucleo/Examples/MotionControl/MicrosteppingMotor/Src/example_usart.c **** 				*(pL6470_DaisyChainSpiTxStruct
 713:Projects/STM32F401RE-Nucleo/Examples/MotionControl/MicrosteppingMotor/Src/example_usart.c **** 						+ ((0 * L6470DAISYCHAINSIZE) + L6470_Id)) = 0xA8;
 2106              		.loc 1 713 36
 2107 093a FB7C     		ldrb	r3, [r7, #19]	@ zero_extendqisi2
 2108              		.loc 1 713 7
 2109 093c 3A68     		ldr	r2, [r7]
 2110 093e 1344     		add	r3, r3, r2
 2111              		.loc 1 713 49
 2112 0940 A822     		movs	r2, #168
 2113 0942 1A70     		strb	r2, [r3]
 714:Projects/STM32F401RE-Nucleo/Examples/MotionControl/MicrosteppingMotor/Src/example_usart.c **** 				break;
 2114              		.loc 1 714 5
 2115 0944 2AE0     		b	.L105
 2116              	.L114:
 2117 0946 00BF     		.align	2
 2118              	.L113:
 2119 0948 00000000 		.word	L6470_Direction
 2120 094c 68010000 		.word	.LC7
 2121 0950 00000000 		.word	huart2
 2122 0954 D4010000 		.word	.LC9
 2123 0958 00000000 		.word	L6470_ACT
 2124 095c A0010000 		.word	.LC8
 2125              	.L43:
 715:Projects/STM32F401RE-Nucleo/Examples/MotionControl/MicrosteppingMotor/Src/example_usart.c **** 			case L6470_GETSTATUS_ID:
 716:Projects/STM32F401RE-Nucleo/Examples/MotionControl/MicrosteppingMotor/Src/example_usart.c **** 				/* Build the 1st byte to transmit */
 717:Projects/STM32F401RE-Nucleo/Examples/MotionControl/MicrosteppingMotor/Src/example_usart.c **** 				*(pL6470_DaisyChainSpiTxStruct
 718:Projects/STM32F401RE-Nucleo/Examples/MotionControl/MicrosteppingMotor/Src/example_usart.c **** 						+ ((0 * L6470DAISYCHAINSIZE) + L6470_Id)) = 0xD0;
 2126              		.loc 1 718 36
 2127 0960 FB7C     		ldrb	r3, [r7, #19]	@ zero_extendqisi2
 2128              		.loc 1 718 7
 2129 0962 3A68     		ldr	r2, [r7]
 2130 0964 1344     		add	r3, r3, r2
 2131              		.loc 1 718 49
 2132 0966 D022     		movs	r2, #208
 2133 0968 1A70     		strb	r2, [r3]
 719:Projects/STM32F401RE-Nucleo/Examples/MotionControl/MicrosteppingMotor/Src/example_usart.c **** 				/* Build the others bytes to transmit (SPD) */
 720:Projects/STM32F401RE-Nucleo/Examples/MotionControl/MicrosteppingMotor/Src/example_usart.c **** 				for (spibyte = 1; spibyte < 2 + 1; spibyte++) {
 2134              		.loc 1 720 18
 2135 096a 0123     		movs	r3, #1
 2136 096c BB77     		strb	r3, [r7, #30]
 2137              		.loc 1 720 5
 2138 096e 0BE0     		b	.L103
 2139              	.L104:
 721:Projects/STM32F401RE-Nucleo/Examples/MotionControl/MicrosteppingMotor/Src/example_usart.c **** 					*(pL6470_DaisyChainSpiTxStruct
 722:Projects/STM32F401RE-Nucleo/Examples/MotionControl/MicrosteppingMotor/Src/example_usart.c **** 							+ ((spibyte * L6470DAISYCHAINSIZE) + L6470_Id)) =
 2140              		.loc 1 722 20 discriminator 3
 2141 0970 BB7F     		ldrb	r3, [r7, #30]	@ zero_extendqisi2
 2142 0972 5A00     		lsls	r2, r3, #1
 2143              		.loc 1 722 43 discriminator 3
 2144 0974 FB7C     		ldrb	r3, [r7, #19]	@ zero_extendqisi2
ARM GAS  C:\Users\ep_ygh\AppData\Local\Temp\ccqIQPDc.s 			page 55


 2145 0976 1344     		add	r3, r3, r2
 2146 0978 1A46     		mov	r2, r3
 2147              		.loc 1 722 8 discriminator 3
 2148 097a 3B68     		ldr	r3, [r7]
 2149 097c 1344     		add	r3, r3, r2
 2150              		.loc 1 722 56 discriminator 3
 2151 097e 0022     		movs	r2, #0
 2152 0980 1A70     		strb	r2, [r3]
 720:Projects/STM32F401RE-Nucleo/Examples/MotionControl/MicrosteppingMotor/Src/example_usart.c **** 					*(pL6470_DaisyChainSpiTxStruct
 2153              		.loc 1 720 47 discriminator 3
 2154 0982 BB7F     		ldrb	r3, [r7, #30]	@ zero_extendqisi2
 2155 0984 0133     		adds	r3, r3, #1
 2156 0986 BB77     		strb	r3, [r7, #30]
 2157              	.L103:
 720:Projects/STM32F401RE-Nucleo/Examples/MotionControl/MicrosteppingMotor/Src/example_usart.c **** 					*(pL6470_DaisyChainSpiTxStruct
 2158              		.loc 1 720 5 discriminator 1
 2159 0988 BB7F     		ldrb	r3, [r7, #30]	@ zero_extendqisi2
 2160 098a 022B     		cmp	r3, #2
 2161 098c F0D9     		bls	.L104
 723:Projects/STM32F401RE-Nucleo/Examples/MotionControl/MicrosteppingMotor/Src/example_usart.c **** 							0x00;
 724:Projects/STM32F401RE-Nucleo/Examples/MotionControl/MicrosteppingMotor/Src/example_usart.c **** 				}
 725:Projects/STM32F401RE-Nucleo/Examples/MotionControl/MicrosteppingMotor/Src/example_usart.c **** 				break;
 2162              		.loc 1 725 5
 2163 098e 05E0     		b	.L105
 2164              	.L35:
 726:Projects/STM32F401RE-Nucleo/Examples/MotionControl/MicrosteppingMotor/Src/example_usart.c **** 			}
 727:Projects/STM32F401RE-Nucleo/Examples/MotionControl/MicrosteppingMotor/Src/example_usart.c **** 		} else {
 728:Projects/STM32F401RE-Nucleo/Examples/MotionControl/MicrosteppingMotor/Src/example_usart.c **** #ifdef NUCLEO_USE_USART
 729:Projects/STM32F401RE-Nucleo/Examples/MotionControl/MicrosteppingMotor/Src/example_usart.c **** 			USART_Transmit(&huart2, (uint8_t *)"Both entered commands are addressing the same L6470.\r\n\r\n
 2165              		.loc 1 729 4
 2166 0990 2649     		ldr	r1, .L115
 2167 0992 2748     		ldr	r0, .L115+4
 2168 0994 FFF7FEFF 		bl	USART_Transmit
 730:Projects/STM32F401RE-Nucleo/Examples/MotionControl/MicrosteppingMotor/Src/example_usart.c **** #endif
 731:Projects/STM32F401RE-Nucleo/Examples/MotionControl/MicrosteppingMotor/Src/example_usart.c **** 			return RESET;
 2169              		.loc 1 731 11
 2170 0998 0023     		movs	r3, #0
 2171 099a 43E0     		b	.L108
 2172              	.L105:
 732:Projects/STM32F401RE-Nucleo/Examples/MotionControl/MicrosteppingMotor/Src/example_usart.c **** 		}
 733:Projects/STM32F401RE-Nucleo/Examples/MotionControl/MicrosteppingMotor/Src/example_usart.c **** 		CmdTxt_id++;
 2173              		.loc 1 733 12
 2174 099c 3B7F     		ldrb	r3, [r7, #28]	@ zero_extendqisi2
 2175 099e 0133     		adds	r3, r3, #1
 2176 09a0 3B77     		strb	r3, [r7, #28]
 734:Projects/STM32F401RE-Nucleo/Examples/MotionControl/MicrosteppingMotor/Src/example_usart.c **** 	} while ((CmdTxt_id < L6470DAISYCHAINSIZE)
 735:Projects/STM32F401RE-Nucleo/Examples/MotionControl/MicrosteppingMotor/Src/example_usart.c **** 			&& (((*((pL6470_TextCommandBundle + CmdTxt_id)->MotorName)) != '\0')
 736:Projects/STM32F401RE-Nucleo/Examples/MotionControl/MicrosteppingMotor/Src/example_usart.c **** 					|| ((*((pL6470_TextCommandBundle + CmdTxt_id)->CommandName))
 737:Projects/STM32F401RE-Nucleo/Examples/MotionControl/MicrosteppingMotor/Src/example_usart.c **** 							!= '\0')
 738:Projects/STM32F401RE-Nucleo/Examples/MotionControl/MicrosteppingMotor/Src/example_usart.c **** 					|| ((*((pL6470_TextCommandBundle + CmdTxt_id)->Param[0]))
 739:Projects/STM32F401RE-Nucleo/Examples/MotionControl/MicrosteppingMotor/Src/example_usart.c **** 							!= '\0')
 740:Projects/STM32F401RE-Nucleo/Examples/MotionControl/MicrosteppingMotor/Src/example_usart.c **** 					|| ((*((pL6470_TextCommandBundle + CmdTxt_id)->Param[1]))
 741:Projects/STM32F401RE-Nucleo/Examples/MotionControl/MicrosteppingMotor/Src/example_usart.c **** 							!= '\0')
 742:Projects/STM32F401RE-Nucleo/Examples/MotionControl/MicrosteppingMotor/Src/example_usart.c **** 					|| ((*((pL6470_TextCommandBundle + CmdTxt_id)->Param[2]))
 743:Projects/STM32F401RE-Nucleo/Examples/MotionControl/MicrosteppingMotor/Src/example_usart.c **** 							!= '\0')));
 2177              		.loc 1 743 8
 2178 09a2 3B7F     		ldrb	r3, [r7, #28]	@ zero_extendqisi2
ARM GAS  C:\Users\ep_ygh\AppData\Local\Temp\ccqIQPDc.s 			page 56


 2179 09a4 012B     		cmp	r3, #1
 2180 09a6 3CD8     		bhi	.L106
 735:Projects/STM32F401RE-Nucleo/Examples/MotionControl/MicrosteppingMotor/Src/example_usart.c **** 					|| ((*((pL6470_TextCommandBundle + CmdTxt_id)->CommandName))
 2181              		.loc 1 735 38
 2182 09a8 3A7F     		ldrb	r2, [r7, #28]	@ zero_extendqisi2
 2183 09aa 1346     		mov	r3, r2
 2184 09ac 5B00     		lsls	r3, r3, #1
 2185 09ae 1344     		add	r3, r3, r2
 2186 09b0 1B01     		lsls	r3, r3, #4
 2187 09b2 1A46     		mov	r2, r3
 2188 09b4 7B68     		ldr	r3, [r7, #4]
 2189 09b6 1344     		add	r3, r3, r2
 735:Projects/STM32F401RE-Nucleo/Examples/MotionControl/MicrosteppingMotor/Src/example_usart.c **** 					|| ((*((pL6470_TextCommandBundle + CmdTxt_id)->CommandName))
 2190              		.loc 1 735 10
 2191 09b8 1B78     		ldrb	r3, [r3]	@ zero_extendqisi2
 735:Projects/STM32F401RE-Nucleo/Examples/MotionControl/MicrosteppingMotor/Src/example_usart.c **** 					|| ((*((pL6470_TextCommandBundle + CmdTxt_id)->CommandName))
 2192              		.loc 1 735 4
 2193 09ba 002B     		cmp	r3, #0
 2194 09bc 7FF44BAB 		bne	.L107
 736:Projects/STM32F401RE-Nucleo/Examples/MotionControl/MicrosteppingMotor/Src/example_usart.c **** 							!= '\0')
 2195              		.loc 1 736 39
 2196 09c0 3A7F     		ldrb	r2, [r7, #28]	@ zero_extendqisi2
 2197 09c2 1346     		mov	r3, r2
 2198 09c4 5B00     		lsls	r3, r3, #1
 2199 09c6 1344     		add	r3, r3, r2
 2200 09c8 1B01     		lsls	r3, r3, #4
 2201 09ca 1A46     		mov	r2, r3
 2202 09cc 7B68     		ldr	r3, [r7, #4]
 2203 09ce 1344     		add	r3, r3, r2
 736:Projects/STM32F401RE-Nucleo/Examples/MotionControl/MicrosteppingMotor/Src/example_usart.c **** 							!= '\0')
 2204              		.loc 1 736 11
 2205 09d0 DB78     		ldrb	r3, [r3, #3]	@ zero_extendqisi2
 736:Projects/STM32F401RE-Nucleo/Examples/MotionControl/MicrosteppingMotor/Src/example_usart.c **** 							!= '\0')
 2206              		.loc 1 736 6
 2207 09d2 002B     		cmp	r3, #0
 2208 09d4 7FF43FAB 		bne	.L107
 738:Projects/STM32F401RE-Nucleo/Examples/MotionControl/MicrosteppingMotor/Src/example_usart.c **** 							!= '\0')
 2209              		.loc 1 738 39
 2210 09d8 3A7F     		ldrb	r2, [r7, #28]	@ zero_extendqisi2
 2211 09da 1346     		mov	r3, r2
 2212 09dc 5B00     		lsls	r3, r3, #1
 2213 09de 1344     		add	r3, r3, r2
 2214 09e0 1B01     		lsls	r3, r3, #4
 2215 09e2 1A46     		mov	r2, r3
 2216 09e4 7B68     		ldr	r3, [r7, #4]
 2217 09e6 1344     		add	r3, r3, r2
 738:Projects/STM32F401RE-Nucleo/Examples/MotionControl/MicrosteppingMotor/Src/example_usart.c **** 							!= '\0')
 2218              		.loc 1 738 11
 2219 09e8 DB7B     		ldrb	r3, [r3, #15]	@ zero_extendqisi2
 738:Projects/STM32F401RE-Nucleo/Examples/MotionControl/MicrosteppingMotor/Src/example_usart.c **** 							!= '\0')
 2220              		.loc 1 738 6
 2221 09ea 002B     		cmp	r3, #0
 2222 09ec 7FF433AB 		bne	.L107
 740:Projects/STM32F401RE-Nucleo/Examples/MotionControl/MicrosteppingMotor/Src/example_usart.c **** 							!= '\0')
 2223              		.loc 1 740 39
 2224 09f0 3A7F     		ldrb	r2, [r7, #28]	@ zero_extendqisi2
 2225 09f2 1346     		mov	r3, r2
ARM GAS  C:\Users\ep_ygh\AppData\Local\Temp\ccqIQPDc.s 			page 57


 2226 09f4 5B00     		lsls	r3, r3, #1
 2227 09f6 1344     		add	r3, r3, r2
 2228 09f8 1B01     		lsls	r3, r3, #4
 2229 09fa 1A46     		mov	r2, r3
 2230 09fc 7B68     		ldr	r3, [r7, #4]
 2231 09fe 1344     		add	r3, r3, r2
 740:Projects/STM32F401RE-Nucleo/Examples/MotionControl/MicrosteppingMotor/Src/example_usart.c **** 							!= '\0')
 2232              		.loc 1 740 11
 2233 0a00 9B7E     		ldrb	r3, [r3, #26]	@ zero_extendqisi2
 740:Projects/STM32F401RE-Nucleo/Examples/MotionControl/MicrosteppingMotor/Src/example_usart.c **** 							!= '\0')
 2234              		.loc 1 740 6
 2235 0a02 002B     		cmp	r3, #0
 2236 0a04 7FF427AB 		bne	.L107
 742:Projects/STM32F401RE-Nucleo/Examples/MotionControl/MicrosteppingMotor/Src/example_usart.c **** 							!= '\0')));
 2237              		.loc 1 742 39
 2238 0a08 3A7F     		ldrb	r2, [r7, #28]	@ zero_extendqisi2
 2239 0a0a 1346     		mov	r3, r2
 2240 0a0c 5B00     		lsls	r3, r3, #1
 2241 0a0e 1344     		add	r3, r3, r2
 2242 0a10 1B01     		lsls	r3, r3, #4
 2243 0a12 1A46     		mov	r2, r3
 2244 0a14 7B68     		ldr	r3, [r7, #4]
 2245 0a16 1344     		add	r3, r3, r2
 742:Projects/STM32F401RE-Nucleo/Examples/MotionControl/MicrosteppingMotor/Src/example_usart.c **** 							!= '\0')));
 2246              		.loc 1 742 11
 2247 0a18 93F82530 		ldrb	r3, [r3, #37]	@ zero_extendqisi2
 742:Projects/STM32F401RE-Nucleo/Examples/MotionControl/MicrosteppingMotor/Src/example_usart.c **** 							!= '\0')));
 2248              		.loc 1 742 6
 2249 0a1c 002B     		cmp	r3, #0
 2250 0a1e 7FF41AAB 		bne	.L107
 2251              	.L106:
 744:Projects/STM32F401RE-Nucleo/Examples/MotionControl/MicrosteppingMotor/Src/example_usart.c **** 
 745:Projects/STM32F401RE-Nucleo/Examples/MotionControl/MicrosteppingMotor/Src/example_usart.c **** 	return SET;
 2252              		.loc 1 745 9
 2253 0a22 0123     		movs	r3, #1
 2254              	.L108:
 746:Projects/STM32F401RE-Nucleo/Examples/MotionControl/MicrosteppingMotor/Src/example_usart.c **** }
 2255              		.loc 1 746 1 discriminator 1
 2256 0a24 1846     		mov	r0, r3
 2257 0a26 2037     		adds	r7, r7, #32
 2258              	.LCFI8:
 2259              		.cfi_def_cfa_offset 8
 2260 0a28 BD46     		mov	sp, r7
 2261              	.LCFI9:
 2262              		.cfi_def_cfa_register 13
 2263              		@ sp needed
 2264 0a2a 80BD     		pop	{r7, pc}
 2265              	.L116:
 2266              		.align	2
 2267              	.L115:
 2268 0a2c 04020000 		.word	.LC10
 2269 0a30 00000000 		.word	huart2
 2270              		.cfi_endproc
 2271              	.LFE129:
 2273              		.section	.rodata
 2274 023d 000000   		.align	2
 2275              	.LC11:
ARM GAS  C:\Users\ep_ygh\AppData\Local\Temp\ccqIQPDc.s 			page 58


 2276 0240 50657266 		.ascii	"Perform the entered L6470 Application Command...\015"
 2276      6F726D20 
 2276      74686520 
 2276      656E7465 
 2276      72656420 
 2277 0271 0A00     		.ascii	"\012\000"
 2278 0273 00       		.align	2
 2279              	.LC12:
 2280 0274 2000     		.ascii	" \000"
 2281 0276 0000     		.align	2
 2282              	.LC13:
 2283 0278 2076616C 		.ascii	" value is 0x\000"
 2283      75652069 
 2283      73203078 
 2283      00
 2284 0285 000000   		.align	2
 2285              	.LC14:
 2286 0288 0D0A00   		.ascii	"\015\012\000"
 2287 028b 00       		.align	2
 2288              	.LC15:
 2289 028c 20535441 		.ascii	" STATUS value is 0x\000"
 2289      54555320 
 2289      76616C75 
 2289      65206973 
 2289      20307800 
 2290              		.align	2
 2291              	.LC16:
 2292 02a0 506C6561 		.ascii	"Please, enter a new command string!\015\012\015\012"
 2292      73652C20 
 2292      656E7465 
 2292      72206120 
 2292      6E657720 
 2293 02c7 00       		.ascii	"\000"
 2294              		.section	.text.USART_DecodeTextString,"ax",%progbits
 2295              		.align	1
 2296              		.global	USART_DecodeTextString
 2297              		.syntax unified
 2298              		.thumb
 2299              		.thumb_func
 2301              	USART_DecodeTextString:
 2302              	.LFB130:
 747:Projects/STM32F401RE-Nucleo/Examples/MotionControl/MicrosteppingMotor/Src/example_usart.c **** 
 748:Projects/STM32F401RE-Nucleo/Examples/MotionControl/MicrosteppingMotor/Src/example_usart.c **** /**
 749:Projects/STM32F401RE-Nucleo/Examples/MotionControl/MicrosteppingMotor/Src/example_usart.c ****  * @brief Decode the command string entered via USART
 750:Projects/STM32F401RE-Nucleo/Examples/MotionControl/MicrosteppingMotor/Src/example_usart.c ****  * @retval None
 751:Projects/STM32F401RE-Nucleo/Examples/MotionControl/MicrosteppingMotor/Src/example_usart.c ****  * @note It use two function, one to split the whole entered command string and
 752:Projects/STM32F401RE-Nucleo/Examples/MotionControl/MicrosteppingMotor/Src/example_usart.c ****  *       another one to check for the application command
 753:Projects/STM32F401RE-Nucleo/Examples/MotionControl/MicrosteppingMotor/Src/example_usart.c ****  */
 754:Projects/STM32F401RE-Nucleo/Examples/MotionControl/MicrosteppingMotor/Src/example_usart.c **** uint32_t* USART_DecodeTextString(uint8_t *pTextString,
 755:Projects/STM32F401RE-Nucleo/Examples/MotionControl/MicrosteppingMotor/Src/example_usart.c **** 		sL6470_TextCommandBundle *pL6470_TextCommandBundle,
 756:Projects/STM32F401RE-Nucleo/Examples/MotionControl/MicrosteppingMotor/Src/example_usart.c **** 		uint8_t* pL6470_DaisyChainSpiTxStruct,
 757:Projects/STM32F401RE-Nucleo/Examples/MotionControl/MicrosteppingMotor/Src/example_usart.c **** 		uint8_t* pL6470_DaisyChainSpiRxStruct) {
 2303              		.loc 1 757 42
 2304              		.cfi_startproc
 2305              		@ args = 0, pretend = 0, frame = 24
 2306              		@ frame_needed = 1, uses_anonymous_args = 0
 2307 0000 90B5     		push	{r4, r7, lr}
ARM GAS  C:\Users\ep_ygh\AppData\Local\Temp\ccqIQPDc.s 			page 59


 2308              	.LCFI10:
 2309              		.cfi_def_cfa_offset 12
 2310              		.cfi_offset 4, -12
 2311              		.cfi_offset 7, -8
 2312              		.cfi_offset 14, -4
 2313 0002 87B0     		sub	sp, sp, #28
 2314              	.LCFI11:
 2315              		.cfi_def_cfa_offset 40
 2316 0004 00AF     		add	r7, sp, #0
 2317              	.LCFI12:
 2318              		.cfi_def_cfa_register 7
 2319 0006 F860     		str	r0, [r7, #12]
 2320 0008 B960     		str	r1, [r7, #8]
 2321 000a 7A60     		str	r2, [r7, #4]
 2322 000c 3B60     		str	r3, [r7]
 758:Projects/STM32F401RE-Nucleo/Examples/MotionControl/MicrosteppingMotor/Src/example_usart.c **** 	static uint32_t ReceivedValue[L6470DAISYCHAINSIZE];
 759:Projects/STM32F401RE-Nucleo/Examples/MotionControl/MicrosteppingMotor/Src/example_usart.c **** 	uint8_t L6470_Id;
 760:Projects/STM32F401RE-Nucleo/Examples/MotionControl/MicrosteppingMotor/Src/example_usart.c **** 	eL6470_RegId_t L6470_RegId;
 761:Projects/STM32F401RE-Nucleo/Examples/MotionControl/MicrosteppingMotor/Src/example_usart.c **** 	uint8_t PARAMLengthBytes; /* The number of bytes related to the numeric value for the addressed re
 762:Projects/STM32F401RE-Nucleo/Examples/MotionControl/MicrosteppingMotor/Src/example_usart.c **** 	eHexFormat HexFormat;
 763:Projects/STM32F401RE-Nucleo/Examples/MotionControl/MicrosteppingMotor/Src/example_usart.c **** 
 764:Projects/STM32F401RE-Nucleo/Examples/MotionControl/MicrosteppingMotor/Src/example_usart.c **** 	if (USART_SplitTextString(pTextString, pL6470_TextCommandBundle)
 2323              		.loc 1 764 6
 2324 000e B968     		ldr	r1, [r7, #8]
 2325 0010 F868     		ldr	r0, [r7, #12]
 2326 0012 FFF7FEFF 		bl	USART_SplitTextString
 2327 0016 0346     		mov	r3, r0
 2328              		.loc 1 764 5
 2329 0018 002B     		cmp	r3, #0
 2330 001a 00F0CA80 		beq	.L118
 765:Projects/STM32F401RE-Nucleo/Examples/MotionControl/MicrosteppingMotor/Src/example_usart.c **** 			&& USART_CheckTextCommandBundle(pL6470_TextCommandBundle,
 2331              		.loc 1 765 7
 2332 001e 7968     		ldr	r1, [r7, #4]
 2333 0020 B868     		ldr	r0, [r7, #8]
 2334 0022 FFF7FEFF 		bl	USART_CheckTextCommandBundle
 2335 0026 0346     		mov	r3, r0
 2336              		.loc 1 765 4
 2337 0028 002B     		cmp	r3, #0
 2338 002a 00F0C280 		beq	.L118
 766:Projects/STM32F401RE-Nucleo/Examples/MotionControl/MicrosteppingMotor/Src/example_usart.c **** 					pL6470_DaisyChainSpiTxStruct)) {
 767:Projects/STM32F401RE-Nucleo/Examples/MotionControl/MicrosteppingMotor/Src/example_usart.c **** #ifdef NUCLEO_USE_USART
 768:Projects/STM32F401RE-Nucleo/Examples/MotionControl/MicrosteppingMotor/Src/example_usart.c **** 		USART_Transmit(&huart2, (uint8_t *)"Perform the entered L6470 Application Command...\r\n");
 2339              		.loc 1 768 3
 2340 002e 6549     		ldr	r1, .L132
 2341 0030 6548     		ldr	r0, .L132+4
 2342 0032 FFF7FEFF 		bl	USART_Transmit
 769:Projects/STM32F401RE-Nucleo/Examples/MotionControl/MicrosteppingMotor/Src/example_usart.c **** #endif
 770:Projects/STM32F401RE-Nucleo/Examples/MotionControl/MicrosteppingMotor/Src/example_usart.c **** 		L6470_DaisyChainCommand(pL6470_DaisyChainSpiTxStruct,
 2343              		.loc 1 770 3
 2344 0036 3968     		ldr	r1, [r7]
 2345 0038 7868     		ldr	r0, [r7, #4]
 2346 003a FFF7FEFF 		bl	L6470_DaisyChainCommand
 771:Projects/STM32F401RE-Nucleo/Examples/MotionControl/MicrosteppingMotor/Src/example_usart.c **** 				pL6470_DaisyChainSpiRxStruct);
 772:Projects/STM32F401RE-Nucleo/Examples/MotionControl/MicrosteppingMotor/Src/example_usart.c **** 
 773:Projects/STM32F401RE-Nucleo/Examples/MotionControl/MicrosteppingMotor/Src/example_usart.c **** 		/* Check if a value has to be returned */
 774:Projects/STM32F401RE-Nucleo/Examples/MotionControl/MicrosteppingMotor/Src/example_usart.c **** 		for (L6470_Id = 0; L6470_Id < L6470DAISYCHAINSIZE; L6470_Id++) {
 2347              		.loc 1 774 17
ARM GAS  C:\Users\ep_ygh\AppData\Local\Temp\ccqIQPDc.s 			page 60


 2348 003e 0023     		movs	r3, #0
 2349 0040 FB75     		strb	r3, [r7, #23]
 2350              		.loc 1 774 3
 2351 0042 ADE0     		b	.L119
 2352              	.L128:
 775:Projects/STM32F401RE-Nucleo/Examples/MotionControl/MicrosteppingMotor/Src/example_usart.c **** 			/* Reset the value before fill with the new value */
 776:Projects/STM32F401RE-Nucleo/Examples/MotionControl/MicrosteppingMotor/Src/example_usart.c **** 			ReceivedValue[L6470_Id] = 0x00;
 2353              		.loc 1 776 17
 2354 0044 FB7D     		ldrb	r3, [r7, #23]	@ zero_extendqisi2
 2355              		.loc 1 776 28
 2356 0046 614A     		ldr	r2, .L132+8
 2357 0048 0021     		movs	r1, #0
 2358 004a 42F82310 		str	r1, [r2, r3, lsl #2]
 777:Projects/STM32F401RE-Nucleo/Examples/MotionControl/MicrosteppingMotor/Src/example_usart.c **** 
 778:Projects/STM32F401RE-Nucleo/Examples/MotionControl/MicrosteppingMotor/Src/example_usart.c **** 			if ((*(pL6470_DaisyChainSpiTxStruct
 779:Projects/STM32F401RE-Nucleo/Examples/MotionControl/MicrosteppingMotor/Src/example_usart.c **** 					+ ((0 * L6470DAISYCHAINSIZE) + L6470_Id)) & 0xE0) == 0x20) // The AppCmd has been "GetParam"
 2359              		.loc 1 779 35
 2360 004e FB7D     		ldrb	r3, [r7, #23]	@ zero_extendqisi2
 2361              		.loc 1 779 6
 2362 0050 7A68     		ldr	r2, [r7, #4]
 2363 0052 1344     		add	r3, r3, r2
 778:Projects/STM32F401RE-Nucleo/Examples/MotionControl/MicrosteppingMotor/Src/example_usart.c **** 					+ ((0 * L6470DAISYCHAINSIZE) + L6470_Id)) & 0xE0) == 0x20) // The AppCmd has been "GetParam"
 2364              		.loc 1 778 9
 2365 0054 1B78     		ldrb	r3, [r3]	@ zero_extendqisi2
 2366              		.loc 1 779 48
 2367 0056 03F0E003 		and	r3, r3, #224
 778:Projects/STM32F401RE-Nucleo/Examples/MotionControl/MicrosteppingMotor/Src/example_usart.c **** 					+ ((0 * L6470DAISYCHAINSIZE) + L6470_Id)) & 0xE0) == 0x20) // The AppCmd has been "GetParam"
 2368              		.loc 1 778 7
 2369 005a 202B     		cmp	r3, #32
 2370 005c 6BD1     		bne	.L120
 780:Projects/STM32F401RE-Nucleo/Examples/MotionControl/MicrosteppingMotor/Src/example_usart.c **** 					{
 781:Projects/STM32F401RE-Nucleo/Examples/MotionControl/MicrosteppingMotor/Src/example_usart.c **** 				/* The length, in byte, of this register (PARAM) is... */
 782:Projects/STM32F401RE-Nucleo/Examples/MotionControl/MicrosteppingMotor/Src/example_usart.c **** 				/* Check for the Register address */
 783:Projects/STM32F401RE-Nucleo/Examples/MotionControl/MicrosteppingMotor/Src/example_usart.c **** 				L6470_RegId = (eL6470_RegId_t) 0;
 2371              		.loc 1 783 17
 2372 005e 0023     		movs	r3, #0
 2373 0060 BB75     		strb	r3, [r7, #22]
 784:Projects/STM32F401RE-Nucleo/Examples/MotionControl/MicrosteppingMotor/Src/example_usart.c **** 				while ((*(pL6470_DaisyChainSpiTxStruct
 2374              		.loc 1 784 11
 2375 0062 02E0     		b	.L121
 2376              	.L122:
 785:Projects/STM32F401RE-Nucleo/Examples/MotionControl/MicrosteppingMotor/Src/example_usart.c **** 						+ ((0 * L6470DAISYCHAINSIZE) + L6470_Id)) & 0x1F)
 786:Projects/STM32F401RE-Nucleo/Examples/MotionControl/MicrosteppingMotor/Src/example_usart.c **** 						!= (L6470_Register[L6470_RegId].Address))
 787:Projects/STM32F401RE-Nucleo/Examples/MotionControl/MicrosteppingMotor/Src/example_usart.c **** 					L6470_RegId++;
 2377              		.loc 1 787 17
 2378 0064 BB7D     		ldrb	r3, [r7, #22]	@ zero_extendqisi2
 2379 0066 0133     		adds	r3, r3, #1
 2380 0068 BB75     		strb	r3, [r7, #22]
 2381              	.L121:
 785:Projects/STM32F401RE-Nucleo/Examples/MotionControl/MicrosteppingMotor/Src/example_usart.c **** 						+ ((0 * L6470DAISYCHAINSIZE) + L6470_Id)) & 0x1F)
 2382              		.loc 1 785 36
 2383 006a FB7D     		ldrb	r3, [r7, #23]	@ zero_extendqisi2
 785:Projects/STM32F401RE-Nucleo/Examples/MotionControl/MicrosteppingMotor/Src/example_usart.c **** 						+ ((0 * L6470DAISYCHAINSIZE) + L6470_Id)) & 0x1F)
 2384              		.loc 1 785 7
 2385 006c 7A68     		ldr	r2, [r7, #4]
 2386 006e 1344     		add	r3, r3, r2
 784:Projects/STM32F401RE-Nucleo/Examples/MotionControl/MicrosteppingMotor/Src/example_usart.c **** 				while ((*(pL6470_DaisyChainSpiTxStruct
ARM GAS  C:\Users\ep_ygh\AppData\Local\Temp\ccqIQPDc.s 			page 61


 2387              		.loc 1 784 13
 2388 0070 1B78     		ldrb	r3, [r3]	@ zero_extendqisi2
 785:Projects/STM32F401RE-Nucleo/Examples/MotionControl/MicrosteppingMotor/Src/example_usart.c **** 						+ ((0 * L6470DAISYCHAINSIZE) + L6470_Id)) & 0x1F)
 2389              		.loc 1 785 49
 2390 0072 03F01F01 		and	r1, r3, #31
 786:Projects/STM32F401RE-Nucleo/Examples/MotionControl/MicrosteppingMotor/Src/example_usart.c **** 					L6470_RegId++;
 2391              		.loc 1 786 38
 2392 0076 BA7D     		ldrb	r2, [r7, #22]	@ zero_extendqisi2
 2393 0078 5548     		ldr	r0, .L132+12
 2394 007a 1346     		mov	r3, r2
 2395 007c 9B00     		lsls	r3, r3, #2
 2396 007e 1344     		add	r3, r3, r2
 2397 0080 9B00     		lsls	r3, r3, #2
 2398 0082 0344     		add	r3, r3, r0
 2399 0084 1B78     		ldrb	r3, [r3]	@ zero_extendqisi2
 784:Projects/STM32F401RE-Nucleo/Examples/MotionControl/MicrosteppingMotor/Src/example_usart.c **** 				while ((*(pL6470_DaisyChainSpiTxStruct
 2400              		.loc 1 784 11
 2401 0086 9942     		cmp	r1, r3
 2402 0088 ECD1     		bne	.L122
 788:Projects/STM32F401RE-Nucleo/Examples/MotionControl/MicrosteppingMotor/Src/example_usart.c **** 				PARAMLengthBytes = L6470_Register[L6470_RegId].LengthByte;
 2403              		.loc 1 788 51
 2404 008a BA7D     		ldrb	r2, [r7, #22]	@ zero_extendqisi2
 2405              		.loc 1 788 22
 2406 008c 5049     		ldr	r1, .L132+12
 2407 008e 1346     		mov	r3, r2
 2408 0090 9B00     		lsls	r3, r3, #2
 2409 0092 1344     		add	r3, r3, r2
 2410 0094 9B00     		lsls	r3, r3, #2
 2411 0096 0B44     		add	r3, r3, r1
 2412 0098 0E33     		adds	r3, r3, #14
 2413 009a 1B78     		ldrb	r3, [r3]
 2414 009c 3B75     		strb	r3, [r7, #20]
 789:Projects/STM32F401RE-Nucleo/Examples/MotionControl/MicrosteppingMotor/Src/example_usart.c **** 				switch (PARAMLengthBytes) {
 2415              		.loc 1 789 5
 2416 009e 3B7D     		ldrb	r3, [r7, #20]	@ zero_extendqisi2
 2417 00a0 012B     		cmp	r3, #1
 2418 00a2 02D0     		beq	.L123
 2419 00a4 022B     		cmp	r3, #2
 2420 00a6 03D0     		beq	.L124
 2421 00a8 05E0     		b	.L131
 2422              	.L123:
 790:Projects/STM32F401RE-Nucleo/Examples/MotionControl/MicrosteppingMotor/Src/example_usart.c **** 				case 1:
 791:Projects/STM32F401RE-Nucleo/Examples/MotionControl/MicrosteppingMotor/Src/example_usart.c **** 					HexFormat = BYTE_F;
 2423              		.loc 1 791 16
 2424 00aa 0123     		movs	r3, #1
 2425 00ac 7B75     		strb	r3, [r7, #21]
 792:Projects/STM32F401RE-Nucleo/Examples/MotionControl/MicrosteppingMotor/Src/example_usart.c **** 					break;
 2426              		.loc 1 792 6
 2427 00ae 05E0     		b	.L126
 2428              	.L124:
 793:Projects/STM32F401RE-Nucleo/Examples/MotionControl/MicrosteppingMotor/Src/example_usart.c **** 				case 2:
 794:Projects/STM32F401RE-Nucleo/Examples/MotionControl/MicrosteppingMotor/Src/example_usart.c **** 					HexFormat = WORD_F;
 2429              		.loc 1 794 16
 2430 00b0 0223     		movs	r3, #2
 2431 00b2 7B75     		strb	r3, [r7, #21]
 795:Projects/STM32F401RE-Nucleo/Examples/MotionControl/MicrosteppingMotor/Src/example_usart.c **** 					break;
 2432              		.loc 1 795 6
ARM GAS  C:\Users\ep_ygh\AppData\Local\Temp\ccqIQPDc.s 			page 62


 2433 00b4 02E0     		b	.L126
 2434              	.L131:
 796:Projects/STM32F401RE-Nucleo/Examples/MotionControl/MicrosteppingMotor/Src/example_usart.c **** 				default:
 797:Projects/STM32F401RE-Nucleo/Examples/MotionControl/MicrosteppingMotor/Src/example_usart.c **** 					HexFormat = DOUBLEWORD_F;
 2435              		.loc 1 797 16
 2436 00b6 0323     		movs	r3, #3
 2437 00b8 7B75     		strb	r3, [r7, #21]
 798:Projects/STM32F401RE-Nucleo/Examples/MotionControl/MicrosteppingMotor/Src/example_usart.c **** 					break;
 2438              		.loc 1 798 6
 2439 00ba 00BF     		nop
 2440              	.L126:
 799:Projects/STM32F401RE-Nucleo/Examples/MotionControl/MicrosteppingMotor/Src/example_usart.c **** 				}
 800:Projects/STM32F401RE-Nucleo/Examples/MotionControl/MicrosteppingMotor/Src/example_usart.c **** 
 801:Projects/STM32F401RE-Nucleo/Examples/MotionControl/MicrosteppingMotor/Src/example_usart.c **** 				ReceivedValue[L6470_Id] = L6470_ExtractReturnedData(L6470_Id,
 2441              		.loc 1 801 18
 2442 00bc FC7D     		ldrb	r4, [r7, #23]	@ zero_extendqisi2
 2443              		.loc 1 801 31
 2444 00be 3A7D     		ldrb	r2, [r7, #20]	@ zero_extendqisi2
 2445 00c0 FB7D     		ldrb	r3, [r7, #23]	@ zero_extendqisi2
 2446 00c2 3968     		ldr	r1, [r7]
 2447 00c4 1846     		mov	r0, r3
 2448 00c6 FFF7FEFF 		bl	L6470_ExtractReturnedData
 2449 00ca 0346     		mov	r3, r0
 2450              		.loc 1 801 29
 2451 00cc 3F4A     		ldr	r2, .L132+8
 2452 00ce 42F82430 		str	r3, [r2, r4, lsl #2]
 802:Projects/STM32F401RE-Nucleo/Examples/MotionControl/MicrosteppingMotor/Src/example_usart.c **** 						pL6470_DaisyChainSpiRxStruct, PARAMLengthBytes);
 803:Projects/STM32F401RE-Nucleo/Examples/MotionControl/MicrosteppingMotor/Src/example_usart.c **** 
 804:Projects/STM32F401RE-Nucleo/Examples/MotionControl/MicrosteppingMotor/Src/example_usart.c **** #ifdef NUCLEO_USE_USART
 805:Projects/STM32F401RE-Nucleo/Examples/MotionControl/MicrosteppingMotor/Src/example_usart.c **** 				USART_Transmit(&huart2,
 806:Projects/STM32F401RE-Nucleo/Examples/MotionControl/MicrosteppingMotor/Src/example_usart.c **** 						(uint8_t*) (L6470_DaisyChainMnemonic[L6470_Id].L6470IdMnemonic));
 2453              		.loc 1 806 53
 2454 00d2 FA7D     		ldrb	r2, [r7, #23]	@ zero_extendqisi2
 2455              		.loc 1 806 18
 2456 00d4 1346     		mov	r3, r2
 2457 00d6 5B00     		lsls	r3, r3, #1
 2458 00d8 1344     		add	r3, r3, r2
 2459 00da 9B00     		lsls	r3, r3, #2
 2460 00dc 1344     		add	r3, r3, r2
 2461 00de 3D4A     		ldr	r2, .L132+16
 2462 00e0 1344     		add	r3, r3, r2
 805:Projects/STM32F401RE-Nucleo/Examples/MotionControl/MicrosteppingMotor/Src/example_usart.c **** 						(uint8_t*) (L6470_DaisyChainMnemonic[L6470_Id].L6470IdMnemonic));
 2463              		.loc 1 805 5
 2464 00e2 1946     		mov	r1, r3
 2465 00e4 3848     		ldr	r0, .L132+4
 2466 00e6 FFF7FEFF 		bl	USART_Transmit
 807:Projects/STM32F401RE-Nucleo/Examples/MotionControl/MicrosteppingMotor/Src/example_usart.c **** 				USART_Transmit(&huart2, (uint8_t* )" ");
 2467              		.loc 1 807 5
 2468 00ea 3B49     		ldr	r1, .L132+20
 2469 00ec 3648     		ldr	r0, .L132+4
 2470 00ee FFF7FEFF 		bl	USART_Transmit
 808:Projects/STM32F401RE-Nucleo/Examples/MotionControl/MicrosteppingMotor/Src/example_usart.c **** 				USART_Transmit(&huart2,
 809:Projects/STM32F401RE-Nucleo/Examples/MotionControl/MicrosteppingMotor/Src/example_usart.c **** 						(uint8_t*) (L6470_Register[L6470_RegId].Name));
 2471              		.loc 1 809 46
 2472 00f2 BA7D     		ldrb	r2, [r7, #22]	@ zero_extendqisi2
 2473              		.loc 1 809 18
 2474 00f4 1346     		mov	r3, r2
ARM GAS  C:\Users\ep_ygh\AppData\Local\Temp\ccqIQPDc.s 			page 63


 2475 00f6 9B00     		lsls	r3, r3, #2
 2476 00f8 1344     		add	r3, r3, r2
 2477 00fa 9B00     		lsls	r3, r3, #2
 2478 00fc 344A     		ldr	r2, .L132+12
 2479 00fe 1344     		add	r3, r3, r2
 2480 0100 0133     		adds	r3, r3, #1
 808:Projects/STM32F401RE-Nucleo/Examples/MotionControl/MicrosteppingMotor/Src/example_usart.c **** 				USART_Transmit(&huart2,
 2481              		.loc 1 808 5
 2482 0102 1946     		mov	r1, r3
 2483 0104 3048     		ldr	r0, .L132+4
 2484 0106 FFF7FEFF 		bl	USART_Transmit
 810:Projects/STM32F401RE-Nucleo/Examples/MotionControl/MicrosteppingMotor/Src/example_usart.c **** 				USART_Transmit(&huart2, (uint8_t* )" value is 0x");
 2485              		.loc 1 810 5
 2486 010a 3449     		ldr	r1, .L132+24
 2487 010c 2E48     		ldr	r0, .L132+4
 2488 010e FFF7FEFF 		bl	USART_Transmit
 811:Projects/STM32F401RE-Nucleo/Examples/MotionControl/MicrosteppingMotor/Src/example_usart.c **** 
 812:Projects/STM32F401RE-Nucleo/Examples/MotionControl/MicrosteppingMotor/Src/example_usart.c **** 				USART_Transmit(&huart2,
 2489              		.loc 1 812 5
 2490 0112 FB7D     		ldrb	r3, [r7, #23]	@ zero_extendqisi2
 2491 0114 2D4A     		ldr	r2, .L132+8
 2492 0116 52F82330 		ldr	r3, [r2, r3, lsl #2]
 2493 011a 7A7D     		ldrb	r2, [r7, #21]	@ zero_extendqisi2
 2494 011c 1146     		mov	r1, r2
 2495 011e 1846     		mov	r0, r3
 2496 0120 FFF7FEFF 		bl	num2hex
 2497 0124 0346     		mov	r3, r0
 2498 0126 1946     		mov	r1, r3
 2499 0128 2748     		ldr	r0, .L132+4
 2500 012a FFF7FEFF 		bl	USART_Transmit
 813:Projects/STM32F401RE-Nucleo/Examples/MotionControl/MicrosteppingMotor/Src/example_usart.c **** 						num2hex(ReceivedValue[L6470_Id], HexFormat));
 814:Projects/STM32F401RE-Nucleo/Examples/MotionControl/MicrosteppingMotor/Src/example_usart.c **** 
 815:Projects/STM32F401RE-Nucleo/Examples/MotionControl/MicrosteppingMotor/Src/example_usart.c **** 				USART_Transmit(&huart2, (uint8_t* )"\r\n");
 2501              		.loc 1 815 5
 2502 012e 2C49     		ldr	r1, .L132+28
 2503 0130 2548     		ldr	r0, .L132+4
 2504 0132 FFF7FEFF 		bl	USART_Transmit
 2505              	.L120:
 816:Projects/STM32F401RE-Nucleo/Examples/MotionControl/MicrosteppingMotor/Src/example_usart.c **** #endif        
 817:Projects/STM32F401RE-Nucleo/Examples/MotionControl/MicrosteppingMotor/Src/example_usart.c **** 			}
 818:Projects/STM32F401RE-Nucleo/Examples/MotionControl/MicrosteppingMotor/Src/example_usart.c **** 
 819:Projects/STM32F401RE-Nucleo/Examples/MotionControl/MicrosteppingMotor/Src/example_usart.c **** 			if (*(pL6470_DaisyChainSpiTxStruct
 820:Projects/STM32F401RE-Nucleo/Examples/MotionControl/MicrosteppingMotor/Src/example_usart.c **** 					+ ((0 * L6470DAISYCHAINSIZE) + L6470_Id)) == 0xD0) // The AppCmd has been "GetStatus"
 2506              		.loc 1 820 35
 2507 0136 FB7D     		ldrb	r3, [r7, #23]	@ zero_extendqisi2
 2508              		.loc 1 820 6
 2509 0138 7A68     		ldr	r2, [r7, #4]
 2510 013a 1344     		add	r3, r3, r2
 819:Projects/STM32F401RE-Nucleo/Examples/MotionControl/MicrosteppingMotor/Src/example_usart.c **** 					+ ((0 * L6470DAISYCHAINSIZE) + L6470_Id)) == 0xD0) // The AppCmd has been "GetStatus"
 2511              		.loc 1 819 8
 2512 013c 1B78     		ldrb	r3, [r3]	@ zero_extendqisi2
 819:Projects/STM32F401RE-Nucleo/Examples/MotionControl/MicrosteppingMotor/Src/example_usart.c **** 					+ ((0 * L6470DAISYCHAINSIZE) + L6470_Id)) == 0xD0) // The AppCmd has been "GetStatus"
 2513              		.loc 1 819 7
 2514 013e D02B     		cmp	r3, #208
 2515 0140 2BD1     		bne	.L127
 821:Projects/STM32F401RE-Nucleo/Examples/MotionControl/MicrosteppingMotor/Src/example_usart.c **** 					{
 822:Projects/STM32F401RE-Nucleo/Examples/MotionControl/MicrosteppingMotor/Src/example_usart.c **** 				ReceivedValue[L6470_Id] = L6470_ExtractReturnedData(L6470_Id,
ARM GAS  C:\Users\ep_ygh\AppData\Local\Temp\ccqIQPDc.s 			page 64


 2516              		.loc 1 822 18
 2517 0142 FC7D     		ldrb	r4, [r7, #23]	@ zero_extendqisi2
 2518              		.loc 1 822 31
 2519 0144 FB7D     		ldrb	r3, [r7, #23]	@ zero_extendqisi2
 2520 0146 0222     		movs	r2, #2
 2521 0148 3968     		ldr	r1, [r7]
 2522 014a 1846     		mov	r0, r3
 2523 014c FFF7FEFF 		bl	L6470_ExtractReturnedData
 2524 0150 0346     		mov	r3, r0
 2525              		.loc 1 822 29
 2526 0152 1E4A     		ldr	r2, .L132+8
 2527 0154 42F82430 		str	r3, [r2, r4, lsl #2]
 823:Projects/STM32F401RE-Nucleo/Examples/MotionControl/MicrosteppingMotor/Src/example_usart.c **** 						pL6470_DaisyChainSpiRxStruct, 2);
 824:Projects/STM32F401RE-Nucleo/Examples/MotionControl/MicrosteppingMotor/Src/example_usart.c **** 
 825:Projects/STM32F401RE-Nucleo/Examples/MotionControl/MicrosteppingMotor/Src/example_usart.c **** #ifdef NUCLEO_USE_USART
 826:Projects/STM32F401RE-Nucleo/Examples/MotionControl/MicrosteppingMotor/Src/example_usart.c **** 				USART_Transmit(&huart2,
 827:Projects/STM32F401RE-Nucleo/Examples/MotionControl/MicrosteppingMotor/Src/example_usart.c **** 						(uint8_t*) (L6470_DaisyChainMnemonic[L6470_Id].L6470IdMnemonic));
 2528              		.loc 1 827 53
 2529 0158 FA7D     		ldrb	r2, [r7, #23]	@ zero_extendqisi2
 2530              		.loc 1 827 18
 2531 015a 1346     		mov	r3, r2
 2532 015c 5B00     		lsls	r3, r3, #1
 2533 015e 1344     		add	r3, r3, r2
 2534 0160 9B00     		lsls	r3, r3, #2
 2535 0162 1344     		add	r3, r3, r2
 2536 0164 1B4A     		ldr	r2, .L132+16
 2537 0166 1344     		add	r3, r3, r2
 826:Projects/STM32F401RE-Nucleo/Examples/MotionControl/MicrosteppingMotor/Src/example_usart.c **** 						(uint8_t*) (L6470_DaisyChainMnemonic[L6470_Id].L6470IdMnemonic));
 2538              		.loc 1 826 5
 2539 0168 1946     		mov	r1, r3
 2540 016a 1748     		ldr	r0, .L132+4
 2541 016c FFF7FEFF 		bl	USART_Transmit
 828:Projects/STM32F401RE-Nucleo/Examples/MotionControl/MicrosteppingMotor/Src/example_usart.c **** 				USART_Transmit(&huart2, (uint8_t* )" STATUS value is 0x");
 2542              		.loc 1 828 5
 2543 0170 1C49     		ldr	r1, .L132+32
 2544 0172 1548     		ldr	r0, .L132+4
 2545 0174 FFF7FEFF 		bl	USART_Transmit
 829:Projects/STM32F401RE-Nucleo/Examples/MotionControl/MicrosteppingMotor/Src/example_usart.c **** 
 830:Projects/STM32F401RE-Nucleo/Examples/MotionControl/MicrosteppingMotor/Src/example_usart.c **** 				USART_Transmit(&huart2,
 2546              		.loc 1 830 5
 2547 0178 FB7D     		ldrb	r3, [r7, #23]	@ zero_extendqisi2
 2548 017a 144A     		ldr	r2, .L132+8
 2549 017c 52F82330 		ldr	r3, [r2, r3, lsl #2]
 2550 0180 0221     		movs	r1, #2
 2551 0182 1846     		mov	r0, r3
 2552 0184 FFF7FEFF 		bl	num2hex
 2553 0188 0346     		mov	r3, r0
 2554 018a 1946     		mov	r1, r3
 2555 018c 0E48     		ldr	r0, .L132+4
 2556 018e FFF7FEFF 		bl	USART_Transmit
 831:Projects/STM32F401RE-Nucleo/Examples/MotionControl/MicrosteppingMotor/Src/example_usart.c **** 						num2hex(ReceivedValue[L6470_Id], WORD_F));
 832:Projects/STM32F401RE-Nucleo/Examples/MotionControl/MicrosteppingMotor/Src/example_usart.c **** 
 833:Projects/STM32F401RE-Nucleo/Examples/MotionControl/MicrosteppingMotor/Src/example_usart.c **** 				USART_Transmit(&huart2, (uint8_t* )"\r\n");
 2557              		.loc 1 833 5
 2558 0192 1349     		ldr	r1, .L132+28
 2559 0194 0C48     		ldr	r0, .L132+4
 2560 0196 FFF7FEFF 		bl	USART_Transmit
ARM GAS  C:\Users\ep_ygh\AppData\Local\Temp\ccqIQPDc.s 			page 65


 2561              	.L127:
 774:Projects/STM32F401RE-Nucleo/Examples/MotionControl/MicrosteppingMotor/Src/example_usart.c **** 			/* Reset the value before fill with the new value */
 2562              		.loc 1 774 62 discriminator 2
 2563 019a FB7D     		ldrb	r3, [r7, #23]	@ zero_extendqisi2
 2564 019c 0133     		adds	r3, r3, #1
 2565 019e FB75     		strb	r3, [r7, #23]
 2566              	.L119:
 774:Projects/STM32F401RE-Nucleo/Examples/MotionControl/MicrosteppingMotor/Src/example_usart.c **** 			/* Reset the value before fill with the new value */
 2567              		.loc 1 774 3 discriminator 1
 2568 01a0 FB7D     		ldrb	r3, [r7, #23]	@ zero_extendqisi2
 2569 01a2 012B     		cmp	r3, #1
 2570 01a4 7FF64EAF 		bls	.L128
 834:Projects/STM32F401RE-Nucleo/Examples/MotionControl/MicrosteppingMotor/Src/example_usart.c **** #endif        
 835:Projects/STM32F401RE-Nucleo/Examples/MotionControl/MicrosteppingMotor/Src/example_usart.c **** 			}
 836:Projects/STM32F401RE-Nucleo/Examples/MotionControl/MicrosteppingMotor/Src/example_usart.c **** 		}
 837:Projects/STM32F401RE-Nucleo/Examples/MotionControl/MicrosteppingMotor/Src/example_usart.c **** #ifdef NUCLEO_USE_USART
 838:Projects/STM32F401RE-Nucleo/Examples/MotionControl/MicrosteppingMotor/Src/example_usart.c **** 		USART_Transmit(&huart2, (uint8_t* )"\r\n");
 2571              		.loc 1 838 3
 2572 01a8 0D49     		ldr	r1, .L132+28
 2573 01aa 0748     		ldr	r0, .L132+4
 2574 01ac FFF7FEFF 		bl	USART_Transmit
 2575 01b0 03E0     		b	.L129
 2576              	.L118:
 839:Projects/STM32F401RE-Nucleo/Examples/MotionControl/MicrosteppingMotor/Src/example_usart.c **** #endif    
 840:Projects/STM32F401RE-Nucleo/Examples/MotionControl/MicrosteppingMotor/Src/example_usart.c **** 	} else {
 841:Projects/STM32F401RE-Nucleo/Examples/MotionControl/MicrosteppingMotor/Src/example_usart.c **** #ifdef NUCLEO_USE_USART
 842:Projects/STM32F401RE-Nucleo/Examples/MotionControl/MicrosteppingMotor/Src/example_usart.c **** 		USART_Transmit(&huart2, (uint8_t* )"Please, enter a new command string!\r\n\r\n");
 2577              		.loc 1 842 3
 2578 01b2 0D49     		ldr	r1, .L132+36
 2579 01b4 0448     		ldr	r0, .L132+4
 2580 01b6 FFF7FEFF 		bl	USART_Transmit
 2581              	.L129:
 843:Projects/STM32F401RE-Nucleo/Examples/MotionControl/MicrosteppingMotor/Src/example_usart.c **** #endif
 844:Projects/STM32F401RE-Nucleo/Examples/MotionControl/MicrosteppingMotor/Src/example_usart.c **** 	}
 845:Projects/STM32F401RE-Nucleo/Examples/MotionControl/MicrosteppingMotor/Src/example_usart.c **** 
 846:Projects/STM32F401RE-Nucleo/Examples/MotionControl/MicrosteppingMotor/Src/example_usart.c **** 	return ReceivedValue;
 2582              		.loc 1 846 9
 2583 01ba 044B     		ldr	r3, .L132+8
 847:Projects/STM32F401RE-Nucleo/Examples/MotionControl/MicrosteppingMotor/Src/example_usart.c **** }
 2584              		.loc 1 847 1
 2585 01bc 1846     		mov	r0, r3
 2586 01be 1C37     		adds	r7, r7, #28
 2587              	.LCFI13:
 2588              		.cfi_def_cfa_offset 12
 2589 01c0 BD46     		mov	sp, r7
 2590              	.LCFI14:
 2591              		.cfi_def_cfa_register 13
 2592              		@ sp needed
 2593 01c2 90BD     		pop	{r4, r7, pc}
 2594              	.L133:
 2595              		.align	2
 2596              	.L132:
 2597 01c4 40020000 		.word	.LC11
 2598 01c8 00000000 		.word	huart2
 2599 01cc 00000000 		.word	ReceivedValue.1
 2600 01d0 00000000 		.word	L6470_Register
 2601 01d4 00000000 		.word	L6470_DaisyChainMnemonic
ARM GAS  C:\Users\ep_ygh\AppData\Local\Temp\ccqIQPDc.s 			page 66


 2602 01d8 74020000 		.word	.LC12
 2603 01dc 78020000 		.word	.LC13
 2604 01e0 88020000 		.word	.LC14
 2605 01e4 8C020000 		.word	.LC15
 2606 01e8 A0020000 		.word	.LC16
 2607              		.cfi_endproc
 2608              	.LFE130:
 2610              		.section	.text.CompareTwoTextString,"ax",%progbits
 2611              		.align	1
 2612              		.global	CompareTwoTextString
 2613              		.syntax unified
 2614              		.thumb
 2615              		.thumb_func
 2617              	CompareTwoTextString:
 2618              	.LFB131:
 848:Projects/STM32F401RE-Nucleo/Examples/MotionControl/MicrosteppingMotor/Src/example_usart.c **** 
 849:Projects/STM32F401RE-Nucleo/Examples/MotionControl/MicrosteppingMotor/Src/example_usart.c **** /**
 850:Projects/STM32F401RE-Nucleo/Examples/MotionControl/MicrosteppingMotor/Src/example_usart.c ****  * @brief  This function compares two text strings.
 851:Projects/STM32F401RE-Nucleo/Examples/MotionControl/MicrosteppingMotor/Src/example_usart.c ****  * @param  TextString1 The pointer to the 1st text string to compare.
 852:Projects/STM32F401RE-Nucleo/Examples/MotionControl/MicrosteppingMotor/Src/example_usart.c ****  * @param  TextString2 The pointer to the 2nd text string to compare.
 853:Projects/STM32F401RE-Nucleo/Examples/MotionControl/MicrosteppingMotor/Src/example_usart.c ****  * @retval FlagStatus    SET or RESET related the comparison.
 854:Projects/STM32F401RE-Nucleo/Examples/MotionControl/MicrosteppingMotor/Src/example_usart.c ****  */
 855:Projects/STM32F401RE-Nucleo/Examples/MotionControl/MicrosteppingMotor/Src/example_usart.c **** FlagStatus CompareTwoTextString(uint8_t* TextString1, uint8_t* TextString2) {
 2619              		.loc 1 855 77
 2620              		.cfi_startproc
 2621              		@ args = 0, pretend = 0, frame = 16
 2622              		@ frame_needed = 1, uses_anonymous_args = 0
 2623              		@ link register save eliminated.
 2624 0000 80B4     		push	{r7}
 2625              	.LCFI15:
 2626              		.cfi_def_cfa_offset 4
 2627              		.cfi_offset 7, -4
 2628 0002 85B0     		sub	sp, sp, #20
 2629              	.LCFI16:
 2630              		.cfi_def_cfa_offset 24
 2631 0004 00AF     		add	r7, sp, #0
 2632              	.LCFI17:
 2633              		.cfi_def_cfa_register 7
 2634 0006 7860     		str	r0, [r7, #4]
 2635 0008 3960     		str	r1, [r7]
 856:Projects/STM32F401RE-Nucleo/Examples/MotionControl/MicrosteppingMotor/Src/example_usart.c **** 	uint8_t i; /* to index the two text strings to be compared */
 857:Projects/STM32F401RE-Nucleo/Examples/MotionControl/MicrosteppingMotor/Src/example_usart.c **** 	uint8_t c1, c2; /* to store the two characters to be compared */
 858:Projects/STM32F401RE-Nucleo/Examples/MotionControl/MicrosteppingMotor/Src/example_usart.c **** 
 859:Projects/STM32F401RE-Nucleo/Examples/MotionControl/MicrosteppingMotor/Src/example_usart.c **** 	i = 0;
 2636              		.loc 1 859 4
 2637 000a 0023     		movs	r3, #0
 2638 000c FB73     		strb	r3, [r7, #15]
 2639              	.L138:
 860:Projects/STM32F401RE-Nucleo/Examples/MotionControl/MicrosteppingMotor/Src/example_usart.c **** 
 861:Projects/STM32F401RE-Nucleo/Examples/MotionControl/MicrosteppingMotor/Src/example_usart.c **** 	do {
 862:Projects/STM32F401RE-Nucleo/Examples/MotionControl/MicrosteppingMotor/Src/example_usart.c **** 		c1 = *(TextString1 + i);
 2640              		.loc 1 862 22
 2641 000e FB7B     		ldrb	r3, [r7, #15]	@ zero_extendqisi2
 2642 0010 7A68     		ldr	r2, [r7, #4]
 2643 0012 1344     		add	r3, r3, r2
 2644              		.loc 1 862 6
 2645 0014 1B78     		ldrb	r3, [r3]
ARM GAS  C:\Users\ep_ygh\AppData\Local\Temp\ccqIQPDc.s 			page 67


 2646 0016 BB73     		strb	r3, [r7, #14]
 863:Projects/STM32F401RE-Nucleo/Examples/MotionControl/MicrosteppingMotor/Src/example_usart.c **** 		c2 = *(TextString2 + i);
 2647              		.loc 1 863 22
 2648 0018 FB7B     		ldrb	r3, [r7, #15]	@ zero_extendqisi2
 2649 001a 3A68     		ldr	r2, [r7]
 2650 001c 1344     		add	r3, r3, r2
 2651              		.loc 1 863 6
 2652 001e 1B78     		ldrb	r3, [r3]
 2653 0020 7B73     		strb	r3, [r7, #13]
 864:Projects/STM32F401RE-Nucleo/Examples/MotionControl/MicrosteppingMotor/Src/example_usart.c **** 
 865:Projects/STM32F401RE-Nucleo/Examples/MotionControl/MicrosteppingMotor/Src/example_usart.c **** 		if (c1 != c2) {
 2654              		.loc 1 865 6
 2655 0022 BA7B     		ldrb	r2, [r7, #14]	@ zero_extendqisi2
 2656 0024 7B7B     		ldrb	r3, [r7, #13]	@ zero_extendqisi2
 2657 0026 9A42     		cmp	r2, r3
 2658 0028 01D0     		beq	.L135
 866:Projects/STM32F401RE-Nucleo/Examples/MotionControl/MicrosteppingMotor/Src/example_usart.c **** 			return RESET;
 2659              		.loc 1 866 11
 2660 002a 0023     		movs	r3, #0
 2661 002c 09E0     		b	.L136
 2662              	.L135:
 867:Projects/STM32F401RE-Nucleo/Examples/MotionControl/MicrosteppingMotor/Src/example_usart.c **** 		}
 868:Projects/STM32F401RE-Nucleo/Examples/MotionControl/MicrosteppingMotor/Src/example_usart.c **** 		i++;
 2663              		.loc 1 868 4
 2664 002e FB7B     		ldrb	r3, [r7, #15]	@ zero_extendqisi2
 2665 0030 0133     		adds	r3, r3, #1
 2666 0032 FB73     		strb	r3, [r7, #15]
 869:Projects/STM32F401RE-Nucleo/Examples/MotionControl/MicrosteppingMotor/Src/example_usart.c **** 	} while ((c1 != '\0') && (c2 != '\0'));
 2667              		.loc 1 869 2
 2668 0034 BB7B     		ldrb	r3, [r7, #14]	@ zero_extendqisi2
 2669 0036 002B     		cmp	r3, #0
 2670 0038 02D0     		beq	.L137
 2671              		.loc 1 869 24 discriminator 1
 2672 003a 7B7B     		ldrb	r3, [r7, #13]	@ zero_extendqisi2
 2673 003c 002B     		cmp	r3, #0
 2674 003e E6D1     		bne	.L138
 2675              	.L137:
 870:Projects/STM32F401RE-Nucleo/Examples/MotionControl/MicrosteppingMotor/Src/example_usart.c **** 
 871:Projects/STM32F401RE-Nucleo/Examples/MotionControl/MicrosteppingMotor/Src/example_usart.c **** 	return SET;
 2676              		.loc 1 871 9
 2677 0040 0123     		movs	r3, #1
 2678              	.L136:
 872:Projects/STM32F401RE-Nucleo/Examples/MotionControl/MicrosteppingMotor/Src/example_usart.c **** }
 2679              		.loc 1 872 1
 2680 0042 1846     		mov	r0, r3
 2681 0044 1437     		adds	r7, r7, #20
 2682              	.LCFI18:
 2683              		.cfi_def_cfa_offset 4
 2684 0046 BD46     		mov	sp, r7
 2685              	.LCFI19:
 2686              		.cfi_def_cfa_register 13
 2687              		@ sp needed
 2688 0048 5DF8047B 		ldr	r7, [sp], #4
 2689              	.LCFI20:
 2690              		.cfi_restore 7
 2691              		.cfi_def_cfa_offset 0
 2692 004c 7047     		bx	lr
ARM GAS  C:\Users\ep_ygh\AppData\Local\Temp\ccqIQPDc.s 			page 68


 2693              		.cfi_endproc
 2694              	.LFE131:
 2696              		.section	.text.str2num,"ax",%progbits
 2697              		.align	1
 2698              		.global	str2num
 2699              		.syntax unified
 2700              		.thumb
 2701              		.thumb_func
 2703              	str2num:
 2704              	.LFB132:
 873:Projects/STM32F401RE-Nucleo/Examples/MotionControl/MicrosteppingMotor/Src/example_usart.c **** 
 874:Projects/STM32F401RE-Nucleo/Examples/MotionControl/MicrosteppingMotor/Src/example_usart.c **** /**
 875:Projects/STM32F401RE-Nucleo/Examples/MotionControl/MicrosteppingMotor/Src/example_usart.c ****  * @brief  This function converts a text string into a number.
 876:Projects/STM32F401RE-Nucleo/Examples/MotionControl/MicrosteppingMotor/Src/example_usart.c ****  * @param  str       The pointer to the text string to convert.
 877:Projects/STM32F401RE-Nucleo/Examples/MotionControl/MicrosteppingMotor/Src/example_usart.c ****  * @param  pnum      The pointer to the numerical variable.
 878:Projects/STM32F401RE-Nucleo/Examples/MotionControl/MicrosteppingMotor/Src/example_usart.c ****  * @retval FlagStatus  SET or RESET related to the conversion.
 879:Projects/STM32F401RE-Nucleo/Examples/MotionControl/MicrosteppingMotor/Src/example_usart.c ****  */
 880:Projects/STM32F401RE-Nucleo/Examples/MotionControl/MicrosteppingMotor/Src/example_usart.c **** FlagStatus str2num(uint8_t* str, uint32_t* pnum) {
 2705              		.loc 1 880 50
 2706              		.cfi_startproc
 2707              		@ args = 0, pretend = 0, frame = 24
 2708              		@ frame_needed = 1, uses_anonymous_args = 0
 2709              		@ link register save eliminated.
 2710 0000 80B4     		push	{r7}
 2711              	.LCFI21:
 2712              		.cfi_def_cfa_offset 4
 2713              		.cfi_offset 7, -4
 2714 0002 87B0     		sub	sp, sp, #28
 2715              	.LCFI22:
 2716              		.cfi_def_cfa_offset 32
 2717 0004 00AF     		add	r7, sp, #0
 2718              	.LCFI23:
 2719              		.cfi_def_cfa_register 7
 2720 0006 7860     		str	r0, [r7, #4]
 2721 0008 3960     		str	r1, [r7]
 881:Projects/STM32F401RE-Nucleo/Examples/MotionControl/MicrosteppingMotor/Src/example_usart.c **** 	uint8_t TxtStr_digit, digit;
 882:Projects/STM32F401RE-Nucleo/Examples/MotionControl/MicrosteppingMotor/Src/example_usart.c **** 	uint32_t tenpwr;
 883:Projects/STM32F401RE-Nucleo/Examples/MotionControl/MicrosteppingMotor/Src/example_usart.c **** 	uint32_t number;
 884:Projects/STM32F401RE-Nucleo/Examples/MotionControl/MicrosteppingMotor/Src/example_usart.c **** 
 885:Projects/STM32F401RE-Nucleo/Examples/MotionControl/MicrosteppingMotor/Src/example_usart.c **** 	digit = 0;
 2722              		.loc 1 885 8
 2723 000a 0023     		movs	r3, #0
 2724 000c FB75     		strb	r3, [r7, #23]
 886:Projects/STM32F401RE-Nucleo/Examples/MotionControl/MicrosteppingMotor/Src/example_usart.c **** 
 887:Projects/STM32F401RE-Nucleo/Examples/MotionControl/MicrosteppingMotor/Src/example_usart.c **** 	while (*(str + digit) != '\0') {
 2725              		.loc 1 887 8
 2726 000e 14E0     		b	.L140
 2727              	.L143:
 888:Projects/STM32F401RE-Nucleo/Examples/MotionControl/MicrosteppingMotor/Src/example_usart.c **** 		if (((*(str + digit) >= '0') && (*(str + digit) <= '9'))) {
 2728              		.loc 1 888 15
 2729 0010 FB7D     		ldrb	r3, [r7, #23]	@ zero_extendqisi2
 2730 0012 7A68     		ldr	r2, [r7, #4]
 2731 0014 1344     		add	r3, r3, r2
 2732              		.loc 1 888 9
 2733 0016 1B78     		ldrb	r3, [r3]	@ zero_extendqisi2
 2734              		.loc 1 888 6
 2735 0018 2F2B     		cmp	r3, #47
ARM GAS  C:\Users\ep_ygh\AppData\Local\Temp\ccqIQPDc.s 			page 69


 2736 001a 09D9     		bls	.L141
 2737              		.loc 1 888 42 discriminator 1
 2738 001c FB7D     		ldrb	r3, [r7, #23]	@ zero_extendqisi2
 2739 001e 7A68     		ldr	r2, [r7, #4]
 2740 0020 1344     		add	r3, r3, r2
 2741              		.loc 1 888 36 discriminator 1
 2742 0022 1B78     		ldrb	r3, [r3]	@ zero_extendqisi2
 2743              		.loc 1 888 32 discriminator 1
 2744 0024 392B     		cmp	r3, #57
 2745 0026 03D8     		bhi	.L141
 889:Projects/STM32F401RE-Nucleo/Examples/MotionControl/MicrosteppingMotor/Src/example_usart.c **** 			digit++;
 2746              		.loc 1 889 9
 2747 0028 FB7D     		ldrb	r3, [r7, #23]	@ zero_extendqisi2
 2748 002a 0133     		adds	r3, r3, #1
 2749 002c FB75     		strb	r3, [r7, #23]
 2750 002e 04E0     		b	.L140
 2751              	.L141:
 890:Projects/STM32F401RE-Nucleo/Examples/MotionControl/MicrosteppingMotor/Src/example_usart.c **** 		} else {
 891:Projects/STM32F401RE-Nucleo/Examples/MotionControl/MicrosteppingMotor/Src/example_usart.c **** 			*pnum = 0;
 2752              		.loc 1 891 10
 2753 0030 3B68     		ldr	r3, [r7]
 2754 0032 0022     		movs	r2, #0
 2755 0034 1A60     		str	r2, [r3]
 892:Projects/STM32F401RE-Nucleo/Examples/MotionControl/MicrosteppingMotor/Src/example_usart.c **** 			return RESET;
 2756              		.loc 1 892 11
 2757 0036 0023     		movs	r3, #0
 2758 0038 27E0     		b	.L142
 2759              	.L140:
 887:Projects/STM32F401RE-Nucleo/Examples/MotionControl/MicrosteppingMotor/Src/example_usart.c **** 		if (((*(str + digit) >= '0') && (*(str + digit) <= '9'))) {
 2760              		.loc 1 887 15
 2761 003a FB7D     		ldrb	r3, [r7, #23]	@ zero_extendqisi2
 2762 003c 7A68     		ldr	r2, [r7, #4]
 2763 003e 1344     		add	r3, r3, r2
 887:Projects/STM32F401RE-Nucleo/Examples/MotionControl/MicrosteppingMotor/Src/example_usart.c **** 		if (((*(str + digit) >= '0') && (*(str + digit) <= '9'))) {
 2764              		.loc 1 887 9
 2765 0040 1B78     		ldrb	r3, [r3]	@ zero_extendqisi2
 887:Projects/STM32F401RE-Nucleo/Examples/MotionControl/MicrosteppingMotor/Src/example_usart.c **** 		if (((*(str + digit) >= '0') && (*(str + digit) <= '9'))) {
 2766              		.loc 1 887 8
 2767 0042 002B     		cmp	r3, #0
 2768 0044 E4D1     		bne	.L143
 893:Projects/STM32F401RE-Nucleo/Examples/MotionControl/MicrosteppingMotor/Src/example_usart.c **** 		}
 894:Projects/STM32F401RE-Nucleo/Examples/MotionControl/MicrosteppingMotor/Src/example_usart.c **** 	}
 895:Projects/STM32F401RE-Nucleo/Examples/MotionControl/MicrosteppingMotor/Src/example_usart.c **** 
 896:Projects/STM32F401RE-Nucleo/Examples/MotionControl/MicrosteppingMotor/Src/example_usart.c **** 	tenpwr = 1;
 2769              		.loc 1 896 9
 2770 0046 0123     		movs	r3, #1
 2771 0048 3B61     		str	r3, [r7, #16]
 897:Projects/STM32F401RE-Nucleo/Examples/MotionControl/MicrosteppingMotor/Src/example_usart.c **** 	number = 0;
 2772              		.loc 1 897 9
 2773 004a 0023     		movs	r3, #0
 2774 004c FB60     		str	r3, [r7, #12]
 2775              	.L144:
 898:Projects/STM32F401RE-Nucleo/Examples/MotionControl/MicrosteppingMotor/Src/example_usart.c **** 
 899:Projects/STM32F401RE-Nucleo/Examples/MotionControl/MicrosteppingMotor/Src/example_usart.c **** 	do {
 900:Projects/STM32F401RE-Nucleo/Examples/MotionControl/MicrosteppingMotor/Src/example_usart.c **** 		TxtStr_digit = (*(str + (--digit)));
 2776              		.loc 1 900 16 discriminator 1
 2777 004e FB7D     		ldrb	r3, [r7, #23]
ARM GAS  C:\Users\ep_ygh\AppData\Local\Temp\ccqIQPDc.s 			page 70


 2778 0050 013B     		subs	r3, r3, #1
 2779 0052 FB75     		strb	r3, [r7, #23]
 2780              		.loc 1 900 28 discriminator 1
 2781 0054 FB7D     		ldrb	r3, [r7, #23]	@ zero_extendqisi2
 2782              		.loc 1 900 25 discriminator 1
 2783 0056 7A68     		ldr	r2, [r7, #4]
 2784 0058 1344     		add	r3, r3, r2
 2785              		.loc 1 900 16 discriminator 1
 2786 005a 1B78     		ldrb	r3, [r3]
 2787 005c FB72     		strb	r3, [r7, #11]
 901:Projects/STM32F401RE-Nucleo/Examples/MotionControl/MicrosteppingMotor/Src/example_usart.c **** 		number += ((TxtStr_digit - '0') * tenpwr);
 2788              		.loc 1 901 28 discriminator 1
 2789 005e FB7A     		ldrb	r3, [r7, #11]	@ zero_extendqisi2
 2790 0060 303B     		subs	r3, r3, #48
 2791 0062 1A46     		mov	r2, r3
 2792              		.loc 1 901 35 discriminator 1
 2793 0064 3B69     		ldr	r3, [r7, #16]
 2794 0066 02FB03F3 		mul	r3, r2, r3
 2795              		.loc 1 901 10 discriminator 1
 2796 006a FA68     		ldr	r2, [r7, #12]
 2797 006c 1344     		add	r3, r3, r2
 2798 006e FB60     		str	r3, [r7, #12]
 902:Projects/STM32F401RE-Nucleo/Examples/MotionControl/MicrosteppingMotor/Src/example_usart.c **** 		tenpwr *= 10;
 2799              		.loc 1 902 10 discriminator 1
 2800 0070 3A69     		ldr	r2, [r7, #16]
 2801 0072 1346     		mov	r3, r2
 2802 0074 9B00     		lsls	r3, r3, #2
 2803 0076 1344     		add	r3, r3, r2
 2804 0078 5B00     		lsls	r3, r3, #1
 2805 007a 3B61     		str	r3, [r7, #16]
 903:Projects/STM32F401RE-Nucleo/Examples/MotionControl/MicrosteppingMotor/Src/example_usart.c **** 	} while (digit);
 2806              		.loc 1 903 2 discriminator 1
 2807 007c FB7D     		ldrb	r3, [r7, #23]	@ zero_extendqisi2
 2808 007e 002B     		cmp	r3, #0
 2809 0080 E5D1     		bne	.L144
 904:Projects/STM32F401RE-Nucleo/Examples/MotionControl/MicrosteppingMotor/Src/example_usart.c **** 
 905:Projects/STM32F401RE-Nucleo/Examples/MotionControl/MicrosteppingMotor/Src/example_usart.c **** 	*pnum = number;
 2810              		.loc 1 905 8
 2811 0082 3B68     		ldr	r3, [r7]
 2812 0084 FA68     		ldr	r2, [r7, #12]
 2813 0086 1A60     		str	r2, [r3]
 906:Projects/STM32F401RE-Nucleo/Examples/MotionControl/MicrosteppingMotor/Src/example_usart.c **** 	return SET;
 2814              		.loc 1 906 9
 2815 0088 0123     		movs	r3, #1
 2816              	.L142:
 907:Projects/STM32F401RE-Nucleo/Examples/MotionControl/MicrosteppingMotor/Src/example_usart.c **** }
 2817              		.loc 1 907 1
 2818 008a 1846     		mov	r0, r3
 2819 008c 1C37     		adds	r7, r7, #28
 2820              	.LCFI24:
 2821              		.cfi_def_cfa_offset 4
 2822 008e BD46     		mov	sp, r7
 2823              	.LCFI25:
 2824              		.cfi_def_cfa_register 13
 2825              		@ sp needed
 2826 0090 5DF8047B 		ldr	r7, [sp], #4
 2827              	.LCFI26:
ARM GAS  C:\Users\ep_ygh\AppData\Local\Temp\ccqIQPDc.s 			page 71


 2828              		.cfi_restore 7
 2829              		.cfi_def_cfa_offset 0
 2830 0094 7047     		bx	lr
 2831              		.cfi_endproc
 2832              	.LFE132:
 2834              		.section	.rodata
 2835              		.align	2
 2836              	.LC17:
 2837 02c8 20582D4E 		.ascii	" X-NUCLEO-IHM02A1\015\012\000"
 2837      55434C45 
 2837      4F2D4948 
 2837      4D303241 
 2837      310D0A00 
 2838              		.align	2
 2839              	.LC18:
 2840 02dc 202D2D2D 		.ascii	" -------------------------------------------\015\012"
 2840      2D2D2D2D 
 2840      2D2D2D2D 
 2840      2D2D2D2D 
 2840      2D2D2D2D 
 2841 030a 00       		.ascii	"\000"
 2842 030b 00       		.align	2
 2843              	.LC19:
 2844 030c 20447561 		.ascii	" Dual L6470 Expansion Board for STM32 NUCLEO\015\012"
 2844      6C204C36 
 2844      34373020 
 2844      45787061 
 2844      6E73696F 
 2845 033a 00       		.ascii	"\000"
 2846 033b 00       		.align	2
 2847              	.LC20:
 2848 033c 20537461 		.ascii	" Stacked on \000"
 2848      636B6564 
 2848      206F6E20 
 2848      00
 2849 0349 000000   		.align	2
 2850              	.LC21:
 2851 034c 4E55434C 		.ascii	"NUCLEO-F401RE\000"
 2851      454F2D46 
 2851      34303152 
 2851      4500
 2852 035a 0000     		.align	2
 2853              	.LC22:
 2854 035c 200D0A00 		.ascii	" \015\012\000"
 2855              		.align	2
 2856              	.LC23:
 2857 0360 20582D43 		.ascii	" X-CUBE-SPN2 v1.1.1\015\012\000"
 2857      5542452D 
 2857      53504E32 
 2857      2076312E 
 2857      312E310D 
 2858 0376 0000     		.align	2
 2859              	.LC24:
 2860 0378 2053544D 		.ascii	" STMicroelectronics, 2015\015\012\015\012\000"
 2860      6963726F 
 2860      656C6563 
 2860      74726F6E 
ARM GAS  C:\Users\ep_ygh\AppData\Local\Temp\ccqIQPDc.s 			page 72


 2860      6963732C 
 2861              		.section	.text.USART_TxWelcomeMessage,"ax",%progbits
 2862              		.align	1
 2863              		.global	USART_TxWelcomeMessage
 2864              		.syntax unified
 2865              		.thumb
 2866              		.thumb_func
 2868              	USART_TxWelcomeMessage:
 2869              	.LFB133:
 908:Projects/STM32F401RE-Nucleo/Examples/MotionControl/MicrosteppingMotor/Src/example_usart.c **** 
 909:Projects/STM32F401RE-Nucleo/Examples/MotionControl/MicrosteppingMotor/Src/example_usart.c **** /**
 910:Projects/STM32F401RE-Nucleo/Examples/MotionControl/MicrosteppingMotor/Src/example_usart.c ****  * @}
 911:Projects/STM32F401RE-Nucleo/Examples/MotionControl/MicrosteppingMotor/Src/example_usart.c ****  *//* End of ExampleUsartPrivateFunctions */
 912:Projects/STM32F401RE-Nucleo/Examples/MotionControl/MicrosteppingMotor/Src/example_usart.c **** 
 913:Projects/STM32F401RE-Nucleo/Examples/MotionControl/MicrosteppingMotor/Src/example_usart.c **** /**
 914:Projects/STM32F401RE-Nucleo/Examples/MotionControl/MicrosteppingMotor/Src/example_usart.c ****  * @addtogroup   ExampleUsartExportedFunctions
 915:Projects/STM32F401RE-Nucleo/Examples/MotionControl/MicrosteppingMotor/Src/example_usart.c ****  * @{
 916:Projects/STM32F401RE-Nucleo/Examples/MotionControl/MicrosteppingMotor/Src/example_usart.c ****  */
 917:Projects/STM32F401RE-Nucleo/Examples/MotionControl/MicrosteppingMotor/Src/example_usart.c **** 
 918:Projects/STM32F401RE-Nucleo/Examples/MotionControl/MicrosteppingMotor/Src/example_usart.c **** /**
 919:Projects/STM32F401RE-Nucleo/Examples/MotionControl/MicrosteppingMotor/Src/example_usart.c ****  * @brief  Transmit the initial message to the PC which is connected to the
 920:Projects/STM32F401RE-Nucleo/Examples/MotionControl/MicrosteppingMotor/Src/example_usart.c ****  *         NUCLEO board via UART.
 921:Projects/STM32F401RE-Nucleo/Examples/MotionControl/MicrosteppingMotor/Src/example_usart.c ****  */
 922:Projects/STM32F401RE-Nucleo/Examples/MotionControl/MicrosteppingMotor/Src/example_usart.c **** void USART_TxWelcomeMessage(void) {
 2870              		.loc 1 922 35
 2871              		.cfi_startproc
 2872              		@ args = 0, pretend = 0, frame = 0
 2873              		@ frame_needed = 1, uses_anonymous_args = 0
 2874 0000 80B5     		push	{r7, lr}
 2875              	.LCFI27:
 2876              		.cfi_def_cfa_offset 8
 2877              		.cfi_offset 7, -8
 2878              		.cfi_offset 14, -4
 2879 0002 00AF     		add	r7, sp, #0
 2880              	.LCFI28:
 2881              		.cfi_def_cfa_register 7
 923:Projects/STM32F401RE-Nucleo/Examples/MotionControl/MicrosteppingMotor/Src/example_usart.c **** 	/* Send information to PC via USART */
 924:Projects/STM32F401RE-Nucleo/Examples/MotionControl/MicrosteppingMotor/Src/example_usart.c **** 	USART_Transmit(&huart2, (uint8_t* )"\r\n");
 2882              		.loc 1 924 2
 2883 0004 1249     		ldr	r1, .L146
 2884 0006 1348     		ldr	r0, .L146+4
 2885 0008 FFF7FEFF 		bl	USART_Transmit
 925:Projects/STM32F401RE-Nucleo/Examples/MotionControl/MicrosteppingMotor/Src/example_usart.c **** 	USART_Transmit(&huart2, (uint8_t* )" X-NUCLEO-IHM02A1\r\n");
 2886              		.loc 1 925 2
 2887 000c 1249     		ldr	r1, .L146+8
 2888 000e 1148     		ldr	r0, .L146+4
 2889 0010 FFF7FEFF 		bl	USART_Transmit
 926:Projects/STM32F401RE-Nucleo/Examples/MotionControl/MicrosteppingMotor/Src/example_usart.c **** 	USART_Transmit(&huart2, (uint8_t* )" -------------------------------------------\r\n");
 2890              		.loc 1 926 2
 2891 0014 1149     		ldr	r1, .L146+12
 2892 0016 0F48     		ldr	r0, .L146+4
 2893 0018 FFF7FEFF 		bl	USART_Transmit
 927:Projects/STM32F401RE-Nucleo/Examples/MotionControl/MicrosteppingMotor/Src/example_usart.c **** 	USART_Transmit(&huart2, (uint8_t* )" Dual L6470 Expansion Board for STM32 NUCLEO\r\n");
 2894              		.loc 1 927 2
 2895 001c 1049     		ldr	r1, .L146+16
 2896 001e 0D48     		ldr	r0, .L146+4
 2897 0020 FFF7FEFF 		bl	USART_Transmit
ARM GAS  C:\Users\ep_ygh\AppData\Local\Temp\ccqIQPDc.s 			page 73


 928:Projects/STM32F401RE-Nucleo/Examples/MotionControl/MicrosteppingMotor/Src/example_usart.c **** 	USART_Transmit(&huart2, (uint8_t* )" Stacked on ");
 2898              		.loc 1 928 2
 2899 0024 0F49     		ldr	r1, .L146+20
 2900 0026 0B48     		ldr	r0, .L146+4
 2901 0028 FFF7FEFF 		bl	USART_Transmit
 929:Projects/STM32F401RE-Nucleo/Examples/MotionControl/MicrosteppingMotor/Src/example_usart.c **** 	USART_Transmit(&huart2, NUCLEO_BOARD_NAME);
 2902              		.loc 1 929 2
 2903 002c 0E49     		ldr	r1, .L146+24
 2904 002e 0948     		ldr	r0, .L146+4
 2905 0030 FFF7FEFF 		bl	USART_Transmit
 930:Projects/STM32F401RE-Nucleo/Examples/MotionControl/MicrosteppingMotor/Src/example_usart.c **** 	USART_Transmit(&huart2, (uint8_t* )" \r\n");
 2906              		.loc 1 930 2
 2907 0034 0D49     		ldr	r1, .L146+28
 2908 0036 0748     		ldr	r0, .L146+4
 2909 0038 FFF7FEFF 		bl	USART_Transmit
 931:Projects/STM32F401RE-Nucleo/Examples/MotionControl/MicrosteppingMotor/Src/example_usart.c **** 	USART_Transmit(&huart2, (uint8_t* )" X-CUBE-SPN2 v1.1.1\r\n");
 2910              		.loc 1 931 2
 2911 003c 0C49     		ldr	r1, .L146+32
 2912 003e 0548     		ldr	r0, .L146+4
 2913 0040 FFF7FEFF 		bl	USART_Transmit
 932:Projects/STM32F401RE-Nucleo/Examples/MotionControl/MicrosteppingMotor/Src/example_usart.c **** 	USART_Transmit(&huart2, (uint8_t* )" STMicroelectronics, 2015\r\n\r\n");
 2914              		.loc 1 932 2
 2915 0044 0B49     		ldr	r1, .L146+36
 2916 0046 0348     		ldr	r0, .L146+4
 2917 0048 FFF7FEFF 		bl	USART_Transmit
 933:Projects/STM32F401RE-Nucleo/Examples/MotionControl/MicrosteppingMotor/Src/example_usart.c **** }
 2918              		.loc 1 933 1
 2919 004c 00BF     		nop
 2920 004e 80BD     		pop	{r7, pc}
 2921              	.L147:
 2922              		.align	2
 2923              	.L146:
 2924 0050 88020000 		.word	.LC14
 2925 0054 00000000 		.word	huart2
 2926 0058 C8020000 		.word	.LC17
 2927 005c DC020000 		.word	.LC18
 2928 0060 0C030000 		.word	.LC19
 2929 0064 3C030000 		.word	.LC20
 2930 0068 4C030000 		.word	.LC21
 2931 006c 5C030000 		.word	.LC22
 2932 0070 60030000 		.word	.LC23
 2933 0074 78030000 		.word	.LC24
 2934              		.cfi_endproc
 2935              	.LFE133:
 2937              		.section	.text.USART_Transmit,"ax",%progbits
 2938              		.align	1
 2939              		.global	USART_Transmit
 2940              		.syntax unified
 2941              		.thumb
 2942              		.thumb_func
 2944              	USART_Transmit:
 2945              	.LFB134:
 934:Projects/STM32F401RE-Nucleo/Examples/MotionControl/MicrosteppingMotor/Src/example_usart.c **** 
 935:Projects/STM32F401RE-Nucleo/Examples/MotionControl/MicrosteppingMotor/Src/example_usart.c **** /**
 936:Projects/STM32F401RE-Nucleo/Examples/MotionControl/MicrosteppingMotor/Src/example_usart.c ****  * @brief  Send a text string via USART.
 937:Projects/STM32F401RE-Nucleo/Examples/MotionControl/MicrosteppingMotor/Src/example_usart.c ****  * @param  huart       pointer to a UART_HandleTypeDef structure that contains
 938:Projects/STM32F401RE-Nucleo/Examples/MotionControl/MicrosteppingMotor/Src/example_usart.c ****  *                     the configuration information for the specified UART module.
ARM GAS  C:\Users\ep_ygh\AppData\Local\Temp\ccqIQPDc.s 			page 74


 939:Projects/STM32F401RE-Nucleo/Examples/MotionControl/MicrosteppingMotor/Src/example_usart.c ****  * @param  TextString  The text string to be sent.
 940:Projects/STM32F401RE-Nucleo/Examples/MotionControl/MicrosteppingMotor/Src/example_usart.c ****  * @note It use the HAL_UART_Transmit function.
 941:Projects/STM32F401RE-Nucleo/Examples/MotionControl/MicrosteppingMotor/Src/example_usart.c ****  */
 942:Projects/STM32F401RE-Nucleo/Examples/MotionControl/MicrosteppingMotor/Src/example_usart.c **** void USART_Transmit(UART_HandleTypeDef* huart, uint8_t* TextString) {
 2946              		.loc 1 942 69
 2947              		.cfi_startproc
 2948              		@ args = 0, pretend = 0, frame = 16
 2949              		@ frame_needed = 1, uses_anonymous_args = 0
 2950 0000 80B5     		push	{r7, lr}
 2951              	.LCFI29:
 2952              		.cfi_def_cfa_offset 8
 2953              		.cfi_offset 7, -8
 2954              		.cfi_offset 14, -4
 2955 0002 84B0     		sub	sp, sp, #16
 2956              	.LCFI30:
 2957              		.cfi_def_cfa_offset 24
 2958 0004 00AF     		add	r7, sp, #0
 2959              	.LCFI31:
 2960              		.cfi_def_cfa_register 7
 2961 0006 7860     		str	r0, [r7, #4]
 2962 0008 3960     		str	r1, [r7]
 943:Projects/STM32F401RE-Nucleo/Examples/MotionControl/MicrosteppingMotor/Src/example_usart.c **** 	uint8_t TextStringLength;
 944:Projects/STM32F401RE-Nucleo/Examples/MotionControl/MicrosteppingMotor/Src/example_usart.c **** 
 945:Projects/STM32F401RE-Nucleo/Examples/MotionControl/MicrosteppingMotor/Src/example_usart.c **** 	/* Calculate the length of the text string to be sent */
 946:Projects/STM32F401RE-Nucleo/Examples/MotionControl/MicrosteppingMotor/Src/example_usart.c **** 	TextStringLength = 0;
 2963              		.loc 1 946 19
 2964 000a 0023     		movs	r3, #0
 2965 000c FB73     		strb	r3, [r7, #15]
 947:Projects/STM32F401RE-Nucleo/Examples/MotionControl/MicrosteppingMotor/Src/example_usart.c **** 	while (TextString[TextStringLength++] != '\0')
 2966              		.loc 1 947 8
 2967 000e 00BF     		nop
 2968              	.L149:
 2969              		.loc 1 947 36 discriminator 1
 2970 0010 FB7B     		ldrb	r3, [r7, #15]	@ zero_extendqisi2
 2971 0012 5A1C     		adds	r2, r3, #1
 2972 0014 FA73     		strb	r2, [r7, #15]
 2973 0016 1A46     		mov	r2, r3
 2974              		.loc 1 947 19 discriminator 1
 2975 0018 3B68     		ldr	r3, [r7]
 2976 001a 1344     		add	r3, r3, r2
 2977 001c 1B78     		ldrb	r3, [r3]	@ zero_extendqisi2
 2978              		.loc 1 947 8 discriminator 1
 2979 001e 002B     		cmp	r3, #0
 2980 0020 F6D1     		bne	.L149
 948:Projects/STM32F401RE-Nucleo/Examples/MotionControl/MicrosteppingMotor/Src/example_usart.c **** 		;
 949:Projects/STM32F401RE-Nucleo/Examples/MotionControl/MicrosteppingMotor/Src/example_usart.c **** 	TextStringLength--;
 2981              		.loc 1 949 18
 2982 0022 FB7B     		ldrb	r3, [r7, #15]	@ zero_extendqisi2
 2983 0024 013B     		subs	r3, r3, #1
 2984 0026 FB73     		strb	r3, [r7, #15]
 950:Projects/STM32F401RE-Nucleo/Examples/MotionControl/MicrosteppingMotor/Src/example_usart.c **** 
 951:Projects/STM32F401RE-Nucleo/Examples/MotionControl/MicrosteppingMotor/Src/example_usart.c **** 	/* Use the HAL function to send the text string via USART */
 952:Projects/STM32F401RE-Nucleo/Examples/MotionControl/MicrosteppingMotor/Src/example_usart.c **** 	HAL_UART_Transmit(huart, TextString, TextStringLength, 10);
 2985              		.loc 1 952 2
 2986 0028 FB7B     		ldrb	r3, [r7, #15]	@ zero_extendqisi2
 2987 002a 9AB2     		uxth	r2, r3
 2988 002c 0A23     		movs	r3, #10
ARM GAS  C:\Users\ep_ygh\AppData\Local\Temp\ccqIQPDc.s 			page 75


 2989 002e 3968     		ldr	r1, [r7]
 2990 0030 7868     		ldr	r0, [r7, #4]
 2991 0032 FFF7FEFF 		bl	HAL_UART_Transmit
 953:Projects/STM32F401RE-Nucleo/Examples/MotionControl/MicrosteppingMotor/Src/example_usart.c **** }
 2992              		.loc 1 953 1
 2993 0036 00BF     		nop
 2994 0038 1037     		adds	r7, r7, #16
 2995              	.LCFI32:
 2996              		.cfi_def_cfa_offset 8
 2997 003a BD46     		mov	sp, r7
 2998              	.LCFI33:
 2999              		.cfi_def_cfa_register 13
 3000              		@ sp needed
 3001 003c 80BD     		pop	{r7, pc}
 3002              		.cfi_endproc
 3003              	.LFE134:
 3005              		.section	.text.USART_CheckAppCmd,"ax",%progbits
 3006              		.align	1
 3007              		.global	USART_CheckAppCmd
 3008              		.syntax unified
 3009              		.thumb
 3010              		.thumb_func
 3012              	USART_CheckAppCmd:
 3013              	.LFB135:
 954:Projects/STM32F401RE-Nucleo/Examples/MotionControl/MicrosteppingMotor/Src/example_usart.c **** 
 955:Projects/STM32F401RE-Nucleo/Examples/MotionControl/MicrosteppingMotor/Src/example_usart.c **** /**
 956:Projects/STM32F401RE-Nucleo/Examples/MotionControl/MicrosteppingMotor/Src/example_usart.c ****  * @brief  Check if any Application Command for L6470 has been entered by USART
 957:Projects/STM32F401RE-Nucleo/Examples/MotionControl/MicrosteppingMotor/Src/example_usart.c ****  *         so to proceed to decode and perform the command.
 958:Projects/STM32F401RE-Nucleo/Examples/MotionControl/MicrosteppingMotor/Src/example_usart.c ****  */
 959:Projects/STM32F401RE-Nucleo/Examples/MotionControl/MicrosteppingMotor/Src/example_usart.c **** void USART_CheckAppCmd(void) {
 3014              		.loc 1 959 30
 3015              		.cfi_startproc
 3016              		@ args = 0, pretend = 0, frame = 0
 3017              		@ frame_needed = 1, uses_anonymous_args = 0
 3018 0000 80B5     		push	{r7, lr}
 3019              	.LCFI34:
 3020              		.cfi_def_cfa_offset 8
 3021              		.cfi_offset 7, -8
 3022              		.cfi_offset 14, -4
 3023 0002 00AF     		add	r7, sp, #0
 3024              	.LCFI35:
 3025              		.cfi_def_cfa_register 7
 960:Projects/STM32F401RE-Nucleo/Examples/MotionControl/MicrosteppingMotor/Src/example_usart.c **** 	/* Checks the UART2 is in idle state */
 961:Projects/STM32F401RE-Nucleo/Examples/MotionControl/MicrosteppingMotor/Src/example_usart.c **** 	if (huart2.State == HAL_UART_STATE_READY) {
 3026              		.loc 1 961 12
 3027 0004 0B4B     		ldr	r3, .L154
 3028 0006 93F83930 		ldrb	r3, [r3, #57]
 3029 000a DBB2     		uxtb	r3, r3
 3030              		.loc 1 961 5
 3031 000c 012B     		cmp	r3, #1
 3032 000e 0ED1     		bne	.L153
 962:Projects/STM32F401RE-Nucleo/Examples/MotionControl/MicrosteppingMotor/Src/example_usart.c **** 		/* Checks one character has been at least entered */
 963:Projects/STM32F401RE-Nucleo/Examples/MotionControl/MicrosteppingMotor/Src/example_usart.c **** 		if (UsartTextString[0] != '\0') {
 3033              		.loc 1 963 22
 3034 0010 094B     		ldr	r3, .L154+4
 3035 0012 1B78     		ldrb	r3, [r3]	@ zero_extendqisi2
 3036              		.loc 1 963 6
ARM GAS  C:\Users\ep_ygh\AppData\Local\Temp\ccqIQPDc.s 			page 76


 3037 0014 002B     		cmp	r3, #0
 3038 0016 05D0     		beq	.L152
 964:Projects/STM32F401RE-Nucleo/Examples/MotionControl/MicrosteppingMotor/Src/example_usart.c **** 			/* Decode the entered command string */
 965:Projects/STM32F401RE-Nucleo/Examples/MotionControl/MicrosteppingMotor/Src/example_usart.c **** 			USART_DecodeTextString(UsartTextString, L6470_TextCommandBundle,
 3039              		.loc 1 965 4
 3040 0018 084B     		ldr	r3, .L154+8
 3041 001a 094A     		ldr	r2, .L154+12
 3042 001c 0949     		ldr	r1, .L154+16
 3043 001e 0648     		ldr	r0, .L154+4
 3044 0020 FFF7FEFF 		bl	USART_DecodeTextString
 3045              	.L152:
 966:Projects/STM32F401RE-Nucleo/Examples/MotionControl/MicrosteppingMotor/Src/example_usart.c **** 					(uint8_t*) L6470_DaisyChainSpiTxStruct,
 967:Projects/STM32F401RE-Nucleo/Examples/MotionControl/MicrosteppingMotor/Src/example_usart.c **** 					(uint8_t*) L6470_DaisyChainSpiRxStruct);
 968:Projects/STM32F401RE-Nucleo/Examples/MotionControl/MicrosteppingMotor/Src/example_usart.c **** 		}
 969:Projects/STM32F401RE-Nucleo/Examples/MotionControl/MicrosteppingMotor/Src/example_usart.c **** 
 970:Projects/STM32F401RE-Nucleo/Examples/MotionControl/MicrosteppingMotor/Src/example_usart.c **** 		/* Prepare to receive a text string via USART with UART_IT_RXNE */
 971:Projects/STM32F401RE-Nucleo/Examples/MotionControl/MicrosteppingMotor/Src/example_usart.c **** 		NucleoUsartReceiveIT(&huart2, UsartTextString, USARTTEXTSTRINGSIZE);
 3046              		.loc 1 971 3
 3047 0024 4022     		movs	r2, #64
 3048 0026 0449     		ldr	r1, .L154+4
 3049 0028 0248     		ldr	r0, .L154
 3050 002a FFF7FEFF 		bl	HAL_UART_Receive_IT
 3051              	.L153:
 972:Projects/STM32F401RE-Nucleo/Examples/MotionControl/MicrosteppingMotor/Src/example_usart.c **** 	}
 973:Projects/STM32F401RE-Nucleo/Examples/MotionControl/MicrosteppingMotor/Src/example_usart.c **** }
 3052              		.loc 1 973 1
 3053 002e 00BF     		nop
 3054 0030 80BD     		pop	{r7, pc}
 3055              	.L155:
 3056 0032 00BF     		.align	2
 3057              	.L154:
 3058 0034 00000000 		.word	huart2
 3059 0038 00000000 		.word	UsartTextString
 3060 003c 00000000 		.word	L6470_DaisyChainSpiRxStruct
 3061 0040 00000000 		.word	L6470_DaisyChainSpiTxStruct
 3062 0044 00000000 		.word	L6470_TextCommandBundle
 3063              		.cfi_endproc
 3064              	.LFE135:
 3066              		.section	.text.USART_ITCharManager,"ax",%progbits
 3067              		.align	1
 3068              		.global	USART_ITCharManager
 3069              		.syntax unified
 3070              		.thumb
 3071              		.thumb_func
 3073              	USART_ITCharManager:
 3074              	.LFB136:
 974:Projects/STM32F401RE-Nucleo/Examples/MotionControl/MicrosteppingMotor/Src/example_usart.c **** 
 975:Projects/STM32F401RE-Nucleo/Examples/MotionControl/MicrosteppingMotor/Src/example_usart.c **** /**
 976:Projects/STM32F401RE-Nucleo/Examples/MotionControl/MicrosteppingMotor/Src/example_usart.c ****  * @brief  Handle text character just received.
 977:Projects/STM32F401RE-Nucleo/Examples/MotionControl/MicrosteppingMotor/Src/example_usart.c ****  * @param  huart pointer to a UART_HandleTypeDef structure that contains
 978:Projects/STM32F401RE-Nucleo/Examples/MotionControl/MicrosteppingMotor/Src/example_usart.c ****  *               the configuration information for the specified UART module.
 979:Projects/STM32F401RE-Nucleo/Examples/MotionControl/MicrosteppingMotor/Src/example_usart.c ****  * @note To use inside USART2_IRQHandler function.
 980:Projects/STM32F401RE-Nucleo/Examples/MotionControl/MicrosteppingMotor/Src/example_usart.c ****  */
 981:Projects/STM32F401RE-Nucleo/Examples/MotionControl/MicrosteppingMotor/Src/example_usart.c **** void USART_ITCharManager(UART_HandleTypeDef* huart) {
 3075              		.loc 1 981 53
 3076              		.cfi_startproc
 3077              		@ args = 0, pretend = 0, frame = 16
ARM GAS  C:\Users\ep_ygh\AppData\Local\Temp\ccqIQPDc.s 			page 77


 3078              		@ frame_needed = 1, uses_anonymous_args = 0
 3079 0000 80B5     		push	{r7, lr}
 3080              	.LCFI36:
 3081              		.cfi_def_cfa_offset 8
 3082              		.cfi_offset 7, -8
 3083              		.cfi_offset 14, -4
 3084 0002 84B0     		sub	sp, sp, #16
 3085              	.LCFI37:
 3086              		.cfi_def_cfa_offset 24
 3087 0004 00AF     		add	r7, sp, #0
 3088              	.LCFI38:
 3089              		.cfi_def_cfa_register 7
 3090 0006 7860     		str	r0, [r7, #4]
 982:Projects/STM32F401RE-Nucleo/Examples/MotionControl/MicrosteppingMotor/Src/example_usart.c **** 	uint8_t UART_Receive_IT_Char;
 983:Projects/STM32F401RE-Nucleo/Examples/MotionControl/MicrosteppingMotor/Src/example_usart.c **** 
 984:Projects/STM32F401RE-Nucleo/Examples/MotionControl/MicrosteppingMotor/Src/example_usart.c **** 	UART_Receive_IT_Char = (uint8_t) (huart->Instance->USART_DATA_REGISTER);
 3091              		.loc 1 984 41
 3092 0008 7B68     		ldr	r3, [r7, #4]
 3093 000a 1B68     		ldr	r3, [r3]
 3094              		.loc 1 984 51
 3095 000c 5B68     		ldr	r3, [r3, #4]
 3096              		.loc 1 984 23
 3097 000e FB73     		strb	r3, [r7, #15]
 985:Projects/STM32F401RE-Nucleo/Examples/MotionControl/MicrosteppingMotor/Src/example_usart.c **** 	/* Checks the buffer full or retur carriage  */
 986:Projects/STM32F401RE-Nucleo/Examples/MotionControl/MicrosteppingMotor/Src/example_usart.c **** 	if ((huart->RxXferCount == 1) || (UART_Receive_IT_Char == '\r')) {
 3098              		.loc 1 986 12
 3099 0010 7B68     		ldr	r3, [r7, #4]
 3100 0012 DB8D     		ldrh	r3, [r3, #46]
 3101              		.loc 1 986 5
 3102 0014 012B     		cmp	r3, #1
 3103 0016 02D0     		beq	.L157
 3104              		.loc 1 986 32 discriminator 1
 3105 0018 FB7B     		ldrb	r3, [r7, #15]	@ zero_extendqisi2
 3106 001a 0D2B     		cmp	r3, #13
 3107 001c 41D1     		bne	.L161
 3108              	.L157:
 987:Projects/STM32F401RE-Nucleo/Examples/MotionControl/MicrosteppingMotor/Src/example_usart.c **** 		huart->RxXferCount += 1;
 3109              		.loc 1 987 22
 3110 001e 7B68     		ldr	r3, [r7, #4]
 3111 0020 DB8D     		ldrh	r3, [r3, #46]
 3112 0022 0133     		adds	r3, r3, #1
 3113 0024 9AB2     		uxth	r2, r3
 3114 0026 7B68     		ldr	r3, [r7, #4]
 3115 0028 DA85     		strh	r2, [r3, #46]	@ movhi
 988:Projects/STM32F401RE-Nucleo/Examples/MotionControl/MicrosteppingMotor/Src/example_usart.c **** 		huart->pRxBuffPtr -= 1;
 3116              		.loc 1 988 21
 3117 002a 7B68     		ldr	r3, [r7, #4]
 3118 002c 9B6A     		ldr	r3, [r3, #40]
 3119 002e 5A1E     		subs	r2, r3, #1
 3120 0030 7B68     		ldr	r3, [r7, #4]
 3121 0032 9A62     		str	r2, [r3, #40]
 989:Projects/STM32F401RE-Nucleo/Examples/MotionControl/MicrosteppingMotor/Src/example_usart.c **** 		*(huart->pRxBuffPtr) = '\0';
 3122              		.loc 1 989 10
 3123 0034 7B68     		ldr	r3, [r7, #4]
 3124 0036 9B6A     		ldr	r3, [r3, #40]
 3125              		.loc 1 989 24
 3126 0038 0022     		movs	r2, #0
ARM GAS  C:\Users\ep_ygh\AppData\Local\Temp\ccqIQPDc.s 			page 78


 3127 003a 1A70     		strb	r2, [r3]
 990:Projects/STM32F401RE-Nucleo/Examples/MotionControl/MicrosteppingMotor/Src/example_usart.c **** 
 991:Projects/STM32F401RE-Nucleo/Examples/MotionControl/MicrosteppingMotor/Src/example_usart.c **** 		USART_Transmit(huart, (uint8_t *)"\r\n");
 3128              		.loc 1 991 3
 3129 003c 1B49     		ldr	r1, .L162
 3130 003e 7868     		ldr	r0, [r7, #4]
 3131 0040 FFF7FEFF 		bl	USART_Transmit
 992:Projects/STM32F401RE-Nucleo/Examples/MotionControl/MicrosteppingMotor/Src/example_usart.c **** 
 993:Projects/STM32F401RE-Nucleo/Examples/MotionControl/MicrosteppingMotor/Src/example_usart.c **** 		while (HAL_IS_BIT_SET(huart->Instance->USART_STATUS_REGISTER,
 3132              		.loc 1 993 9
 3133 0044 00BF     		nop
 3134              	.L159:
 3135              		.loc 1 993 10 discriminator 1
 3136 0046 7B68     		ldr	r3, [r7, #4]
 3137 0048 1B68     		ldr	r3, [r3]
 3138 004a 1B68     		ldr	r3, [r3]
 3139 004c 03F02003 		and	r3, r3, #32
 3140              		.loc 1 993 9 discriminator 1
 3141 0050 002B     		cmp	r3, #0
 3142 0052 F8D1     		bne	.L159
 994:Projects/STM32F401RE-Nucleo/Examples/MotionControl/MicrosteppingMotor/Src/example_usart.c **** 				UART_FLAG_RXNE)) {
 995:Projects/STM32F401RE-Nucleo/Examples/MotionControl/MicrosteppingMotor/Src/example_usart.c **** 		}
 996:Projects/STM32F401RE-Nucleo/Examples/MotionControl/MicrosteppingMotor/Src/example_usart.c **** 		__HAL_UART_DISABLE_IT(huart, UART_IT_RXNE);
 3143              		.loc 1 996 3
 3144 0054 7B68     		ldr	r3, [r7, #4]
 3145 0056 1B68     		ldr	r3, [r3]
 3146 0058 DA68     		ldr	r2, [r3, #12]
 3147 005a 7B68     		ldr	r3, [r7, #4]
 3148 005c 1B68     		ldr	r3, [r3]
 3149 005e 22F02002 		bic	r2, r2, #32
 3150 0062 DA60     		str	r2, [r3, #12]
 997:Projects/STM32F401RE-Nucleo/Examples/MotionControl/MicrosteppingMotor/Src/example_usart.c **** 
 998:Projects/STM32F401RE-Nucleo/Examples/MotionControl/MicrosteppingMotor/Src/example_usart.c **** 		/* Check if a transmit process is ongoing or not */
 999:Projects/STM32F401RE-Nucleo/Examples/MotionControl/MicrosteppingMotor/Src/example_usart.c **** 		if (huart->State == HAL_UART_STATE_BUSY_TX_RX) {
 3151              		.loc 1 999 12
 3152 0064 7B68     		ldr	r3, [r7, #4]
 3153 0066 93F83930 		ldrb	r3, [r3, #57]
 3154 006a DBB2     		uxtb	r3, r3
 3155              		.loc 1 999 6
 3156 006c 322B     		cmp	r3, #50
 3157 006e 04D1     		bne	.L160
1000:Projects/STM32F401RE-Nucleo/Examples/MotionControl/MicrosteppingMotor/Src/example_usart.c **** 			huart->State = HAL_UART_STATE_BUSY_TX;
 3158              		.loc 1 1000 17
 3159 0070 7B68     		ldr	r3, [r7, #4]
 3160 0072 1222     		movs	r2, #18
 3161 0074 83F83920 		strb	r2, [r3, #57]
1001:Projects/STM32F401RE-Nucleo/Examples/MotionControl/MicrosteppingMotor/Src/example_usart.c **** 		} else {
1002:Projects/STM32F401RE-Nucleo/Examples/MotionControl/MicrosteppingMotor/Src/example_usart.c **** 			/* Disable the UART Parity Error Interrupt */
1003:Projects/STM32F401RE-Nucleo/Examples/MotionControl/MicrosteppingMotor/Src/example_usart.c **** 			__HAL_UART_DISABLE_IT(huart, UART_IT_PE);
1004:Projects/STM32F401RE-Nucleo/Examples/MotionControl/MicrosteppingMotor/Src/example_usart.c **** 
1005:Projects/STM32F401RE-Nucleo/Examples/MotionControl/MicrosteppingMotor/Src/example_usart.c **** 			/* Disable the UART Error Interrupt: (Frame error, noise error, overrun error) */
1006:Projects/STM32F401RE-Nucleo/Examples/MotionControl/MicrosteppingMotor/Src/example_usart.c **** 			__HAL_UART_DISABLE_IT(huart, UART_IT_ERR);
1007:Projects/STM32F401RE-Nucleo/Examples/MotionControl/MicrosteppingMotor/Src/example_usart.c **** 
1008:Projects/STM32F401RE-Nucleo/Examples/MotionControl/MicrosteppingMotor/Src/example_usart.c **** 			huart->State = HAL_UART_STATE_READY;
1009:Projects/STM32F401RE-Nucleo/Examples/MotionControl/MicrosteppingMotor/Src/example_usart.c **** 		}
1010:Projects/STM32F401RE-Nucleo/Examples/MotionControl/MicrosteppingMotor/Src/example_usart.c **** 	}
1011:Projects/STM32F401RE-Nucleo/Examples/MotionControl/MicrosteppingMotor/Src/example_usart.c **** }
ARM GAS  C:\Users\ep_ygh\AppData\Local\Temp\ccqIQPDc.s 			page 79


 3162              		.loc 1 1011 1
 3163 0078 13E0     		b	.L161
 3164              	.L160:
1003:Projects/STM32F401RE-Nucleo/Examples/MotionControl/MicrosteppingMotor/Src/example_usart.c **** 
 3165              		.loc 1 1003 4
 3166 007a 7B68     		ldr	r3, [r7, #4]
 3167 007c 1B68     		ldr	r3, [r3]
 3168 007e DA68     		ldr	r2, [r3, #12]
 3169 0080 7B68     		ldr	r3, [r7, #4]
 3170 0082 1B68     		ldr	r3, [r3]
 3171 0084 22F48072 		bic	r2, r2, #256
 3172 0088 DA60     		str	r2, [r3, #12]
1006:Projects/STM32F401RE-Nucleo/Examples/MotionControl/MicrosteppingMotor/Src/example_usart.c **** 
 3173              		.loc 1 1006 4
 3174 008a 7B68     		ldr	r3, [r7, #4]
 3175 008c 1B68     		ldr	r3, [r3]
 3176 008e 5A69     		ldr	r2, [r3, #20]
 3177 0090 7B68     		ldr	r3, [r7, #4]
 3178 0092 1B68     		ldr	r3, [r3]
 3179 0094 22F00102 		bic	r2, r2, #1
 3180 0098 5A61     		str	r2, [r3, #20]
1008:Projects/STM32F401RE-Nucleo/Examples/MotionControl/MicrosteppingMotor/Src/example_usart.c **** 		}
 3181              		.loc 1 1008 17
 3182 009a 7B68     		ldr	r3, [r7, #4]
 3183 009c 0122     		movs	r2, #1
 3184 009e 83F83920 		strb	r2, [r3, #57]
 3185              	.L161:
 3186              		.loc 1 1011 1
 3187 00a2 00BF     		nop
 3188 00a4 1037     		adds	r7, r7, #16
 3189              	.LCFI39:
 3190              		.cfi_def_cfa_offset 8
 3191 00a6 BD46     		mov	sp, r7
 3192              	.LCFI40:
 3193              		.cfi_def_cfa_register 13
 3194              		@ sp needed
 3195 00a8 80BD     		pop	{r7, pc}
 3196              	.L163:
 3197 00aa 00BF     		.align	2
 3198              	.L162:
 3199 00ac 88020000 		.word	.LC14
 3200              		.cfi_endproc
 3201              	.LFE136:
 3203              		.section	.rodata
 3204 0396 0000     		.align	2
 3205              	.LC25:
 3206 0398 56616C75 		.ascii	"Values of the registers of L6470_#\000"
 3206      6573206F 
 3206      66207468 
 3206      65207265 
 3206      67697374 
 3207 03bb 00       		.align	2
 3208              	.LC26:
 3209 03bc 206F6620 		.ascii	" of ExpBrd_#\000"
 3209      45787042 
 3209      72645F23 
 3209      00
ARM GAS  C:\Users\ep_ygh\AppData\Local\Temp\ccqIQPDc.s 			page 80


 3210 03c9 000000   		.align	2
 3211              	.LC27:
 3212 03cc 0D0A0D0A 		.ascii	"\015\012\015\012\000"
 3212      00
 3213 03d1 000000   		.align	2
 3214              	.LC28:
 3215 03d4 3A2000   		.ascii	": \000"
 3216              		.section	.text.USART_PrintRegisterValues,"ax",%progbits
 3217              		.align	1
 3218              		.global	USART_PrintRegisterValues
 3219              		.syntax unified
 3220              		.thumb
 3221              		.thumb_func
 3223              	USART_PrintRegisterValues:
 3224              	.LFB137:
1012:Projects/STM32F401RE-Nucleo/Examples/MotionControl/MicrosteppingMotor/Src/example_usart.c **** 
1013:Projects/STM32F401RE-Nucleo/Examples/MotionControl/MicrosteppingMotor/Src/example_usart.c **** /**
1014:Projects/STM32F401RE-Nucleo/Examples/MotionControl/MicrosteppingMotor/Src/example_usart.c ****  * @brief  Print on the PC screen the values of the L6470 Registers.
1015:Projects/STM32F401RE-Nucleo/Examples/MotionControl/MicrosteppingMotor/Src/example_usart.c ****  * @param  ExpBrd    The addressed Expansion Board
1016:Projects/STM32F401RE-Nucleo/Examples/MotionControl/MicrosteppingMotor/Src/example_usart.c ****  * @param  L6470_Id  The addressed L6470
1017:Projects/STM32F401RE-Nucleo/Examples/MotionControl/MicrosteppingMotor/Src/example_usart.c ****  *         
1018:Projects/STM32F401RE-Nucleo/Examples/MotionControl/MicrosteppingMotor/Src/example_usart.c ****  */
1019:Projects/STM32F401RE-Nucleo/Examples/MotionControl/MicrosteppingMotor/Src/example_usart.c **** void USART_PrintRegisterValues(uint8_t ExpBrd, uint8_t L6470_Id) {
 3225              		.loc 1 1019 66
 3226              		.cfi_startproc
 3227              		@ args = 0, pretend = 0, frame = 16
 3228              		@ frame_needed = 1, uses_anonymous_args = 0
 3229 0000 80B5     		push	{r7, lr}
 3230              	.LCFI41:
 3231              		.cfi_def_cfa_offset 8
 3232              		.cfi_offset 7, -8
 3233              		.cfi_offset 14, -4
 3234 0002 84B0     		sub	sp, sp, #16
 3235              	.LCFI42:
 3236              		.cfi_def_cfa_offset 24
 3237 0004 00AF     		add	r7, sp, #0
 3238              	.LCFI43:
 3239              		.cfi_def_cfa_register 7
 3240 0006 0346     		mov	r3, r0
 3241 0008 0A46     		mov	r2, r1
 3242 000a FB71     		strb	r3, [r7, #7]
 3243 000c 1346     		mov	r3, r2
 3244 000e BB71     		strb	r3, [r7, #6]
1020:Projects/STM32F401RE-Nucleo/Examples/MotionControl/MicrosteppingMotor/Src/example_usart.c **** 	uint8_t r;
1021:Projects/STM32F401RE-Nucleo/Examples/MotionControl/MicrosteppingMotor/Src/example_usart.c **** 	uint32_t value;
1022:Projects/STM32F401RE-Nucleo/Examples/MotionControl/MicrosteppingMotor/Src/example_usart.c **** 
1023:Projects/STM32F401RE-Nucleo/Examples/MotionControl/MicrosteppingMotor/Src/example_usart.c **** 	/* Initialize the used GPIO for the L6470 nCS related to the addressed X-NUCLEO-IHM02A1 */
1024:Projects/STM32F401RE-Nucleo/Examples/MotionControl/MicrosteppingMotor/Src/example_usart.c **** 	if (BSP_Select(ExpBrd)) {
 3245              		.loc 1 1024 6
 3246 0010 FB79     		ldrb	r3, [r7, #7]	@ zero_extendqisi2
 3247 0012 1846     		mov	r0, r3
 3248 0014 FFF7FEFF 		bl	BSP_Select
 3249 0018 0346     		mov	r3, r0
 3250              		.loc 1 1024 5
 3251 001a 002B     		cmp	r3, #0
 3252 001c 51D0     		beq	.L168
1025:Projects/STM32F401RE-Nucleo/Examples/MotionControl/MicrosteppingMotor/Src/example_usart.c **** 		USART_Transmit(&huart2, (uint8_t* )"\r\n");
ARM GAS  C:\Users\ep_ygh\AppData\Local\Temp\ccqIQPDc.s 			page 81


 3253              		.loc 1 1025 3
 3254 001e 2B49     		ldr	r1, .L169
 3255 0020 2B48     		ldr	r0, .L169+4
 3256 0022 FFF7FEFF 		bl	USART_Transmit
1026:Projects/STM32F401RE-Nucleo/Examples/MotionControl/MicrosteppingMotor/Src/example_usart.c **** 
1027:Projects/STM32F401RE-Nucleo/Examples/MotionControl/MicrosteppingMotor/Src/example_usart.c **** 		USART_Transmit(&huart2, (uint8_t* )"Values of the registers of L6470_#");
 3257              		.loc 1 1027 3
 3258 0026 2B49     		ldr	r1, .L169+8
 3259 0028 2948     		ldr	r0, .L169+4
 3260 002a FFF7FEFF 		bl	USART_Transmit
1028:Projects/STM32F401RE-Nucleo/Examples/MotionControl/MicrosteppingMotor/Src/example_usart.c **** 		USART_Transmit(&huart2, num2hex(L6470_Id, HALFBYTE_F));
 3261              		.loc 1 1028 3
 3262 002e BB79     		ldrb	r3, [r7, #6]	@ zero_extendqisi2
 3263 0030 0021     		movs	r1, #0
 3264 0032 1846     		mov	r0, r3
 3265 0034 FFF7FEFF 		bl	num2hex
 3266 0038 0346     		mov	r3, r0
 3267 003a 1946     		mov	r1, r3
 3268 003c 2448     		ldr	r0, .L169+4
 3269 003e FFF7FEFF 		bl	USART_Transmit
1029:Projects/STM32F401RE-Nucleo/Examples/MotionControl/MicrosteppingMotor/Src/example_usart.c **** 		USART_Transmit(&huart2, (uint8_t* )" of ExpBrd_#");
 3270              		.loc 1 1029 3
 3271 0042 2549     		ldr	r1, .L169+12
 3272 0044 2248     		ldr	r0, .L169+4
 3273 0046 FFF7FEFF 		bl	USART_Transmit
1030:Projects/STM32F401RE-Nucleo/Examples/MotionControl/MicrosteppingMotor/Src/example_usart.c **** 		USART_Transmit(&huart2, num2hex(ExpBrd, HALFBYTE_F));
 3274              		.loc 1 1030 3
 3275 004a FB79     		ldrb	r3, [r7, #7]	@ zero_extendqisi2
 3276 004c 0021     		movs	r1, #0
 3277 004e 1846     		mov	r0, r3
 3278 0050 FFF7FEFF 		bl	num2hex
 3279 0054 0346     		mov	r3, r0
 3280 0056 1946     		mov	r1, r3
 3281 0058 1D48     		ldr	r0, .L169+4
 3282 005a FFF7FEFF 		bl	USART_Transmit
1031:Projects/STM32F401RE-Nucleo/Examples/MotionControl/MicrosteppingMotor/Src/example_usart.c **** 		USART_Transmit(&huart2, (uint8_t* )"\r\n\r\n");
 3283              		.loc 1 1031 3
 3284 005e 1F49     		ldr	r1, .L169+16
 3285 0060 1B48     		ldr	r0, .L169+4
 3286 0062 FFF7FEFF 		bl	USART_Transmit
1032:Projects/STM32F401RE-Nucleo/Examples/MotionControl/MicrosteppingMotor/Src/example_usart.c **** 
1033:Projects/STM32F401RE-Nucleo/Examples/MotionControl/MicrosteppingMotor/Src/example_usart.c **** 		for (r = 0; r < L6470REGIDSIZE; r++) {
 3287              		.loc 1 1033 10
 3288 0066 0023     		movs	r3, #0
 3289 0068 FB73     		strb	r3, [r7, #15]
 3290              		.loc 1 1033 3
 3291 006a 23E0     		b	.L166
 3292              	.L167:
1034:Projects/STM32F401RE-Nucleo/Examples/MotionControl/MicrosteppingMotor/Src/example_usart.c **** 			value = L6470_GetParam(L6470_Id, (eL6470_RegId_t) r);
 3293              		.loc 1 1034 12 discriminator 3
 3294 006c FA7B     		ldrb	r2, [r7, #15]	@ zero_extendqisi2
 3295 006e BB79     		ldrb	r3, [r7, #6]	@ zero_extendqisi2
 3296 0070 1146     		mov	r1, r2
 3297 0072 1846     		mov	r0, r3
 3298 0074 FFF7FEFF 		bl	L6470_GetParam
 3299 0078 B860     		str	r0, [r7, #8]
1035:Projects/STM32F401RE-Nucleo/Examples/MotionControl/MicrosteppingMotor/Src/example_usart.c **** 
ARM GAS  C:\Users\ep_ygh\AppData\Local\Temp\ccqIQPDc.s 			page 82


1036:Projects/STM32F401RE-Nucleo/Examples/MotionControl/MicrosteppingMotor/Src/example_usart.c **** 			USART_Transmit(&huart2, L6470_GetRegisterName((eL6470_RegId_t) r));
 3300              		.loc 1 1036 4 discriminator 3
 3301 007a FB7B     		ldrb	r3, [r7, #15]	@ zero_extendqisi2
 3302 007c 1846     		mov	r0, r3
 3303 007e FFF7FEFF 		bl	L6470_GetRegisterName
 3304 0082 0346     		mov	r3, r0
 3305 0084 1946     		mov	r1, r3
 3306 0086 1248     		ldr	r0, .L169+4
 3307 0088 FFF7FEFF 		bl	USART_Transmit
1037:Projects/STM32F401RE-Nucleo/Examples/MotionControl/MicrosteppingMotor/Src/example_usart.c **** 			USART_Transmit(&huart2, (uint8_t* )": ");
 3308              		.loc 1 1037 4 discriminator 3
 3309 008c 1449     		ldr	r1, .L169+20
 3310 008e 1048     		ldr	r0, .L169+4
 3311 0090 FFF7FEFF 		bl	USART_Transmit
1038:Projects/STM32F401RE-Nucleo/Examples/MotionControl/MicrosteppingMotor/Src/example_usart.c **** 			USART_Transmit(&huart2, num2hex(value, DOUBLEWORD_F));
 3312              		.loc 1 1038 4 discriminator 3
 3313 0094 0321     		movs	r1, #3
 3314 0096 B868     		ldr	r0, [r7, #8]
 3315 0098 FFF7FEFF 		bl	num2hex
 3316 009c 0346     		mov	r3, r0
 3317 009e 1946     		mov	r1, r3
 3318 00a0 0B48     		ldr	r0, .L169+4
 3319 00a2 FFF7FEFF 		bl	USART_Transmit
1039:Projects/STM32F401RE-Nucleo/Examples/MotionControl/MicrosteppingMotor/Src/example_usart.c **** 			USART_Transmit(&huart2, (uint8_t* )"\r\n");
 3320              		.loc 1 1039 4 discriminator 3
 3321 00a6 0949     		ldr	r1, .L169
 3322 00a8 0948     		ldr	r0, .L169+4
 3323 00aa FFF7FEFF 		bl	USART_Transmit
1033:Projects/STM32F401RE-Nucleo/Examples/MotionControl/MicrosteppingMotor/Src/example_usart.c **** 			value = L6470_GetParam(L6470_Id, (eL6470_RegId_t) r);
 3324              		.loc 1 1033 36 discriminator 3
 3325 00ae FB7B     		ldrb	r3, [r7, #15]	@ zero_extendqisi2
 3326 00b0 0133     		adds	r3, r3, #1
 3327 00b2 FB73     		strb	r3, [r7, #15]
 3328              	.L166:
1033:Projects/STM32F401RE-Nucleo/Examples/MotionControl/MicrosteppingMotor/Src/example_usart.c **** 			value = L6470_GetParam(L6470_Id, (eL6470_RegId_t) r);
 3329              		.loc 1 1033 3 discriminator 1
 3330 00b4 FB7B     		ldrb	r3, [r7, #15]	@ zero_extendqisi2
 3331 00b6 182B     		cmp	r3, #24
 3332 00b8 D8D9     		bls	.L167
1040:Projects/STM32F401RE-Nucleo/Examples/MotionControl/MicrosteppingMotor/Src/example_usart.c **** 		}
1041:Projects/STM32F401RE-Nucleo/Examples/MotionControl/MicrosteppingMotor/Src/example_usart.c **** 
1042:Projects/STM32F401RE-Nucleo/Examples/MotionControl/MicrosteppingMotor/Src/example_usart.c **** 		USART_Transmit(&huart2, (uint8_t* )"\r\n");
 3333              		.loc 1 1042 3
 3334 00ba 0449     		ldr	r1, .L169
 3335 00bc 0448     		ldr	r0, .L169+4
 3336 00be FFF7FEFF 		bl	USART_Transmit
 3337              	.L168:
1043:Projects/STM32F401RE-Nucleo/Examples/MotionControl/MicrosteppingMotor/Src/example_usart.c **** 	}
1044:Projects/STM32F401RE-Nucleo/Examples/MotionControl/MicrosteppingMotor/Src/example_usart.c **** }
 3338              		.loc 1 1044 1
 3339 00c2 00BF     		nop
 3340 00c4 1037     		adds	r7, r7, #16
 3341              	.LCFI44:
 3342              		.cfi_def_cfa_offset 8
 3343 00c6 BD46     		mov	sp, r7
 3344              	.LCFI45:
 3345              		.cfi_def_cfa_register 13
ARM GAS  C:\Users\ep_ygh\AppData\Local\Temp\ccqIQPDc.s 			page 83


 3346              		@ sp needed
 3347 00c8 80BD     		pop	{r7, pc}
 3348              	.L170:
 3349 00ca 00BF     		.align	2
 3350              	.L169:
 3351 00cc 88020000 		.word	.LC14
 3352 00d0 00000000 		.word	huart2
 3353 00d4 98030000 		.word	.LC25
 3354 00d8 BC030000 		.word	.LC26
 3355 00dc CC030000 		.word	.LC27
 3356 00e0 D4030000 		.word	.LC28
 3357              		.cfi_endproc
 3358              	.LFE137:
 3360              		.section	.text.USART_PrintAllRegisterValues,"ax",%progbits
 3361              		.align	1
 3362              		.global	USART_PrintAllRegisterValues
 3363              		.syntax unified
 3364              		.thumb
 3365              		.thumb_func
 3367              	USART_PrintAllRegisterValues:
 3368              	.LFB138:
1045:Projects/STM32F401RE-Nucleo/Examples/MotionControl/MicrosteppingMotor/Src/example_usart.c **** 
1046:Projects/STM32F401RE-Nucleo/Examples/MotionControl/MicrosteppingMotor/Src/example_usart.c **** /**
1047:Projects/STM32F401RE-Nucleo/Examples/MotionControl/MicrosteppingMotor/Src/example_usart.c ****  * @brief  Print on the PC screen the values of the L6470 Registers for all
1048:Projects/STM32F401RE-Nucleo/Examples/MotionControl/MicrosteppingMotor/Src/example_usart.c ****  *         devices mounted on all stacked X-NUCLEO-IHM02A1.
1049:Projects/STM32F401RE-Nucleo/Examples/MotionControl/MicrosteppingMotor/Src/example_usart.c ****  */
1050:Projects/STM32F401RE-Nucleo/Examples/MotionControl/MicrosteppingMotor/Src/example_usart.c **** void USART_PrintAllRegisterValues(void) {
 3369              		.loc 1 1050 41
 3370              		.cfi_startproc
 3371              		@ args = 0, pretend = 0, frame = 8
 3372              		@ frame_needed = 1, uses_anonymous_args = 0
 3373 0000 80B5     		push	{r7, lr}
 3374              	.LCFI46:
 3375              		.cfi_def_cfa_offset 8
 3376              		.cfi_offset 7, -8
 3377              		.cfi_offset 14, -4
 3378 0002 82B0     		sub	sp, sp, #8
 3379              	.LCFI47:
 3380              		.cfi_def_cfa_offset 16
 3381 0004 00AF     		add	r7, sp, #0
 3382              	.LCFI48:
 3383              		.cfi_def_cfa_register 7
1051:Projects/STM32F401RE-Nucleo/Examples/MotionControl/MicrosteppingMotor/Src/example_usart.c **** 	uint8_t ExpBrd; /* to index the expansion board to be addressed */
1052:Projects/STM32F401RE-Nucleo/Examples/MotionControl/MicrosteppingMotor/Src/example_usart.c **** 	uint8_t L6470_Id; /* to index the L6470 into the daisy chain to be addressed */
1053:Projects/STM32F401RE-Nucleo/Examples/MotionControl/MicrosteppingMotor/Src/example_usart.c **** 
1054:Projects/STM32F401RE-Nucleo/Examples/MotionControl/MicrosteppingMotor/Src/example_usart.c **** 	for (ExpBrd = EXPBRD_ID(0); ExpBrd <= EXPBRD_ID(EXPBRD_MOUNTED_NR - 1);
 3384              		.loc 1 1054 16
 3385 0006 0020     		movs	r0, #0
 3386 0008 FFF7FEFF 		bl	EXPBRD_ID
 3387 000c 0346     		mov	r3, r0
 3388 000e FB71     		strb	r3, [r7, #7]
 3389              		.loc 1 1054 2
 3390 0010 19E0     		b	.L172
 3391              	.L175:
1055:Projects/STM32F401RE-Nucleo/Examples/MotionControl/MicrosteppingMotor/Src/example_usart.c **** 			ExpBrd++) {
1056:Projects/STM32F401RE-Nucleo/Examples/MotionControl/MicrosteppingMotor/Src/example_usart.c **** 		for (L6470_Id = L6470_ID(0);
 3392              		.loc 1 1056 19
ARM GAS  C:\Users\ep_ygh\AppData\Local\Temp\ccqIQPDc.s 			page 84


 3393 0012 0020     		movs	r0, #0
 3394 0014 FFF7FEFF 		bl	L6470_ID
 3395 0018 0346     		mov	r3, r0
 3396 001a BB71     		strb	r3, [r7, #6]
 3397              		.loc 1 1056 3
 3398 001c 08E0     		b	.L173
 3399              	.L174:
1057:Projects/STM32F401RE-Nucleo/Examples/MotionControl/MicrosteppingMotor/Src/example_usart.c **** 				L6470_Id <= L6470_ID(L6470DAISYCHAINSIZE - 1); L6470_Id++) {
1058:Projects/STM32F401RE-Nucleo/Examples/MotionControl/MicrosteppingMotor/Src/example_usart.c **** 			USART_PrintRegisterValues(ExpBrd, L6470_Id);
 3400              		.loc 1 1058 4 discriminator 1
 3401 001e BA79     		ldrb	r2, [r7, #6]	@ zero_extendqisi2
 3402 0020 FB79     		ldrb	r3, [r7, #7]	@ zero_extendqisi2
 3403 0022 1146     		mov	r1, r2
 3404 0024 1846     		mov	r0, r3
 3405 0026 FFF7FEFF 		bl	USART_PrintRegisterValues
1057:Projects/STM32F401RE-Nucleo/Examples/MotionControl/MicrosteppingMotor/Src/example_usart.c **** 				L6470_Id <= L6470_ID(L6470DAISYCHAINSIZE - 1); L6470_Id++) {
 3406              		.loc 1 1057 60 discriminator 1
 3407 002a BB79     		ldrb	r3, [r7, #6]	@ zero_extendqisi2
 3408 002c 0133     		adds	r3, r3, #1
 3409 002e BB71     		strb	r3, [r7, #6]
 3410              	.L173:
1057:Projects/STM32F401RE-Nucleo/Examples/MotionControl/MicrosteppingMotor/Src/example_usart.c **** 				L6470_Id <= L6470_ID(L6470DAISYCHAINSIZE - 1); L6470_Id++) {
 3411              		.loc 1 1057 17 discriminator 1
 3412 0030 0120     		movs	r0, #1
 3413 0032 FFF7FEFF 		bl	L6470_ID
 3414 0036 0346     		mov	r3, r0
 3415 0038 1A46     		mov	r2, r3
1056:Projects/STM32F401RE-Nucleo/Examples/MotionControl/MicrosteppingMotor/Src/example_usart.c **** 				L6470_Id <= L6470_ID(L6470DAISYCHAINSIZE - 1); L6470_Id++) {
 3416              		.loc 1 1056 3 discriminator 1
 3417 003a BB79     		ldrb	r3, [r7, #6]	@ zero_extendqisi2
 3418 003c 9342     		cmp	r3, r2
 3419 003e EED9     		bls	.L174
1055:Projects/STM32F401RE-Nucleo/Examples/MotionControl/MicrosteppingMotor/Src/example_usart.c **** 			ExpBrd++) {
 3420              		.loc 1 1055 10
 3421 0040 FB79     		ldrb	r3, [r7, #7]	@ zero_extendqisi2
 3422 0042 0133     		adds	r3, r3, #1
 3423 0044 FB71     		strb	r3, [r7, #7]
 3424              	.L172:
1054:Projects/STM32F401RE-Nucleo/Examples/MotionControl/MicrosteppingMotor/Src/example_usart.c **** 			ExpBrd++) {
 3425              		.loc 1 1054 40 discriminator 1
 3426 0046 0020     		movs	r0, #0
 3427 0048 FFF7FEFF 		bl	EXPBRD_ID
 3428 004c 0346     		mov	r3, r0
 3429 004e 1A46     		mov	r2, r3
1054:Projects/STM32F401RE-Nucleo/Examples/MotionControl/MicrosteppingMotor/Src/example_usart.c **** 			ExpBrd++) {
 3430              		.loc 1 1054 2 discriminator 1
 3431 0050 FB79     		ldrb	r3, [r7, #7]	@ zero_extendqisi2
 3432 0052 9342     		cmp	r3, r2
 3433 0054 DDD9     		bls	.L175
1059:Projects/STM32F401RE-Nucleo/Examples/MotionControl/MicrosteppingMotor/Src/example_usart.c **** 		}
1060:Projects/STM32F401RE-Nucleo/Examples/MotionControl/MicrosteppingMotor/Src/example_usart.c **** 	}
1061:Projects/STM32F401RE-Nucleo/Examples/MotionControl/MicrosteppingMotor/Src/example_usart.c **** }
 3434              		.loc 1 1061 1
 3435 0056 00BF     		nop
 3436 0058 00BF     		nop
 3437 005a 0837     		adds	r7, r7, #8
 3438              	.LCFI49:
ARM GAS  C:\Users\ep_ygh\AppData\Local\Temp\ccqIQPDc.s 			page 85


 3439              		.cfi_def_cfa_offset 8
 3440 005c BD46     		mov	sp, r7
 3441              	.LCFI50:
 3442              		.cfi_def_cfa_register 13
 3443              		@ sp needed
 3444 005e 80BD     		pop	{r7, pc}
 3445              		.cfi_endproc
 3446              	.LFE138:
 3448              		.section	.text.Fill_L6470_DaisyChainMnemonic,"ax",%progbits
 3449              		.align	1
 3450              		.global	Fill_L6470_DaisyChainMnemonic
 3451              		.syntax unified
 3452              		.thumb
 3453              		.thumb_func
 3455              	Fill_L6470_DaisyChainMnemonic:
 3456              	.LFB139:
1062:Projects/STM32F401RE-Nucleo/Examples/MotionControl/MicrosteppingMotor/Src/example_usart.c **** 
1063:Projects/STM32F401RE-Nucleo/Examples/MotionControl/MicrosteppingMotor/Src/example_usart.c **** /**
1064:Projects/STM32F401RE-Nucleo/Examples/MotionControl/MicrosteppingMotor/Src/example_usart.c ****  * @brief  Fill the L6470_DaisyChainMnemonic structure.
1065:Projects/STM32F401RE-Nucleo/Examples/MotionControl/MicrosteppingMotor/Src/example_usart.c ****  *
1066:Projects/STM32F401RE-Nucleo/Examples/MotionControl/MicrosteppingMotor/Src/example_usart.c ****  * @note   This structure will contain the assigned names about the L6470
1067:Projects/STM32F401RE-Nucleo/Examples/MotionControl/MicrosteppingMotor/Src/example_usart.c ****  *         devices inside the daisy chain and theirs related motors.
1068:Projects/STM32F401RE-Nucleo/Examples/MotionControl/MicrosteppingMotor/Src/example_usart.c ****  * @note   Its size and contents is updated at boot in relation to the L6470DAISYCHAINSIZE.
1069:Projects/STM32F401RE-Nucleo/Examples/MotionControl/MicrosteppingMotor/Src/example_usart.c ****  */
1070:Projects/STM32F401RE-Nucleo/Examples/MotionControl/MicrosteppingMotor/Src/example_usart.c **** void Fill_L6470_DaisyChainMnemonic(void) {
 3457              		.loc 1 1070 42
 3458              		.cfi_startproc
 3459              		@ args = 0, pretend = 0, frame = 8
 3460              		@ frame_needed = 1, uses_anonymous_args = 0
 3461              		@ link register save eliminated.
 3462 0000 80B4     		push	{r7}
 3463              	.LCFI51:
 3464              		.cfi_def_cfa_offset 4
 3465              		.cfi_offset 7, -4
 3466 0002 83B0     		sub	sp, sp, #12
 3467              	.LCFI52:
 3468              		.cfi_def_cfa_offset 16
 3469 0004 00AF     		add	r7, sp, #0
 3470              	.LCFI53:
 3471              		.cfi_def_cfa_register 7
1071:Projects/STM32F401RE-Nucleo/Examples/MotionControl/MicrosteppingMotor/Src/example_usart.c **** 	uint8_t i;
1072:Projects/STM32F401RE-Nucleo/Examples/MotionControl/MicrosteppingMotor/Src/example_usart.c **** 	char c1 = '0';
 3472              		.loc 1 1072 7
 3473 0006 3023     		movs	r3, #48
 3474 0008 BB71     		strb	r3, [r7, #6]
1073:Projects/STM32F401RE-Nucleo/Examples/MotionControl/MicrosteppingMotor/Src/example_usart.c **** 	char c10 = '0';
 3475              		.loc 1 1073 7
 3476 000a 3023     		movs	r3, #48
 3477 000c 7B71     		strb	r3, [r7, #5]
1074:Projects/STM32F401RE-Nucleo/Examples/MotionControl/MicrosteppingMotor/Src/example_usart.c **** 
1075:Projects/STM32F401RE-Nucleo/Examples/MotionControl/MicrosteppingMotor/Src/example_usart.c **** 	for (i = 0; i < L6470DAISYCHAINSIZE; i++) {
 3478              		.loc 1 1075 9
 3479 000e 0023     		movs	r3, #0
 3480 0010 FB71     		strb	r3, [r7, #7]
 3481              		.loc 1 1075 2
 3482 0012 B3E0     		b	.L177
 3483              	.L180:
ARM GAS  C:\Users\ep_ygh\AppData\Local\Temp\ccqIQPDc.s 			page 86


1076:Projects/STM32F401RE-Nucleo/Examples/MotionControl/MicrosteppingMotor/Src/example_usart.c **** 		if (i < 10) {
 3484              		.loc 1 1076 6
 3485 0014 FB79     		ldrb	r3, [r7, #7]	@ zero_extendqisi2
 3486 0016 092B     		cmp	r3, #9
 3487 0018 05D8     		bhi	.L178
1077:Projects/STM32F401RE-Nucleo/Examples/MotionControl/MicrosteppingMotor/Src/example_usart.c **** 			c10 = '0' + i;
 3488              		.loc 1 1077 8
 3489 001a FB79     		ldrb	r3, [r7, #7]
 3490 001c 3033     		adds	r3, r3, #48
 3491 001e 7B71     		strb	r3, [r7, #5]
1078:Projects/STM32F401RE-Nucleo/Examples/MotionControl/MicrosteppingMotor/Src/example_usart.c **** 			c1 = '\0';
 3492              		.loc 1 1078 7
 3493 0020 0023     		movs	r3, #0
 3494 0022 BB71     		strb	r3, [r7, #6]
 3495 0024 19E0     		b	.L179
 3496              	.L178:
1079:Projects/STM32F401RE-Nucleo/Examples/MotionControl/MicrosteppingMotor/Src/example_usart.c **** 		} else {
1080:Projects/STM32F401RE-Nucleo/Examples/MotionControl/MicrosteppingMotor/Src/example_usart.c **** 			c10 = '0' + (i / 10);
 3497              		.loc 1 1080 14
 3498 0026 FB79     		ldrb	r3, [r7, #7]	@ zero_extendqisi2
 3499 0028 5A4A     		ldr	r2, .L181
 3500 002a A2FB0323 		umull	r2, r3, r2, r3
 3501 002e DB08     		lsrs	r3, r3, #3
 3502 0030 DBB2     		uxtb	r3, r3
 3503              		.loc 1 1080 8
 3504 0032 3033     		adds	r3, r3, #48
 3505 0034 7B71     		strb	r3, [r7, #5]
1081:Projects/STM32F401RE-Nucleo/Examples/MotionControl/MicrosteppingMotor/Src/example_usart.c **** 			c1 = '0' + (i - ((i / 10) * 10));
 3506              		.loc 1 1081 18
 3507 0036 FB79     		ldrb	r3, [r7, #7]	@ zero_extendqisi2
 3508 0038 564A     		ldr	r2, .L181
 3509 003a A2FB0323 		umull	r2, r3, r2, r3
 3510 003e DB08     		lsrs	r3, r3, #3
 3511 0040 DBB2     		uxtb	r3, r3
 3512 0042 1A46     		mov	r2, r3
 3513 0044 5201     		lsls	r2, r2, #5
 3514 0046 D21A     		subs	r2, r2, r3
 3515 0048 9200     		lsls	r2, r2, #2
 3516 004a D31A     		subs	r3, r2, r3
 3517 004c 5B00     		lsls	r3, r3, #1
 3518 004e DAB2     		uxtb	r2, r3
 3519 0050 FB79     		ldrb	r3, [r7, #7]
 3520 0052 1344     		add	r3, r3, r2
 3521 0054 DBB2     		uxtb	r3, r3
 3522              		.loc 1 1081 7
 3523 0056 3033     		adds	r3, r3, #48
 3524 0058 BB71     		strb	r3, [r7, #6]
 3525              	.L179:
1082:Projects/STM32F401RE-Nucleo/Examples/MotionControl/MicrosteppingMotor/Src/example_usart.c **** 		}
1083:Projects/STM32F401RE-Nucleo/Examples/MotionControl/MicrosteppingMotor/Src/example_usart.c **** 
1084:Projects/STM32F401RE-Nucleo/Examples/MotionControl/MicrosteppingMotor/Src/example_usart.c **** 		L6470_DaisyChainMnemonic[i].L6470IdMnemonic[0] = 'L';
 3526              		.loc 1 1084 46 discriminator 2
 3527 005a FA79     		ldrb	r2, [r7, #7]	@ zero_extendqisi2
 3528              		.loc 1 1084 50 discriminator 2
 3529 005c 4E49     		ldr	r1, .L181+4
 3530 005e 1346     		mov	r3, r2
 3531 0060 5B00     		lsls	r3, r3, #1
ARM GAS  C:\Users\ep_ygh\AppData\Local\Temp\ccqIQPDc.s 			page 87


 3532 0062 1344     		add	r3, r3, r2
 3533 0064 9B00     		lsls	r3, r3, #2
 3534 0066 1344     		add	r3, r3, r2
 3535 0068 0B44     		add	r3, r3, r1
 3536 006a 4C22     		movs	r2, #76
 3537 006c 1A70     		strb	r2, [r3]
1085:Projects/STM32F401RE-Nucleo/Examples/MotionControl/MicrosteppingMotor/Src/example_usart.c **** 		L6470_DaisyChainMnemonic[i].L6470IdMnemonic[1] = '6';
 3538              		.loc 1 1085 46 discriminator 2
 3539 006e FA79     		ldrb	r2, [r7, #7]	@ zero_extendqisi2
 3540              		.loc 1 1085 50 discriminator 2
 3541 0070 4949     		ldr	r1, .L181+4
 3542 0072 1346     		mov	r3, r2
 3543 0074 5B00     		lsls	r3, r3, #1
 3544 0076 1344     		add	r3, r3, r2
 3545 0078 9B00     		lsls	r3, r3, #2
 3546 007a 1344     		add	r3, r3, r2
 3547 007c 0B44     		add	r3, r3, r1
 3548 007e 0133     		adds	r3, r3, #1
 3549 0080 3622     		movs	r2, #54
 3550 0082 1A70     		strb	r2, [r3]
1086:Projects/STM32F401RE-Nucleo/Examples/MotionControl/MicrosteppingMotor/Src/example_usart.c **** 		L6470_DaisyChainMnemonic[i].L6470IdMnemonic[2] = '4';
 3551              		.loc 1 1086 46 discriminator 2
 3552 0084 FA79     		ldrb	r2, [r7, #7]	@ zero_extendqisi2
 3553              		.loc 1 1086 50 discriminator 2
 3554 0086 4449     		ldr	r1, .L181+4
 3555 0088 1346     		mov	r3, r2
 3556 008a 5B00     		lsls	r3, r3, #1
 3557 008c 1344     		add	r3, r3, r2
 3558 008e 9B00     		lsls	r3, r3, #2
 3559 0090 1344     		add	r3, r3, r2
 3560 0092 0B44     		add	r3, r3, r1
 3561 0094 0233     		adds	r3, r3, #2
 3562 0096 3422     		movs	r2, #52
 3563 0098 1A70     		strb	r2, [r3]
1087:Projects/STM32F401RE-Nucleo/Examples/MotionControl/MicrosteppingMotor/Src/example_usart.c **** 		L6470_DaisyChainMnemonic[i].L6470IdMnemonic[3] = '7';
 3564              		.loc 1 1087 46 discriminator 2
 3565 009a FA79     		ldrb	r2, [r7, #7]	@ zero_extendqisi2
 3566              		.loc 1 1087 50 discriminator 2
 3567 009c 3E49     		ldr	r1, .L181+4
 3568 009e 1346     		mov	r3, r2
 3569 00a0 5B00     		lsls	r3, r3, #1
 3570 00a2 1344     		add	r3, r3, r2
 3571 00a4 9B00     		lsls	r3, r3, #2
 3572 00a6 1344     		add	r3, r3, r2
 3573 00a8 0B44     		add	r3, r3, r1
 3574 00aa 0333     		adds	r3, r3, #3
 3575 00ac 3722     		movs	r2, #55
 3576 00ae 1A70     		strb	r2, [r3]
1088:Projects/STM32F401RE-Nucleo/Examples/MotionControl/MicrosteppingMotor/Src/example_usart.c **** 		L6470_DaisyChainMnemonic[i].L6470IdMnemonic[4] = '0';
 3577              		.loc 1 1088 46 discriminator 2
 3578 00b0 FA79     		ldrb	r2, [r7, #7]	@ zero_extendqisi2
 3579              		.loc 1 1088 50 discriminator 2
 3580 00b2 3949     		ldr	r1, .L181+4
 3581 00b4 1346     		mov	r3, r2
 3582 00b6 5B00     		lsls	r3, r3, #1
 3583 00b8 1344     		add	r3, r3, r2
 3584 00ba 9B00     		lsls	r3, r3, #2
ARM GAS  C:\Users\ep_ygh\AppData\Local\Temp\ccqIQPDc.s 			page 88


 3585 00bc 1344     		add	r3, r3, r2
 3586 00be 0B44     		add	r3, r3, r1
 3587 00c0 0433     		adds	r3, r3, #4
 3588 00c2 3022     		movs	r2, #48
 3589 00c4 1A70     		strb	r2, [r3]
1089:Projects/STM32F401RE-Nucleo/Examples/MotionControl/MicrosteppingMotor/Src/example_usart.c **** 		L6470_DaisyChainMnemonic[i].L6470IdMnemonic[5] = '#';
 3590              		.loc 1 1089 46 discriminator 2
 3591 00c6 FA79     		ldrb	r2, [r7, #7]	@ zero_extendqisi2
 3592              		.loc 1 1089 50 discriminator 2
 3593 00c8 3349     		ldr	r1, .L181+4
 3594 00ca 1346     		mov	r3, r2
 3595 00cc 5B00     		lsls	r3, r3, #1
 3596 00ce 1344     		add	r3, r3, r2
 3597 00d0 9B00     		lsls	r3, r3, #2
 3598 00d2 1344     		add	r3, r3, r2
 3599 00d4 0B44     		add	r3, r3, r1
 3600 00d6 0533     		adds	r3, r3, #5
 3601 00d8 2322     		movs	r2, #35
 3602 00da 1A70     		strb	r2, [r3]
1090:Projects/STM32F401RE-Nucleo/Examples/MotionControl/MicrosteppingMotor/Src/example_usart.c **** 		L6470_DaisyChainMnemonic[i].L6470IdMnemonic[6] = c10;
 3603              		.loc 1 1090 46 discriminator 2
 3604 00dc FA79     		ldrb	r2, [r7, #7]	@ zero_extendqisi2
 3605              		.loc 1 1090 50 discriminator 2
 3606 00de 2E49     		ldr	r1, .L181+4
 3607 00e0 1346     		mov	r3, r2
 3608 00e2 5B00     		lsls	r3, r3, #1
 3609 00e4 1344     		add	r3, r3, r2
 3610 00e6 9B00     		lsls	r3, r3, #2
 3611 00e8 1344     		add	r3, r3, r2
 3612 00ea 0B44     		add	r3, r3, r1
 3613 00ec 0633     		adds	r3, r3, #6
 3614 00ee 7A79     		ldrb	r2, [r7, #5]
 3615 00f0 1A70     		strb	r2, [r3]
1091:Projects/STM32F401RE-Nucleo/Examples/MotionControl/MicrosteppingMotor/Src/example_usart.c **** 		L6470_DaisyChainMnemonic[i].L6470IdMnemonic[7] = c1;
 3616              		.loc 1 1091 46 discriminator 2
 3617 00f2 FA79     		ldrb	r2, [r7, #7]	@ zero_extendqisi2
 3618              		.loc 1 1091 50 discriminator 2
 3619 00f4 2849     		ldr	r1, .L181+4
 3620 00f6 1346     		mov	r3, r2
 3621 00f8 5B00     		lsls	r3, r3, #1
 3622 00fa 1344     		add	r3, r3, r2
 3623 00fc 9B00     		lsls	r3, r3, #2
 3624 00fe 1344     		add	r3, r3, r2
 3625 0100 0B44     		add	r3, r3, r1
 3626 0102 0733     		adds	r3, r3, #7
 3627 0104 BA79     		ldrb	r2, [r7, #6]
 3628 0106 1A70     		strb	r2, [r3]
1092:Projects/STM32F401RE-Nucleo/Examples/MotionControl/MicrosteppingMotor/Src/example_usart.c **** 		L6470_DaisyChainMnemonic[i].L6470IdMnemonic[8] = '\0';
 3629              		.loc 1 1092 46 discriminator 2
 3630 0108 FA79     		ldrb	r2, [r7, #7]	@ zero_extendqisi2
 3631              		.loc 1 1092 50 discriminator 2
 3632 010a 2349     		ldr	r1, .L181+4
 3633 010c 1346     		mov	r3, r2
 3634 010e 5B00     		lsls	r3, r3, #1
 3635 0110 1344     		add	r3, r3, r2
 3636 0112 9B00     		lsls	r3, r3, #2
 3637 0114 1344     		add	r3, r3, r2
ARM GAS  C:\Users\ep_ygh\AppData\Local\Temp\ccqIQPDc.s 			page 89


 3638 0116 0B44     		add	r3, r3, r1
 3639 0118 0833     		adds	r3, r3, #8
 3640 011a 0022     		movs	r2, #0
 3641 011c 1A70     		strb	r2, [r3]
1093:Projects/STM32F401RE-Nucleo/Examples/MotionControl/MicrosteppingMotor/Src/example_usart.c **** 		L6470_DaisyChainMnemonic[i].MotorIdMnemonic[0] = 'M';
 3642              		.loc 1 1093 46 discriminator 2
 3643 011e FA79     		ldrb	r2, [r7, #7]	@ zero_extendqisi2
 3644              		.loc 1 1093 50 discriminator 2
 3645 0120 1D49     		ldr	r1, .L181+4
 3646 0122 1346     		mov	r3, r2
 3647 0124 5B00     		lsls	r3, r3, #1
 3648 0126 1344     		add	r3, r3, r2
 3649 0128 9B00     		lsls	r3, r3, #2
 3650 012a 1344     		add	r3, r3, r2
 3651 012c 0B44     		add	r3, r3, r1
 3652 012e 0933     		adds	r3, r3, #9
 3653 0130 4D22     		movs	r2, #77
 3654 0132 1A70     		strb	r2, [r3]
1094:Projects/STM32F401RE-Nucleo/Examples/MotionControl/MicrosteppingMotor/Src/example_usart.c **** 		L6470_DaisyChainMnemonic[i].MotorIdMnemonic[1] = c10;
 3655              		.loc 1 1094 46 discriminator 2
 3656 0134 FA79     		ldrb	r2, [r7, #7]	@ zero_extendqisi2
 3657              		.loc 1 1094 50 discriminator 2
 3658 0136 1849     		ldr	r1, .L181+4
 3659 0138 1346     		mov	r3, r2
 3660 013a 5B00     		lsls	r3, r3, #1
 3661 013c 1344     		add	r3, r3, r2
 3662 013e 9B00     		lsls	r3, r3, #2
 3663 0140 1344     		add	r3, r3, r2
 3664 0142 0B44     		add	r3, r3, r1
 3665 0144 0A33     		adds	r3, r3, #10
 3666 0146 7A79     		ldrb	r2, [r7, #5]
 3667 0148 1A70     		strb	r2, [r3]
1095:Projects/STM32F401RE-Nucleo/Examples/MotionControl/MicrosteppingMotor/Src/example_usart.c **** 		L6470_DaisyChainMnemonic[i].MotorIdMnemonic[2] = c1;
 3668              		.loc 1 1095 46 discriminator 2
 3669 014a FA79     		ldrb	r2, [r7, #7]	@ zero_extendqisi2
 3670              		.loc 1 1095 50 discriminator 2
 3671 014c 1249     		ldr	r1, .L181+4
 3672 014e 1346     		mov	r3, r2
 3673 0150 5B00     		lsls	r3, r3, #1
 3674 0152 1344     		add	r3, r3, r2
 3675 0154 9B00     		lsls	r3, r3, #2
 3676 0156 1344     		add	r3, r3, r2
 3677 0158 0B44     		add	r3, r3, r1
 3678 015a 0B33     		adds	r3, r3, #11
 3679 015c BA79     		ldrb	r2, [r7, #6]
 3680 015e 1A70     		strb	r2, [r3]
1096:Projects/STM32F401RE-Nucleo/Examples/MotionControl/MicrosteppingMotor/Src/example_usart.c **** 		L6470_DaisyChainMnemonic[i].MotorIdMnemonic[3] = '\0';
 3681              		.loc 1 1096 46 discriminator 2
 3682 0160 FA79     		ldrb	r2, [r7, #7]	@ zero_extendqisi2
 3683              		.loc 1 1096 50 discriminator 2
 3684 0162 0D49     		ldr	r1, .L181+4
 3685 0164 1346     		mov	r3, r2
 3686 0166 5B00     		lsls	r3, r3, #1
 3687 0168 1344     		add	r3, r3, r2
 3688 016a 9B00     		lsls	r3, r3, #2
 3689 016c 1344     		add	r3, r3, r2
 3690 016e 0B44     		add	r3, r3, r1
ARM GAS  C:\Users\ep_ygh\AppData\Local\Temp\ccqIQPDc.s 			page 90


 3691 0170 0C33     		adds	r3, r3, #12
 3692 0172 0022     		movs	r2, #0
 3693 0174 1A70     		strb	r2, [r3]
1075:Projects/STM32F401RE-Nucleo/Examples/MotionControl/MicrosteppingMotor/Src/example_usart.c **** 		if (i < 10) {
 3694              		.loc 1 1075 40 discriminator 2
 3695 0176 FB79     		ldrb	r3, [r7, #7]	@ zero_extendqisi2
 3696 0178 0133     		adds	r3, r3, #1
 3697 017a FB71     		strb	r3, [r7, #7]
 3698              	.L177:
1075:Projects/STM32F401RE-Nucleo/Examples/MotionControl/MicrosteppingMotor/Src/example_usart.c **** 		if (i < 10) {
 3699              		.loc 1 1075 2 discriminator 1
 3700 017c FB79     		ldrb	r3, [r7, #7]	@ zero_extendqisi2
 3701 017e 012B     		cmp	r3, #1
 3702 0180 7FF648AF 		bls	.L180
1097:Projects/STM32F401RE-Nucleo/Examples/MotionControl/MicrosteppingMotor/Src/example_usart.c **** 	}
1098:Projects/STM32F401RE-Nucleo/Examples/MotionControl/MicrosteppingMotor/Src/example_usart.c **** }
 3703              		.loc 1 1098 1
 3704 0184 00BF     		nop
 3705 0186 00BF     		nop
 3706 0188 0C37     		adds	r7, r7, #12
 3707              	.LCFI54:
 3708              		.cfi_def_cfa_offset 4
 3709 018a BD46     		mov	sp, r7
 3710              	.LCFI55:
 3711              		.cfi_def_cfa_register 13
 3712              		@ sp needed
 3713 018c 5DF8047B 		ldr	r7, [sp], #4
 3714              	.LCFI56:
 3715              		.cfi_restore 7
 3716              		.cfi_def_cfa_offset 0
 3717 0190 7047     		bx	lr
 3718              	.L182:
 3719 0192 00BF     		.align	2
 3720              	.L181:
 3721 0194 CDCCCCCC 		.word	-858993459
 3722 0198 00000000 		.word	L6470_DaisyChainMnemonic
 3723              		.cfi_endproc
 3724              	.LFE139:
 3726              		.section	.text.num2str,"ax",%progbits
 3727              		.align	1
 3728              		.global	num2str
 3729              		.syntax unified
 3730              		.thumb
 3731              		.thumb_func
 3733              	num2str:
 3734              	.LFB140:
1099:Projects/STM32F401RE-Nucleo/Examples/MotionControl/MicrosteppingMotor/Src/example_usart.c **** 
1100:Projects/STM32F401RE-Nucleo/Examples/MotionControl/MicrosteppingMotor/Src/example_usart.c **** /**
1101:Projects/STM32F401RE-Nucleo/Examples/MotionControl/MicrosteppingMotor/Src/example_usart.c ****  * @brief  Convert a number nbr into a string str with 7 characters.
1102:Projects/STM32F401RE-Nucleo/Examples/MotionControl/MicrosteppingMotor/Src/example_usart.c ****  * @param  nbr The number to be converted.
1103:Projects/STM32F401RE-Nucleo/Examples/MotionControl/MicrosteppingMotor/Src/example_usart.c ****  * @param  str The container of the converted number into a text in decimal
1104:Projects/STM32F401RE-Nucleo/Examples/MotionControl/MicrosteppingMotor/Src/example_usart.c ****  *         format.
1105:Projects/STM32F401RE-Nucleo/Examples/MotionControl/MicrosteppingMotor/Src/example_usart.c ****  * @note   The decimal digits of the number must be maximum 7 so str has to be
1106:Projects/STM32F401RE-Nucleo/Examples/MotionControl/MicrosteppingMotor/Src/example_usart.c ****  *         able to store at least 7 characters plus '\0'.
1107:Projects/STM32F401RE-Nucleo/Examples/MotionControl/MicrosteppingMotor/Src/example_usart.c ****  */
1108:Projects/STM32F401RE-Nucleo/Examples/MotionControl/MicrosteppingMotor/Src/example_usart.c **** void num2str(uint32_t nbr, uint8_t *str) {
 3735              		.loc 1 1108 42
ARM GAS  C:\Users\ep_ygh\AppData\Local\Temp\ccqIQPDc.s 			page 91


 3736              		.cfi_startproc
 3737              		@ args = 0, pretend = 0, frame = 24
 3738              		@ frame_needed = 1, uses_anonymous_args = 0
 3739              		@ link register save eliminated.
 3740 0000 80B4     		push	{r7}
 3741              	.LCFI57:
 3742              		.cfi_def_cfa_offset 4
 3743              		.cfi_offset 7, -4
 3744 0002 87B0     		sub	sp, sp, #28
 3745              	.LCFI58:
 3746              		.cfi_def_cfa_offset 32
 3747 0004 00AF     		add	r7, sp, #0
 3748              	.LCFI59:
 3749              		.cfi_def_cfa_register 7
 3750 0006 7860     		str	r0, [r7, #4]
 3751 0008 3960     		str	r1, [r7]
1109:Projects/STM32F401RE-Nucleo/Examples/MotionControl/MicrosteppingMotor/Src/example_usart.c **** 	uint8_t k;
1110:Projects/STM32F401RE-Nucleo/Examples/MotionControl/MicrosteppingMotor/Src/example_usart.c **** 	uint8_t *pstrbuff;
1111:Projects/STM32F401RE-Nucleo/Examples/MotionControl/MicrosteppingMotor/Src/example_usart.c **** 	uint32_t divisor;
1112:Projects/STM32F401RE-Nucleo/Examples/MotionControl/MicrosteppingMotor/Src/example_usart.c **** 
1113:Projects/STM32F401RE-Nucleo/Examples/MotionControl/MicrosteppingMotor/Src/example_usart.c **** 	pstrbuff = str;
 3752              		.loc 1 1113 11
 3753 000a 3B68     		ldr	r3, [r7]
 3754 000c 3B61     		str	r3, [r7, #16]
1114:Projects/STM32F401RE-Nucleo/Examples/MotionControl/MicrosteppingMotor/Src/example_usart.c **** 
1115:Projects/STM32F401RE-Nucleo/Examples/MotionControl/MicrosteppingMotor/Src/example_usart.c **** 	/* Reset the text string */
1116:Projects/STM32F401RE-Nucleo/Examples/MotionControl/MicrosteppingMotor/Src/example_usart.c **** 	for (k = 0; k < 7; k++)
 3755              		.loc 1 1116 9
 3756 000e 0023     		movs	r3, #0
 3757 0010 FB75     		strb	r3, [r7, #23]
 3758              		.loc 1 1116 2
 3759 0012 07E0     		b	.L184
 3760              	.L185:
1117:Projects/STM32F401RE-Nucleo/Examples/MotionControl/MicrosteppingMotor/Src/example_usart.c **** 		*(pstrbuff + k) = '\0';
 3761              		.loc 1 1117 14 discriminator 3
 3762 0014 FB7D     		ldrb	r3, [r7, #23]	@ zero_extendqisi2
 3763 0016 3A69     		ldr	r2, [r7, #16]
 3764 0018 1344     		add	r3, r3, r2
 3765              		.loc 1 1117 19 discriminator 3
 3766 001a 0022     		movs	r2, #0
 3767 001c 1A70     		strb	r2, [r3]
1116:Projects/STM32F401RE-Nucleo/Examples/MotionControl/MicrosteppingMotor/Src/example_usart.c **** 		*(pstrbuff + k) = '\0';
 3768              		.loc 1 1116 22 discriminator 3
 3769 001e FB7D     		ldrb	r3, [r7, #23]	@ zero_extendqisi2
 3770 0020 0133     		adds	r3, r3, #1
 3771 0022 FB75     		strb	r3, [r7, #23]
 3772              	.L184:
1116:Projects/STM32F401RE-Nucleo/Examples/MotionControl/MicrosteppingMotor/Src/example_usart.c **** 		*(pstrbuff + k) = '\0';
 3773              		.loc 1 1116 2 discriminator 1
 3774 0024 FB7D     		ldrb	r3, [r7, #23]	@ zero_extendqisi2
 3775 0026 062B     		cmp	r3, #6
 3776 0028 F4D9     		bls	.L185
1118:Projects/STM32F401RE-Nucleo/Examples/MotionControl/MicrosteppingMotor/Src/example_usart.c **** 
1119:Projects/STM32F401RE-Nucleo/Examples/MotionControl/MicrosteppingMotor/Src/example_usart.c **** 	divisor = 1000000;
 3777              		.loc 1 1119 10
 3778 002a 204B     		ldr	r3, .L191
 3779 002c FB60     		str	r3, [r7, #12]
ARM GAS  C:\Users\ep_ygh\AppData\Local\Temp\ccqIQPDc.s 			page 92


1120:Projects/STM32F401RE-Nucleo/Examples/MotionControl/MicrosteppingMotor/Src/example_usart.c **** 
1121:Projects/STM32F401RE-Nucleo/Examples/MotionControl/MicrosteppingMotor/Src/example_usart.c **** 	if (nbr) // if nbr is different from zero then it is processed
 3780              		.loc 1 1121 5
 3781 002e 7B68     		ldr	r3, [r7, #4]
 3782 0030 002B     		cmp	r3, #0
 3783 0032 27D0     		beq	.L186
1122:Projects/STM32F401RE-Nucleo/Examples/MotionControl/MicrosteppingMotor/Src/example_usart.c **** 	{
1123:Projects/STM32F401RE-Nucleo/Examples/MotionControl/MicrosteppingMotor/Src/example_usart.c **** 		while (!(nbr / divisor)) {
 3784              		.loc 1 1123 9
 3785 0034 05E0     		b	.L187
 3786              	.L188:
1124:Projects/STM32F401RE-Nucleo/Examples/MotionControl/MicrosteppingMotor/Src/example_usart.c **** 			divisor /= 10;
 3787              		.loc 1 1124 12
 3788 0036 FB68     		ldr	r3, [r7, #12]
 3789 0038 1D4A     		ldr	r2, .L191+4
 3790 003a A2FB0323 		umull	r2, r3, r2, r3
 3791 003e DB08     		lsrs	r3, r3, #3
 3792 0040 FB60     		str	r3, [r7, #12]
 3793              	.L187:
1123:Projects/STM32F401RE-Nucleo/Examples/MotionControl/MicrosteppingMotor/Src/example_usart.c **** 			divisor /= 10;
 3794              		.loc 1 1123 9
 3795 0042 7A68     		ldr	r2, [r7, #4]
 3796 0044 FB68     		ldr	r3, [r7, #12]
 3797 0046 9A42     		cmp	r2, r3
 3798 0048 F5D3     		bcc	.L188
1125:Projects/STM32F401RE-Nucleo/Examples/MotionControl/MicrosteppingMotor/Src/example_usart.c **** 		}
1126:Projects/STM32F401RE-Nucleo/Examples/MotionControl/MicrosteppingMotor/Src/example_usart.c **** 
1127:Projects/STM32F401RE-Nucleo/Examples/MotionControl/MicrosteppingMotor/Src/example_usart.c **** 		while (divisor >= 10) {
 3799              		.loc 1 1127 9
 3800 004a 18E0     		b	.L189
 3801              	.L190:
1128:Projects/STM32F401RE-Nucleo/Examples/MotionControl/MicrosteppingMotor/Src/example_usart.c **** 			k = nbr / divisor;
 3802              		.loc 1 1128 12
 3803 004c 7A68     		ldr	r2, [r7, #4]
 3804 004e FB68     		ldr	r3, [r7, #12]
 3805 0050 B2FBF3F3 		udiv	r3, r2, r3
 3806              		.loc 1 1128 6
 3807 0054 FB75     		strb	r3, [r7, #23]
1129:Projects/STM32F401RE-Nucleo/Examples/MotionControl/MicrosteppingMotor/Src/example_usart.c **** 			*pstrbuff++ = '0' + k;
 3808              		.loc 1 1129 13
 3809 0056 3B69     		ldr	r3, [r7, #16]
 3810 0058 5A1C     		adds	r2, r3, #1
 3811 005a 3A61     		str	r2, [r7, #16]
 3812              		.loc 1 1129 22
 3813 005c FA7D     		ldrb	r2, [r7, #23]
 3814 005e 3032     		adds	r2, r2, #48
 3815 0060 D2B2     		uxtb	r2, r2
 3816              		.loc 1 1129 16
 3817 0062 1A70     		strb	r2, [r3]
1130:Projects/STM32F401RE-Nucleo/Examples/MotionControl/MicrosteppingMotor/Src/example_usart.c **** 			nbr = nbr - (k * divisor);
 3818              		.loc 1 1130 19
 3819 0064 FB7D     		ldrb	r3, [r7, #23]	@ zero_extendqisi2
 3820 0066 FA68     		ldr	r2, [r7, #12]
 3821 0068 02FB03F3 		mul	r3, r2, r3
 3822              		.loc 1 1130 8
 3823 006c 7A68     		ldr	r2, [r7, #4]
 3824 006e D31A     		subs	r3, r2, r3
ARM GAS  C:\Users\ep_ygh\AppData\Local\Temp\ccqIQPDc.s 			page 93


 3825 0070 7B60     		str	r3, [r7, #4]
1131:Projects/STM32F401RE-Nucleo/Examples/MotionControl/MicrosteppingMotor/Src/example_usart.c **** 			divisor /= 10;
 3826              		.loc 1 1131 12
 3827 0072 FB68     		ldr	r3, [r7, #12]
 3828 0074 0E4A     		ldr	r2, .L191+4
 3829 0076 A2FB0323 		umull	r2, r3, r2, r3
 3830 007a DB08     		lsrs	r3, r3, #3
 3831 007c FB60     		str	r3, [r7, #12]
 3832              	.L189:
1127:Projects/STM32F401RE-Nucleo/Examples/MotionControl/MicrosteppingMotor/Src/example_usart.c **** 			k = nbr / divisor;
 3833              		.loc 1 1127 9
 3834 007e FB68     		ldr	r3, [r7, #12]
 3835 0080 092B     		cmp	r3, #9
 3836 0082 E3D8     		bhi	.L190
 3837              	.L186:
1132:Projects/STM32F401RE-Nucleo/Examples/MotionControl/MicrosteppingMotor/Src/example_usart.c **** 		}
1133:Projects/STM32F401RE-Nucleo/Examples/MotionControl/MicrosteppingMotor/Src/example_usart.c **** 	}
1134:Projects/STM32F401RE-Nucleo/Examples/MotionControl/MicrosteppingMotor/Src/example_usart.c **** 
1135:Projects/STM32F401RE-Nucleo/Examples/MotionControl/MicrosteppingMotor/Src/example_usart.c **** 	*pstrbuff++ = '0' + nbr;
 3838              		.loc 1 1135 20
 3839 0084 7B68     		ldr	r3, [r7, #4]
 3840 0086 DAB2     		uxtb	r2, r3
 3841              		.loc 1 1135 11
 3842 0088 3B69     		ldr	r3, [r7, #16]
 3843 008a 591C     		adds	r1, r3, #1
 3844 008c 3961     		str	r1, [r7, #16]
 3845              		.loc 1 1135 20
 3846 008e 3032     		adds	r2, r2, #48
 3847 0090 D2B2     		uxtb	r2, r2
 3848              		.loc 1 1135 14
 3849 0092 1A70     		strb	r2, [r3]
1136:Projects/STM32F401RE-Nucleo/Examples/MotionControl/MicrosteppingMotor/Src/example_usart.c **** 	*pstrbuff++ = '\0';
 3850              		.loc 1 1136 11
 3851 0094 3B69     		ldr	r3, [r7, #16]
 3852 0096 5A1C     		adds	r2, r3, #1
 3853 0098 3A61     		str	r2, [r7, #16]
 3854              		.loc 1 1136 14
 3855 009a 0022     		movs	r2, #0
 3856 009c 1A70     		strb	r2, [r3]
1137:Projects/STM32F401RE-Nucleo/Examples/MotionControl/MicrosteppingMotor/Src/example_usart.c **** }
 3857              		.loc 1 1137 1
 3858 009e 00BF     		nop
 3859 00a0 1C37     		adds	r7, r7, #28
 3860              	.LCFI60:
 3861              		.cfi_def_cfa_offset 4
 3862 00a2 BD46     		mov	sp, r7
 3863              	.LCFI61:
 3864              		.cfi_def_cfa_register 13
 3865              		@ sp needed
 3866 00a4 5DF8047B 		ldr	r7, [sp], #4
 3867              	.LCFI62:
 3868              		.cfi_restore 7
 3869              		.cfi_def_cfa_offset 0
 3870 00a8 7047     		bx	lr
 3871              	.L192:
 3872 00aa 00BF     		.align	2
 3873              	.L191:
ARM GAS  C:\Users\ep_ygh\AppData\Local\Temp\ccqIQPDc.s 			page 94


 3874 00ac 40420F00 		.word	1000000
 3875 00b0 CDCCCCCC 		.word	-858993459
 3876              		.cfi_endproc
 3877              	.LFE140:
 3879              		.section	.text.num2hex,"ax",%progbits
 3880              		.align	1
 3881              		.global	num2hex
 3882              		.syntax unified
 3883              		.thumb
 3884              		.thumb_func
 3886              	num2hex:
 3887              	.LFB141:
1138:Projects/STM32F401RE-Nucleo/Examples/MotionControl/MicrosteppingMotor/Src/example_usart.c **** 
1139:Projects/STM32F401RE-Nucleo/Examples/MotionControl/MicrosteppingMotor/Src/example_usart.c **** /**
1140:Projects/STM32F401RE-Nucleo/Examples/MotionControl/MicrosteppingMotor/Src/example_usart.c ****  * @brief  Convert an integer number into hexadecimal format.
1141:Projects/STM32F401RE-Nucleo/Examples/MotionControl/MicrosteppingMotor/Src/example_usart.c ****  *
1142:Projects/STM32F401RE-Nucleo/Examples/MotionControl/MicrosteppingMotor/Src/example_usart.c ****  * @param  num         The integer number to convert.
1143:Projects/STM32F401RE-Nucleo/Examples/MotionControl/MicrosteppingMotor/Src/example_usart.c ****  * @param  HexFormat   The output format about hexadecimal number.
1144:Projects/STM32F401RE-Nucleo/Examples/MotionControl/MicrosteppingMotor/Src/example_usart.c ****  *
1145:Projects/STM32F401RE-Nucleo/Examples/MotionControl/MicrosteppingMotor/Src/example_usart.c ****  * @retval uint8_t*    The address of the string text for the converted hexadecimal number.
1146:Projects/STM32F401RE-Nucleo/Examples/MotionControl/MicrosteppingMotor/Src/example_usart.c ****  */
1147:Projects/STM32F401RE-Nucleo/Examples/MotionControl/MicrosteppingMotor/Src/example_usart.c **** uint8_t* num2hex(uint32_t num, eHexFormat HexFormat) {
 3888              		.loc 1 1147 54
 3889              		.cfi_startproc
 3890              		@ args = 0, pretend = 0, frame = 16
 3891              		@ frame_needed = 1, uses_anonymous_args = 0
 3892              		@ link register save eliminated.
 3893 0000 80B4     		push	{r7}
 3894              	.LCFI63:
 3895              		.cfi_def_cfa_offset 4
 3896              		.cfi_offset 7, -4
 3897 0002 85B0     		sub	sp, sp, #20
 3898              	.LCFI64:
 3899              		.cfi_def_cfa_offset 24
 3900 0004 00AF     		add	r7, sp, #0
 3901              	.LCFI65:
 3902              		.cfi_def_cfa_register 7
 3903 0006 7860     		str	r0, [r7, #4]
 3904 0008 0B46     		mov	r3, r1
 3905 000a FB70     		strb	r3, [r7, #3]
1148:Projects/STM32F401RE-Nucleo/Examples/MotionControl/MicrosteppingMotor/Src/example_usart.c **** 	static uint8_t HexValue[8 + 1];
1149:Projects/STM32F401RE-Nucleo/Examples/MotionControl/MicrosteppingMotor/Src/example_usart.c **** 	uint8_t i;
1150:Projects/STM32F401RE-Nucleo/Examples/MotionControl/MicrosteppingMotor/Src/example_usart.c **** 	uint8_t dummy;
1151:Projects/STM32F401RE-Nucleo/Examples/MotionControl/MicrosteppingMotor/Src/example_usart.c **** 	uint8_t HexDigits = 0;
 3906              		.loc 1 1151 10
 3907 000c 0023     		movs	r3, #0
 3908 000e BB73     		strb	r3, [r7, #14]
1152:Projects/STM32F401RE-Nucleo/Examples/MotionControl/MicrosteppingMotor/Src/example_usart.c **** 
1153:Projects/STM32F401RE-Nucleo/Examples/MotionControl/MicrosteppingMotor/Src/example_usart.c **** 	switch (HexFormat) {
 3909              		.loc 1 1153 2
 3910 0010 FB78     		ldrb	r3, [r7, #3]	@ zero_extendqisi2
 3911 0012 032B     		cmp	r3, #3
 3912 0014 16D8     		bhi	.L194
 3913 0016 01A2     		adr	r2, .L196
 3914 0018 52F823F0 		ldr	pc, [r2, r3, lsl #2]
 3915              		.p2align 2
 3916              	.L196:
ARM GAS  C:\Users\ep_ygh\AppData\Local\Temp\ccqIQPDc.s 			page 95


 3917 001c 2D000000 		.word	.L199+1
 3918 0020 33000000 		.word	.L198+1
 3919 0024 39000000 		.word	.L197+1
 3920 0028 3F000000 		.word	.L195+1
 3921              		.p2align 1
 3922              	.L199:
1154:Projects/STM32F401RE-Nucleo/Examples/MotionControl/MicrosteppingMotor/Src/example_usart.c **** 	case HALFBYTE_F:
1155:Projects/STM32F401RE-Nucleo/Examples/MotionControl/MicrosteppingMotor/Src/example_usart.c **** 		HexDigits = 1;
 3923              		.loc 1 1155 13
 3924 002c 0123     		movs	r3, #1
 3925 002e BB73     		strb	r3, [r7, #14]
1156:Projects/STM32F401RE-Nucleo/Examples/MotionControl/MicrosteppingMotor/Src/example_usart.c **** 		break;
 3926              		.loc 1 1156 3
 3927 0030 08E0     		b	.L194
 3928              	.L198:
1157:Projects/STM32F401RE-Nucleo/Examples/MotionControl/MicrosteppingMotor/Src/example_usart.c **** 	case BYTE_F:
1158:Projects/STM32F401RE-Nucleo/Examples/MotionControl/MicrosteppingMotor/Src/example_usart.c **** 		HexDigits = 2;
 3929              		.loc 1 1158 13
 3930 0032 0223     		movs	r3, #2
 3931 0034 BB73     		strb	r3, [r7, #14]
1159:Projects/STM32F401RE-Nucleo/Examples/MotionControl/MicrosteppingMotor/Src/example_usart.c **** 		break;
 3932              		.loc 1 1159 3
 3933 0036 05E0     		b	.L194
 3934              	.L197:
1160:Projects/STM32F401RE-Nucleo/Examples/MotionControl/MicrosteppingMotor/Src/example_usart.c **** 	case WORD_F:
1161:Projects/STM32F401RE-Nucleo/Examples/MotionControl/MicrosteppingMotor/Src/example_usart.c **** 		HexDigits = 4;
 3935              		.loc 1 1161 13
 3936 0038 0423     		movs	r3, #4
 3937 003a BB73     		strb	r3, [r7, #14]
1162:Projects/STM32F401RE-Nucleo/Examples/MotionControl/MicrosteppingMotor/Src/example_usart.c **** 		break;
 3938              		.loc 1 1162 3
 3939 003c 02E0     		b	.L194
 3940              	.L195:
1163:Projects/STM32F401RE-Nucleo/Examples/MotionControl/MicrosteppingMotor/Src/example_usart.c **** 	case DOUBLEWORD_F:
1164:Projects/STM32F401RE-Nucleo/Examples/MotionControl/MicrosteppingMotor/Src/example_usart.c **** 		HexDigits = 8;
 3941              		.loc 1 1164 13
 3942 003e 0823     		movs	r3, #8
 3943 0040 BB73     		strb	r3, [r7, #14]
1165:Projects/STM32F401RE-Nucleo/Examples/MotionControl/MicrosteppingMotor/Src/example_usart.c **** 		break;
 3944              		.loc 1 1165 3
 3945 0042 00BF     		nop
 3946              	.L194:
1166:Projects/STM32F401RE-Nucleo/Examples/MotionControl/MicrosteppingMotor/Src/example_usart.c **** 	}
1167:Projects/STM32F401RE-Nucleo/Examples/MotionControl/MicrosteppingMotor/Src/example_usart.c **** 
1168:Projects/STM32F401RE-Nucleo/Examples/MotionControl/MicrosteppingMotor/Src/example_usart.c **** 	for (i = 0; i < HexDigits; i++) {
 3947              		.loc 1 1168 9
 3948 0044 0023     		movs	r3, #0
 3949 0046 FB73     		strb	r3, [r7, #15]
 3950              		.loc 1 1168 2
 3951 0048 29E0     		b	.L200
 3952              	.L203:
1169:Projects/STM32F401RE-Nucleo/Examples/MotionControl/MicrosteppingMotor/Src/example_usart.c **** 		HexValue[i] = '\0';
 3953              		.loc 1 1169 11
 3954 004a FB7B     		ldrb	r3, [r7, #15]	@ zero_extendqisi2
 3955              		.loc 1 1169 15
 3956 004c 1B4A     		ldr	r2, .L205
 3957 004e 0021     		movs	r1, #0
ARM GAS  C:\Users\ep_ygh\AppData\Local\Temp\ccqIQPDc.s 			page 96


 3958 0050 D154     		strb	r1, [r2, r3]
1170:Projects/STM32F401RE-Nucleo/Examples/MotionControl/MicrosteppingMotor/Src/example_usart.c **** 		dummy = (num & (0x0F << (((HexDigits - 1) - i) * 4)))
 3959              		.loc 1 1170 40
 3960 0052 BB7B     		ldrb	r3, [r7, #14]	@ zero_extendqisi2
 3961 0054 5A1E     		subs	r2, r3, #1
 3962              		.loc 1 1170 45
 3963 0056 FB7B     		ldrb	r3, [r7, #15]	@ zero_extendqisi2
 3964 0058 D31A     		subs	r3, r2, r3
 3965              		.loc 1 1170 50
 3966 005a 9B00     		lsls	r3, r3, #2
 3967              		.loc 1 1170 24
 3968 005c 0F22     		movs	r2, #15
 3969 005e 02FA03F3 		lsl	r3, r2, r3
 3970 0062 1A46     		mov	r2, r3
 3971              		.loc 1 1170 16
 3972 0064 7B68     		ldr	r3, [r7, #4]
 3973 0066 1A40     		ands	r2, r2, r3
1171:Projects/STM32F401RE-Nucleo/Examples/MotionControl/MicrosteppingMotor/Src/example_usart.c **** 				>> (((HexDigits - 1) - i) * 4);
 3974              		.loc 1 1171 21
 3975 0068 BB7B     		ldrb	r3, [r7, #14]	@ zero_extendqisi2
 3976 006a 591E     		subs	r1, r3, #1
 3977              		.loc 1 1171 26
 3978 006c FB7B     		ldrb	r3, [r7, #15]	@ zero_extendqisi2
 3979 006e CB1A     		subs	r3, r1, r3
 3980              		.loc 1 1171 31
 3981 0070 9B00     		lsls	r3, r3, #2
 3982              		.loc 1 1171 5
 3983 0072 22FA03F3 		lsr	r3, r2, r3
1170:Projects/STM32F401RE-Nucleo/Examples/MotionControl/MicrosteppingMotor/Src/example_usart.c **** 		dummy = (num & (0x0F << (((HexDigits - 1) - i) * 4)))
 3984              		.loc 1 1170 9
 3985 0076 7B73     		strb	r3, [r7, #13]
1172:Projects/STM32F401RE-Nucleo/Examples/MotionControl/MicrosteppingMotor/Src/example_usart.c **** 		if (dummy < 0x0A) {
 3986              		.loc 1 1172 6
 3987 0078 7B7B     		ldrb	r3, [r7, #13]	@ zero_extendqisi2
 3988 007a 092B     		cmp	r3, #9
 3989 007c 06D8     		bhi	.L201
1173:Projects/STM32F401RE-Nucleo/Examples/MotionControl/MicrosteppingMotor/Src/example_usart.c **** 			HexValue[i] = dummy + '0';
 3990              		.loc 1 1173 12
 3991 007e FB7B     		ldrb	r3, [r7, #15]	@ zero_extendqisi2
 3992              		.loc 1 1173 24
 3993 0080 7A7B     		ldrb	r2, [r7, #13]
 3994 0082 3032     		adds	r2, r2, #48
 3995 0084 D1B2     		uxtb	r1, r2
 3996              		.loc 1 1173 16
 3997 0086 0D4A     		ldr	r2, .L205
 3998 0088 D154     		strb	r1, [r2, r3]
 3999 008a 05E0     		b	.L202
 4000              	.L201:
1174:Projects/STM32F401RE-Nucleo/Examples/MotionControl/MicrosteppingMotor/Src/example_usart.c **** 		} else {
1175:Projects/STM32F401RE-Nucleo/Examples/MotionControl/MicrosteppingMotor/Src/example_usart.c **** 			HexValue[i] = (dummy - 0x0A) + 'A';
 4001              		.loc 1 1175 12
 4002 008c FB7B     		ldrb	r3, [r7, #15]	@ zero_extendqisi2
 4003              		.loc 1 1175 33
 4004 008e 7A7B     		ldrb	r2, [r7, #13]
 4005 0090 3732     		adds	r2, r2, #55
 4006 0092 D1B2     		uxtb	r1, r2
 4007              		.loc 1 1175 16
ARM GAS  C:\Users\ep_ygh\AppData\Local\Temp\ccqIQPDc.s 			page 97


 4008 0094 094A     		ldr	r2, .L205
 4009 0096 D154     		strb	r1, [r2, r3]
 4010              	.L202:
1168:Projects/STM32F401RE-Nucleo/Examples/MotionControl/MicrosteppingMotor/Src/example_usart.c **** 		HexValue[i] = '\0';
 4011              		.loc 1 1168 30 discriminator 2
 4012 0098 FB7B     		ldrb	r3, [r7, #15]	@ zero_extendqisi2
 4013 009a 0133     		adds	r3, r3, #1
 4014 009c FB73     		strb	r3, [r7, #15]
 4015              	.L200:
1168:Projects/STM32F401RE-Nucleo/Examples/MotionControl/MicrosteppingMotor/Src/example_usart.c **** 		HexValue[i] = '\0';
 4016              		.loc 1 1168 2 discriminator 1
 4017 009e FA7B     		ldrb	r2, [r7, #15]	@ zero_extendqisi2
 4018 00a0 BB7B     		ldrb	r3, [r7, #14]	@ zero_extendqisi2
 4019 00a2 9A42     		cmp	r2, r3
 4020 00a4 D1D3     		bcc	.L203
1176:Projects/STM32F401RE-Nucleo/Examples/MotionControl/MicrosteppingMotor/Src/example_usart.c **** 		}
1177:Projects/STM32F401RE-Nucleo/Examples/MotionControl/MicrosteppingMotor/Src/example_usart.c **** 	}
1178:Projects/STM32F401RE-Nucleo/Examples/MotionControl/MicrosteppingMotor/Src/example_usart.c **** 	HexValue[i] = '\0';
 4021              		.loc 1 1178 10
 4022 00a6 FB7B     		ldrb	r3, [r7, #15]	@ zero_extendqisi2
 4023              		.loc 1 1178 14
 4024 00a8 044A     		ldr	r2, .L205
 4025 00aa 0021     		movs	r1, #0
 4026 00ac D154     		strb	r1, [r2, r3]
1179:Projects/STM32F401RE-Nucleo/Examples/MotionControl/MicrosteppingMotor/Src/example_usart.c **** 
1180:Projects/STM32F401RE-Nucleo/Examples/MotionControl/MicrosteppingMotor/Src/example_usart.c **** 	return HexValue;
 4027              		.loc 1 1180 9
 4028 00ae 034B     		ldr	r3, .L205
1181:Projects/STM32F401RE-Nucleo/Examples/MotionControl/MicrosteppingMotor/Src/example_usart.c **** }
 4029              		.loc 1 1181 1
 4030 00b0 1846     		mov	r0, r3
 4031 00b2 1437     		adds	r7, r7, #20
 4032              	.LCFI66:
 4033              		.cfi_def_cfa_offset 4
 4034 00b4 BD46     		mov	sp, r7
 4035              	.LCFI67:
 4036              		.cfi_def_cfa_register 13
 4037              		@ sp needed
 4038 00b6 5DF8047B 		ldr	r7, [sp], #4
 4039              	.LCFI68:
 4040              		.cfi_restore 7
 4041              		.cfi_def_cfa_offset 0
 4042 00ba 7047     		bx	lr
 4043              	.L206:
 4044              		.align	2
 4045              	.L205:
 4046 00bc 00000000 		.word	HexValue.0
 4047              		.cfi_endproc
 4048              	.LFE141:
 4050              		.section	.bss.ReceivedValue.1,"aw",%nobits
 4051              		.align	2
 4054              	ReceivedValue.1:
 4055 0000 00000000 		.space	8
 4055      00000000 
 4056              		.section	.bss.HexValue.0,"aw",%nobits
 4057              		.align	2
 4060              	HexValue.0:
ARM GAS  C:\Users\ep_ygh\AppData\Local\Temp\ccqIQPDc.s 			page 98


 4061 0000 00000000 		.space	9
 4061      00000000 
 4061      00
 4062              		.text
 4063              	.Letext0:
 4064              		.file 2 "c:\\programdata\\chocolatey\\lib\\gcc-arm-embedded\\tools\\gcc-arm-none-eabi-10.3-2021.10
 4065              		.file 3 "c:\\programdata\\chocolatey\\lib\\gcc-arm-embedded\\tools\\gcc-arm-none-eabi-10.3-2021.10
 4066              		.file 4 "Drivers/CMSIS/Device/ST/STM32F4xx/Include/stm32f401xe.h"
 4067              		.file 5 "Drivers/CMSIS/Device/ST/STM32F4xx/Include/stm32f4xx.h"
 4068              		.file 6 "Drivers/STM32F4xx_HAL_Driver/Inc/stm32f4xx_hal_def.h"
 4069              		.file 7 "Drivers/STM32F4xx_HAL_Driver/Inc/stm32f4xx_hal_dma.h"
 4070              		.file 8 "Drivers/STM32F4xx_HAL_Driver/Inc/stm32f4xx_hal_uart.h"
 4071              		.file 9 "Projects/STM32F401RE-Nucleo/Examples/MotionControl/MicrosteppingMotor/Inc/example_usart.h
 4072              		.file 10 "Drivers/BSP/X-NUCLEO-IHM02A1/NUCLEO-F401RE/xnucleoihm02a1_interface.h"
 4073              		.file 11 "Drivers/BSP/Components/Common/microstepping_motor.h"
 4074              		.file 12 "Drivers/BSP/Components/L6470/L6470.h"
ARM GAS  C:\Users\ep_ygh\AppData\Local\Temp\ccqIQPDc.s 			page 99


DEFINED SYMBOLS
                            *ABS*:00000000 example_usart.c
C:\Users\ep_ygh\AppData\Local\Temp\ccqIQPDc.s:24     .bss.huart2:00000000 huart2
C:\Users\ep_ygh\AppData\Local\Temp\ccqIQPDc.s:21     .bss.huart2:00000000 $d
C:\Users\ep_ygh\AppData\Local\Temp\ccqIQPDc.s:31     .bss.L6470_DaisyChainMnemonic:00000000 L6470_DaisyChainMnemonic
C:\Users\ep_ygh\AppData\Local\Temp\ccqIQPDc.s:28     .bss.L6470_DaisyChainMnemonic:00000000 $d
C:\Users\ep_ygh\AppData\Local\Temp\ccqIQPDc.s:38     .bss.UsartTextString:00000000 UsartTextString
C:\Users\ep_ygh\AppData\Local\Temp\ccqIQPDc.s:35     .bss.UsartTextString:00000000 $d
C:\Users\ep_ygh\AppData\Local\Temp\ccqIQPDc.s:45     .bss.L6470_TextCommandBundle:00000000 L6470_TextCommandBundle
C:\Users\ep_ygh\AppData\Local\Temp\ccqIQPDc.s:42     .bss.L6470_TextCommandBundle:00000000 $d
C:\Users\ep_ygh\AppData\Local\Temp\ccqIQPDc.s:48     .rodata:00000000 $d
C:\Users\ep_ygh\AppData\Local\Temp\ccqIQPDc.s:58     .text.USART_SplitTextString:00000000 $t
C:\Users\ep_ygh\AppData\Local\Temp\ccqIQPDc.s:64     .text.USART_SplitTextString:00000000 USART_SplitTextString
C:\Users\ep_ygh\AppData\Local\Temp\ccqIQPDc.s:2944   .text.USART_Transmit:00000000 USART_Transmit
C:\Users\ep_ygh\AppData\Local\Temp\ccqIQPDc.s:250    .text.USART_SplitTextString:00000104 $d
C:\Users\ep_ygh\AppData\Local\Temp\ccqIQPDc.s:255    .text.USART_SplitTextString:00000118 $t
C:\Users\ep_ygh\AppData\Local\Temp\ccqIQPDc.s:512    .text.USART_SplitTextString:00000288 $d
C:\Users\ep_ygh\AppData\Local\Temp\ccqIQPDc.s:553    .text.USART_CheckTextCommandBundle:00000000 $t
C:\Users\ep_ygh\AppData\Local\Temp\ccqIQPDc.s:559    .text.USART_CheckTextCommandBundle:00000000 USART_CheckTextCommandBundle
C:\Users\ep_ygh\AppData\Local\Temp\ccqIQPDc.s:2617   .text.CompareTwoTextString:00000000 CompareTwoTextString
C:\Users\ep_ygh\AppData\Local\Temp\ccqIQPDc.s:876    .text.USART_CheckTextCommandBundle:000001e0 $d
C:\Users\ep_ygh\AppData\Local\Temp\ccqIQPDc.s:895    .text.USART_CheckTextCommandBundle:0000022c $t
C:\Users\ep_ygh\AppData\Local\Temp\ccqIQPDc.s:2703   .text.str2num:00000000 str2num
C:\Users\ep_ygh\AppData\Local\Temp\ccqIQPDc.s:1082   .text.USART_CheckTextCommandBundle:00000338 $d
C:\Users\ep_ygh\AppData\Local\Temp\ccqIQPDc.s:1093   .text.USART_CheckTextCommandBundle:0000035c $t
C:\Users\ep_ygh\AppData\Local\Temp\ccqIQPDc.s:1598   .text.USART_CheckTextCommandBundle:0000064c $d
C:\Users\ep_ygh\AppData\Local\Temp\ccqIQPDc.s:1605   .text.USART_CheckTextCommandBundle:00000660 $t
C:\Users\ep_ygh\AppData\Local\Temp\ccqIQPDc.s:2119   .text.USART_CheckTextCommandBundle:00000948 $d
C:\Users\ep_ygh\AppData\Local\Temp\ccqIQPDc.s:2127   .text.USART_CheckTextCommandBundle:00000960 $t
C:\Users\ep_ygh\AppData\Local\Temp\ccqIQPDc.s:2268   .text.USART_CheckTextCommandBundle:00000a2c $d
C:\Users\ep_ygh\AppData\Local\Temp\ccqIQPDc.s:2295   .text.USART_DecodeTextString:00000000 $t
C:\Users\ep_ygh\AppData\Local\Temp\ccqIQPDc.s:2301   .text.USART_DecodeTextString:00000000 USART_DecodeTextString
C:\Users\ep_ygh\AppData\Local\Temp\ccqIQPDc.s:3886   .text.num2hex:00000000 num2hex
C:\Users\ep_ygh\AppData\Local\Temp\ccqIQPDc.s:2597   .text.USART_DecodeTextString:000001c4 $d
C:\Users\ep_ygh\AppData\Local\Temp\ccqIQPDc.s:4054   .bss.ReceivedValue.1:00000000 ReceivedValue.1
C:\Users\ep_ygh\AppData\Local\Temp\ccqIQPDc.s:2611   .text.CompareTwoTextString:00000000 $t
C:\Users\ep_ygh\AppData\Local\Temp\ccqIQPDc.s:2697   .text.str2num:00000000 $t
C:\Users\ep_ygh\AppData\Local\Temp\ccqIQPDc.s:2862   .text.USART_TxWelcomeMessage:00000000 $t
C:\Users\ep_ygh\AppData\Local\Temp\ccqIQPDc.s:2868   .text.USART_TxWelcomeMessage:00000000 USART_TxWelcomeMessage
C:\Users\ep_ygh\AppData\Local\Temp\ccqIQPDc.s:2924   .text.USART_TxWelcomeMessage:00000050 $d
C:\Users\ep_ygh\AppData\Local\Temp\ccqIQPDc.s:2938   .text.USART_Transmit:00000000 $t
C:\Users\ep_ygh\AppData\Local\Temp\ccqIQPDc.s:3006   .text.USART_CheckAppCmd:00000000 $t
C:\Users\ep_ygh\AppData\Local\Temp\ccqIQPDc.s:3012   .text.USART_CheckAppCmd:00000000 USART_CheckAppCmd
C:\Users\ep_ygh\AppData\Local\Temp\ccqIQPDc.s:3058   .text.USART_CheckAppCmd:00000034 $d
C:\Users\ep_ygh\AppData\Local\Temp\ccqIQPDc.s:3067   .text.USART_ITCharManager:00000000 $t
C:\Users\ep_ygh\AppData\Local\Temp\ccqIQPDc.s:3073   .text.USART_ITCharManager:00000000 USART_ITCharManager
C:\Users\ep_ygh\AppData\Local\Temp\ccqIQPDc.s:3199   .text.USART_ITCharManager:000000ac $d
C:\Users\ep_ygh\AppData\Local\Temp\ccqIQPDc.s:3217   .text.USART_PrintRegisterValues:00000000 $t
C:\Users\ep_ygh\AppData\Local\Temp\ccqIQPDc.s:3223   .text.USART_PrintRegisterValues:00000000 USART_PrintRegisterValues
C:\Users\ep_ygh\AppData\Local\Temp\ccqIQPDc.s:3351   .text.USART_PrintRegisterValues:000000cc $d
C:\Users\ep_ygh\AppData\Local\Temp\ccqIQPDc.s:3361   .text.USART_PrintAllRegisterValues:00000000 $t
C:\Users\ep_ygh\AppData\Local\Temp\ccqIQPDc.s:3367   .text.USART_PrintAllRegisterValues:00000000 USART_PrintAllRegisterValues
C:\Users\ep_ygh\AppData\Local\Temp\ccqIQPDc.s:3449   .text.Fill_L6470_DaisyChainMnemonic:00000000 $t
C:\Users\ep_ygh\AppData\Local\Temp\ccqIQPDc.s:3455   .text.Fill_L6470_DaisyChainMnemonic:00000000 Fill_L6470_DaisyChainMnemonic
C:\Users\ep_ygh\AppData\Local\Temp\ccqIQPDc.s:3721   .text.Fill_L6470_DaisyChainMnemonic:00000194 $d
C:\Users\ep_ygh\AppData\Local\Temp\ccqIQPDc.s:3727   .text.num2str:00000000 $t
C:\Users\ep_ygh\AppData\Local\Temp\ccqIQPDc.s:3733   .text.num2str:00000000 num2str
ARM GAS  C:\Users\ep_ygh\AppData\Local\Temp\ccqIQPDc.s 			page 100


C:\Users\ep_ygh\AppData\Local\Temp\ccqIQPDc.s:3874   .text.num2str:000000ac $d
C:\Users\ep_ygh\AppData\Local\Temp\ccqIQPDc.s:3880   .text.num2hex:00000000 $t
C:\Users\ep_ygh\AppData\Local\Temp\ccqIQPDc.s:3917   .text.num2hex:0000001c $d
C:\Users\ep_ygh\AppData\Local\Temp\ccqIQPDc.s:3921   .text.num2hex:0000002c $t
C:\Users\ep_ygh\AppData\Local\Temp\ccqIQPDc.s:4046   .text.num2hex:000000bc $d
C:\Users\ep_ygh\AppData\Local\Temp\ccqIQPDc.s:4060   .bss.HexValue.0:00000000 HexValue.0
C:\Users\ep_ygh\AppData\Local\Temp\ccqIQPDc.s:4051   .bss.ReceivedValue.1:00000000 $d
C:\Users\ep_ygh\AppData\Local\Temp\ccqIQPDc.s:4057   .bss.HexValue.0:00000000 $d

UNDEFINED SYMBOLS
L6470_ID
L6470_ApplicationCommand
L6470_Register
L6470_Direction
L6470_ACT
L6470_DaisyChainCommand
L6470_ExtractReturnedData
HAL_UART_Transmit
HAL_UART_Receive_IT
L6470_DaisyChainSpiRxStruct
L6470_DaisyChainSpiTxStruct
BSP_Select
L6470_GetParam
L6470_GetRegisterName
EXPBRD_ID
