ARM GAS  C:\Users\ep_ygh\AppData\Local\Temp\cccpn5kX.s 			page 1


   1              		.cpu cortex-m4
   2              		.arch armv7e-m
   3              		.fpu fpv4-sp-d16
   4              		.eabi_attribute 27, 1
   5              		.eabi_attribute 28, 1
   6              		.eabi_attribute 20, 1
   7              		.eabi_attribute 21, 1
   8              		.eabi_attribute 23, 3
   9              		.eabi_attribute 24, 1
  10              		.eabi_attribute 25, 1
  11              		.eabi_attribute 26, 1
  12              		.eabi_attribute 30, 6
  13              		.eabi_attribute 34, 1
  14              		.eabi_attribute 18, 4
  15              		.file	"L6470.c"
  16              		.text
  17              	.Ltext0:
  18              		.cfi_sections	.debug_frame
  19              		.global	L6470_Register
  20              		.section	.rodata.L6470_Register,"a"
  21              		.align	2
  24              	L6470_Register:
  25 0000 01       		.byte	1
  26 0001 4142535F 		.ascii	"ABS_POS\000"
  26      504F5300 
  27 0009 00000000 		.space	4
  28 000d 16       		.byte	22
  29 000e 03       		.byte	3
  30 000f 00       		.space	1
  31 0010 00000000 		.word	0
  32 0014 02       		.byte	2
  33 0015 454C5F50 		.ascii	"EL_POS\000"
  33      4F5300
  34 001c 00000000 		.space	5
  34      00
  35 0021 09       		.byte	9
  36 0022 02       		.byte	2
  37 0023 00       		.space	1
  38 0024 00000000 		.word	0
  39 0028 03       		.byte	3
  40 0029 4D41524B 		.ascii	"MARK\000"
  40      00
  41 002e 00000000 		.space	7
  41      000000
  42 0035 16       		.byte	22
  43 0036 03       		.byte	3
  44 0037 00       		.space	1
  45 0038 00000000 		.word	0
  46 003c 04       		.byte	4
  47 003d 53504545 		.ascii	"SPEED\000"
  47      4400
  48 0043 00000000 		.space	6
  48      0000
  49 0049 14       		.byte	20
  50 004a 03       		.byte	3
  51 004b 00       		.space	1
  52 004c 00000000 		.word	0
ARM GAS  C:\Users\ep_ygh\AppData\Local\Temp\cccpn5kX.s 			page 2


  53 0050 05       		.byte	5
  54 0051 41434300 		.ascii	"ACC\000"
  55 0055 00000000 		.space	8
  55      00000000 
  56 005d 0C       		.byte	12
  57 005e 02       		.byte	2
  58 005f 00       		.space	1
  59 0060 8A000000 		.word	138
  60 0064 06       		.byte	6
  61 0065 44454300 		.ascii	"DEC\000"
  62 0069 00000000 		.space	8
  62      00000000 
  63 0071 0C       		.byte	12
  64 0072 02       		.byte	2
  65 0073 00       		.space	1
  66 0074 8A000000 		.word	138
  67 0078 07       		.byte	7
  68 0079 4D41585F 		.ascii	"MAX_SPEED\000"
  68      53504545 
  68      4400
  69 0083 0000     		.space	2
  70 0085 0A       		.byte	10
  71 0086 02       		.byte	2
  72 0087 00       		.space	1
  73 0088 41000000 		.word	65
  74 008c 08       		.byte	8
  75 008d 4D494E5F 		.ascii	"MIN_SPEED\000"
  75      53504545 
  75      4400
  76 0097 0000     		.space	2
  77 0099 0D       		.byte	13
  78 009a 02       		.byte	2
  79 009b 00       		.space	1
  80 009c 00000000 		.word	0
  81 00a0 15       		.byte	21
  82 00a1 46535F53 		.ascii	"FS_SPD\000"
  82      504400
  83 00a8 00000000 		.space	5
  83      00
  84 00ad 0A       		.byte	10
  85 00ae 02       		.byte	2
  86 00af 00       		.space	1
  87 00b0 27000000 		.word	39
  88 00b4 09       		.byte	9
  89 00b5 4B56414C 		.ascii	"KVAL_HOLD\000"
  89      5F484F4C 
  89      4400
  90 00bf 0000     		.space	2
  91 00c1 08       		.byte	8
  92 00c2 01       		.byte	1
  93 00c3 00       		.space	1
  94 00c4 29000000 		.word	41
  95 00c8 0A       		.byte	10
  96 00c9 4B56414C 		.ascii	"KVAL_RUN\000"
  96      5F52554E 
  96      00
  97 00d2 000000   		.space	3
ARM GAS  C:\Users\ep_ygh\AppData\Local\Temp\cccpn5kX.s 			page 3


  98 00d5 08       		.byte	8
  99 00d6 01       		.byte	1
 100 00d7 00       		.space	1
 101 00d8 29000000 		.word	41
 102 00dc 0B       		.byte	11
 103 00dd 4B56414C 		.ascii	"KVAL_ACC\000"
 103      5F414343 
 103      00
 104 00e6 000000   		.space	3
 105 00e9 08       		.byte	8
 106 00ea 01       		.byte	1
 107 00eb 00       		.space	1
 108 00ec 29000000 		.word	41
 109 00f0 0C       		.byte	12
 110 00f1 4B56414C 		.ascii	"KVAL_DEC\000"
 110      5F444543 
 110      00
 111 00fa 000000   		.space	3
 112 00fd 08       		.byte	8
 113 00fe 01       		.byte	1
 114 00ff 00       		.space	1
 115 0100 29000000 		.word	41
 116 0104 0D       		.byte	13
 117 0105 494E545F 		.ascii	"INT_SPEED\000"
 117      53504545 
 117      4400
 118 010f 0000     		.space	2
 119 0111 0E       		.byte	14
 120 0112 02       		.byte	2
 121 0113 00       		.space	1
 122 0114 08040000 		.word	1032
 123 0118 0E       		.byte	14
 124 0119 53545F53 		.ascii	"ST_SLP\000"
 124      4C5000
 125 0120 00000000 		.space	5
 125      00
 126 0125 08       		.byte	8
 127 0126 01       		.byte	1
 128 0127 00       		.space	1
 129 0128 19000000 		.word	25
 130 012c 0F       		.byte	15
 131 012d 464E5F53 		.ascii	"FN_SLP_ACC\000"
 131      4C505F41 
 131      434300
 132 0138 00       		.space	1
 133 0139 08       		.byte	8
 134 013a 01       		.byte	1
 135 013b 00       		.space	1
 136 013c 29000000 		.word	41
 137 0140 10       		.byte	16
 138 0141 464E5F53 		.ascii	"FN_SLP_DEC\000"
 138      4C505F44 
 138      454300
 139 014c 00       		.space	1
 140 014d 08       		.byte	8
 141 014e 01       		.byte	1
 142 014f 00       		.space	1
ARM GAS  C:\Users\ep_ygh\AppData\Local\Temp\cccpn5kX.s 			page 4


 143 0150 29000000 		.word	41
 144 0154 11       		.byte	17
 145 0155 4B5F5448 		.ascii	"K_THERM\000"
 145      45524D00 
 146 015d 00000000 		.space	4
 147 0161 04       		.byte	4
 148 0162 01       		.byte	1
 149 0163 00       		.space	1
 150 0164 00000000 		.word	0
 151 0168 12       		.byte	18
 152 0169 4144435F 		.ascii	"ADC_OUT\000"
 152      4F555400 
 153 0171 00000000 		.space	4
 154 0175 05       		.byte	5
 155 0176 01       		.byte	1
 156 0177 00       		.space	1
 157 0178 00000000 		.word	0
 158 017c 13       		.byte	19
 159 017d 4F43445F 		.ascii	"OCD_TH\000"
 159      544800
 160 0184 00000000 		.space	5
 160      00
 161 0189 04       		.byte	4
 162 018a 01       		.byte	1
 163 018b 00       		.space	1
 164 018c 08000000 		.word	8
 165 0190 14       		.byte	20
 166 0191 5354414C 		.ascii	"STALL_TH\000"
 166      4C5F5448 
 166      00
 167 019a 000000   		.space	3
 168 019d 07       		.byte	7
 169 019e 01       		.byte	1
 170 019f 00       		.space	1
 171 01a0 40000000 		.word	64
 172 01a4 16       		.byte	22
 173 01a5 53544550 		.ascii	"STEP_MODE\000"
 173      5F4D4F44 
 173      4500
 174 01af 0000     		.space	2
 175 01b1 08       		.byte	8
 176 01b2 01       		.byte	1
 177 01b3 00       		.space	1
 178 01b4 07000000 		.word	7
 179 01b8 17       		.byte	23
 180 01b9 414C4152 		.ascii	"ALARM_EN\000"
 180      4D5F454E 
 180      00
 181 01c2 000000   		.space	3
 182 01c5 08       		.byte	8
 183 01c6 01       		.byte	1
 184 01c7 00       		.space	1
 185 01c8 FF000000 		.word	255
 186 01cc 18       		.byte	24
 187 01cd 434F4E46 		.ascii	"CONFIG\000"
 187      494700
 188 01d4 00000000 		.space	5
ARM GAS  C:\Users\ep_ygh\AppData\Local\Temp\cccpn5kX.s 			page 5


 188      00
 189 01d9 10       		.byte	16
 190 01da 02       		.byte	2
 191 01db 00       		.space	1
 192 01dc 882E0000 		.word	11912
 193 01e0 19       		.byte	25
 194 01e1 53544154 		.ascii	"STATUS\000"
 194      555300
 195 01e8 00000000 		.space	5
 195      00
 196 01ed 10       		.byte	16
 197 01ee 02       		.byte	2
 198 01ef 00       		.space	1
 199 01f0 00000000 		.word	0
 200              		.global	L6470_ApplicationCommand
 201              		.section	.rodata.L6470_ApplicationCommand,"a"
 202              		.align	2
 205              	L6470_ApplicationCommand:
 206 0000 4E4F5000 		.ascii	"NOP\000"
 207 0004 00000000 		.space	8
 207      00000000 
 208 000c 00       		.byte	0
 209 000d 00       		.byte	0
 210 000e 53455450 		.ascii	"SETPARAM\000"
 210      4152414D 
 210      00
 211 0017 000000   		.space	3
 212 001a 00       		.byte	0
 213 001b 02       		.byte	2
 214 001c 47455450 		.ascii	"GETPARAM\000"
 214      4152414D 
 214      00
 215 0025 000000   		.space	3
 216 0028 20       		.byte	32
 217 0029 01       		.byte	1
 218 002a 52554E00 		.ascii	"RUN\000"
 219 002e 00000000 		.space	8
 219      00000000 
 220 0036 50       		.byte	80
 221 0037 02       		.byte	2
 222 0038 53544550 		.ascii	"STEPCLOCK\000"
 222      434C4F43 
 222      4B00
 223 0042 0000     		.space	2
 224 0044 58       		.byte	88
 225 0045 01       		.byte	1
 226 0046 4D4F5645 		.ascii	"MOVE\000"
 226      00
 227 004b 00000000 		.space	7
 227      000000
 228 0052 40       		.byte	64
 229 0053 02       		.byte	2
 230 0054 474F544F 		.ascii	"GOTO\000"
 230      00
 231 0059 00000000 		.space	7
 231      000000
 232 0060 60       		.byte	96
ARM GAS  C:\Users\ep_ygh\AppData\Local\Temp\cccpn5kX.s 			page 6


 233 0061 01       		.byte	1
 234 0062 474F544F 		.ascii	"GOTO_DIR\000"
 234      5F444952 
 234      00
 235 006b 000000   		.space	3
 236 006e 68       		.byte	104
 237 006f 02       		.byte	2
 238 0070 474F554E 		.ascii	"GOUNTIL\000"
 238      54494C00 
 239 0078 00000000 		.space	4
 240 007c 82       		.byte	-126
 241 007d 03       		.byte	3
 242 007e 52454C45 		.ascii	"RELEASESW\000"
 242      41534553 
 242      5700
 243 0088 0000     		.space	2
 244 008a 92       		.byte	-110
 245 008b 02       		.byte	2
 246 008c 474F484F 		.ascii	"GOHOME\000"
 246      4D4500
 247 0093 00000000 		.space	5
 247      00
 248 0098 70       		.byte	112
 249 0099 00       		.byte	0
 250 009a 474F4D41 		.ascii	"GOMARK\000"
 250      524B00
 251 00a1 00000000 		.space	5
 251      00
 252 00a6 78       		.byte	120
 253 00a7 00       		.byte	0
 254 00a8 52455345 		.ascii	"RESETPOS\000"
 254      54504F53 
 254      00
 255 00b1 000000   		.space	3
 256 00b4 D8       		.byte	-40
 257 00b5 00       		.byte	0
 258 00b6 52455345 		.ascii	"RESETDEVICE\000"
 258      54444556 
 258      49434500 
 259 00c2 C0       		.byte	-64
 260 00c3 00       		.byte	0
 261 00c4 534F4654 		.ascii	"SOFTSTOP\000"
 261      53544F50 
 261      00
 262 00cd 000000   		.space	3
 263 00d0 B0       		.byte	-80
 264 00d1 00       		.byte	0
 265 00d2 48415244 		.ascii	"HARDSTOP\000"
 265      53544F50 
 265      00
 266 00db 000000   		.space	3
 267 00de B8       		.byte	-72
 268 00df 00       		.byte	0
 269 00e0 534F4654 		.ascii	"SOFTHIZ\000"
 269      48495A00 
 270 00e8 00000000 		.space	4
 271 00ec A0       		.byte	-96
ARM GAS  C:\Users\ep_ygh\AppData\Local\Temp\cccpn5kX.s 			page 7


 272 00ed 00       		.byte	0
 273 00ee 48415244 		.ascii	"HARDHIZ\000"
 273      48495A00 
 274 00f6 00000000 		.space	4
 275 00fa A8       		.byte	-88
 276 00fb 00       		.byte	0
 277 00fc 47455453 		.ascii	"GETSTATUS\000"
 277      54415455 
 277      5300
 278 0106 0000     		.space	2
 279 0108 D0       		.byte	-48
 280 0109 00       		.byte	0
 281              		.global	L6470_Direction
 282              		.section	.rodata.L6470_Direction,"a"
 283              		.align	2
 286              	L6470_Direction:
 287 0000 52455600 		.ascii	"REV\000"
 288 0004 00000000 		.space	4
 289 0008 00       		.byte	0
 290 0009 46574400 		.ascii	"FWD\000"
 291 000d 00000000 		.space	4
 292 0011 01       		.byte	1
 293              		.global	L6470_ACT
 294              		.section	.rodata.L6470_ACT,"a"
 295              		.align	2
 298              	L6470_ACT:
 299 0000 52535400 		.ascii	"RST\000"
 300 0004 00       		.byte	0
 301 0005 43505900 		.ascii	"CPY\000"
 302 0009 01       		.byte	1
 303              		.global	L6470Command
 304              		.section	.data.L6470Command,"aw"
 305              		.align	2
 308              	L6470Command:
 309 0000 00000000 		.word	L6470_SetParam
 310 0004 00000000 		.word	L6470_GetParam
 311 0008 00000000 		.word	L6470_Run
 312 000c 00000000 		.word	L6470_StepClock
 313 0010 00000000 		.word	L6470_Move
 314 0014 00000000 		.word	L6470_GoTo
 315 0018 00000000 		.word	L6470_GoToDir
 316 001c 00000000 		.word	L6470_GoUntil
 317 0020 00000000 		.word	L6470_ReleaseSW
 318 0024 00000000 		.word	L6470_GoHome
 319 0028 00000000 		.word	L6470_GoMark
 320 002c 00000000 		.word	L6470_ResetPos
 321 0030 00000000 		.word	L6470_ResetDevice
 322 0034 00000000 		.word	L6470_SoftStop
 323 0038 00000000 		.word	L6470_HardStop
 324 003c 00000000 		.word	L6470_SoftHiZ
 325 0040 00000000 		.word	L6470_HardHiZ
 326 0044 00000000 		.word	L6470_GetStatus
 327 0048 00000000 		.word	L6470_PrepareSetParam
 328 004c 00000000 		.word	L6470_PrepareGetParam
 329 0050 00000000 		.word	L6470_PrepareRun
 330 0054 00000000 		.word	L6470_PrepareStepClock
 331 0058 00000000 		.word	L6470_PrepareMove
ARM GAS  C:\Users\ep_ygh\AppData\Local\Temp\cccpn5kX.s 			page 8


 332 005c 00000000 		.word	L6470_PrepareGoTo
 333 0060 00000000 		.word	L6470_PrepareGoToDir
 334 0064 00000000 		.word	L6470_PrepareGoUntil
 335 0068 00000000 		.word	L6470_PrepareReleaseSW
 336 006c 00000000 		.word	L6470_PrepareGoHome
 337 0070 00000000 		.word	L6470_PrepareGoMark
 338 0074 00000000 		.word	L6470_PrepareResetPos
 339 0078 00000000 		.word	L6470_PrepareResetDevice
 340 007c 00000000 		.word	L6470_PrepareSoftStop
 341 0080 00000000 		.word	L6470_PrepareHardStop
 342 0084 00000000 		.word	L6470_PrepareSoftHiZ
 343 0088 00000000 		.word	L6470_PrepareHardHiZ
 344 008c 00000000 		.word	L6470_PrepareGetStatus
 345 0090 00000000 		.word	L6470_CheckStatusRegisterFlag
 346              		.global	L6470_AppCmdPkg
 347              		.section	.bss.L6470_AppCmdPkg,"aw",%nobits
 348              		.align	2
 351              	L6470_AppCmdPkg:
 352 0000 00000000 		.space	32
 352      00000000 
 352      00000000 
 352      00000000 
 352      00000000 
 353              		.global	L6470_DaisyChainSpiTxStruct
 354              		.section	.bss.L6470_DaisyChainSpiTxStruct,"aw",%nobits
 355              		.align	2
 358              	L6470_DaisyChainSpiTxStruct:
 359 0000 00000000 		.space	8
 359      00000000 
 360              		.global	L6470_DaisyChainSpiRxStruct
 361              		.section	.bss.L6470_DaisyChainSpiRxStruct,"aw",%nobits
 362              		.align	2
 365              	L6470_DaisyChainSpiRxStruct:
 366 0000 00000000 		.space	8
 366      00000000 
 367              		.global	L6470_DaisyChain_HalfPrepared
 368              		.section	.bss.L6470_DaisyChain_HalfPrepared,"aw",%nobits
 371              	L6470_DaisyChain_HalfPrepared:
 372 0000 00       		.space	1
 373              		.global	L6470_StatusRegister
 374              		.section	.bss.L6470_StatusRegister,"aw",%nobits
 375              		.align	2
 378              	L6470_StatusRegister:
 379 0000 0000     		.space	2
 380              		.global	pL6470_StatusRegister
 381              		.section	.data.pL6470_StatusRegister,"aw"
 382              		.align	2
 385              	pL6470_StatusRegister:
 386 0000 00000000 		.word	L6470_StatusRegister
 387              		.global	delay_cnt
 388              		.section	.bss.delay_cnt,"aw",%nobits
 391              	delay_cnt:
 392 0000 00       		.space	1
 393              		.section	.text.L6470_ResetAppCmdPkg,"ax",%progbits
 394              		.align	1
 395              		.global	L6470_ResetAppCmdPkg
 396              		.syntax unified
ARM GAS  C:\Users\ep_ygh\AppData\Local\Temp\cccpn5kX.s 			page 9


 397              		.thumb
 398              		.thumb_func
 400              	L6470_ResetAppCmdPkg:
 401              	.LFB128:
 402              		.file 1 "Drivers/BSP/Components/L6470/L6470.c"
   1:Drivers/BSP/Components/L6470/L6470.c **** /**
   2:Drivers/BSP/Components/L6470/L6470.c ****   ******************************************************************************
   3:Drivers/BSP/Components/L6470/L6470.c ****   * @file       L6470.c
   4:Drivers/BSP/Components/L6470/L6470.c ****   * @date       01/10/2014 12:00:00
   5:Drivers/BSP/Components/L6470/L6470.c ****   * @brief      This file provides set of firmware functions to manage the
   6:Drivers/BSP/Components/L6470/L6470.c ****   *             L6470.
   7:Drivers/BSP/Components/L6470/L6470.c ****   ******************************************************************************
   8:Drivers/BSP/Components/L6470/L6470.c ****   *
   9:Drivers/BSP/Components/L6470/L6470.c ****   * COPYRIGHT(c) 2014 STMicroelectronics
  10:Drivers/BSP/Components/L6470/L6470.c ****   *
  11:Drivers/BSP/Components/L6470/L6470.c ****   * Redistribution and use in source and binary forms, with or without modification,
  12:Drivers/BSP/Components/L6470/L6470.c ****   * are permitted provided that the following conditions are met:
  13:Drivers/BSP/Components/L6470/L6470.c ****   *   1. Redistributions of source code must retain the above copyright notice,
  14:Drivers/BSP/Components/L6470/L6470.c ****   *      this list of conditions and the following disclaimer.
  15:Drivers/BSP/Components/L6470/L6470.c ****   *   2. Redistributions in binary form must reproduce the above copyright notice,
  16:Drivers/BSP/Components/L6470/L6470.c ****   *      this list of conditions and the following disclaimer in the documentation
  17:Drivers/BSP/Components/L6470/L6470.c ****   *      and/or other materials provided with the distribution.
  18:Drivers/BSP/Components/L6470/L6470.c ****   *   3. Neither the name of STMicroelectronics nor the names of its contributors
  19:Drivers/BSP/Components/L6470/L6470.c ****   *      may be used to endorse or promote products derived from this software
  20:Drivers/BSP/Components/L6470/L6470.c ****   *      without specific prior written permission.
  21:Drivers/BSP/Components/L6470/L6470.c ****   *
  22:Drivers/BSP/Components/L6470/L6470.c ****   * THIS SOFTWARE IS PROVIDED BY THE COPYRIGHT HOLDERS AND CONTRIBUTORS "AS IS"
  23:Drivers/BSP/Components/L6470/L6470.c ****   * AND ANY EXPRESS OR IMPLIED WARRANTIES, INCLUDING, BUT NOT LIMITED TO, THE
  24:Drivers/BSP/Components/L6470/L6470.c ****   * IMPLIED WARRANTIES OF MERCHANTABILITY AND FITNESS FOR A PARTICULAR PURPOSE ARE
  25:Drivers/BSP/Components/L6470/L6470.c ****   * DISCLAIMED. IN NO EVENT SHALL THE COPYRIGHT HOLDER OR CONTRIBUTORS BE LIABLE
  26:Drivers/BSP/Components/L6470/L6470.c ****   * FOR ANY DIRECT, INDIRECT, INCIDENTAL, SPECIAL, EXEMPLARY, OR CONSEQUENTIAL
  27:Drivers/BSP/Components/L6470/L6470.c ****   * DAMAGES (INCLUDING, BUT NOT LIMITED TO, PROCUREMENT OF SUBSTITUTE GOODS OR
  28:Drivers/BSP/Components/L6470/L6470.c ****   * SERVICES; LOSS OF USE, DATA, OR PROFITS; OR BUSINESS INTERRUPTION) HOWEVER
  29:Drivers/BSP/Components/L6470/L6470.c ****   * CAUSED AND ON ANY THEORY OF LIABILITY, WHETHER IN CONTRACT, STRICT LIABILITY,
  30:Drivers/BSP/Components/L6470/L6470.c ****   * OR TORT (INCLUDING NEGLIGENCE OR OTHERWISE) ARISING IN ANY WAY OUT OF THE USE
  31:Drivers/BSP/Components/L6470/L6470.c ****   * OF THIS SOFTWARE, EVEN IF ADVISED OF THE POSSIBILITY OF SUCH DAMAGE.
  32:Drivers/BSP/Components/L6470/L6470.c ****   *
  33:Drivers/BSP/Components/L6470/L6470.c ****   ******************************************************************************
  34:Drivers/BSP/Components/L6470/L6470.c ****   */
  35:Drivers/BSP/Components/L6470/L6470.c **** 
  36:Drivers/BSP/Components/L6470/L6470.c **** /* Includes ------------------------------------------------------------------*/
  37:Drivers/BSP/Components/L6470/L6470.c **** #include "L6470.h"
  38:Drivers/BSP/Components/L6470/L6470.c **** #include "xnucleoihm02a1_interface.h"
  39:Drivers/BSP/Components/L6470/L6470.c **** 
  40:Drivers/BSP/Components/L6470/L6470.c **** /**
  41:Drivers/BSP/Components/L6470/L6470.c ****   * @addtogroup BSP
  42:Drivers/BSP/Components/L6470/L6470.c ****   * @{
  43:Drivers/BSP/Components/L6470/L6470.c ****   */
  44:Drivers/BSP/Components/L6470/L6470.c **** 
  45:Drivers/BSP/Components/L6470/L6470.c **** /**
  46:Drivers/BSP/Components/L6470/L6470.c ****   * @addtogroup Components
  47:Drivers/BSP/Components/L6470/L6470.c ****   * @{
  48:Drivers/BSP/Components/L6470/L6470.c ****   */
  49:Drivers/BSP/Components/L6470/L6470.c **** 
  50:Drivers/BSP/Components/L6470/L6470.c **** /**
  51:Drivers/BSP/Components/L6470/L6470.c ****   * @addtogroup L6470
  52:Drivers/BSP/Components/L6470/L6470.c ****   * @{
ARM GAS  C:\Users\ep_ygh\AppData\Local\Temp\cccpn5kX.s 			page 10


  53:Drivers/BSP/Components/L6470/L6470.c ****   */
  54:Drivers/BSP/Components/L6470/L6470.c ****     
  55:Drivers/BSP/Components/L6470/L6470.c **** /**
  56:Drivers/BSP/Components/L6470/L6470.c ****   * @defgroup   L6470_Private_Constants
  57:Drivers/BSP/Components/L6470/L6470.c ****   * @brief      L6470 Private Constants.
  58:Drivers/BSP/Components/L6470/L6470.c ****   * @{
  59:Drivers/BSP/Components/L6470/L6470.c ****   */
  60:Drivers/BSP/Components/L6470/L6470.c **** 
  61:Drivers/BSP/Components/L6470/L6470.c **** /**
  62:Drivers/BSP/Components/L6470/L6470.c ****   * @brief Array whose elements are a structure in which store information about
  63:Drivers/BSP/Components/L6470/L6470.c ****   *        the L6470 Registers (the address, the names, the length in bits, the
  64:Drivers/BSP/Components/L6470/L6470.c ****   *        reset value)
  65:Drivers/BSP/Components/L6470/L6470.c ****   */
  66:Drivers/BSP/Components/L6470/L6470.c **** const sL6470_Register_t L6470_Register[L6470REGIDSIZE] = {
  67:Drivers/BSP/Components/L6470/L6470.c ****   {0x01, "ABS_POS",    22, 3, 0x000000},  //!< Current position
  68:Drivers/BSP/Components/L6470/L6470.c ****   {0x02, "EL_POS",      9, 2, 0x000},     //!< Electrical position
  69:Drivers/BSP/Components/L6470/L6470.c ****   {0x03 , "MARK",      22, 3, 0x000000},  //!< Mark position
  70:Drivers/BSP/Components/L6470/L6470.c ****   {0x04 , "SPEED",     20, 3, 0x0000},    //!< Current speed
  71:Drivers/BSP/Components/L6470/L6470.c ****   {0x05 , "ACC",       12, 2, 0x08A},     //!< Acceleration
  72:Drivers/BSP/Components/L6470/L6470.c ****   {0x06 , "DEC",       12, 2, 0x08A},     //!< Deceleration
  73:Drivers/BSP/Components/L6470/L6470.c ****   {0x07 , "MAX_SPEED", 10, 2, 0x041},     //!< Maximum speed
  74:Drivers/BSP/Components/L6470/L6470.c ****   {0x08 , "MIN_SPEED", 13, 2, 0x000},     //!< Minimum speed
  75:Drivers/BSP/Components/L6470/L6470.c ****   {0x15 , "FS_SPD",    10, 2, 0x027},     //!< Full-step speed
  76:Drivers/BSP/Components/L6470/L6470.c ****   {0x09 , "KVAL_HOLD",  8, 1, 0x29},      //!< Holding KVAL
  77:Drivers/BSP/Components/L6470/L6470.c ****   {0x0A , "KVAL_RUN",   8, 1, 0x29},      //!< Constant speed KVAL
  78:Drivers/BSP/Components/L6470/L6470.c ****   {0x0B , "KVAL_ACC",   8, 1, 0x29},      //!< Acceleration starting KVAL
  79:Drivers/BSP/Components/L6470/L6470.c ****   {0x0C , "KVAL_DEC",   8, 1, 0x29},      //!< Deceleration starting KVAL
  80:Drivers/BSP/Components/L6470/L6470.c ****   {0x0D , "INT_SPEED", 14, 2, 0x0408},    //!< Intersect speed
  81:Drivers/BSP/Components/L6470/L6470.c ****   {0x0E , "ST_SLP",     8, 1, 0x19},      //!< Start slope
  82:Drivers/BSP/Components/L6470/L6470.c ****   {0x0F , "FN_SLP_ACC", 8, 1, 0x29},      //!< Acceleration final slope
  83:Drivers/BSP/Components/L6470/L6470.c ****   {0x10 , "FN_SLP_DEC", 8, 1, 0x29},      //!< Deceleration final slope
  84:Drivers/BSP/Components/L6470/L6470.c ****   {0x11 , "K_THERM",    4, 1, 0x0},       //!< Thermal compensation factor
  85:Drivers/BSP/Components/L6470/L6470.c ****   {0x12 , "ADC_OUT",    5, 1, 0x00},      //!< ADC output, (the reset value is according to startup
  86:Drivers/BSP/Components/L6470/L6470.c ****   {0x13 , "OCD_TH",     4, 1, 0x8},       //!< OCD threshold
  87:Drivers/BSP/Components/L6470/L6470.c ****   {0x14 , "STALL_TH",   7, 1, 0x40},      //!< STALL threshold
  88:Drivers/BSP/Components/L6470/L6470.c ****   {0x16 , "STEP_MODE",  8, 1, 0x7},       //!< Step mode
  89:Drivers/BSP/Components/L6470/L6470.c ****   {0x17 , "ALARM_EN",   8, 1, 0xFF},      //!< Alarm enable
  90:Drivers/BSP/Components/L6470/L6470.c ****   {0x18 , "CONFIG",    16, 2, 0x2E88},    //!< IC configuration
  91:Drivers/BSP/Components/L6470/L6470.c ****   {0x19 , "STATUS",    16, 2, 0x0000}     //!< Status, (the reset value is according to startup con
  92:Drivers/BSP/Components/L6470/L6470.c **** };
  93:Drivers/BSP/Components/L6470/L6470.c **** 
  94:Drivers/BSP/Components/L6470/L6470.c **** /**
  95:Drivers/BSP/Components/L6470/L6470.c ****   * @brief Array whose elements are a structure in which store information about
  96:Drivers/BSP/Components/L6470/L6470.c ****   *        the L6470 Application Commands (the mnemonic name, the number of
  97:Drivers/BSP/Components/L6470/L6470.c ****   *        needed parameters, the related funtion to call)
  98:Drivers/BSP/Components/L6470/L6470.c ****   */
  99:Drivers/BSP/Components/L6470/L6470.c **** const sL6470_ApplicationCommand_t L6470_ApplicationCommand[L6470APPCMDIDSIZE] =  {
 100:Drivers/BSP/Components/L6470/L6470.c ****   {"NOP",         0x00, 0},
 101:Drivers/BSP/Components/L6470/L6470.c ****   {"SETPARAM",    0x00, 2},
 102:Drivers/BSP/Components/L6470/L6470.c ****   {"GETPARAM",    0x20, 1},
 103:Drivers/BSP/Components/L6470/L6470.c ****   {"RUN",         0x50, 2},
 104:Drivers/BSP/Components/L6470/L6470.c ****   {"STEPCLOCK",   0x58, 1},
 105:Drivers/BSP/Components/L6470/L6470.c ****   {"MOVE",        0x40, 2},
 106:Drivers/BSP/Components/L6470/L6470.c ****   {"GOTO",        0x60, 1},
 107:Drivers/BSP/Components/L6470/L6470.c ****   {"GOTO_DIR",    0x68, 2},
 108:Drivers/BSP/Components/L6470/L6470.c ****   {"GOUNTIL",     0x82, 3},
 109:Drivers/BSP/Components/L6470/L6470.c ****   {"RELEASESW",   0x92, 2},
ARM GAS  C:\Users\ep_ygh\AppData\Local\Temp\cccpn5kX.s 			page 11


 110:Drivers/BSP/Components/L6470/L6470.c ****   {"GOHOME",      0x70, 0},
 111:Drivers/BSP/Components/L6470/L6470.c ****   {"GOMARK",      0x78, 0},
 112:Drivers/BSP/Components/L6470/L6470.c ****   {"RESETPOS",    0xD8, 0},
 113:Drivers/BSP/Components/L6470/L6470.c ****   {"RESETDEVICE", 0xC0, 0},
 114:Drivers/BSP/Components/L6470/L6470.c ****   {"SOFTSTOP",    0xB0, 0},
 115:Drivers/BSP/Components/L6470/L6470.c ****   {"HARDSTOP",    0xB8, 0},
 116:Drivers/BSP/Components/L6470/L6470.c ****   {"SOFTHIZ",     0xA0, 0},
 117:Drivers/BSP/Components/L6470/L6470.c ****   {"HARDHIZ",     0xA8, 0},
 118:Drivers/BSP/Components/L6470/L6470.c ****   {"GETSTATUS",   0xD0, 0}
 119:Drivers/BSP/Components/L6470/L6470.c **** };
 120:Drivers/BSP/Components/L6470/L6470.c **** 
 121:Drivers/BSP/Components/L6470/L6470.c **** /**
 122:Drivers/BSP/Components/L6470/L6470.c ****   * @brief The mnemonic names for the L6470 direction
 123:Drivers/BSP/Components/L6470/L6470.c ****   */
 124:Drivers/BSP/Components/L6470/L6470.c **** const sL6470_Direction_t L6470_Direction[L6470DIRIDSIZE] = {
 125:Drivers/BSP/Components/L6470/L6470.c ****   {"REV", 0x00},  //!< Reverse direction
 126:Drivers/BSP/Components/L6470/L6470.c ****   {"FWD", 0x01}   //!< Forward direction
 127:Drivers/BSP/Components/L6470/L6470.c **** };
 128:Drivers/BSP/Components/L6470/L6470.c **** 
 129:Drivers/BSP/Components/L6470/L6470.c **** /**
 130:Drivers/BSP/Components/L6470/L6470.c ****   * @brief Action taken about ABS_POS register
 131:Drivers/BSP/Components/L6470/L6470.c ****   */
 132:Drivers/BSP/Components/L6470/L6470.c **** const sL6470_ACT_t L6470_ACT[L6470ACTIDSIZE] = {
 133:Drivers/BSP/Components/L6470/L6470.c ****   {"RST", 0x00},  //!< ABS_POS register is reset
 134:Drivers/BSP/Components/L6470/L6470.c ****   {"CPY", 0x01}   //!< ABS_POS register value is copied into the MARK register
 135:Drivers/BSP/Components/L6470/L6470.c **** };
 136:Drivers/BSP/Components/L6470/L6470.c **** 
 137:Drivers/BSP/Components/L6470/L6470.c **** /**
 138:Drivers/BSP/Components/L6470/L6470.c ****   * @}
 139:Drivers/BSP/Components/L6470/L6470.c ****   */ /* End of L6470_Private_Constants */
 140:Drivers/BSP/Components/L6470/L6470.c **** 
 141:Drivers/BSP/Components/L6470/L6470.c **** /**
 142:Drivers/BSP/Components/L6470/L6470.c ****   * @defgroup   L6470_Private_Macros
 143:Drivers/BSP/Components/L6470/L6470.c ****   * @brief      L6470 Private Macros.
 144:Drivers/BSP/Components/L6470/L6470.c ****   * @{
 145:Drivers/BSP/Components/L6470/L6470.c ****   */
 146:Drivers/BSP/Components/L6470/L6470.c **** #define L6470_SPI_Communication     HAL_SPI_TransmitReceive   //!< Rename the HAL function to trans
 147:Drivers/BSP/Components/L6470/L6470.c **** #define _DELAY(TDISCS)              for(delay_cnt=0; delay_cnt<20; delay_cnt++) __NOP()   //!<Simpl
 148:Drivers/BSP/Components/L6470/L6470.c **** /**
 149:Drivers/BSP/Components/L6470/L6470.c ****   * @}
 150:Drivers/BSP/Components/L6470/L6470.c ****   */ /* End of L6470_Private_Macros */
 151:Drivers/BSP/Components/L6470/L6470.c **** 
 152:Drivers/BSP/Components/L6470/L6470.c **** /**
 153:Drivers/BSP/Components/L6470/L6470.c ****   * @defgroup   L6470_Private_Variables
 154:Drivers/BSP/Components/L6470/L6470.c ****   * @brief      L6470 Private Variables.
 155:Drivers/BSP/Components/L6470/L6470.c ****   * @{
 156:Drivers/BSP/Components/L6470/L6470.c ****   */
 157:Drivers/BSP/Components/L6470/L6470.c **** 
 158:Drivers/BSP/Components/L6470/L6470.c **** /**
 159:Drivers/BSP/Components/L6470/L6470.c ****   * @brief      L6470 Application Command
 160:Drivers/BSP/Components/L6470/L6470.c ****   */
 161:Drivers/BSP/Components/L6470/L6470.c **** StepperMotorCommand_t L6470Command =
 162:Drivers/BSP/Components/L6470/L6470.c **** {
 163:Drivers/BSP/Components/L6470/L6470.c ****   L6470_SetParam,
 164:Drivers/BSP/Components/L6470/L6470.c ****   L6470_GetParam,
 165:Drivers/BSP/Components/L6470/L6470.c ****   L6470_Run,
 166:Drivers/BSP/Components/L6470/L6470.c ****   L6470_StepClock,
ARM GAS  C:\Users\ep_ygh\AppData\Local\Temp\cccpn5kX.s 			page 12


 167:Drivers/BSP/Components/L6470/L6470.c ****   L6470_Move,
 168:Drivers/BSP/Components/L6470/L6470.c ****   L6470_GoTo,
 169:Drivers/BSP/Components/L6470/L6470.c ****   L6470_GoToDir,
 170:Drivers/BSP/Components/L6470/L6470.c ****   L6470_GoUntil,
 171:Drivers/BSP/Components/L6470/L6470.c ****   L6470_ReleaseSW,
 172:Drivers/BSP/Components/L6470/L6470.c ****   L6470_GoHome,
 173:Drivers/BSP/Components/L6470/L6470.c ****   L6470_GoMark,
 174:Drivers/BSP/Components/L6470/L6470.c ****   L6470_ResetPos,
 175:Drivers/BSP/Components/L6470/L6470.c ****   L6470_ResetDevice,
 176:Drivers/BSP/Components/L6470/L6470.c ****   L6470_SoftStop,
 177:Drivers/BSP/Components/L6470/L6470.c ****   L6470_HardStop,
 178:Drivers/BSP/Components/L6470/L6470.c ****   L6470_SoftHiZ,
 179:Drivers/BSP/Components/L6470/L6470.c ****   L6470_HardHiZ,
 180:Drivers/BSP/Components/L6470/L6470.c ****   L6470_GetStatus,
 181:Drivers/BSP/Components/L6470/L6470.c ****   L6470_PrepareSetParam,
 182:Drivers/BSP/Components/L6470/L6470.c ****   L6470_PrepareGetParam,
 183:Drivers/BSP/Components/L6470/L6470.c ****   L6470_PrepareRun,
 184:Drivers/BSP/Components/L6470/L6470.c ****   L6470_PrepareStepClock,
 185:Drivers/BSP/Components/L6470/L6470.c ****   L6470_PrepareMove,
 186:Drivers/BSP/Components/L6470/L6470.c ****   L6470_PrepareGoTo,
 187:Drivers/BSP/Components/L6470/L6470.c ****   L6470_PrepareGoToDir,
 188:Drivers/BSP/Components/L6470/L6470.c ****   L6470_PrepareGoUntil,
 189:Drivers/BSP/Components/L6470/L6470.c ****   L6470_PrepareReleaseSW,
 190:Drivers/BSP/Components/L6470/L6470.c ****   L6470_PrepareGoHome,
 191:Drivers/BSP/Components/L6470/L6470.c ****   L6470_PrepareGoMark,
 192:Drivers/BSP/Components/L6470/L6470.c ****   L6470_PrepareResetPos,
 193:Drivers/BSP/Components/L6470/L6470.c ****   L6470_PrepareResetDevice,
 194:Drivers/BSP/Components/L6470/L6470.c ****   L6470_PrepareSoftStop,
 195:Drivers/BSP/Components/L6470/L6470.c ****   L6470_PrepareHardStop,
 196:Drivers/BSP/Components/L6470/L6470.c ****   L6470_PrepareSoftHiZ,
 197:Drivers/BSP/Components/L6470/L6470.c ****   L6470_PrepareHardHiZ,
 198:Drivers/BSP/Components/L6470/L6470.c ****   L6470_PrepareGetStatus,
 199:Drivers/BSP/Components/L6470/L6470.c ****   L6470_CheckStatusRegisterFlag,
 200:Drivers/BSP/Components/L6470/L6470.c **** };
 201:Drivers/BSP/Components/L6470/L6470.c **** 
 202:Drivers/BSP/Components/L6470/L6470.c **** sL6470_AppCmdPkg_t L6470_AppCmdPkg[L6470DAISYCHAINSIZE];                             //!< To store 
 203:Drivers/BSP/Components/L6470/L6470.c **** uint8_t L6470_DaisyChainSpiTxStruct[L6470MAXSPICMDBYTESIZE][L6470DAISYCHAINSIZE];  //!< To store th
 204:Drivers/BSP/Components/L6470/L6470.c **** uint8_t L6470_DaisyChainSpiRxStruct[L6470MAXSPICMDBYTESIZE][L6470DAISYCHAINSIZE];  //!< To store th
 205:Drivers/BSP/Components/L6470/L6470.c **** eFlagStatus_t L6470_DaisyChain_HalfPrepared = ZERO_F;                                     //!< Bool
 206:Drivers/BSP/Components/L6470/L6470.c **** sL6470_StatusRegister_t L6470_StatusRegister;                                          //!< To stor
 207:Drivers/BSP/Components/L6470/L6470.c **** sL6470_StatusRegister_t *pL6470_StatusRegister = &L6470_StatusRegister;                //!< Pointer
 208:Drivers/BSP/Components/L6470/L6470.c **** uint8_t delay_cnt;                                                                    //!< To be us
 209:Drivers/BSP/Components/L6470/L6470.c **** /**
 210:Drivers/BSP/Components/L6470/L6470.c ****   * @}
 211:Drivers/BSP/Components/L6470/L6470.c ****   */ /* End of L6470_Private_Variables */
 212:Drivers/BSP/Components/L6470/L6470.c **** 
 213:Drivers/BSP/Components/L6470/L6470.c **** /* Function Prototypes -------------------------------------------------------*/
 214:Drivers/BSP/Components/L6470/L6470.c **** 
 215:Drivers/BSP/Components/L6470/L6470.c **** /**
 216:Drivers/BSP/Components/L6470/L6470.c ****   * @defgroup L6470_Private_Functions
 217:Drivers/BSP/Components/L6470/L6470.c ****   * @brief    L6470 Private Functions.
 218:Drivers/BSP/Components/L6470/L6470.c ****   * @{
 219:Drivers/BSP/Components/L6470/L6470.c ****   */
 220:Drivers/BSP/Components/L6470/L6470.c **** 
 221:Drivers/BSP/Components/L6470/L6470.c **** void L6470_ResetAppCmdPkg(sL6470_AppCmdPkg_t* pL6470_AppCmdPkg);
 222:Drivers/BSP/Components/L6470/L6470.c **** void L6470_FillAppCmdPkg(uint8_t L6470_Id, sL6470_AppCmdPkg_t* pL6470_AppCmdPkg, eL6470_AppCmdId_t 
 223:Drivers/BSP/Components/L6470/L6470.c **** void L6470_PrepareAppCmdPkg(uint8_t L6470_Id, sL6470_AppCmdPkg_t* pL6470_AppCmdPkg, eL6470_AppCmdId
ARM GAS  C:\Users\ep_ygh\AppData\Local\Temp\cccpn5kX.s 			page 13


 224:Drivers/BSP/Components/L6470/L6470.c **** void L6470_PrepareDaisyChainCommand(sL6470_AppCmdPkg_t* pL6470_AppCmdPkg, uint8_t* pL6470_DaisyChai
 225:Drivers/BSP/Components/L6470/L6470.c **** 
 226:Drivers/BSP/Components/L6470/L6470.c **** /**
 227:Drivers/BSP/Components/L6470/L6470.c ****   * @}
 228:Drivers/BSP/Components/L6470/L6470.c ****   */ /* End of L6470_Private_Functions */
 229:Drivers/BSP/Components/L6470/L6470.c **** 
 230:Drivers/BSP/Components/L6470/L6470.c **** /**
 231:Drivers/BSP/Components/L6470/L6470.c ****   * @addtogroup L6470_Private_Functions
 232:Drivers/BSP/Components/L6470/L6470.c ****   * @{
 233:Drivers/BSP/Components/L6470/L6470.c ****   */
 234:Drivers/BSP/Components/L6470/L6470.c **** 
 235:Drivers/BSP/Components/L6470/L6470.c **** /**
 236:Drivers/BSP/Components/L6470/L6470.c ****   * @brief  Reset the structure used to store the identifier of the L6470
 237:Drivers/BSP/Components/L6470/L6470.c ****   *         application command and its the needed parameters.
 238:Drivers/BSP/Components/L6470/L6470.c ****   * @param  L6470_AppCmdPkg   The structure to be reset.
 239:Drivers/BSP/Components/L6470/L6470.c ****   */
 240:Drivers/BSP/Components/L6470/L6470.c **** void L6470_ResetAppCmdPkg(sL6470_AppCmdPkg_t* pL6470_AppCmdPkg)
 241:Drivers/BSP/Components/L6470/L6470.c **** {
 403              		.loc 1 241 1
 404              		.cfi_startproc
 405              		@ args = 0, pretend = 0, frame = 16
 406              		@ frame_needed = 1, uses_anonymous_args = 0
 407              		@ link register save eliminated.
 408 0000 80B4     		push	{r7}
 409              	.LCFI0:
 410              		.cfi_def_cfa_offset 4
 411              		.cfi_offset 7, -4
 412 0002 85B0     		sub	sp, sp, #20
 413              	.LCFI1:
 414              		.cfi_def_cfa_offset 24
 415 0004 00AF     		add	r7, sp, #0
 416              	.LCFI2:
 417              		.cfi_def_cfa_register 7
 418 0006 7860     		str	r0, [r7, #4]
 242:Drivers/BSP/Components/L6470/L6470.c ****   uint8_t id;
 243:Drivers/BSP/Components/L6470/L6470.c ****   
 244:Drivers/BSP/Components/L6470/L6470.c ****   for(id=0; id<L6470DAISYCHAINSIZE; id++)
 419              		.loc 1 244 9
 420 0008 0023     		movs	r3, #0
 421 000a FB73     		strb	r3, [r7, #15]
 422              		.loc 1 244 3
 423 000c 1AE0     		b	.L2
 424              	.L3:
 245:Drivers/BSP/Components/L6470/L6470.c ****   {
 246:Drivers/BSP/Components/L6470/L6470.c ****     (pL6470_AppCmdPkg+id)->L6470_AppCmdId=(eL6470_AppCmdId_t)0;
 425              		.loc 1 246 22 discriminator 3
 426 000e FB7B     		ldrb	r3, [r7, #15]	@ zero_extendqisi2
 427 0010 1B01     		lsls	r3, r3, #4
 428 0012 7A68     		ldr	r2, [r7, #4]
 429 0014 1344     		add	r3, r3, r2
 430              		.loc 1 246 42 discriminator 3
 431 0016 0022     		movs	r2, #0
 432 0018 1A70     		strb	r2, [r3]
 247:Drivers/BSP/Components/L6470/L6470.c ****     (pL6470_AppCmdPkg+id)->p1=0;
 433              		.loc 1 247 22 discriminator 3
 434 001a FB7B     		ldrb	r3, [r7, #15]	@ zero_extendqisi2
 435 001c 1B01     		lsls	r3, r3, #4
ARM GAS  C:\Users\ep_ygh\AppData\Local\Temp\cccpn5kX.s 			page 14


 436 001e 7A68     		ldr	r2, [r7, #4]
 437 0020 1344     		add	r3, r3, r2
 438              		.loc 1 247 30 discriminator 3
 439 0022 0022     		movs	r2, #0
 440 0024 5A60     		str	r2, [r3, #4]
 248:Drivers/BSP/Components/L6470/L6470.c ****     (pL6470_AppCmdPkg+id)->p2=0;
 441              		.loc 1 248 22 discriminator 3
 442 0026 FB7B     		ldrb	r3, [r7, #15]	@ zero_extendqisi2
 443 0028 1B01     		lsls	r3, r3, #4
 444 002a 7A68     		ldr	r2, [r7, #4]
 445 002c 1344     		add	r3, r3, r2
 446              		.loc 1 248 30 discriminator 3
 447 002e 0022     		movs	r2, #0
 448 0030 9A60     		str	r2, [r3, #8]
 249:Drivers/BSP/Components/L6470/L6470.c ****     (pL6470_AppCmdPkg+id)->p3=0;
 449              		.loc 1 249 22 discriminator 3
 450 0032 FB7B     		ldrb	r3, [r7, #15]	@ zero_extendqisi2
 451 0034 1B01     		lsls	r3, r3, #4
 452 0036 7A68     		ldr	r2, [r7, #4]
 453 0038 1344     		add	r3, r3, r2
 454              		.loc 1 249 30 discriminator 3
 455 003a 0022     		movs	r2, #0
 456 003c DA60     		str	r2, [r3, #12]
 244:Drivers/BSP/Components/L6470/L6470.c ****   {
 457              		.loc 1 244 39 discriminator 3
 458 003e FB7B     		ldrb	r3, [r7, #15]	@ zero_extendqisi2
 459 0040 0133     		adds	r3, r3, #1
 460 0042 FB73     		strb	r3, [r7, #15]
 461              	.L2:
 244:Drivers/BSP/Components/L6470/L6470.c ****   {
 462              		.loc 1 244 3 discriminator 1
 463 0044 FB7B     		ldrb	r3, [r7, #15]	@ zero_extendqisi2
 464 0046 012B     		cmp	r3, #1
 465 0048 E1D9     		bls	.L3
 250:Drivers/BSP/Components/L6470/L6470.c ****   }
 251:Drivers/BSP/Components/L6470/L6470.c **** }
 466              		.loc 1 251 1
 467 004a 00BF     		nop
 468 004c 00BF     		nop
 469 004e 1437     		adds	r7, r7, #20
 470              	.LCFI3:
 471              		.cfi_def_cfa_offset 4
 472 0050 BD46     		mov	sp, r7
 473              	.LCFI4:
 474              		.cfi_def_cfa_register 13
 475              		@ sp needed
 476 0052 5DF8047B 		ldr	r7, [sp], #4
 477              	.LCFI5:
 478              		.cfi_restore 7
 479              		.cfi_def_cfa_offset 0
 480 0056 7047     		bx	lr
 481              		.cfi_endproc
 482              	.LFE128:
 484              		.section	.text.L6470_FillAppCmdPkg,"ax",%progbits
 485              		.align	1
 486              		.global	L6470_FillAppCmdPkg
 487              		.syntax unified
ARM GAS  C:\Users\ep_ygh\AppData\Local\Temp\cccpn5kX.s 			page 15


 488              		.thumb
 489              		.thumb_func
 491              	L6470_FillAppCmdPkg:
 492              	.LFB129:
 252:Drivers/BSP/Components/L6470/L6470.c **** 
 253:Drivers/BSP/Components/L6470/L6470.c **** /**
 254:Drivers/BSP/Components/L6470/L6470.c ****   * @brief  Fill the structure used to store the identifier of the L6470
 255:Drivers/BSP/Components/L6470/L6470.c ****   *         application command and its the needed parameters.
 256:Drivers/BSP/Components/L6470/L6470.c ****   * @param  L6470_Id          The identifier of the L6470 target inside the daisy chain.
 257:Drivers/BSP/Components/L6470/L6470.c ****   * @param  L6470_AppCmdPkg   The structure to be filled.
 258:Drivers/BSP/Components/L6470/L6470.c ****   * @param  L6470_AppCmdId    The identifier of the L6470 application command to be sent.
 259:Drivers/BSP/Components/L6470/L6470.c ****   * @param  p1                The 1st parameter (if it is not needed it will be not considered).
 260:Drivers/BSP/Components/L6470/L6470.c ****   * @param  p2                The 2nd parameter (if it is not needed it will be not considered).
 261:Drivers/BSP/Components/L6470/L6470.c ****   * @param  p3                The 3rd parameter (if it is not needed it will be not considered).
 262:Drivers/BSP/Components/L6470/L6470.c ****   */
 263:Drivers/BSP/Components/L6470/L6470.c **** void L6470_FillAppCmdPkg(uint8_t L6470_Id, sL6470_AppCmdPkg_t* pL6470_AppCmdPkg, eL6470_AppCmdId_t 
 264:Drivers/BSP/Components/L6470/L6470.c **** {
 493              		.loc 1 264 1
 494              		.cfi_startproc
 495              		@ args = 8, pretend = 0, frame = 16
 496              		@ frame_needed = 1, uses_anonymous_args = 0
 497              		@ link register save eliminated.
 498 0000 80B4     		push	{r7}
 499              	.LCFI6:
 500              		.cfi_def_cfa_offset 4
 501              		.cfi_offset 7, -4
 502 0002 85B0     		sub	sp, sp, #20
 503              	.LCFI7:
 504              		.cfi_def_cfa_offset 24
 505 0004 00AF     		add	r7, sp, #0
 506              	.LCFI8:
 507              		.cfi_def_cfa_register 7
 508 0006 B960     		str	r1, [r7, #8]
 509 0008 7B60     		str	r3, [r7, #4]
 510 000a 0346     		mov	r3, r0
 511 000c FB73     		strb	r3, [r7, #15]
 512 000e 1346     		mov	r3, r2
 513 0010 BB73     		strb	r3, [r7, #14]
 265:Drivers/BSP/Components/L6470/L6470.c ****   (pL6470_AppCmdPkg+L6470_Id)->L6470_AppCmdId = L6470_AppCmdId;
 514              		.loc 1 265 20
 515 0012 FB7B     		ldrb	r3, [r7, #15]	@ zero_extendqisi2
 516 0014 1B01     		lsls	r3, r3, #4
 517 0016 BA68     		ldr	r2, [r7, #8]
 518 0018 1344     		add	r3, r3, r2
 519              		.loc 1 265 47
 520 001a BA7B     		ldrb	r2, [r7, #14]
 521 001c 1A70     		strb	r2, [r3]
 266:Drivers/BSP/Components/L6470/L6470.c ****   (pL6470_AppCmdPkg+L6470_Id)->p1 = p1;
 522              		.loc 1 266 20
 523 001e FB7B     		ldrb	r3, [r7, #15]	@ zero_extendqisi2
 524 0020 1B01     		lsls	r3, r3, #4
 525 0022 BA68     		ldr	r2, [r7, #8]
 526 0024 1344     		add	r3, r3, r2
 527              		.loc 1 266 35
 528 0026 7A68     		ldr	r2, [r7, #4]
 529 0028 5A60     		str	r2, [r3, #4]
 267:Drivers/BSP/Components/L6470/L6470.c ****   (pL6470_AppCmdPkg+L6470_Id)->p2 = p2;
ARM GAS  C:\Users\ep_ygh\AppData\Local\Temp\cccpn5kX.s 			page 16


 530              		.loc 1 267 20
 531 002a FB7B     		ldrb	r3, [r7, #15]	@ zero_extendqisi2
 532 002c 1B01     		lsls	r3, r3, #4
 533 002e BA68     		ldr	r2, [r7, #8]
 534 0030 1344     		add	r3, r3, r2
 535              		.loc 1 267 35
 536 0032 BA69     		ldr	r2, [r7, #24]
 537 0034 9A60     		str	r2, [r3, #8]
 268:Drivers/BSP/Components/L6470/L6470.c ****   (pL6470_AppCmdPkg+L6470_Id)->p3 = p3;
 538              		.loc 1 268 20
 539 0036 FB7B     		ldrb	r3, [r7, #15]	@ zero_extendqisi2
 540 0038 1B01     		lsls	r3, r3, #4
 541 003a BA68     		ldr	r2, [r7, #8]
 542 003c 1344     		add	r3, r3, r2
 543              		.loc 1 268 35
 544 003e FA69     		ldr	r2, [r7, #28]
 545 0040 DA60     		str	r2, [r3, #12]
 269:Drivers/BSP/Components/L6470/L6470.c **** }
 546              		.loc 1 269 1
 547 0042 00BF     		nop
 548 0044 1437     		adds	r7, r7, #20
 549              	.LCFI9:
 550              		.cfi_def_cfa_offset 4
 551 0046 BD46     		mov	sp, r7
 552              	.LCFI10:
 553              		.cfi_def_cfa_register 13
 554              		@ sp needed
 555 0048 5DF8047B 		ldr	r7, [sp], #4
 556              	.LCFI11:
 557              		.cfi_restore 7
 558              		.cfi_def_cfa_offset 0
 559 004c 7047     		bx	lr
 560              		.cfi_endproc
 561              	.LFE129:
 563              		.section	.text.L6470_PrepareAppCmdPkg,"ax",%progbits
 564              		.align	1
 565              		.global	L6470_PrepareAppCmdPkg
 566              		.syntax unified
 567              		.thumb
 568              		.thumb_func
 570              	L6470_PrepareAppCmdPkg:
 571              	.LFB130:
 270:Drivers/BSP/Components/L6470/L6470.c **** 
 271:Drivers/BSP/Components/L6470/L6470.c **** /**
 272:Drivers/BSP/Components/L6470/L6470.c ****   * @brief  This function will fill the column of the L6470_AppCmdPkg related
 273:Drivers/BSP/Components/L6470/L6470.c ****   *         the L6470 to be addressed inside the daisy chain.
 274:Drivers/BSP/Components/L6470/L6470.c ****   *
 275:Drivers/BSP/Components/L6470/L6470.c ****   * @param  L6470_Id          The identifier of the L6470 target inside the daisy chain.
 276:Drivers/BSP/Components/L6470/L6470.c ****   * @param  pL6470_AppCmdPkg  Pointer to the sL6470_AppCmdPkg_t to be filled.
 277:Drivers/BSP/Components/L6470/L6470.c ****   * @param  L6470_AppCmdId    The identifier of the L6470 application command to be sent.
 278:Drivers/BSP/Components/L6470/L6470.c ****   * @param  p1                The 1st parameter (if it is not needed it will be not considered).
 279:Drivers/BSP/Components/L6470/L6470.c ****   * @param  p2                The 2nd parameter (if it is not needed it will be not considered).
 280:Drivers/BSP/Components/L6470/L6470.c ****   * @param  p3                The 3rd parameter (if it is not needed it will be not considered).
 281:Drivers/BSP/Components/L6470/L6470.c ****   */
 282:Drivers/BSP/Components/L6470/L6470.c **** void L6470_PrepareAppCmdPkg(uint8_t L6470_Id, sL6470_AppCmdPkg_t* pL6470_AppCmdPkg, eL6470_AppCmdId
 283:Drivers/BSP/Components/L6470/L6470.c **** {
 572              		.loc 1 283 1
ARM GAS  C:\Users\ep_ygh\AppData\Local\Temp\cccpn5kX.s 			page 17


 573              		.cfi_startproc
 574              		@ args = 8, pretend = 0, frame = 16
 575              		@ frame_needed = 1, uses_anonymous_args = 0
 576 0000 80B5     		push	{r7, lr}
 577              	.LCFI12:
 578              		.cfi_def_cfa_offset 8
 579              		.cfi_offset 7, -8
 580              		.cfi_offset 14, -4
 581 0002 86B0     		sub	sp, sp, #24
 582              	.LCFI13:
 583              		.cfi_def_cfa_offset 32
 584 0004 02AF     		add	r7, sp, #8
 585              	.LCFI14:
 586              		.cfi_def_cfa 7, 24
 587 0006 B960     		str	r1, [r7, #8]
 588 0008 7B60     		str	r3, [r7, #4]
 589 000a 0346     		mov	r3, r0
 590 000c FB73     		strb	r3, [r7, #15]
 591 000e 1346     		mov	r3, r2
 592 0010 BB73     		strb	r3, [r7, #14]
 284:Drivers/BSP/Components/L6470/L6470.c ****   if(!L6470_DaisyChain_HalfPrepared)
 593              		.loc 1 284 6
 594 0012 0C4B     		ldr	r3, .L7
 595 0014 1B78     		ldrb	r3, [r3]	@ zero_extendqisi2
 596              		.loc 1 284 5
 597 0016 002B     		cmp	r3, #0
 598 0018 05D1     		bne	.L6
 285:Drivers/BSP/Components/L6470/L6470.c ****   {
 286:Drivers/BSP/Components/L6470/L6470.c ****     L6470_DaisyChain_HalfPrepared = ONE_F; /* To avoid to delete the previous entered command */
 599              		.loc 1 286 35
 600 001a 0A4B     		ldr	r3, .L7
 601 001c 0122     		movs	r2, #1
 602 001e 1A70     		strb	r2, [r3]
 287:Drivers/BSP/Components/L6470/L6470.c ****     L6470_ResetAppCmdPkg(pL6470_AppCmdPkg);
 603              		.loc 1 287 5
 604 0020 B868     		ldr	r0, [r7, #8]
 605 0022 FFF7FEFF 		bl	L6470_ResetAppCmdPkg
 606              	.L6:
 288:Drivers/BSP/Components/L6470/L6470.c ****   }
 289:Drivers/BSP/Components/L6470/L6470.c ****   
 290:Drivers/BSP/Components/L6470/L6470.c ****   L6470_FillAppCmdPkg(L6470_Id, pL6470_AppCmdPkg, L6470_AppCmdId, p1, p2, p3);
 607              		.loc 1 290 3
 608 0026 BA7B     		ldrb	r2, [r7, #14]	@ zero_extendqisi2
 609 0028 F87B     		ldrb	r0, [r7, #15]	@ zero_extendqisi2
 610 002a FB69     		ldr	r3, [r7, #28]
 611 002c 0193     		str	r3, [sp, #4]
 612 002e BB69     		ldr	r3, [r7, #24]
 613 0030 0093     		str	r3, [sp]
 614 0032 7B68     		ldr	r3, [r7, #4]
 615 0034 B968     		ldr	r1, [r7, #8]
 616 0036 FFF7FEFF 		bl	L6470_FillAppCmdPkg
 291:Drivers/BSP/Components/L6470/L6470.c **** }
 617              		.loc 1 291 1
 618 003a 00BF     		nop
 619 003c 1037     		adds	r7, r7, #16
 620              	.LCFI15:
 621              		.cfi_def_cfa_offset 8
ARM GAS  C:\Users\ep_ygh\AppData\Local\Temp\cccpn5kX.s 			page 18


 622 003e BD46     		mov	sp, r7
 623              	.LCFI16:
 624              		.cfi_def_cfa_register 13
 625              		@ sp needed
 626 0040 80BD     		pop	{r7, pc}
 627              	.L8:
 628 0042 00BF     		.align	2
 629              	.L7:
 630 0044 00000000 		.word	L6470_DaisyChain_HalfPrepared
 631              		.cfi_endproc
 632              	.LFE130:
 634              		.section	.text.L6470_PrepareDaisyChainCommand,"ax",%progbits
 635              		.align	1
 636              		.global	L6470_PrepareDaisyChainCommand
 637              		.syntax unified
 638              		.thumb
 639              		.thumb_func
 641              	L6470_PrepareDaisyChainCommand:
 642              	.LFB131:
 292:Drivers/BSP/Components/L6470/L6470.c **** 
 293:Drivers/BSP/Components/L6470/L6470.c **** /**
 294:Drivers/BSP/Components/L6470/L6470.c ****   * @brief  This function will translate the data inside the L6470_AppCmdPkg into
 295:Drivers/BSP/Components/L6470/L6470.c ****   *         the right data to be sent via SPI to the L6470 daisy chain.
 296:Drivers/BSP/Components/L6470/L6470.c ****   *
 297:Drivers/BSP/Components/L6470/L6470.c ****   * @param  pL6470_AppCmdPkg              Pointer to the sL6470_AppCmdPkg_t to be filled.
 298:Drivers/BSP/Components/L6470/L6470.c ****   * @param  pL6470_DaisyChainSpiTxStruct  Pointer to the structure used by SPI to send the commands
 299:Drivers/BSP/Components/L6470/L6470.c ****   */
 300:Drivers/BSP/Components/L6470/L6470.c **** void L6470_PrepareDaisyChainCommand(sL6470_AppCmdPkg_t* pL6470_AppCmdPkg, uint8_t* pL6470_DaisyChai
 301:Drivers/BSP/Components/L6470/L6470.c **** {
 643              		.loc 1 301 1
 644              		.cfi_startproc
 645              		@ args = 0, pretend = 0, frame = 16
 646              		@ frame_needed = 1, uses_anonymous_args = 0
 647              		@ link register save eliminated.
 648 0000 80B4     		push	{r7}
 649              	.LCFI17:
 650              		.cfi_def_cfa_offset 4
 651              		.cfi_offset 7, -4
 652 0002 85B0     		sub	sp, sp, #20
 653              	.LCFI18:
 654              		.cfi_def_cfa_offset 24
 655 0004 00AF     		add	r7, sp, #0
 656              	.LCFI19:
 657              		.cfi_def_cfa_register 7
 658 0006 7860     		str	r0, [r7, #4]
 659 0008 3960     		str	r1, [r7]
 302:Drivers/BSP/Components/L6470/L6470.c ****   uint8_t PkgId;
 303:Drivers/BSP/Components/L6470/L6470.c ****   uint8_t PARAMLengthBytes; /* The number of bytes related to the numeric value for the addressed r
 304:Drivers/BSP/Components/L6470/L6470.c ****   uint8_t spibyte;
 305:Drivers/BSP/Components/L6470/L6470.c ****   uint8_t i;
 306:Drivers/BSP/Components/L6470/L6470.c ****   
 307:Drivers/BSP/Components/L6470/L6470.c ****   /* Reset the structure used to send the command to the L6470 Daisy Chain through the SPI */
 308:Drivers/BSP/Components/L6470/L6470.c ****   i = 0;
 660              		.loc 1 308 5
 661 000a 0023     		movs	r3, #0
 662 000c 7B73     		strb	r3, [r7, #13]
 309:Drivers/BSP/Components/L6470/L6470.c ****   for(spibyte=0;spibyte<L6470MAXSPICMDBYTESIZE;spibyte++)
ARM GAS  C:\Users\ep_ygh\AppData\Local\Temp\cccpn5kX.s 			page 19


 663              		.loc 1 309 14
 664 000e 0023     		movs	r3, #0
 665 0010 BB73     		strb	r3, [r7, #14]
 666              		.loc 1 309 3
 667 0012 13E0     		b	.L10
 668              	.L13:
 310:Drivers/BSP/Components/L6470/L6470.c ****     for(PkgId=0; PkgId<L6470DAISYCHAINSIZE; PkgId++)
 669              		.loc 1 310 14
 670 0014 0023     		movs	r3, #0
 671 0016 FB73     		strb	r3, [r7, #15]
 672              		.loc 1 310 5
 673 0018 0AE0     		b	.L11
 674              	.L12:
 311:Drivers/BSP/Components/L6470/L6470.c ****       *(pL6470_DaisyChainSpiTxStruct+(i++)) = 0x00;
 675              		.loc 1 311 40 discriminator 3
 676 001a 7B7B     		ldrb	r3, [r7, #13]	@ zero_extendqisi2
 677 001c 5A1C     		adds	r2, r3, #1
 678 001e 7A73     		strb	r2, [r7, #13]
 679 0020 1A46     		mov	r2, r3
 680              		.loc 1 311 37 discriminator 3
 681 0022 3B68     		ldr	r3, [r7]
 682 0024 1344     		add	r3, r3, r2
 683              		.loc 1 311 45 discriminator 3
 684 0026 0022     		movs	r2, #0
 685 0028 1A70     		strb	r2, [r3]
 310:Drivers/BSP/Components/L6470/L6470.c ****     for(PkgId=0; PkgId<L6470DAISYCHAINSIZE; PkgId++)
 686              		.loc 1 310 50 discriminator 3
 687 002a FB7B     		ldrb	r3, [r7, #15]	@ zero_extendqisi2
 688 002c 0133     		adds	r3, r3, #1
 689 002e FB73     		strb	r3, [r7, #15]
 690              	.L11:
 310:Drivers/BSP/Components/L6470/L6470.c ****     for(PkgId=0; PkgId<L6470DAISYCHAINSIZE; PkgId++)
 691              		.loc 1 310 5 discriminator 1
 692 0030 FB7B     		ldrb	r3, [r7, #15]	@ zero_extendqisi2
 693 0032 012B     		cmp	r3, #1
 694 0034 F1D9     		bls	.L12
 309:Drivers/BSP/Components/L6470/L6470.c ****   for(spibyte=0;spibyte<L6470MAXSPICMDBYTESIZE;spibyte++)
 695              		.loc 1 309 55 discriminator 2
 696 0036 BB7B     		ldrb	r3, [r7, #14]	@ zero_extendqisi2
 697 0038 0133     		adds	r3, r3, #1
 698 003a BB73     		strb	r3, [r7, #14]
 699              	.L10:
 309:Drivers/BSP/Components/L6470/L6470.c ****   for(spibyte=0;spibyte<L6470MAXSPICMDBYTESIZE;spibyte++)
 700              		.loc 1 309 3 discriminator 1
 701 003c BB7B     		ldrb	r3, [r7, #14]	@ zero_extendqisi2
 702 003e 032B     		cmp	r3, #3
 703 0040 E8D9     		bls	.L13
 312:Drivers/BSP/Components/L6470/L6470.c ****   
 313:Drivers/BSP/Components/L6470/L6470.c ****   for(PkgId=0; PkgId<L6470DAISYCHAINSIZE; PkgId++)
 704              		.loc 1 313 12
 705 0042 0023     		movs	r3, #0
 706 0044 FB73     		strb	r3, [r7, #15]
 707              		.loc 1 313 3
 708 0046 F6E1     		b	.L14
 709              	.L48:
 314:Drivers/BSP/Components/L6470/L6470.c ****   {
 315:Drivers/BSP/Components/L6470/L6470.c ****     /* Build the 1st bytes to transmit with the binary code of the command */
ARM GAS  C:\Users\ep_ygh\AppData\Local\Temp\cccpn5kX.s 			page 20


 316:Drivers/BSP/Components/L6470/L6470.c ****     *(pL6470_DaisyChainSpiTxStruct+((0*L6470DAISYCHAINSIZE)+PkgId)) = (L6470_ApplicationCommand[(pL
 710              		.loc 1 316 114
 711 0048 FB7B     		ldrb	r3, [r7, #15]	@ zero_extendqisi2
 712 004a 1B01     		lsls	r3, r3, #4
 713 004c 7A68     		ldr	r2, [r7, #4]
 714 004e 1344     		add	r3, r3, r2
 715              		.loc 1 316 121
 716 0050 1B78     		ldrb	r3, [r3]	@ zero_extendqisi2
 717 0052 1846     		mov	r0, r3
 718              		.loc 1 316 60
 719 0054 FB7B     		ldrb	r3, [r7, #15]	@ zero_extendqisi2
 720              		.loc 1 316 35
 721 0056 3A68     		ldr	r2, [r7]
 722 0058 1A44     		add	r2, r2, r3
 723              		.loc 1 316 138
 724 005a A549     		ldr	r1, .L49
 725 005c 0346     		mov	r3, r0
 726 005e DB00     		lsls	r3, r3, #3
 727 0060 1B1A     		subs	r3, r3, r0
 728 0062 5B00     		lsls	r3, r3, #1
 729 0064 0B44     		add	r3, r3, r1
 730 0066 0C33     		adds	r3, r3, #12
 731 0068 1B78     		ldrb	r3, [r3]	@ zero_extendqisi2
 732              		.loc 1 316 69
 733 006a 1370     		strb	r3, [r2]
 317:Drivers/BSP/Components/L6470/L6470.c ****     
 318:Drivers/BSP/Components/L6470/L6470.c ****     /* Perform the related L6470_AppCmdId */
 319:Drivers/BSP/Components/L6470/L6470.c ****     switch((pL6470_AppCmdPkg+PkgId)->L6470_AppCmdId)
 734              		.loc 1 319 29
 735 006c FB7B     		ldrb	r3, [r7, #15]	@ zero_extendqisi2
 736 006e 1B01     		lsls	r3, r3, #4
 737 0070 7A68     		ldr	r2, [r7, #4]
 738 0072 1344     		add	r3, r3, r2
 739              		.loc 1 319 36
 740 0074 1B78     		ldrb	r3, [r3]	@ zero_extendqisi2
 741              		.loc 1 319 5
 742 0076 122B     		cmp	r3, #18
 743 0078 00F2DA81 		bhi	.L15
 744 007c 01A2     		adr	r2, .L17
 745 007e 52F823F0 		ldr	pc, [r2, r3, lsl #2]
 746 0082 00BF     		.p2align 2
 747              	.L17:
 748 0084 31040000 		.word	.L15+1
 749 0088 D1000000 		.word	.L34+1
 750 008c 57010000 		.word	.L33+1
 751 0090 85010000 		.word	.L32+1
 752 0094 ED010000 		.word	.L31+1
 753 0098 1B020000 		.word	.L30+1
 754 009c 83020000 		.word	.L29+1
 755 00a0 BF020000 		.word	.L28+1
 756 00a4 33030000 		.word	.L27+1
 757 00a8 CF030000 		.word	.L26+1
 758 00ac 31040000 		.word	.L15+1
 759 00b0 31040000 		.word	.L15+1
 760 00b4 31040000 		.word	.L15+1
 761 00b8 31040000 		.word	.L15+1
 762 00bc 31040000 		.word	.L15+1
ARM GAS  C:\Users\ep_ygh\AppData\Local\Temp\cccpn5kX.s 			page 21


 763 00c0 31040000 		.word	.L15+1
 764 00c4 31040000 		.word	.L15+1
 765 00c8 31040000 		.word	.L15+1
 766 00cc 31040000 		.word	.L15+1
 767              		.p2align 1
 768              	.L34:
 320:Drivers/BSP/Components/L6470/L6470.c ****     {
 321:Drivers/BSP/Components/L6470/L6470.c ****     case L6470_NOP_ID:
 322:Drivers/BSP/Components/L6470/L6470.c ****       break;
 323:Drivers/BSP/Components/L6470/L6470.c ****     case L6470_SETPARAM_ID:
 324:Drivers/BSP/Components/L6470/L6470.c ****       /* Build the 1st bytes to transmit (PARAM) */
 325:Drivers/BSP/Components/L6470/L6470.c ****       *(pL6470_DaisyChainSpiTxStruct+((0*L6470DAISYCHAINSIZE)+PkgId)) |= (L6470_Register[((pL6470_A
 769              		.loc 1 325 71
 770 00d0 FB7B     		ldrb	r3, [r7, #15]	@ zero_extendqisi2
 771 00d2 3A68     		ldr	r2, [r7]
 772 00d4 1344     		add	r3, r3, r2
 773 00d6 1978     		ldrb	r1, [r3]	@ zero_extendqisi2
 774              		.loc 1 325 108
 775 00d8 FB7B     		ldrb	r3, [r7, #15]	@ zero_extendqisi2
 776 00da 1B01     		lsls	r3, r3, #4
 777 00dc 7A68     		ldr	r2, [r7, #4]
 778 00de 1344     		add	r3, r3, r2
 779              		.loc 1 325 115
 780 00e0 5A68     		ldr	r2, [r3, #4]
 781              		.loc 1 325 121
 782 00e2 8448     		ldr	r0, .L49+4
 783 00e4 1346     		mov	r3, r2
 784 00e6 9B00     		lsls	r3, r3, #2
 785 00e8 1344     		add	r3, r3, r2
 786 00ea 9B00     		lsls	r3, r3, #2
 787 00ec 0344     		add	r3, r3, r0
 788 00ee 1A78     		ldrb	r2, [r3]	@ zero_extendqisi2
 789              		.loc 1 325 71
 790 00f0 FB7B     		ldrb	r3, [r7, #15]	@ zero_extendqisi2
 791 00f2 3868     		ldr	r0, [r7]
 792 00f4 0344     		add	r3, r3, r0
 793 00f6 0A43     		orrs	r2, r2, r1
 794 00f8 D2B2     		uxtb	r2, r2
 795 00fa 1A70     		strb	r2, [r3]
 326:Drivers/BSP/Components/L6470/L6470.c ****       
 327:Drivers/BSP/Components/L6470/L6470.c ****       /* The length, in byte, of this register (PARAM) is... */
 328:Drivers/BSP/Components/L6470/L6470.c ****       PARAMLengthBytes = L6470_Register[((pL6470_AppCmdPkg+PkgId)->p1)].LengthByte;
 796              		.loc 1 328 59
 797 00fc FB7B     		ldrb	r3, [r7, #15]	@ zero_extendqisi2
 798 00fe 1B01     		lsls	r3, r3, #4
 799 0100 7A68     		ldr	r2, [r7, #4]
 800 0102 1344     		add	r3, r3, r2
 801              		.loc 1 328 66
 802 0104 5A68     		ldr	r2, [r3, #4]
 803              		.loc 1 328 24
 804 0106 7B49     		ldr	r1, .L49+4
 805 0108 1346     		mov	r3, r2
 806 010a 9B00     		lsls	r3, r3, #2
 807 010c 1344     		add	r3, r3, r2
 808 010e 9B00     		lsls	r3, r3, #2
 809 0110 0B44     		add	r3, r3, r1
 810 0112 0E33     		adds	r3, r3, #14
ARM GAS  C:\Users\ep_ygh\AppData\Local\Temp\cccpn5kX.s 			page 22


 811 0114 1B78     		ldrb	r3, [r3]
 812 0116 3B73     		strb	r3, [r7, #12]
 329:Drivers/BSP/Components/L6470/L6470.c ****       
 330:Drivers/BSP/Components/L6470/L6470.c ****       /* Build the others bytes to transmit (VALUE) */
 331:Drivers/BSP/Components/L6470/L6470.c ****       for (spibyte=1; spibyte<(PARAMLengthBytes+1); spibyte++)
 813              		.loc 1 331 19
 814 0118 0123     		movs	r3, #1
 815 011a BB73     		strb	r3, [r7, #14]
 816              		.loc 1 331 7
 817 011c 16E0     		b	.L36
 818              	.L37:
 332:Drivers/BSP/Components/L6470/L6470.c ****       {
 333:Drivers/BSP/Components/L6470/L6470.c ****         *(pL6470_DaisyChainSpiTxStruct+((spibyte*L6470DAISYCHAINSIZE)+PkgId)) = (uint8_t)(((pL6470_
 819              		.loc 1 333 109 discriminator 3
 820 011e FB7B     		ldrb	r3, [r7, #15]	@ zero_extendqisi2
 821 0120 1B01     		lsls	r3, r3, #4
 822 0122 7A68     		ldr	r2, [r7, #4]
 823 0124 1344     		add	r3, r3, r2
 824              		.loc 1 333 116 discriminator 3
 825 0126 9A68     		ldr	r2, [r3, #8]
 826              		.loc 1 333 145 discriminator 3
 827 0128 397B     		ldrb	r1, [r7, #12]	@ zero_extendqisi2
 828 012a BB7B     		ldrb	r3, [r7, #14]	@ zero_extendqisi2
 829 012c CB1A     		subs	r3, r1, r3
 830              		.loc 1 333 127 discriminator 3
 831 012e DB00     		lsls	r3, r3, #3
 832              		.loc 1 333 122 discriminator 3
 833 0130 22FA03F1 		lsr	r1, r2, r3
 834              		.loc 1 333 49 discriminator 3
 835 0134 BB7B     		ldrb	r3, [r7, #14]	@ zero_extendqisi2
 836 0136 5A00     		lsls	r2, r3, #1
 837              		.loc 1 333 70 discriminator 3
 838 0138 FB7B     		ldrb	r3, [r7, #15]	@ zero_extendqisi2
 839 013a 1344     		add	r3, r3, r2
 840 013c 1A46     		mov	r2, r3
 841              		.loc 1 333 39 discriminator 3
 842 013e 3B68     		ldr	r3, [r7]
 843 0140 1344     		add	r3, r3, r2
 844              		.loc 1 333 81 discriminator 3
 845 0142 CAB2     		uxtb	r2, r1
 846              		.loc 1 333 79 discriminator 3
 847 0144 1A70     		strb	r2, [r3]
 331:Drivers/BSP/Components/L6470/L6470.c ****       {
 848              		.loc 1 331 60 discriminator 3
 849 0146 BB7B     		ldrb	r3, [r7, #14]	@ zero_extendqisi2
 850 0148 0133     		adds	r3, r3, #1
 851 014a BB73     		strb	r3, [r7, #14]
 852              	.L36:
 331:Drivers/BSP/Components/L6470/L6470.c ****       {
 853              		.loc 1 331 7 discriminator 1
 854 014c 3A7B     		ldrb	r2, [r7, #12]	@ zero_extendqisi2
 855 014e BB7B     		ldrb	r3, [r7, #14]	@ zero_extendqisi2
 856 0150 9A42     		cmp	r2, r3
 857 0152 E4D2     		bcs	.L37
 334:Drivers/BSP/Components/L6470/L6470.c ****       }
 335:Drivers/BSP/Components/L6470/L6470.c ****       break;
 858              		.loc 1 335 7
ARM GAS  C:\Users\ep_ygh\AppData\Local\Temp\cccpn5kX.s 			page 23


 859 0154 6CE1     		b	.L15
 860              	.L33:
 336:Drivers/BSP/Components/L6470/L6470.c ****     case L6470_GETPARAM_ID:
 337:Drivers/BSP/Components/L6470/L6470.c ****       /* Build the 1st bytes to transmit (PARAM) */
 338:Drivers/BSP/Components/L6470/L6470.c ****       *(pL6470_DaisyChainSpiTxStruct+((0*L6470DAISYCHAINSIZE)+PkgId)) |= (L6470_Register[((pL6470_A
 861              		.loc 1 338 71
 862 0156 FB7B     		ldrb	r3, [r7, #15]	@ zero_extendqisi2
 863 0158 3A68     		ldr	r2, [r7]
 864 015a 1344     		add	r3, r3, r2
 865 015c 1978     		ldrb	r1, [r3]	@ zero_extendqisi2
 866              		.loc 1 338 108
 867 015e FB7B     		ldrb	r3, [r7, #15]	@ zero_extendqisi2
 868 0160 1B01     		lsls	r3, r3, #4
 869 0162 7A68     		ldr	r2, [r7, #4]
 870 0164 1344     		add	r3, r3, r2
 871              		.loc 1 338 115
 872 0166 5A68     		ldr	r2, [r3, #4]
 873              		.loc 1 338 121
 874 0168 6248     		ldr	r0, .L49+4
 875 016a 1346     		mov	r3, r2
 876 016c 9B00     		lsls	r3, r3, #2
 877 016e 1344     		add	r3, r3, r2
 878 0170 9B00     		lsls	r3, r3, #2
 879 0172 0344     		add	r3, r3, r0
 880 0174 1A78     		ldrb	r2, [r3]	@ zero_extendqisi2
 881              		.loc 1 338 71
 882 0176 FB7B     		ldrb	r3, [r7, #15]	@ zero_extendqisi2
 883 0178 3868     		ldr	r0, [r7]
 884 017a 0344     		add	r3, r3, r0
 885 017c 0A43     		orrs	r2, r2, r1
 886 017e D2B2     		uxtb	r2, r2
 887 0180 1A70     		strb	r2, [r3]
 339:Drivers/BSP/Components/L6470/L6470.c ****       break;
 888              		.loc 1 339 7
 889 0182 55E1     		b	.L15
 890              	.L32:
 340:Drivers/BSP/Components/L6470/L6470.c ****     case L6470_RUN_ID:
 341:Drivers/BSP/Components/L6470/L6470.c ****       /* Build the 1st bytes to transmit (DIR) */
 342:Drivers/BSP/Components/L6470/L6470.c ****       *(pL6470_DaisyChainSpiTxStruct+((0*L6470DAISYCHAINSIZE)+PkgId)) |= (L6470_Direction[((pL6470_
 891              		.loc 1 342 71
 892 0184 FB7B     		ldrb	r3, [r7, #15]	@ zero_extendqisi2
 893 0186 3A68     		ldr	r2, [r7]
 894 0188 1344     		add	r3, r3, r2
 895 018a 1978     		ldrb	r1, [r3]	@ zero_extendqisi2
 896              		.loc 1 342 109
 897 018c FB7B     		ldrb	r3, [r7, #15]	@ zero_extendqisi2
 898 018e 1B01     		lsls	r3, r3, #4
 899 0190 7A68     		ldr	r2, [r7, #4]
 900 0192 1344     		add	r3, r3, r2
 901              		.loc 1 342 116
 902 0194 5A68     		ldr	r2, [r3, #4]
 903              		.loc 1 342 122
 904 0196 5848     		ldr	r0, .L49+8
 905 0198 1346     		mov	r3, r2
 906 019a DB00     		lsls	r3, r3, #3
 907 019c 1344     		add	r3, r3, r2
 908 019e 0344     		add	r3, r3, r0
ARM GAS  C:\Users\ep_ygh\AppData\Local\Temp\cccpn5kX.s 			page 24


 909 01a0 0833     		adds	r3, r3, #8
 910 01a2 1A78     		ldrb	r2, [r3]	@ zero_extendqisi2
 911              		.loc 1 342 71
 912 01a4 FB7B     		ldrb	r3, [r7, #15]	@ zero_extendqisi2
 913 01a6 3868     		ldr	r0, [r7]
 914 01a8 0344     		add	r3, r3, r0
 915 01aa 0A43     		orrs	r2, r2, r1
 916 01ac D2B2     		uxtb	r2, r2
 917 01ae 1A70     		strb	r2, [r3]
 343:Drivers/BSP/Components/L6470/L6470.c ****       
 344:Drivers/BSP/Components/L6470/L6470.c ****       /* Build the others bytes to transmit (SPD) */
 345:Drivers/BSP/Components/L6470/L6470.c ****       for (spibyte=1; spibyte<(3+1); spibyte++)
 918              		.loc 1 345 19
 919 01b0 0123     		movs	r3, #1
 920 01b2 BB73     		strb	r3, [r7, #14]
 921              		.loc 1 345 7
 922 01b4 16E0     		b	.L38
 923              	.L39:
 346:Drivers/BSP/Components/L6470/L6470.c ****       {
 347:Drivers/BSP/Components/L6470/L6470.c ****         *(pL6470_DaisyChainSpiTxStruct+((spibyte*L6470DAISYCHAINSIZE)+PkgId)) = (uint8_t)(((pL6470_
 924              		.loc 1 347 109 discriminator 3
 925 01b6 FB7B     		ldrb	r3, [r7, #15]	@ zero_extendqisi2
 926 01b8 1B01     		lsls	r3, r3, #4
 927 01ba 7A68     		ldr	r2, [r7, #4]
 928 01bc 1344     		add	r3, r3, r2
 929              		.loc 1 347 116 discriminator 3
 930 01be 9A68     		ldr	r2, [r3, #8]
 931              		.loc 1 347 130 discriminator 3
 932 01c0 BB7B     		ldrb	r3, [r7, #14]	@ zero_extendqisi2
 933 01c2 C3F10303 		rsb	r3, r3, #3
 934              		.loc 1 347 127 discriminator 3
 935 01c6 DB00     		lsls	r3, r3, #3
 936              		.loc 1 347 122 discriminator 3
 937 01c8 22FA03F1 		lsr	r1, r2, r3
 938              		.loc 1 347 49 discriminator 3
 939 01cc BB7B     		ldrb	r3, [r7, #14]	@ zero_extendqisi2
 940 01ce 5A00     		lsls	r2, r3, #1
 941              		.loc 1 347 70 discriminator 3
 942 01d0 FB7B     		ldrb	r3, [r7, #15]	@ zero_extendqisi2
 943 01d2 1344     		add	r3, r3, r2
 944 01d4 1A46     		mov	r2, r3
 945              		.loc 1 347 39 discriminator 3
 946 01d6 3B68     		ldr	r3, [r7]
 947 01d8 1344     		add	r3, r3, r2
 948              		.loc 1 347 81 discriminator 3
 949 01da CAB2     		uxtb	r2, r1
 950              		.loc 1 347 79 discriminator 3
 951 01dc 1A70     		strb	r2, [r3]
 345:Drivers/BSP/Components/L6470/L6470.c ****       {
 952              		.loc 1 345 45 discriminator 3
 953 01de BB7B     		ldrb	r3, [r7, #14]	@ zero_extendqisi2
 954 01e0 0133     		adds	r3, r3, #1
 955 01e2 BB73     		strb	r3, [r7, #14]
 956              	.L38:
 345:Drivers/BSP/Components/L6470/L6470.c ****       {
 957              		.loc 1 345 7 discriminator 1
 958 01e4 BB7B     		ldrb	r3, [r7, #14]	@ zero_extendqisi2
ARM GAS  C:\Users\ep_ygh\AppData\Local\Temp\cccpn5kX.s 			page 25


 959 01e6 032B     		cmp	r3, #3
 960 01e8 E5D9     		bls	.L39
 348:Drivers/BSP/Components/L6470/L6470.c ****       }
 349:Drivers/BSP/Components/L6470/L6470.c ****       break;
 961              		.loc 1 349 7
 962 01ea 21E1     		b	.L15
 963              	.L31:
 350:Drivers/BSP/Components/L6470/L6470.c ****     case L6470_STEPCLOCK_ID:
 351:Drivers/BSP/Components/L6470/L6470.c ****       /* Build the 1st bytes to transmit (DIR) */
 352:Drivers/BSP/Components/L6470/L6470.c ****       *(pL6470_DaisyChainSpiTxStruct+((0*L6470DAISYCHAINSIZE)+PkgId)) |= (L6470_Direction[((pL6470_
 964              		.loc 1 352 71
 965 01ec FB7B     		ldrb	r3, [r7, #15]	@ zero_extendqisi2
 966 01ee 3A68     		ldr	r2, [r7]
 967 01f0 1344     		add	r3, r3, r2
 968 01f2 1978     		ldrb	r1, [r3]	@ zero_extendqisi2
 969              		.loc 1 352 109
 970 01f4 FB7B     		ldrb	r3, [r7, #15]	@ zero_extendqisi2
 971 01f6 1B01     		lsls	r3, r3, #4
 972 01f8 7A68     		ldr	r2, [r7, #4]
 973 01fa 1344     		add	r3, r3, r2
 974              		.loc 1 352 116
 975 01fc 5A68     		ldr	r2, [r3, #4]
 976              		.loc 1 352 122
 977 01fe 3E48     		ldr	r0, .L49+8
 978 0200 1346     		mov	r3, r2
 979 0202 DB00     		lsls	r3, r3, #3
 980 0204 1344     		add	r3, r3, r2
 981 0206 0344     		add	r3, r3, r0
 982 0208 0833     		adds	r3, r3, #8
 983 020a 1A78     		ldrb	r2, [r3]	@ zero_extendqisi2
 984              		.loc 1 352 71
 985 020c FB7B     		ldrb	r3, [r7, #15]	@ zero_extendqisi2
 986 020e 3868     		ldr	r0, [r7]
 987 0210 0344     		add	r3, r3, r0
 988 0212 0A43     		orrs	r2, r2, r1
 989 0214 D2B2     		uxtb	r2, r2
 990 0216 1A70     		strb	r2, [r3]
 353:Drivers/BSP/Components/L6470/L6470.c ****       break;
 991              		.loc 1 353 7
 992 0218 0AE1     		b	.L15
 993              	.L30:
 354:Drivers/BSP/Components/L6470/L6470.c ****     case L6470_MOVE_ID:
 355:Drivers/BSP/Components/L6470/L6470.c ****       /* Build the 1st bytes to transmit (DIR) */
 356:Drivers/BSP/Components/L6470/L6470.c ****       *(pL6470_DaisyChainSpiTxStruct+((0*L6470DAISYCHAINSIZE)+PkgId)) |= (L6470_Direction[((pL6470_
 994              		.loc 1 356 71
 995 021a FB7B     		ldrb	r3, [r7, #15]	@ zero_extendqisi2
 996 021c 3A68     		ldr	r2, [r7]
 997 021e 1344     		add	r3, r3, r2
 998 0220 1978     		ldrb	r1, [r3]	@ zero_extendqisi2
 999              		.loc 1 356 109
 1000 0222 FB7B     		ldrb	r3, [r7, #15]	@ zero_extendqisi2
 1001 0224 1B01     		lsls	r3, r3, #4
 1002 0226 7A68     		ldr	r2, [r7, #4]
 1003 0228 1344     		add	r3, r3, r2
 1004              		.loc 1 356 116
 1005 022a 5A68     		ldr	r2, [r3, #4]
 1006              		.loc 1 356 122
ARM GAS  C:\Users\ep_ygh\AppData\Local\Temp\cccpn5kX.s 			page 26


 1007 022c 3248     		ldr	r0, .L49+8
 1008 022e 1346     		mov	r3, r2
 1009 0230 DB00     		lsls	r3, r3, #3
 1010 0232 1344     		add	r3, r3, r2
 1011 0234 0344     		add	r3, r3, r0
 1012 0236 0833     		adds	r3, r3, #8
 1013 0238 1A78     		ldrb	r2, [r3]	@ zero_extendqisi2
 1014              		.loc 1 356 71
 1015 023a FB7B     		ldrb	r3, [r7, #15]	@ zero_extendqisi2
 1016 023c 3868     		ldr	r0, [r7]
 1017 023e 0344     		add	r3, r3, r0
 1018 0240 0A43     		orrs	r2, r2, r1
 1019 0242 D2B2     		uxtb	r2, r2
 1020 0244 1A70     		strb	r2, [r3]
 357:Drivers/BSP/Components/L6470/L6470.c ****       
 358:Drivers/BSP/Components/L6470/L6470.c ****       /* Build the others bytes to transmit (N_STEP) */
 359:Drivers/BSP/Components/L6470/L6470.c ****       for (spibyte=1; spibyte<(3+1); spibyte++)
 1021              		.loc 1 359 19
 1022 0246 0123     		movs	r3, #1
 1023 0248 BB73     		strb	r3, [r7, #14]
 1024              		.loc 1 359 7
 1025 024a 16E0     		b	.L40
 1026              	.L41:
 360:Drivers/BSP/Components/L6470/L6470.c ****       {
 361:Drivers/BSP/Components/L6470/L6470.c ****         *(pL6470_DaisyChainSpiTxStruct+((spibyte*L6470DAISYCHAINSIZE)+PkgId)) = (uint8_t)(((pL6470_
 1027              		.loc 1 361 109 discriminator 3
 1028 024c FB7B     		ldrb	r3, [r7, #15]	@ zero_extendqisi2
 1029 024e 1B01     		lsls	r3, r3, #4
 1030 0250 7A68     		ldr	r2, [r7, #4]
 1031 0252 1344     		add	r3, r3, r2
 1032              		.loc 1 361 116 discriminator 3
 1033 0254 9A68     		ldr	r2, [r3, #8]
 1034              		.loc 1 361 130 discriminator 3
 1035 0256 BB7B     		ldrb	r3, [r7, #14]	@ zero_extendqisi2
 1036 0258 C3F10303 		rsb	r3, r3, #3
 1037              		.loc 1 361 127 discriminator 3
 1038 025c DB00     		lsls	r3, r3, #3
 1039              		.loc 1 361 122 discriminator 3
 1040 025e 22FA03F1 		lsr	r1, r2, r3
 1041              		.loc 1 361 49 discriminator 3
 1042 0262 BB7B     		ldrb	r3, [r7, #14]	@ zero_extendqisi2
 1043 0264 5A00     		lsls	r2, r3, #1
 1044              		.loc 1 361 70 discriminator 3
 1045 0266 FB7B     		ldrb	r3, [r7, #15]	@ zero_extendqisi2
 1046 0268 1344     		add	r3, r3, r2
 1047 026a 1A46     		mov	r2, r3
 1048              		.loc 1 361 39 discriminator 3
 1049 026c 3B68     		ldr	r3, [r7]
 1050 026e 1344     		add	r3, r3, r2
 1051              		.loc 1 361 81 discriminator 3
 1052 0270 CAB2     		uxtb	r2, r1
 1053              		.loc 1 361 79 discriminator 3
 1054 0272 1A70     		strb	r2, [r3]
 359:Drivers/BSP/Components/L6470/L6470.c ****       {
 1055              		.loc 1 359 45 discriminator 3
 1056 0274 BB7B     		ldrb	r3, [r7, #14]	@ zero_extendqisi2
 1057 0276 0133     		adds	r3, r3, #1
ARM GAS  C:\Users\ep_ygh\AppData\Local\Temp\cccpn5kX.s 			page 27


 1058 0278 BB73     		strb	r3, [r7, #14]
 1059              	.L40:
 359:Drivers/BSP/Components/L6470/L6470.c ****       {
 1060              		.loc 1 359 7 discriminator 1
 1061 027a BB7B     		ldrb	r3, [r7, #14]	@ zero_extendqisi2
 1062 027c 032B     		cmp	r3, #3
 1063 027e E5D9     		bls	.L41
 362:Drivers/BSP/Components/L6470/L6470.c ****       }      
 363:Drivers/BSP/Components/L6470/L6470.c ****       break;
 1064              		.loc 1 363 7
 1065 0280 D6E0     		b	.L15
 1066              	.L29:
 364:Drivers/BSP/Components/L6470/L6470.c ****     case L6470_GOTO_ID:
 365:Drivers/BSP/Components/L6470/L6470.c ****       /* Build the others bytes to transmit (ABS_POS) */
 366:Drivers/BSP/Components/L6470/L6470.c ****       for (spibyte=1; spibyte<(3+1); spibyte++)
 1067              		.loc 1 366 19
 1068 0282 0123     		movs	r3, #1
 1069 0284 BB73     		strb	r3, [r7, #14]
 1070              		.loc 1 366 7
 1071 0286 16E0     		b	.L42
 1072              	.L43:
 367:Drivers/BSP/Components/L6470/L6470.c ****       {
 368:Drivers/BSP/Components/L6470/L6470.c ****         *(pL6470_DaisyChainSpiTxStruct+((spibyte*L6470DAISYCHAINSIZE)+PkgId)) = (uint8_t)(((pL6470_
 1073              		.loc 1 368 109 discriminator 3
 1074 0288 FB7B     		ldrb	r3, [r7, #15]	@ zero_extendqisi2
 1075 028a 1B01     		lsls	r3, r3, #4
 1076 028c 7A68     		ldr	r2, [r7, #4]
 1077 028e 1344     		add	r3, r3, r2
 1078              		.loc 1 368 116 discriminator 3
 1079 0290 5A68     		ldr	r2, [r3, #4]
 1080              		.loc 1 368 130 discriminator 3
 1081 0292 BB7B     		ldrb	r3, [r7, #14]	@ zero_extendqisi2
 1082 0294 C3F10303 		rsb	r3, r3, #3
 1083              		.loc 1 368 127 discriminator 3
 1084 0298 DB00     		lsls	r3, r3, #3
 1085              		.loc 1 368 122 discriminator 3
 1086 029a 22FA03F1 		lsr	r1, r2, r3
 1087              		.loc 1 368 49 discriminator 3
 1088 029e BB7B     		ldrb	r3, [r7, #14]	@ zero_extendqisi2
 1089 02a0 5A00     		lsls	r2, r3, #1
 1090              		.loc 1 368 70 discriminator 3
 1091 02a2 FB7B     		ldrb	r3, [r7, #15]	@ zero_extendqisi2
 1092 02a4 1344     		add	r3, r3, r2
 1093 02a6 1A46     		mov	r2, r3
 1094              		.loc 1 368 39 discriminator 3
 1095 02a8 3B68     		ldr	r3, [r7]
 1096 02aa 1344     		add	r3, r3, r2
 1097              		.loc 1 368 81 discriminator 3
 1098 02ac CAB2     		uxtb	r2, r1
 1099              		.loc 1 368 79 discriminator 3
 1100 02ae 1A70     		strb	r2, [r3]
 366:Drivers/BSP/Components/L6470/L6470.c ****       {
 1101              		.loc 1 366 45 discriminator 3
 1102 02b0 BB7B     		ldrb	r3, [r7, #14]	@ zero_extendqisi2
 1103 02b2 0133     		adds	r3, r3, #1
 1104 02b4 BB73     		strb	r3, [r7, #14]
 1105              	.L42:
ARM GAS  C:\Users\ep_ygh\AppData\Local\Temp\cccpn5kX.s 			page 28


 366:Drivers/BSP/Components/L6470/L6470.c ****       {
 1106              		.loc 1 366 7 discriminator 1
 1107 02b6 BB7B     		ldrb	r3, [r7, #14]	@ zero_extendqisi2
 1108 02b8 032B     		cmp	r3, #3
 1109 02ba E5D9     		bls	.L43
 369:Drivers/BSP/Components/L6470/L6470.c ****       }
 370:Drivers/BSP/Components/L6470/L6470.c ****       break;
 1110              		.loc 1 370 7
 1111 02bc B8E0     		b	.L15
 1112              	.L28:
 371:Drivers/BSP/Components/L6470/L6470.c ****     case L6470_GOTODIR_ID:
 372:Drivers/BSP/Components/L6470/L6470.c ****       /* Build the 1st bytes to transmit (DIR) */
 373:Drivers/BSP/Components/L6470/L6470.c ****       *(pL6470_DaisyChainSpiTxStruct+((0*L6470DAISYCHAINSIZE)+PkgId)) |= (L6470_Direction[((pL6470_
 1113              		.loc 1 373 71
 1114 02be FB7B     		ldrb	r3, [r7, #15]	@ zero_extendqisi2
 1115 02c0 3A68     		ldr	r2, [r7]
 1116 02c2 1344     		add	r3, r3, r2
 1117 02c4 1978     		ldrb	r1, [r3]	@ zero_extendqisi2
 1118              		.loc 1 373 109
 1119 02c6 FB7B     		ldrb	r3, [r7, #15]	@ zero_extendqisi2
 1120 02c8 1B01     		lsls	r3, r3, #4
 1121 02ca 7A68     		ldr	r2, [r7, #4]
 1122 02cc 1344     		add	r3, r3, r2
 1123              		.loc 1 373 116
 1124 02ce 5A68     		ldr	r2, [r3, #4]
 1125              		.loc 1 373 122
 1126 02d0 0948     		ldr	r0, .L49+8
 1127 02d2 1346     		mov	r3, r2
 1128 02d4 DB00     		lsls	r3, r3, #3
 1129 02d6 1344     		add	r3, r3, r2
 1130 02d8 0344     		add	r3, r3, r0
 1131 02da 0833     		adds	r3, r3, #8
 1132 02dc 1A78     		ldrb	r2, [r3]	@ zero_extendqisi2
 1133              		.loc 1 373 71
 1134 02de FB7B     		ldrb	r3, [r7, #15]	@ zero_extendqisi2
 1135 02e0 3868     		ldr	r0, [r7]
 1136 02e2 0344     		add	r3, r3, r0
 1137 02e4 0A43     		orrs	r2, r2, r1
 1138 02e6 D2B2     		uxtb	r2, r2
 1139 02e8 1A70     		strb	r2, [r3]
 374:Drivers/BSP/Components/L6470/L6470.c ****       
 375:Drivers/BSP/Components/L6470/L6470.c ****       /* Build the others bytes to transmit (ABS_POS) */
 376:Drivers/BSP/Components/L6470/L6470.c ****       for (spibyte=1; spibyte<(3+1); spibyte++)
 1140              		.loc 1 376 19
 1141 02ea 0123     		movs	r3, #1
 1142 02ec BB73     		strb	r3, [r7, #14]
 1143              		.loc 1 376 7
 1144 02ee 1CE0     		b	.L44
 1145              	.L50:
 1146              		.align	2
 1147              	.L49:
 1148 02f0 00000000 		.word	L6470_ApplicationCommand
 1149 02f4 00000000 		.word	L6470_Register
 1150 02f8 00000000 		.word	L6470_Direction
 1151              	.L45:
 377:Drivers/BSP/Components/L6470/L6470.c ****       {
 378:Drivers/BSP/Components/L6470/L6470.c ****         *(pL6470_DaisyChainSpiTxStruct+((spibyte*L6470DAISYCHAINSIZE)+PkgId)) = (uint8_t)(((pL6470_
ARM GAS  C:\Users\ep_ygh\AppData\Local\Temp\cccpn5kX.s 			page 29


 1152              		.loc 1 378 109 discriminator 3
 1153 02fc FB7B     		ldrb	r3, [r7, #15]	@ zero_extendqisi2
 1154 02fe 1B01     		lsls	r3, r3, #4
 1155 0300 7A68     		ldr	r2, [r7, #4]
 1156 0302 1344     		add	r3, r3, r2
 1157              		.loc 1 378 116 discriminator 3
 1158 0304 9A68     		ldr	r2, [r3, #8]
 1159              		.loc 1 378 130 discriminator 3
 1160 0306 BB7B     		ldrb	r3, [r7, #14]	@ zero_extendqisi2
 1161 0308 C3F10303 		rsb	r3, r3, #3
 1162              		.loc 1 378 127 discriminator 3
 1163 030c DB00     		lsls	r3, r3, #3
 1164              		.loc 1 378 122 discriminator 3
 1165 030e 22FA03F1 		lsr	r1, r2, r3
 1166              		.loc 1 378 49 discriminator 3
 1167 0312 BB7B     		ldrb	r3, [r7, #14]	@ zero_extendqisi2
 1168 0314 5A00     		lsls	r2, r3, #1
 1169              		.loc 1 378 70 discriminator 3
 1170 0316 FB7B     		ldrb	r3, [r7, #15]	@ zero_extendqisi2
 1171 0318 1344     		add	r3, r3, r2
 1172 031a 1A46     		mov	r2, r3
 1173              		.loc 1 378 39 discriminator 3
 1174 031c 3B68     		ldr	r3, [r7]
 1175 031e 1344     		add	r3, r3, r2
 1176              		.loc 1 378 81 discriminator 3
 1177 0320 CAB2     		uxtb	r2, r1
 1178              		.loc 1 378 79 discriminator 3
 1179 0322 1A70     		strb	r2, [r3]
 376:Drivers/BSP/Components/L6470/L6470.c ****       {
 1180              		.loc 1 376 45 discriminator 3
 1181 0324 BB7B     		ldrb	r3, [r7, #14]	@ zero_extendqisi2
 1182 0326 0133     		adds	r3, r3, #1
 1183 0328 BB73     		strb	r3, [r7, #14]
 1184              	.L44:
 376:Drivers/BSP/Components/L6470/L6470.c ****       {
 1185              		.loc 1 376 7 discriminator 1
 1186 032a BB7B     		ldrb	r3, [r7, #14]	@ zero_extendqisi2
 1187 032c 032B     		cmp	r3, #3
 1188 032e E5D9     		bls	.L45
 379:Drivers/BSP/Components/L6470/L6470.c ****       }
 380:Drivers/BSP/Components/L6470/L6470.c ****       break;
 1189              		.loc 1 380 7
 1190 0330 7EE0     		b	.L15
 1191              	.L27:
 381:Drivers/BSP/Components/L6470/L6470.c ****     case L6470_GOUNTIL_ID:
 382:Drivers/BSP/Components/L6470/L6470.c ****       /* Build the 1st bytes to transmit (ACT) */
 383:Drivers/BSP/Components/L6470/L6470.c ****       *(pL6470_DaisyChainSpiTxStruct+((0*L6470DAISYCHAINSIZE)+PkgId)) |= ((L6470_ACT[((pL6470_AppCm
 1192              		.loc 1 383 71
 1193 0332 FB7B     		ldrb	r3, [r7, #15]	@ zero_extendqisi2
 1194 0334 3A68     		ldr	r2, [r7]
 1195 0336 1344     		add	r3, r3, r2
 1196 0338 1B78     		ldrb	r3, [r3]	@ zero_extendqisi2
 1197 033a 59B2     		sxtb	r1, r3
 1198              		.loc 1 383 104
 1199 033c FB7B     		ldrb	r3, [r7, #15]	@ zero_extendqisi2
 1200 033e 1B01     		lsls	r3, r3, #4
 1201 0340 7A68     		ldr	r2, [r7, #4]
ARM GAS  C:\Users\ep_ygh\AppData\Local\Temp\cccpn5kX.s 			page 30


 1202 0342 1344     		add	r3, r3, r2
 1203              		.loc 1 383 111
 1204 0344 5A68     		ldr	r2, [r3, #4]
 1205              		.loc 1 383 117
 1206 0346 4148     		ldr	r0, .L51
 1207 0348 1346     		mov	r3, r2
 1208 034a 9B00     		lsls	r3, r3, #2
 1209 034c 1344     		add	r3, r3, r2
 1210 034e 0344     		add	r3, r3, r0
 1211 0350 0433     		adds	r3, r3, #4
 1212 0352 1B78     		ldrb	r3, [r3]	@ zero_extendqisi2
 1213              		.loc 1 383 129
 1214 0354 DB00     		lsls	r3, r3, #3
 1215              		.loc 1 383 71
 1216 0356 5BB2     		sxtb	r3, r3
 1217 0358 0B43     		orrs	r3, r3, r1
 1218 035a 59B2     		sxtb	r1, r3
 1219 035c FB7B     		ldrb	r3, [r7, #15]	@ zero_extendqisi2
 1220 035e 3A68     		ldr	r2, [r7]
 1221 0360 1344     		add	r3, r3, r2
 1222 0362 CAB2     		uxtb	r2, r1
 1223 0364 1A70     		strb	r2, [r3]
 384:Drivers/BSP/Components/L6470/L6470.c ****       /* Build the 1st bytes to transmit (DIR) */
 385:Drivers/BSP/Components/L6470/L6470.c ****       *(pL6470_DaisyChainSpiTxStruct+((0*L6470DAISYCHAINSIZE)+PkgId)) |= (L6470_Direction[((pL6470_
 1224              		.loc 1 385 71
 1225 0366 FB7B     		ldrb	r3, [r7, #15]	@ zero_extendqisi2
 1226 0368 3A68     		ldr	r2, [r7]
 1227 036a 1344     		add	r3, r3, r2
 1228 036c 1978     		ldrb	r1, [r3]	@ zero_extendqisi2
 1229              		.loc 1 385 109
 1230 036e FB7B     		ldrb	r3, [r7, #15]	@ zero_extendqisi2
 1231 0370 1B01     		lsls	r3, r3, #4
 1232 0372 7A68     		ldr	r2, [r7, #4]
 1233 0374 1344     		add	r3, r3, r2
 1234              		.loc 1 385 116
 1235 0376 9A68     		ldr	r2, [r3, #8]
 1236              		.loc 1 385 122
 1237 0378 3548     		ldr	r0, .L51+4
 1238 037a 1346     		mov	r3, r2
 1239 037c DB00     		lsls	r3, r3, #3
 1240 037e 1344     		add	r3, r3, r2
 1241 0380 0344     		add	r3, r3, r0
 1242 0382 0833     		adds	r3, r3, #8
 1243 0384 1A78     		ldrb	r2, [r3]	@ zero_extendqisi2
 1244              		.loc 1 385 71
 1245 0386 FB7B     		ldrb	r3, [r7, #15]	@ zero_extendqisi2
 1246 0388 3868     		ldr	r0, [r7]
 1247 038a 0344     		add	r3, r3, r0
 1248 038c 0A43     		orrs	r2, r2, r1
 1249 038e D2B2     		uxtb	r2, r2
 1250 0390 1A70     		strb	r2, [r3]
 386:Drivers/BSP/Components/L6470/L6470.c ****       
 387:Drivers/BSP/Components/L6470/L6470.c ****       /* Build the others bytes to transmit (SPD) */
 388:Drivers/BSP/Components/L6470/L6470.c ****       for (spibyte=1; spibyte<(3+1); spibyte++)
 1251              		.loc 1 388 19
 1252 0392 0123     		movs	r3, #1
 1253 0394 BB73     		strb	r3, [r7, #14]
ARM GAS  C:\Users\ep_ygh\AppData\Local\Temp\cccpn5kX.s 			page 31


 1254              		.loc 1 388 7
 1255 0396 16E0     		b	.L46
 1256              	.L47:
 389:Drivers/BSP/Components/L6470/L6470.c ****       {
 390:Drivers/BSP/Components/L6470/L6470.c ****         *(pL6470_DaisyChainSpiTxStruct+((spibyte*L6470DAISYCHAINSIZE)+PkgId)) = (uint8_t)(((pL6470_
 1257              		.loc 1 390 109 discriminator 3
 1258 0398 FB7B     		ldrb	r3, [r7, #15]	@ zero_extendqisi2
 1259 039a 1B01     		lsls	r3, r3, #4
 1260 039c 7A68     		ldr	r2, [r7, #4]
 1261 039e 1344     		add	r3, r3, r2
 1262              		.loc 1 390 116 discriminator 3
 1263 03a0 DA68     		ldr	r2, [r3, #12]
 1264              		.loc 1 390 130 discriminator 3
 1265 03a2 BB7B     		ldrb	r3, [r7, #14]	@ zero_extendqisi2
 1266 03a4 C3F10303 		rsb	r3, r3, #3
 1267              		.loc 1 390 127 discriminator 3
 1268 03a8 DB00     		lsls	r3, r3, #3
 1269              		.loc 1 390 122 discriminator 3
 1270 03aa 22FA03F1 		lsr	r1, r2, r3
 1271              		.loc 1 390 49 discriminator 3
 1272 03ae BB7B     		ldrb	r3, [r7, #14]	@ zero_extendqisi2
 1273 03b0 5A00     		lsls	r2, r3, #1
 1274              		.loc 1 390 70 discriminator 3
 1275 03b2 FB7B     		ldrb	r3, [r7, #15]	@ zero_extendqisi2
 1276 03b4 1344     		add	r3, r3, r2
 1277 03b6 1A46     		mov	r2, r3
 1278              		.loc 1 390 39 discriminator 3
 1279 03b8 3B68     		ldr	r3, [r7]
 1280 03ba 1344     		add	r3, r3, r2
 1281              		.loc 1 390 81 discriminator 3
 1282 03bc CAB2     		uxtb	r2, r1
 1283              		.loc 1 390 79 discriminator 3
 1284 03be 1A70     		strb	r2, [r3]
 388:Drivers/BSP/Components/L6470/L6470.c ****       {
 1285              		.loc 1 388 45 discriminator 3
 1286 03c0 BB7B     		ldrb	r3, [r7, #14]	@ zero_extendqisi2
 1287 03c2 0133     		adds	r3, r3, #1
 1288 03c4 BB73     		strb	r3, [r7, #14]
 1289              	.L46:
 388:Drivers/BSP/Components/L6470/L6470.c ****       {
 1290              		.loc 1 388 7 discriminator 1
 1291 03c6 BB7B     		ldrb	r3, [r7, #14]	@ zero_extendqisi2
 1292 03c8 032B     		cmp	r3, #3
 1293 03ca E5D9     		bls	.L47
 391:Drivers/BSP/Components/L6470/L6470.c ****       }
 392:Drivers/BSP/Components/L6470/L6470.c ****       break;
 1294              		.loc 1 392 7
 1295 03cc 30E0     		b	.L15
 1296              	.L26:
 393:Drivers/BSP/Components/L6470/L6470.c ****     case L6470_RELEASESW_ID:
 394:Drivers/BSP/Components/L6470/L6470.c ****       /* Build the 1st bytes to transmit (ACT) */
 395:Drivers/BSP/Components/L6470/L6470.c ****       *(pL6470_DaisyChainSpiTxStruct+((0*L6470DAISYCHAINSIZE)+PkgId)) |= ((L6470_ACT[((pL6470_AppCm
 1297              		.loc 1 395 71
 1298 03ce FB7B     		ldrb	r3, [r7, #15]	@ zero_extendqisi2
 1299 03d0 3A68     		ldr	r2, [r7]
 1300 03d2 1344     		add	r3, r3, r2
 1301 03d4 1B78     		ldrb	r3, [r3]	@ zero_extendqisi2
ARM GAS  C:\Users\ep_ygh\AppData\Local\Temp\cccpn5kX.s 			page 32


 1302 03d6 59B2     		sxtb	r1, r3
 1303              		.loc 1 395 104
 1304 03d8 FB7B     		ldrb	r3, [r7, #15]	@ zero_extendqisi2
 1305 03da 1B01     		lsls	r3, r3, #4
 1306 03dc 7A68     		ldr	r2, [r7, #4]
 1307 03de 1344     		add	r3, r3, r2
 1308              		.loc 1 395 111
 1309 03e0 5A68     		ldr	r2, [r3, #4]
 1310              		.loc 1 395 117
 1311 03e2 1A48     		ldr	r0, .L51
 1312 03e4 1346     		mov	r3, r2
 1313 03e6 9B00     		lsls	r3, r3, #2
 1314 03e8 1344     		add	r3, r3, r2
 1315 03ea 0344     		add	r3, r3, r0
 1316 03ec 0433     		adds	r3, r3, #4
 1317 03ee 1B78     		ldrb	r3, [r3]	@ zero_extendqisi2
 1318              		.loc 1 395 129
 1319 03f0 DB00     		lsls	r3, r3, #3
 1320              		.loc 1 395 71
 1321 03f2 5BB2     		sxtb	r3, r3
 1322 03f4 0B43     		orrs	r3, r3, r1
 1323 03f6 59B2     		sxtb	r1, r3
 1324 03f8 FB7B     		ldrb	r3, [r7, #15]	@ zero_extendqisi2
 1325 03fa 3A68     		ldr	r2, [r7]
 1326 03fc 1344     		add	r3, r3, r2
 1327 03fe CAB2     		uxtb	r2, r1
 1328 0400 1A70     		strb	r2, [r3]
 396:Drivers/BSP/Components/L6470/L6470.c ****       /* Build the 1st bytes to transmit (DIR) */
 397:Drivers/BSP/Components/L6470/L6470.c ****       *(pL6470_DaisyChainSpiTxStruct+((0*L6470DAISYCHAINSIZE)+PkgId)) |= (L6470_Direction[((pL6470_
 1329              		.loc 1 397 71
 1330 0402 FB7B     		ldrb	r3, [r7, #15]	@ zero_extendqisi2
 1331 0404 3A68     		ldr	r2, [r7]
 1332 0406 1344     		add	r3, r3, r2
 1333 0408 1978     		ldrb	r1, [r3]	@ zero_extendqisi2
 1334              		.loc 1 397 109
 1335 040a FB7B     		ldrb	r3, [r7, #15]	@ zero_extendqisi2
 1336 040c 1B01     		lsls	r3, r3, #4
 1337 040e 7A68     		ldr	r2, [r7, #4]
 1338 0410 1344     		add	r3, r3, r2
 1339              		.loc 1 397 116
 1340 0412 9A68     		ldr	r2, [r3, #8]
 1341              		.loc 1 397 122
 1342 0414 0E48     		ldr	r0, .L51+4
 1343 0416 1346     		mov	r3, r2
 1344 0418 DB00     		lsls	r3, r3, #3
 1345 041a 1344     		add	r3, r3, r2
 1346 041c 0344     		add	r3, r3, r0
 1347 041e 0833     		adds	r3, r3, #8
 1348 0420 1A78     		ldrb	r2, [r3]	@ zero_extendqisi2
 1349              		.loc 1 397 71
 1350 0422 FB7B     		ldrb	r3, [r7, #15]	@ zero_extendqisi2
 1351 0424 3868     		ldr	r0, [r7]
 1352 0426 0344     		add	r3, r3, r0
 1353 0428 0A43     		orrs	r2, r2, r1
 1354 042a D2B2     		uxtb	r2, r2
 1355 042c 1A70     		strb	r2, [r3]
 398:Drivers/BSP/Components/L6470/L6470.c ****       break;
ARM GAS  C:\Users\ep_ygh\AppData\Local\Temp\cccpn5kX.s 			page 33


 1356              		.loc 1 398 7
 1357 042e 00BF     		nop
 1358              	.L15:
 313:Drivers/BSP/Components/L6470/L6470.c ****   {
 1359              		.loc 1 313 48 discriminator 2
 1360 0430 FB7B     		ldrb	r3, [r7, #15]	@ zero_extendqisi2
 1361 0432 0133     		adds	r3, r3, #1
 1362 0434 FB73     		strb	r3, [r7, #15]
 1363              	.L14:
 313:Drivers/BSP/Components/L6470/L6470.c ****   {
 1364              		.loc 1 313 3 discriminator 1
 1365 0436 FB7B     		ldrb	r3, [r7, #15]	@ zero_extendqisi2
 1366 0438 012B     		cmp	r3, #1
 1367 043a 7FF605AE 		bls	.L48
 399:Drivers/BSP/Components/L6470/L6470.c ****     case L6470_GOHOME_ID:
 400:Drivers/BSP/Components/L6470/L6470.c ****       break;
 401:Drivers/BSP/Components/L6470/L6470.c ****     case L6470_GOMARK_ID:
 402:Drivers/BSP/Components/L6470/L6470.c ****       break;
 403:Drivers/BSP/Components/L6470/L6470.c ****     case L6470_RESETPOS_ID:
 404:Drivers/BSP/Components/L6470/L6470.c ****       break;
 405:Drivers/BSP/Components/L6470/L6470.c ****     case L6470_RESETDEVICE_ID:
 406:Drivers/BSP/Components/L6470/L6470.c ****       break;
 407:Drivers/BSP/Components/L6470/L6470.c ****     case L6470_SOFTSTOP_ID:
 408:Drivers/BSP/Components/L6470/L6470.c ****       break;
 409:Drivers/BSP/Components/L6470/L6470.c ****     case L6470_HARDSTOP_ID:
 410:Drivers/BSP/Components/L6470/L6470.c ****       break;
 411:Drivers/BSP/Components/L6470/L6470.c ****     case L6470_SOFTHIZ_ID:
 412:Drivers/BSP/Components/L6470/L6470.c ****       break;
 413:Drivers/BSP/Components/L6470/L6470.c ****     case L6470_HARDHIZ_ID:
 414:Drivers/BSP/Components/L6470/L6470.c ****       break;
 415:Drivers/BSP/Components/L6470/L6470.c ****     case L6470_GETSTATUS_ID:
 416:Drivers/BSP/Components/L6470/L6470.c ****       break;
 417:Drivers/BSP/Components/L6470/L6470.c ****     }
 418:Drivers/BSP/Components/L6470/L6470.c ****   }
 419:Drivers/BSP/Components/L6470/L6470.c **** }
 1368              		.loc 1 419 1
 1369 043e 00BF     		nop
 1370 0440 00BF     		nop
 1371 0442 1437     		adds	r7, r7, #20
 1372              	.LCFI20:
 1373              		.cfi_def_cfa_offset 4
 1374 0444 BD46     		mov	sp, r7
 1375              	.LCFI21:
 1376              		.cfi_def_cfa_register 13
 1377              		@ sp needed
 1378 0446 5DF8047B 		ldr	r7, [sp], #4
 1379              	.LCFI22:
 1380              		.cfi_restore 7
 1381              		.cfi_def_cfa_offset 0
 1382 044a 7047     		bx	lr
 1383              	.L52:
 1384              		.align	2
 1385              	.L51:
 1386 044c 00000000 		.word	L6470_ACT
 1387 0450 00000000 		.word	L6470_Direction
 1388              		.cfi_endproc
 1389              	.LFE131:
ARM GAS  C:\Users\ep_ygh\AppData\Local\Temp\cccpn5kX.s 			page 34


 1391              		.section	.text.AbsPos_2_Position,"ax",%progbits
 1392              		.align	1
 1393              		.global	AbsPos_2_Position
 1394              		.syntax unified
 1395              		.thumb
 1396              		.thumb_func
 1398              	AbsPos_2_Position:
 1399              	.LFB132:
 420:Drivers/BSP/Components/L6470/L6470.c **** 
 421:Drivers/BSP/Components/L6470/L6470.c **** /**
 422:Drivers/BSP/Components/L6470/L6470.c ****   * @}
 423:Drivers/BSP/Components/L6470/L6470.c ****   */ /* End of L6470_Private_Functions */
 424:Drivers/BSP/Components/L6470/L6470.c **** 
 425:Drivers/BSP/Components/L6470/L6470.c **** /**
 426:Drivers/BSP/Components/L6470/L6470.c ****   * @addtogroup L6470_Exported_Functions
 427:Drivers/BSP/Components/L6470/L6470.c ****   * @{
 428:Drivers/BSP/Components/L6470/L6470.c ****   */
 429:Drivers/BSP/Components/L6470/L6470.c **** 
 430:Drivers/BSP/Components/L6470/L6470.c **** /**
 431:Drivers/BSP/Components/L6470/L6470.c ****   * @addtogroup L6470_Conversion_Functions
 432:Drivers/BSP/Components/L6470/L6470.c ****   * @brief      The following functions act just on one driver inside the L6470
 433:Drivers/BSP/Components/L6470/L6470.c ****   *             daisy chain. The command is immediately sent.
 434:Drivers/BSP/Components/L6470/L6470.c ****   * @{
 435:Drivers/BSP/Components/L6470/L6470.c ****   */
 436:Drivers/BSP/Components/L6470/L6470.c **** 
 437:Drivers/BSP/Components/L6470/L6470.c ****  /**
 438:Drivers/BSP/Components/L6470/L6470.c ****   * @brief  Convert the absolute position as 2's complement format into the signed number.
 439:Drivers/BSP/Components/L6470/L6470.c ****   * 
 440:Drivers/BSP/Components/L6470/L6470.c ****   * @param  AbsPos      The absolute position in the range from [-(2^21)] to [+(2^21)-1].
 441:Drivers/BSP/Components/L6470/L6470.c ****   * @retval Position    The position as signed number.
 442:Drivers/BSP/Components/L6470/L6470.c ****   */
 443:Drivers/BSP/Components/L6470/L6470.c **** int32_t AbsPos_2_Position(uint32_t AbsPos)
 444:Drivers/BSP/Components/L6470/L6470.c **** {
 1400              		.loc 1 444 1
 1401              		.cfi_startproc
 1402              		@ args = 0, pretend = 0, frame = 8
 1403              		@ frame_needed = 1, uses_anonymous_args = 0
 1404              		@ link register save eliminated.
 1405 0000 80B4     		push	{r7}
 1406              	.LCFI23:
 1407              		.cfi_def_cfa_offset 4
 1408              		.cfi_offset 7, -4
 1409 0002 83B0     		sub	sp, sp, #12
 1410              	.LCFI24:
 1411              		.cfi_def_cfa_offset 16
 1412 0004 00AF     		add	r7, sp, #0
 1413              	.LCFI25:
 1414              		.cfi_def_cfa_register 7
 1415 0006 7860     		str	r0, [r7, #4]
 445:Drivers/BSP/Components/L6470/L6470.c ****   if (AbsPos > L6470_MAX_POSITION)
 1416              		.loc 1 445 6
 1417 0008 7B68     		ldr	r3, [r7, #4]
 1418 000a B3F5001F 		cmp	r3, #2097152
 1419 000e 03D3     		bcc	.L54
 446:Drivers/BSP/Components/L6470/L6470.c ****     return (AbsPos - (L6470_POSITION_RANGE + 1));
 1420              		.loc 1 446 20
 1421 0010 7B68     		ldr	r3, [r7, #4]
ARM GAS  C:\Users\ep_ygh\AppData\Local\Temp\cccpn5kX.s 			page 35


 1422 0012 A3F58003 		sub	r3, r3, #4194304
 1423 0016 00E0     		b	.L55
 1424              	.L54:
 447:Drivers/BSP/Components/L6470/L6470.c ****   else
 448:Drivers/BSP/Components/L6470/L6470.c ****     return AbsPos;
 1425              		.loc 1 448 12
 1426 0018 7B68     		ldr	r3, [r7, #4]
 1427              	.L55:
 449:Drivers/BSP/Components/L6470/L6470.c **** }
 1428              		.loc 1 449 1
 1429 001a 1846     		mov	r0, r3
 1430 001c 0C37     		adds	r7, r7, #12
 1431              	.LCFI26:
 1432              		.cfi_def_cfa_offset 4
 1433 001e BD46     		mov	sp, r7
 1434              	.LCFI27:
 1435              		.cfi_def_cfa_register 13
 1436              		@ sp needed
 1437 0020 5DF8047B 		ldr	r7, [sp], #4
 1438              	.LCFI28:
 1439              		.cfi_restore 7
 1440              		.cfi_def_cfa_offset 0
 1441 0024 7047     		bx	lr
 1442              		.cfi_endproc
 1443              	.LFE132:
 1445              		.section	.text.Position_2_AbsPos,"ax",%progbits
 1446              		.align	1
 1447              		.global	Position_2_AbsPos
 1448              		.syntax unified
 1449              		.thumb
 1450              		.thumb_func
 1452              	Position_2_AbsPos:
 1453              	.LFB133:
 450:Drivers/BSP/Components/L6470/L6470.c **** 
 451:Drivers/BSP/Components/L6470/L6470.c **** /**
 452:Drivers/BSP/Components/L6470/L6470.c ****   * @brief  Convert the position as signed number into absolute position as 2's complement format.
 453:Drivers/BSP/Components/L6470/L6470.c ****   * 
 454:Drivers/BSP/Components/L6470/L6470.c ****   * @param  Position    The position as signed number.
 455:Drivers/BSP/Components/L6470/L6470.c ****   * @retval AbsPos      The absolute position in the range from [-(2^21)] to [+(2^21)-1].
 456:Drivers/BSP/Components/L6470/L6470.c ****   */
 457:Drivers/BSP/Components/L6470/L6470.c **** uint32_t Position_2_AbsPos(int32_t Position)
 458:Drivers/BSP/Components/L6470/L6470.c **** {
 1454              		.loc 1 458 1
 1455              		.cfi_startproc
 1456              		@ args = 0, pretend = 0, frame = 8
 1457              		@ frame_needed = 1, uses_anonymous_args = 0
 1458              		@ link register save eliminated.
 1459 0000 80B4     		push	{r7}
 1460              	.LCFI29:
 1461              		.cfi_def_cfa_offset 4
 1462              		.cfi_offset 7, -4
 1463 0002 83B0     		sub	sp, sp, #12
 1464              	.LCFI30:
 1465              		.cfi_def_cfa_offset 16
 1466 0004 00AF     		add	r7, sp, #0
 1467              	.LCFI31:
 1468              		.cfi_def_cfa_register 7
ARM GAS  C:\Users\ep_ygh\AppData\Local\Temp\cccpn5kX.s 			page 36


 1469 0006 7860     		str	r0, [r7, #4]
 459:Drivers/BSP/Components/L6470/L6470.c ****   if ((Position >= 0) && (Position <= L6470_MAX_POSITION))
 1470              		.loc 1 459 6
 1471 0008 7B68     		ldr	r3, [r7, #4]
 1472 000a 002B     		cmp	r3, #0
 1473 000c 05DB     		blt	.L57
 1474              		.loc 1 459 23 discriminator 1
 1475 000e 7B68     		ldr	r3, [r7, #4]
 1476 0010 B3F5001F 		cmp	r3, #2097152
 1477 0014 01DA     		bge	.L57
 460:Drivers/BSP/Components/L6470/L6470.c ****     return Position;
 1478              		.loc 1 460 12
 1479 0016 7B68     		ldr	r3, [r7, #4]
 1480 0018 0CE0     		b	.L58
 1481              	.L57:
 461:Drivers/BSP/Components/L6470/L6470.c ****   else
 462:Drivers/BSP/Components/L6470/L6470.c ****   {
 463:Drivers/BSP/Components/L6470/L6470.c ****     if ((Position >= L6470_MIN_POSITION) && (Position < 0))
 1482              		.loc 1 463 8
 1483 001a 7B68     		ldr	r3, [r7, #4]
 1484 001c 13F5001F 		cmn	r3, #2097152
 1485 0020 06DB     		blt	.L59
 1486              		.loc 1 463 42 discriminator 1
 1487 0022 7B68     		ldr	r3, [r7, #4]
 1488 0024 002B     		cmp	r3, #0
 1489 0026 03DA     		bge	.L59
 464:Drivers/BSP/Components/L6470/L6470.c ****       return (Position + (L6470_POSITION_RANGE + 1));
 1490              		.loc 1 464 24
 1491 0028 7B68     		ldr	r3, [r7, #4]
 1492 002a 03F58003 		add	r3, r3, #4194304
 1493 002e 01E0     		b	.L58
 1494              	.L59:
 465:Drivers/BSP/Components/L6470/L6470.c ****     else
 466:Drivers/BSP/Components/L6470/L6470.c ****       return (L6470_POSITION_RANGE + 1);        // OVF
 1495              		.loc 1 466 14
 1496 0030 4FF48003 		mov	r3, #4194304
 1497              	.L58:
 467:Drivers/BSP/Components/L6470/L6470.c ****   }
 468:Drivers/BSP/Components/L6470/L6470.c **** }
 1498              		.loc 1 468 1
 1499 0034 1846     		mov	r0, r3
 1500 0036 0C37     		adds	r7, r7, #12
 1501              	.LCFI32:
 1502              		.cfi_def_cfa_offset 4
 1503 0038 BD46     		mov	sp, r7
 1504              	.LCFI33:
 1505              		.cfi_def_cfa_register 13
 1506              		@ sp needed
 1507 003a 5DF8047B 		ldr	r7, [sp], #4
 1508              	.LCFI34:
 1509              		.cfi_restore 7
 1510              		.cfi_def_cfa_offset 0
 1511 003e 7047     		bx	lr
 1512              		.cfi_endproc
 1513              	.LFE133:
 1515              		.section	.text.Speed_2_Step_s,"ax",%progbits
 1516              		.align	1
ARM GAS  C:\Users\ep_ygh\AppData\Local\Temp\cccpn5kX.s 			page 37


 1517              		.global	Speed_2_Step_s
 1518              		.syntax unified
 1519              		.thumb
 1520              		.thumb_func
 1522              	Speed_2_Step_s:
 1523              	.LFB134:
 469:Drivers/BSP/Components/L6470/L6470.c **** 
 470:Drivers/BSP/Components/L6470/L6470.c **** /**
 471:Drivers/BSP/Components/L6470/L6470.c ****   * @brief  Convert the SPEED register value into step/s.
 472:Drivers/BSP/Components/L6470/L6470.c ****   * 
 473:Drivers/BSP/Components/L6470/L6470.c ****   * @param  Speed       The SPEED register value.
 474:Drivers/BSP/Components/L6470/L6470.c ****   * @retval step/s      The speed as step/s.
 475:Drivers/BSP/Components/L6470/L6470.c ****   */
 476:Drivers/BSP/Components/L6470/L6470.c **** float Speed_2_Step_s(uint32_t Speed)
 477:Drivers/BSP/Components/L6470/L6470.c **** {
 1524              		.loc 1 477 1
 1525              		.cfi_startproc
 1526              		@ args = 0, pretend = 0, frame = 8
 1527              		@ frame_needed = 1, uses_anonymous_args = 0
 1528              		@ link register save eliminated.
 1529 0000 80B4     		push	{r7}
 1530              	.LCFI35:
 1531              		.cfi_def_cfa_offset 4
 1532              		.cfi_offset 7, -4
 1533 0002 83B0     		sub	sp, sp, #12
 1534              	.LCFI36:
 1535              		.cfi_def_cfa_offset 16
 1536 0004 00AF     		add	r7, sp, #0
 1537              	.LCFI37:
 1538              		.cfi_def_cfa_register 7
 1539 0006 7860     		str	r0, [r7, #4]
 478:Drivers/BSP/Components/L6470/L6470.c ****   return (Speed * ((float)14.9012e-3));
 1540              		.loc 1 478 17
 1541 0008 7B68     		ldr	r3, [r7, #4]
 1542 000a 07EE903A 		vmov	s15, r3	@ int
 1543 000e F8EE677A 		vcvt.f32.u32	s15, s15
 1544 0012 9FED057A 		vldr.32	s14, .L62
 1545 0016 67EE877A 		vmul.f32	s15, s15, s14
 479:Drivers/BSP/Components/L6470/L6470.c **** }
 1546              		.loc 1 479 1
 1547 001a B0EE670A 		vmov.f32	s0, s15
 1548 001e 0C37     		adds	r7, r7, #12
 1549              	.LCFI38:
 1550              		.cfi_def_cfa_offset 4
 1551 0020 BD46     		mov	sp, r7
 1552              	.LCFI39:
 1553              		.cfi_def_cfa_register 13
 1554              		@ sp needed
 1555 0022 5DF8047B 		ldr	r7, [sp], #4
 1556              	.LCFI40:
 1557              		.cfi_restore 7
 1558              		.cfi_def_cfa_offset 0
 1559 0026 7047     		bx	lr
 1560              	.L63:
 1561              		.align	2
 1562              	.L62:
 1563 0028 2A24743C 		.word	1014244394
ARM GAS  C:\Users\ep_ygh\AppData\Local\Temp\cccpn5kX.s 			page 38


 1564              		.cfi_endproc
 1565              	.LFE134:
 1567              		.section	.text.Step_s_2_Speed,"ax",%progbits
 1568              		.align	1
 1569              		.global	Step_s_2_Speed
 1570              		.syntax unified
 1571              		.thumb
 1572              		.thumb_func
 1574              	Step_s_2_Speed:
 1575              	.LFB135:
 480:Drivers/BSP/Components/L6470/L6470.c **** 
 481:Drivers/BSP/Components/L6470/L6470.c **** /**
 482:Drivers/BSP/Components/L6470/L6470.c ****   * @brief  Convert the speed as step/s into a right value for SPEED register.
 483:Drivers/BSP/Components/L6470/L6470.c ****   * 
 484:Drivers/BSP/Components/L6470/L6470.c ****   * @param  step/s      The speed as step/s.
 485:Drivers/BSP/Components/L6470/L6470.c ****   * @retval Speed       The SPEED register value.
 486:Drivers/BSP/Components/L6470/L6470.c ****   */
 487:Drivers/BSP/Components/L6470/L6470.c **** uint32_t Step_s_2_Speed(float Step_s)
 488:Drivers/BSP/Components/L6470/L6470.c **** {
 1576              		.loc 1 488 1
 1577              		.cfi_startproc
 1578              		@ args = 0, pretend = 0, frame = 8
 1579              		@ frame_needed = 1, uses_anonymous_args = 0
 1580              		@ link register save eliminated.
 1581 0000 80B4     		push	{r7}
 1582              	.LCFI41:
 1583              		.cfi_def_cfa_offset 4
 1584              		.cfi_offset 7, -4
 1585 0002 83B0     		sub	sp, sp, #12
 1586              	.LCFI42:
 1587              		.cfi_def_cfa_offset 16
 1588 0004 00AF     		add	r7, sp, #0
 1589              	.LCFI43:
 1590              		.cfi_def_cfa_register 7
 1591 0006 87ED010A 		vstr.32	s0, [r7, #4]
 489:Drivers/BSP/Components/L6470/L6470.c ****   if (Step_s <= (L6470_MAX_SPEED * ((float)14.9012e-3)))
 1592              		.loc 1 489 6
 1593 000a D7ED017A 		vldr.32	s15, [r7, #4]
 1594 000e 9FED0C7A 		vldr.32	s14, .L70
 1595 0012 F4EEC77A 		vcmpe.f32	s15, s14
 1596 0016 F1EE10FA 		vmrs	APSR_nzcv, FPSCR
 1597 001a 0AD8     		bhi	.L69
 490:Drivers/BSP/Components/L6470/L6470.c ****     return (uint32_t)(Step_s / ((float)14.9012e-3));
 1598              		.loc 1 490 30
 1599 001c 97ED017A 		vldr.32	s14, [r7, #4]
 1600 0020 DFED086A 		vldr.32	s13, .L70+4
 1601 0024 C7EE267A 		vdiv.f32	s15, s14, s13
 1602              		.loc 1 490 12
 1603 0028 FCEEE77A 		vcvt.u32.f32	s15, s15
 1604 002c 17EE903A 		vmov	r3, s15	@ int
 1605 0030 00E0     		b	.L67
 1606              	.L69:
 491:Drivers/BSP/Components/L6470/L6470.c ****   else
 492:Drivers/BSP/Components/L6470/L6470.c ****     return 0;   // Warning
 1607              		.loc 1 492 12
 1608 0032 0023     		movs	r3, #0
 1609              	.L67:
ARM GAS  C:\Users\ep_ygh\AppData\Local\Temp\cccpn5kX.s 			page 39


 493:Drivers/BSP/Components/L6470/L6470.c **** }
 1610              		.loc 1 493 1
 1611 0034 1846     		mov	r0, r3
 1612 0036 0C37     		adds	r7, r7, #12
 1613              	.LCFI44:
 1614              		.cfi_def_cfa_offset 4
 1615 0038 BD46     		mov	sp, r7
 1616              	.LCFI45:
 1617              		.cfi_def_cfa_register 13
 1618              		@ sp needed
 1619 003a 5DF8047B 		ldr	r7, [sp], #4
 1620              	.LCFI46:
 1621              		.cfi_restore 7
 1622              		.cfi_def_cfa_offset 0
 1623 003e 7047     		bx	lr
 1624              	.L71:
 1625              		.align	2
 1626              	.L70:
 1627 0040 1B247446 		.word	1182016539
 1628 0044 2A24743C 		.word	1014244394
 1629              		.cfi_endproc
 1630              	.LFE135:
 1632              		.section	.text.Acc_2_Step_s2,"ax",%progbits
 1633              		.align	1
 1634              		.global	Acc_2_Step_s2
 1635              		.syntax unified
 1636              		.thumb
 1637              		.thumb_func
 1639              	Acc_2_Step_s2:
 1640              	.LFB136:
 494:Drivers/BSP/Components/L6470/L6470.c **** 
 495:Drivers/BSP/Components/L6470/L6470.c **** /**
 496:Drivers/BSP/Components/L6470/L6470.c ****   * @brief  Convert the ACC register value into step/(s^2).
 497:Drivers/BSP/Components/L6470/L6470.c ****   * 
 498:Drivers/BSP/Components/L6470/L6470.c ****   * @param  Acc         The ACC register value.
 499:Drivers/BSP/Components/L6470/L6470.c ****   * @retval step/(s^2)  The acceleration as step/(s^2).
 500:Drivers/BSP/Components/L6470/L6470.c ****   */
 501:Drivers/BSP/Components/L6470/L6470.c **** float Acc_2_Step_s2(uint16_t Acc)
 502:Drivers/BSP/Components/L6470/L6470.c **** {
 1641              		.loc 1 502 1
 1642              		.cfi_startproc
 1643              		@ args = 0, pretend = 0, frame = 8
 1644              		@ frame_needed = 1, uses_anonymous_args = 0
 1645              		@ link register save eliminated.
 1646 0000 80B4     		push	{r7}
 1647              	.LCFI47:
 1648              		.cfi_def_cfa_offset 4
 1649              		.cfi_offset 7, -4
 1650 0002 83B0     		sub	sp, sp, #12
 1651              	.LCFI48:
 1652              		.cfi_def_cfa_offset 16
 1653 0004 00AF     		add	r7, sp, #0
 1654              	.LCFI49:
 1655              		.cfi_def_cfa_register 7
 1656 0006 0346     		mov	r3, r0
 1657 0008 FB80     		strh	r3, [r7, #6]	@ movhi
 503:Drivers/BSP/Components/L6470/L6470.c ****   if (Acc <= L6470_MAX_ACC)
ARM GAS  C:\Users\ep_ygh\AppData\Local\Temp\cccpn5kX.s 			page 40


 1658              		.loc 1 503 6
 1659 000a FB88     		ldrh	r3, [r7, #6]
 1660 000c B3F5805F 		cmp	r3, #4096
 1661 0010 09D2     		bcs	.L73
 504:Drivers/BSP/Components/L6470/L6470.c ****     return (Acc * ((float)1.4552e1));
 1662              		.loc 1 504 17
 1663 0012 FB88     		ldrh	r3, [r7, #6]
 1664 0014 07EE903A 		vmov	s15, r3	@ int
 1665 0018 F8EEE77A 		vcvt.f32.s32	s15, s15
 1666 001c 9FED067A 		vldr.32	s14, .L75
 1667 0020 67EE877A 		vmul.f32	s15, s15, s14
 1668 0024 01E0     		b	.L74
 1669              	.L73:
 505:Drivers/BSP/Components/L6470/L6470.c ****   else
 506:Drivers/BSP/Components/L6470/L6470.c ****     return 0;   // Warning
 1670              		.loc 1 506 12
 1671 0026 DFED057A 		vldr.32	s15, .L75+4
 1672              	.L74:
 507:Drivers/BSP/Components/L6470/L6470.c **** }
 1673              		.loc 1 507 1
 1674 002a B0EE670A 		vmov.f32	s0, s15
 1675 002e 0C37     		adds	r7, r7, #12
 1676              	.LCFI50:
 1677              		.cfi_def_cfa_offset 4
 1678 0030 BD46     		mov	sp, r7
 1679              	.LCFI51:
 1680              		.cfi_def_cfa_register 13
 1681              		@ sp needed
 1682 0032 5DF8047B 		ldr	r7, [sp], #4
 1683              	.LCFI52:
 1684              		.cfi_restore 7
 1685              		.cfi_def_cfa_offset 0
 1686 0036 7047     		bx	lr
 1687              	.L76:
 1688              		.align	2
 1689              	.L75:
 1690 0038 FED46841 		.word	1097389310
 1691 003c 00000000 		.word	0
 1692              		.cfi_endproc
 1693              	.LFE136:
 1695              		.section	.text.Step_s2_2_Acc,"ax",%progbits
 1696              		.align	1
 1697              		.global	Step_s2_2_Acc
 1698              		.syntax unified
 1699              		.thumb
 1700              		.thumb_func
 1702              	Step_s2_2_Acc:
 1703              	.LFB137:
 508:Drivers/BSP/Components/L6470/L6470.c **** 
 509:Drivers/BSP/Components/L6470/L6470.c **** /**
 510:Drivers/BSP/Components/L6470/L6470.c ****   * @brief  Convert the acceleartion as step/(s^2) into a right value for ACC register.
 511:Drivers/BSP/Components/L6470/L6470.c ****   * 
 512:Drivers/BSP/Components/L6470/L6470.c ****   * @param  step/(s^2)  The acceleration as step/(s^2).
 513:Drivers/BSP/Components/L6470/L6470.c ****   * @retval Acc         The ACC register value.
 514:Drivers/BSP/Components/L6470/L6470.c ****   */
 515:Drivers/BSP/Components/L6470/L6470.c **** uint16_t Step_s2_2_Acc(float Step_s2)
 516:Drivers/BSP/Components/L6470/L6470.c **** {
ARM GAS  C:\Users\ep_ygh\AppData\Local\Temp\cccpn5kX.s 			page 41


 1704              		.loc 1 516 1
 1705              		.cfi_startproc
 1706              		@ args = 0, pretend = 0, frame = 8
 1707              		@ frame_needed = 1, uses_anonymous_args = 0
 1708              		@ link register save eliminated.
 1709 0000 80B4     		push	{r7}
 1710              	.LCFI53:
 1711              		.cfi_def_cfa_offset 4
 1712              		.cfi_offset 7, -4
 1713 0002 83B0     		sub	sp, sp, #12
 1714              	.LCFI54:
 1715              		.cfi_def_cfa_offset 16
 1716 0004 00AF     		add	r7, sp, #0
 1717              	.LCFI55:
 1718              		.cfi_def_cfa_register 7
 1719 0006 87ED010A 		vstr.32	s0, [r7, #4]
 517:Drivers/BSP/Components/L6470/L6470.c ****   if (Step_s2 <= (L6470_MAX_ACC * ((float)1.4552e1)))
 1720              		.loc 1 517 6
 1721 000a D7ED017A 		vldr.32	s15, [r7, #4]
 1722 000e 9FED0D7A 		vldr.32	s14, .L83
 1723 0012 F4EEC77A 		vcmpe.f32	s15, s14
 1724 0016 F1EE10FA 		vmrs	APSR_nzcv, FPSCR
 1725 001a 0BD8     		bhi	.L82
 518:Drivers/BSP/Components/L6470/L6470.c ****     return (uint16_t)(Step_s2 / ((float)1.4552e1));
 1726              		.loc 1 518 31
 1727 001c 97ED017A 		vldr.32	s14, [r7, #4]
 1728 0020 DFED096A 		vldr.32	s13, .L83+4
 1729 0024 C7EE267A 		vdiv.f32	s15, s14, s13
 1730              		.loc 1 518 12
 1731 0028 FCEEE77A 		vcvt.u32.f32	s15, s15
 1732 002c 17EE903A 		vmov	r3, s15	@ int
 1733 0030 9BB2     		uxth	r3, r3
 1734 0032 00E0     		b	.L80
 1735              	.L82:
 519:Drivers/BSP/Components/L6470/L6470.c ****   else
 520:Drivers/BSP/Components/L6470/L6470.c ****     return 0;   // Warning
 1736              		.loc 1 520 12
 1737 0034 0023     		movs	r3, #0
 1738              	.L80:
 521:Drivers/BSP/Components/L6470/L6470.c **** }
 1739              		.loc 1 521 1
 1740 0036 1846     		mov	r0, r3
 1741 0038 0C37     		adds	r7, r7, #12
 1742              	.LCFI56:
 1743              		.cfi_def_cfa_offset 4
 1744 003a BD46     		mov	sp, r7
 1745              	.LCFI57:
 1746              		.cfi_def_cfa_register 13
 1747              		@ sp needed
 1748 003c 5DF8047B 		ldr	r7, [sp], #4
 1749              	.LCFI58:
 1750              		.cfi_restore 7
 1751              		.cfi_def_cfa_offset 0
 1752 0040 7047     		bx	lr
 1753              	.L84:
 1754 0042 00BF     		.align	2
 1755              	.L83:
ARM GAS  C:\Users\ep_ygh\AppData\Local\Temp\cccpn5kX.s 			page 42


 1756 0044 71C66847 		.word	1198048881
 1757 0048 FED46841 		.word	1097389310
 1758              		.cfi_endproc
 1759              	.LFE137:
 1761              		.section	.text.Dec_2_Step_s2,"ax",%progbits
 1762              		.align	1
 1763              		.global	Dec_2_Step_s2
 1764              		.syntax unified
 1765              		.thumb
 1766              		.thumb_func
 1768              	Dec_2_Step_s2:
 1769              	.LFB138:
 522:Drivers/BSP/Components/L6470/L6470.c **** 
 523:Drivers/BSP/Components/L6470/L6470.c **** /**
 524:Drivers/BSP/Components/L6470/L6470.c ****   * @brief  Convert the DEC register value into step/(s^2).
 525:Drivers/BSP/Components/L6470/L6470.c ****   * 
 526:Drivers/BSP/Components/L6470/L6470.c ****   * @param  Dec         The DEC register value.
 527:Drivers/BSP/Components/L6470/L6470.c ****   * @retval step/(s^2)  The deceleration as step/(s^2).
 528:Drivers/BSP/Components/L6470/L6470.c ****   */
 529:Drivers/BSP/Components/L6470/L6470.c **** float Dec_2_Step_s2(uint16_t Dec)
 530:Drivers/BSP/Components/L6470/L6470.c **** {
 1770              		.loc 1 530 1
 1771              		.cfi_startproc
 1772              		@ args = 0, pretend = 0, frame = 8
 1773              		@ frame_needed = 1, uses_anonymous_args = 0
 1774              		@ link register save eliminated.
 1775 0000 80B4     		push	{r7}
 1776              	.LCFI59:
 1777              		.cfi_def_cfa_offset 4
 1778              		.cfi_offset 7, -4
 1779 0002 83B0     		sub	sp, sp, #12
 1780              	.LCFI60:
 1781              		.cfi_def_cfa_offset 16
 1782 0004 00AF     		add	r7, sp, #0
 1783              	.LCFI61:
 1784              		.cfi_def_cfa_register 7
 1785 0006 0346     		mov	r3, r0
 1786 0008 FB80     		strh	r3, [r7, #6]	@ movhi
 531:Drivers/BSP/Components/L6470/L6470.c ****   if (Dec <= L6470_MAX_DEC)
 1787              		.loc 1 531 6
 1788 000a FB88     		ldrh	r3, [r7, #6]
 1789 000c B3F5805F 		cmp	r3, #4096
 1790 0010 09D2     		bcs	.L86
 532:Drivers/BSP/Components/L6470/L6470.c ****     return (Dec * ((float)1.4552e1));
 1791              		.loc 1 532 17
 1792 0012 FB88     		ldrh	r3, [r7, #6]
 1793 0014 07EE903A 		vmov	s15, r3	@ int
 1794 0018 F8EEE77A 		vcvt.f32.s32	s15, s15
 1795 001c 9FED067A 		vldr.32	s14, .L88
 1796 0020 67EE877A 		vmul.f32	s15, s15, s14
 1797 0024 01E0     		b	.L87
 1798              	.L86:
 533:Drivers/BSP/Components/L6470/L6470.c ****   else
 534:Drivers/BSP/Components/L6470/L6470.c ****     return 0;   // Warning
 1799              		.loc 1 534 12
 1800 0026 DFED057A 		vldr.32	s15, .L88+4
 1801              	.L87:
ARM GAS  C:\Users\ep_ygh\AppData\Local\Temp\cccpn5kX.s 			page 43


 535:Drivers/BSP/Components/L6470/L6470.c **** }
 1802              		.loc 1 535 1
 1803 002a B0EE670A 		vmov.f32	s0, s15
 1804 002e 0C37     		adds	r7, r7, #12
 1805              	.LCFI62:
 1806              		.cfi_def_cfa_offset 4
 1807 0030 BD46     		mov	sp, r7
 1808              	.LCFI63:
 1809              		.cfi_def_cfa_register 13
 1810              		@ sp needed
 1811 0032 5DF8047B 		ldr	r7, [sp], #4
 1812              	.LCFI64:
 1813              		.cfi_restore 7
 1814              		.cfi_def_cfa_offset 0
 1815 0036 7047     		bx	lr
 1816              	.L89:
 1817              		.align	2
 1818              	.L88:
 1819 0038 FED46841 		.word	1097389310
 1820 003c 00000000 		.word	0
 1821              		.cfi_endproc
 1822              	.LFE138:
 1824              		.section	.text.Step_s2_2_Dec,"ax",%progbits
 1825              		.align	1
 1826              		.global	Step_s2_2_Dec
 1827              		.syntax unified
 1828              		.thumb
 1829              		.thumb_func
 1831              	Step_s2_2_Dec:
 1832              	.LFB139:
 536:Drivers/BSP/Components/L6470/L6470.c **** 
 537:Drivers/BSP/Components/L6470/L6470.c **** /**
 538:Drivers/BSP/Components/L6470/L6470.c ****   * @brief  Convert the deceleration as step/(s^2) into a right value for DEC register.
 539:Drivers/BSP/Components/L6470/L6470.c ****   * 
 540:Drivers/BSP/Components/L6470/L6470.c ****   * @param  step/(s^2)  The deceleration as step/(s^2).
 541:Drivers/BSP/Components/L6470/L6470.c ****   * @retval Dec         The DEC register value.
 542:Drivers/BSP/Components/L6470/L6470.c ****   */
 543:Drivers/BSP/Components/L6470/L6470.c **** uint16_t Step_s2_2_Dec(float Step_s2)
 544:Drivers/BSP/Components/L6470/L6470.c **** {
 1833              		.loc 1 544 1
 1834              		.cfi_startproc
 1835              		@ args = 0, pretend = 0, frame = 8
 1836              		@ frame_needed = 1, uses_anonymous_args = 0
 1837              		@ link register save eliminated.
 1838 0000 80B4     		push	{r7}
 1839              	.LCFI65:
 1840              		.cfi_def_cfa_offset 4
 1841              		.cfi_offset 7, -4
 1842 0002 83B0     		sub	sp, sp, #12
 1843              	.LCFI66:
 1844              		.cfi_def_cfa_offset 16
 1845 0004 00AF     		add	r7, sp, #0
 1846              	.LCFI67:
 1847              		.cfi_def_cfa_register 7
 1848 0006 87ED010A 		vstr.32	s0, [r7, #4]
 545:Drivers/BSP/Components/L6470/L6470.c ****   if (Step_s2 <= (L6470_MAX_DEC * ((float)1.4552e1)))
 1849              		.loc 1 545 6
ARM GAS  C:\Users\ep_ygh\AppData\Local\Temp\cccpn5kX.s 			page 44


 1850 000a D7ED017A 		vldr.32	s15, [r7, #4]
 1851 000e 9FED0D7A 		vldr.32	s14, .L96
 1852 0012 F4EEC77A 		vcmpe.f32	s15, s14
 1853 0016 F1EE10FA 		vmrs	APSR_nzcv, FPSCR
 1854 001a 0BD8     		bhi	.L95
 546:Drivers/BSP/Components/L6470/L6470.c ****     return (uint16_t)(Step_s2 / ((float)1.4552e1));
 1855              		.loc 1 546 31
 1856 001c 97ED017A 		vldr.32	s14, [r7, #4]
 1857 0020 DFED096A 		vldr.32	s13, .L96+4
 1858 0024 C7EE267A 		vdiv.f32	s15, s14, s13
 1859              		.loc 1 546 12
 1860 0028 FCEEE77A 		vcvt.u32.f32	s15, s15
 1861 002c 17EE903A 		vmov	r3, s15	@ int
 1862 0030 9BB2     		uxth	r3, r3
 1863 0032 00E0     		b	.L93
 1864              	.L95:
 547:Drivers/BSP/Components/L6470/L6470.c ****   else
 548:Drivers/BSP/Components/L6470/L6470.c ****     return 0;   // Warning
 1865              		.loc 1 548 12
 1866 0034 0023     		movs	r3, #0
 1867              	.L93:
 549:Drivers/BSP/Components/L6470/L6470.c **** }
 1868              		.loc 1 549 1
 1869 0036 1846     		mov	r0, r3
 1870 0038 0C37     		adds	r7, r7, #12
 1871              	.LCFI68:
 1872              		.cfi_def_cfa_offset 4
 1873 003a BD46     		mov	sp, r7
 1874              	.LCFI69:
 1875              		.cfi_def_cfa_register 13
 1876              		@ sp needed
 1877 003c 5DF8047B 		ldr	r7, [sp], #4
 1878              	.LCFI70:
 1879              		.cfi_restore 7
 1880              		.cfi_def_cfa_offset 0
 1881 0040 7047     		bx	lr
 1882              	.L97:
 1883 0042 00BF     		.align	2
 1884              	.L96:
 1885 0044 71C66847 		.word	1198048881
 1886 0048 FED46841 		.word	1097389310
 1887              		.cfi_endproc
 1888              	.LFE139:
 1890              		.section	.text.MaxSpeed_2_Step_s,"ax",%progbits
 1891              		.align	1
 1892              		.global	MaxSpeed_2_Step_s
 1893              		.syntax unified
 1894              		.thumb
 1895              		.thumb_func
 1897              	MaxSpeed_2_Step_s:
 1898              	.LFB140:
 550:Drivers/BSP/Components/L6470/L6470.c **** 
 551:Drivers/BSP/Components/L6470/L6470.c **** /**
 552:Drivers/BSP/Components/L6470/L6470.c ****   * @brief  Convert the MAX_SPEED register value into step/s.
 553:Drivers/BSP/Components/L6470/L6470.c ****   * 
 554:Drivers/BSP/Components/L6470/L6470.c ****   * @param  MaxSpeed    The MAX_SPEED register value.
 555:Drivers/BSP/Components/L6470/L6470.c ****   * @retval step/s      The max speed as step/s.
ARM GAS  C:\Users\ep_ygh\AppData\Local\Temp\cccpn5kX.s 			page 45


 556:Drivers/BSP/Components/L6470/L6470.c ****   */
 557:Drivers/BSP/Components/L6470/L6470.c **** float MaxSpeed_2_Step_s(uint16_t MaxSpeed)
 558:Drivers/BSP/Components/L6470/L6470.c **** {
 1899              		.loc 1 558 1
 1900              		.cfi_startproc
 1901              		@ args = 0, pretend = 0, frame = 8
 1902              		@ frame_needed = 1, uses_anonymous_args = 0
 1903              		@ link register save eliminated.
 1904 0000 80B4     		push	{r7}
 1905              	.LCFI71:
 1906              		.cfi_def_cfa_offset 4
 1907              		.cfi_offset 7, -4
 1908 0002 83B0     		sub	sp, sp, #12
 1909              	.LCFI72:
 1910              		.cfi_def_cfa_offset 16
 1911 0004 00AF     		add	r7, sp, #0
 1912              	.LCFI73:
 1913              		.cfi_def_cfa_register 7
 1914 0006 0346     		mov	r3, r0
 1915 0008 FB80     		strh	r3, [r7, #6]	@ movhi
 559:Drivers/BSP/Components/L6470/L6470.c ****   if (MaxSpeed <= L6470_MAX_MAX_SPEED)
 1916              		.loc 1 559 6
 1917 000a FB88     		ldrh	r3, [r7, #6]
 1918 000c B3F5806F 		cmp	r3, #1024
 1919 0010 09D2     		bcs	.L99
 560:Drivers/BSP/Components/L6470/L6470.c ****     return (MaxSpeed * ((float)15.2588));
 1920              		.loc 1 560 22
 1921 0012 FB88     		ldrh	r3, [r7, #6]
 1922 0014 07EE903A 		vmov	s15, r3	@ int
 1923 0018 F8EEE77A 		vcvt.f32.s32	s15, s15
 1924 001c 9FED067A 		vldr.32	s14, .L101
 1925 0020 67EE877A 		vmul.f32	s15, s15, s14
 1926 0024 01E0     		b	.L100
 1927              	.L99:
 561:Drivers/BSP/Components/L6470/L6470.c ****   else
 562:Drivers/BSP/Components/L6470/L6470.c ****     return 0;   // Warning
 1928              		.loc 1 562 12
 1929 0026 DFED057A 		vldr.32	s15, .L101+4
 1930              	.L100:
 563:Drivers/BSP/Components/L6470/L6470.c **** }
 1931              		.loc 1 563 1
 1932 002a B0EE670A 		vmov.f32	s0, s15
 1933 002e 0C37     		adds	r7, r7, #12
 1934              	.LCFI74:
 1935              		.cfi_def_cfa_offset 4
 1936 0030 BD46     		mov	sp, r7
 1937              	.LCFI75:
 1938              		.cfi_def_cfa_register 13
 1939              		@ sp needed
 1940 0032 5DF8047B 		ldr	r7, [sp], #4
 1941              	.LCFI76:
 1942              		.cfi_restore 7
 1943              		.cfi_def_cfa_offset 0
 1944 0036 7047     		bx	lr
 1945              	.L102:
 1946              		.align	2
 1947              	.L101:
ARM GAS  C:\Users\ep_ygh\AppData\Local\Temp\cccpn5kX.s 			page 46


 1948 0038 0B247441 		.word	1098130443
 1949 003c 00000000 		.word	0
 1950              		.cfi_endproc
 1951              	.LFE140:
 1953              		.section	.text.Step_s_2_MaxSpeed,"ax",%progbits
 1954              		.align	1
 1955              		.global	Step_s_2_MaxSpeed
 1956              		.syntax unified
 1957              		.thumb
 1958              		.thumb_func
 1960              	Step_s_2_MaxSpeed:
 1961              	.LFB141:
 564:Drivers/BSP/Components/L6470/L6470.c **** 
 565:Drivers/BSP/Components/L6470/L6470.c **** /**
 566:Drivers/BSP/Components/L6470/L6470.c ****   * @brief  Convert the max speed as step/s into a right value for MAX_SPEED register.
 567:Drivers/BSP/Components/L6470/L6470.c ****   * 
 568:Drivers/BSP/Components/L6470/L6470.c ****   * @param  step/s      The max speed as step/s.
 569:Drivers/BSP/Components/L6470/L6470.c ****   * @retval MaxSpeed    The MAX_SPEED register value.
 570:Drivers/BSP/Components/L6470/L6470.c ****   */
 571:Drivers/BSP/Components/L6470/L6470.c **** uint16_t Step_s_2_MaxSpeed(float Step_s)
 572:Drivers/BSP/Components/L6470/L6470.c **** {
 1962              		.loc 1 572 1
 1963              		.cfi_startproc
 1964              		@ args = 0, pretend = 0, frame = 8
 1965              		@ frame_needed = 1, uses_anonymous_args = 0
 1966              		@ link register save eliminated.
 1967 0000 80B4     		push	{r7}
 1968              	.LCFI77:
 1969              		.cfi_def_cfa_offset 4
 1970              		.cfi_offset 7, -4
 1971 0002 83B0     		sub	sp, sp, #12
 1972              	.LCFI78:
 1973              		.cfi_def_cfa_offset 16
 1974 0004 00AF     		add	r7, sp, #0
 1975              	.LCFI79:
 1976              		.cfi_def_cfa_register 7
 1977 0006 87ED010A 		vstr.32	s0, [r7, #4]
 573:Drivers/BSP/Components/L6470/L6470.c ****   if (Step_s <= (L6470_MAX_MAX_SPEED * ((float)15.2588)))
 1978              		.loc 1 573 6
 1979 000a D7ED017A 		vldr.32	s15, [r7, #4]
 1980 000e 9FED0D7A 		vldr.32	s14, .L109
 1981 0012 F4EEC77A 		vcmpe.f32	s15, s14
 1982 0016 F1EE10FA 		vmrs	APSR_nzcv, FPSCR
 1983 001a 0BD8     		bhi	.L108
 574:Drivers/BSP/Components/L6470/L6470.c ****     return (uint16_t)(Step_s / ((float)15.2588));
 1984              		.loc 1 574 30
 1985 001c 97ED017A 		vldr.32	s14, [r7, #4]
 1986 0020 DFED096A 		vldr.32	s13, .L109+4
 1987 0024 C7EE267A 		vdiv.f32	s15, s14, s13
 1988              		.loc 1 574 12
 1989 0028 FCEEE77A 		vcvt.u32.f32	s15, s15
 1990 002c 17EE903A 		vmov	r3, s15	@ int
 1991 0030 9BB2     		uxth	r3, r3
 1992 0032 00E0     		b	.L106
 1993              	.L108:
 575:Drivers/BSP/Components/L6470/L6470.c ****   else
 576:Drivers/BSP/Components/L6470/L6470.c ****     return 0;   // Warning
ARM GAS  C:\Users\ep_ygh\AppData\Local\Temp\cccpn5kX.s 			page 47


 1994              		.loc 1 576 12
 1995 0034 0023     		movs	r3, #0
 1996              	.L106:
 577:Drivers/BSP/Components/L6470/L6470.c **** }
 1997              		.loc 1 577 1
 1998 0036 1846     		mov	r0, r3
 1999 0038 0C37     		adds	r7, r7, #12
 2000              	.LCFI80:
 2001              		.cfi_def_cfa_offset 4
 2002 003a BD46     		mov	sp, r7
 2003              	.LCFI81:
 2004              		.cfi_def_cfa_register 13
 2005              		@ sp needed
 2006 003c 5DF8047B 		ldr	r7, [sp], #4
 2007              	.LCFI82:
 2008              		.cfi_restore 7
 2009              		.cfi_def_cfa_offset 0
 2010 0040 7047     		bx	lr
 2011              	.L110:
 2012 0042 00BF     		.align	2
 2013              	.L109:
 2014 0044 02E77346 		.word	1182000898
 2015 0048 0B247441 		.word	1098130443
 2016              		.cfi_endproc
 2017              	.LFE141:
 2019              		.section	.text.MinSpeed_2_Step_s,"ax",%progbits
 2020              		.align	1
 2021              		.global	MinSpeed_2_Step_s
 2022              		.syntax unified
 2023              		.thumb
 2024              		.thumb_func
 2026              	MinSpeed_2_Step_s:
 2027              	.LFB142:
 578:Drivers/BSP/Components/L6470/L6470.c **** 
 579:Drivers/BSP/Components/L6470/L6470.c **** /**
 580:Drivers/BSP/Components/L6470/L6470.c ****   * @brief  Convert the MIN_SPEED register value into step/s.
 581:Drivers/BSP/Components/L6470/L6470.c ****   * 
 582:Drivers/BSP/Components/L6470/L6470.c ****   * @param  MinSpeed    The MIN_SPEED register value.
 583:Drivers/BSP/Components/L6470/L6470.c ****   * @retval step/s      The min speed as step/s.
 584:Drivers/BSP/Components/L6470/L6470.c ****   */
 585:Drivers/BSP/Components/L6470/L6470.c **** float MinSpeed_2_Step_s(uint16_t MinSpeed)
 586:Drivers/BSP/Components/L6470/L6470.c **** {
 2028              		.loc 1 586 1
 2029              		.cfi_startproc
 2030              		@ args = 0, pretend = 0, frame = 8
 2031              		@ frame_needed = 1, uses_anonymous_args = 0
 2032              		@ link register save eliminated.
 2033 0000 80B4     		push	{r7}
 2034              	.LCFI83:
 2035              		.cfi_def_cfa_offset 4
 2036              		.cfi_offset 7, -4
 2037 0002 83B0     		sub	sp, sp, #12
 2038              	.LCFI84:
 2039              		.cfi_def_cfa_offset 16
 2040 0004 00AF     		add	r7, sp, #0
 2041              	.LCFI85:
 2042              		.cfi_def_cfa_register 7
ARM GAS  C:\Users\ep_ygh\AppData\Local\Temp\cccpn5kX.s 			page 48


 2043 0006 0346     		mov	r3, r0
 2044 0008 FB80     		strh	r3, [r7, #6]	@ movhi
 587:Drivers/BSP/Components/L6470/L6470.c ****   if (MinSpeed <= L6470_MAX_MIN_SPEED)
 2045              		.loc 1 587 6
 2046 000a FB88     		ldrh	r3, [r7, #6]
 2047 000c B3F5805F 		cmp	r3, #4096
 2048 0010 09D2     		bcs	.L112
 588:Drivers/BSP/Components/L6470/L6470.c ****     return (MinSpeed * ((float)238.4186e-3));
 2049              		.loc 1 588 22
 2050 0012 FB88     		ldrh	r3, [r7, #6]
 2051 0014 07EE903A 		vmov	s15, r3	@ int
 2052 0018 F8EEE77A 		vcvt.f32.s32	s15, s15
 2053 001c 9FED067A 		vldr.32	s14, .L114
 2054 0020 67EE877A 		vmul.f32	s15, s15, s14
 2055 0024 01E0     		b	.L113
 2056              	.L112:
 589:Drivers/BSP/Components/L6470/L6470.c ****   else
 590:Drivers/BSP/Components/L6470/L6470.c ****     return 0;   // Warning
 2057              		.loc 1 590 12
 2058 0026 DFED057A 		vldr.32	s15, .L114+4
 2059              	.L113:
 591:Drivers/BSP/Components/L6470/L6470.c **** }
 2060              		.loc 1 591 1
 2061 002a B0EE670A 		vmov.f32	s0, s15
 2062 002e 0C37     		adds	r7, r7, #12
 2063              	.LCFI86:
 2064              		.cfi_def_cfa_offset 4
 2065 0030 BD46     		mov	sp, r7
 2066              	.LCFI87:
 2067              		.cfi_def_cfa_register 13
 2068              		@ sp needed
 2069 0032 5DF8047B 		ldr	r7, [sp], #4
 2070              	.LCFI88:
 2071              		.cfi_restore 7
 2072              		.cfi_def_cfa_offset 0
 2073 0036 7047     		bx	lr
 2074              	.L115:
 2075              		.align	2
 2076              	.L114:
 2077 0038 0124743E 		.word	1047798785
 2078 003c 00000000 		.word	0
 2079              		.cfi_endproc
 2080              	.LFE142:
 2082              		.section	.text.Step_s_2_MinSpeed,"ax",%progbits
 2083              		.align	1
 2084              		.global	Step_s_2_MinSpeed
 2085              		.syntax unified
 2086              		.thumb
 2087              		.thumb_func
 2089              	Step_s_2_MinSpeed:
 2090              	.LFB143:
 592:Drivers/BSP/Components/L6470/L6470.c **** 
 593:Drivers/BSP/Components/L6470/L6470.c **** /**
 594:Drivers/BSP/Components/L6470/L6470.c ****   * @brief  Convert the min speed as step/s into a right value for MIN_SPEED register.
 595:Drivers/BSP/Components/L6470/L6470.c ****   * 
 596:Drivers/BSP/Components/L6470/L6470.c ****   * @param  step/s      The min speed as step/s.
 597:Drivers/BSP/Components/L6470/L6470.c ****   * @retval MinSpeed    The MIN_SPEED register value.
ARM GAS  C:\Users\ep_ygh\AppData\Local\Temp\cccpn5kX.s 			page 49


 598:Drivers/BSP/Components/L6470/L6470.c ****   */
 599:Drivers/BSP/Components/L6470/L6470.c **** uint16_t Step_s_2_MinSpeed(float Step_s)
 600:Drivers/BSP/Components/L6470/L6470.c **** {
 2091              		.loc 1 600 1
 2092              		.cfi_startproc
 2093              		@ args = 0, pretend = 0, frame = 8
 2094              		@ frame_needed = 1, uses_anonymous_args = 0
 2095              		@ link register save eliminated.
 2096 0000 80B4     		push	{r7}
 2097              	.LCFI89:
 2098              		.cfi_def_cfa_offset 4
 2099              		.cfi_offset 7, -4
 2100 0002 83B0     		sub	sp, sp, #12
 2101              	.LCFI90:
 2102              		.cfi_def_cfa_offset 16
 2103 0004 00AF     		add	r7, sp, #0
 2104              	.LCFI91:
 2105              		.cfi_def_cfa_register 7
 2106 0006 87ED010A 		vstr.32	s0, [r7, #4]
 601:Drivers/BSP/Components/L6470/L6470.c ****   if (Step_s <= (L6470_MAX_MIN_SPEED * ((float)238.4186e-3)))
 2107              		.loc 1 601 6
 2108 000a D7ED017A 		vldr.32	s15, [r7, #4]
 2109 000e 9FED0D7A 		vldr.32	s14, .L122
 2110 0012 F4EEC77A 		vcmpe.f32	s15, s14
 2111 0016 F1EE10FA 		vmrs	APSR_nzcv, FPSCR
 2112 001a 0BD8     		bhi	.L121
 602:Drivers/BSP/Components/L6470/L6470.c ****     return (uint16_t)(Step_s / ((float)238.4186e-3));
 2113              		.loc 1 602 30
 2114 001c 97ED017A 		vldr.32	s14, [r7, #4]
 2115 0020 DFED096A 		vldr.32	s13, .L122+4
 2116 0024 C7EE267A 		vdiv.f32	s15, s14, s13
 2117              		.loc 1 602 12
 2118 0028 FCEEE77A 		vcvt.u32.f32	s15, s15
 2119 002c 17EE903A 		vmov	r3, s15	@ int
 2120 0030 9BB2     		uxth	r3, r3
 2121 0032 00E0     		b	.L119
 2122              	.L121:
 603:Drivers/BSP/Components/L6470/L6470.c ****   else
 604:Drivers/BSP/Components/L6470/L6470.c ****     return 0;   // Warning
 2123              		.loc 1 604 12
 2124 0034 0023     		movs	r3, #0
 2125              	.L119:
 605:Drivers/BSP/Components/L6470/L6470.c **** }
 2126              		.loc 1 605 1
 2127 0036 1846     		mov	r0, r3
 2128 0038 0C37     		adds	r7, r7, #12
 2129              	.LCFI92:
 2130              		.cfi_def_cfa_offset 4
 2131 003a BD46     		mov	sp, r7
 2132              	.LCFI93:
 2133              		.cfi_def_cfa_register 13
 2134              		@ sp needed
 2135 003c 5DF8047B 		ldr	r7, [sp], #4
 2136              	.LCFI94:
 2137              		.cfi_restore 7
 2138              		.cfi_def_cfa_offset 0
 2139 0040 7047     		bx	lr
ARM GAS  C:\Users\ep_ygh\AppData\Local\Temp\cccpn5kX.s 			page 50


 2140              	.L123:
 2141 0042 00BF     		.align	2
 2142              	.L122:
 2143 0044 BF147444 		.word	1148458175
 2144 0048 0124743E 		.word	1047798785
 2145              		.cfi_endproc
 2146              	.LFE143:
 2148              		.global	__aeabi_i2d
 2149              		.global	__aeabi_dadd
 2150              		.global	__aeabi_dmul
 2151              		.global	__aeabi_d2f
 2152              		.section	.text.FsSpd_2_Step_s,"ax",%progbits
 2153              		.align	1
 2154              		.global	FsSpd_2_Step_s
 2155              		.syntax unified
 2156              		.thumb
 2157              		.thumb_func
 2159              	FsSpd_2_Step_s:
 2160              	.LFB144:
 606:Drivers/BSP/Components/L6470/L6470.c **** 
 607:Drivers/BSP/Components/L6470/L6470.c **** /**
 608:Drivers/BSP/Components/L6470/L6470.c ****   * @brief  Convert the FS_SPD register value into step/s.
 609:Drivers/BSP/Components/L6470/L6470.c ****   * 
 610:Drivers/BSP/Components/L6470/L6470.c ****   * @param  FsSpd       The FS_SPD register value.
 611:Drivers/BSP/Components/L6470/L6470.c ****   * @retval step/s      The full-step speed as step/s.
 612:Drivers/BSP/Components/L6470/L6470.c ****   */
 613:Drivers/BSP/Components/L6470/L6470.c **** float FsSpd_2_Step_s(uint16_t FsSpd)
 614:Drivers/BSP/Components/L6470/L6470.c **** {
 2161              		.loc 1 614 1
 2162              		.cfi_startproc
 2163              		@ args = 0, pretend = 0, frame = 8
 2164              		@ frame_needed = 1, uses_anonymous_args = 0
 2165 0000 80B5     		push	{r7, lr}
 2166              	.LCFI95:
 2167              		.cfi_def_cfa_offset 8
 2168              		.cfi_offset 7, -8
 2169              		.cfi_offset 14, -4
 2170 0002 82B0     		sub	sp, sp, #8
 2171              	.LCFI96:
 2172              		.cfi_def_cfa_offset 16
 2173 0004 00AF     		add	r7, sp, #0
 2174              	.LCFI97:
 2175              		.cfi_def_cfa_register 7
 2176 0006 0346     		mov	r3, r0
 2177 0008 FB80     		strh	r3, [r7, #6]	@ movhi
 615:Drivers/BSP/Components/L6470/L6470.c ****   if (FsSpd <= L6470_MAX_FS_SPD)
 2178              		.loc 1 615 6
 2179 000a FB88     		ldrh	r3, [r7, #6]
 2180 000c B3F5806F 		cmp	r3, #1024
 2181 0010 19D2     		bcs	.L125
 616:Drivers/BSP/Components/L6470/L6470.c ****     return ((FsSpd+0.5) * ((float)15.25));
 2182              		.loc 1 616 19
 2183 0012 FB88     		ldrh	r3, [r7, #6]
 2184 0014 1846     		mov	r0, r3
 2185 0016 FFF7FEFF 		bl	__aeabi_i2d
 2186 001a 4FF00002 		mov	r2, #0
 2187 001e 0E4B     		ldr	r3, .L127
ARM GAS  C:\Users\ep_ygh\AppData\Local\Temp\cccpn5kX.s 			page 51


 2188 0020 FFF7FEFF 		bl	__aeabi_dadd
 2189 0024 0246     		mov	r2, r0
 2190 0026 0B46     		mov	r3, r1
 2191 0028 1046     		mov	r0, r2
 2192 002a 1946     		mov	r1, r3
 2193              		.loc 1 616 25
 2194 002c 4FF00002 		mov	r2, #0
 2195 0030 0A4B     		ldr	r3, .L127+4
 2196 0032 FFF7FEFF 		bl	__aeabi_dmul
 2197 0036 0246     		mov	r2, r0
 2198 0038 0B46     		mov	r3, r1
 2199 003a 1046     		mov	r0, r2
 2200 003c 1946     		mov	r1, r3
 2201 003e FFF7FEFF 		bl	__aeabi_d2f
 2202 0042 0346     		mov	r3, r0	@ float
 2203 0044 01E0     		b	.L126
 2204              	.L125:
 617:Drivers/BSP/Components/L6470/L6470.c ****   else
 618:Drivers/BSP/Components/L6470/L6470.c ****     return 0;   // Warning
 2205              		.loc 1 618 12
 2206 0046 4FF00003 		mov	r3, #0
 2207              	.L126:
 619:Drivers/BSP/Components/L6470/L6470.c **** }
 2208              		.loc 1 619 1
 2209 004a 07EE903A 		vmov	s15, r3
 2210 004e B0EE670A 		vmov.f32	s0, s15
 2211 0052 0837     		adds	r7, r7, #8
 2212              	.LCFI98:
 2213              		.cfi_def_cfa_offset 8
 2214 0054 BD46     		mov	sp, r7
 2215              	.LCFI99:
 2216              		.cfi_def_cfa_register 13
 2217              		@ sp needed
 2218 0056 80BD     		pop	{r7, pc}
 2219              	.L128:
 2220              		.align	2
 2221              	.L127:
 2222 0058 0000E03F 		.word	1071644672
 2223 005c 00802E40 		.word	1076789248
 2224              		.cfi_endproc
 2225              	.LFE144:
 2227              		.section	.text.Step_s_2_FsSpd,"ax",%progbits
 2228              		.align	1
 2229              		.global	Step_s_2_FsSpd
 2230              		.syntax unified
 2231              		.thumb
 2232              		.thumb_func
 2234              	Step_s_2_FsSpd:
 2235              	.LFB145:
 620:Drivers/BSP/Components/L6470/L6470.c **** 
 621:Drivers/BSP/Components/L6470/L6470.c **** /**
 622:Drivers/BSP/Components/L6470/L6470.c ****   * @brief  Convert the full-step speed as step/s into a right value for FS_SPD register.
 623:Drivers/BSP/Components/L6470/L6470.c ****   * 
 624:Drivers/BSP/Components/L6470/L6470.c ****   * @param  step/s      The full-step speed as step/s.
 625:Drivers/BSP/Components/L6470/L6470.c ****   * @retval FsSpd       The FS_SPD register value.
 626:Drivers/BSP/Components/L6470/L6470.c ****   */
 627:Drivers/BSP/Components/L6470/L6470.c **** uint16_t Step_s_2_FsSpd(float Step_s)
ARM GAS  C:\Users\ep_ygh\AppData\Local\Temp\cccpn5kX.s 			page 52


 628:Drivers/BSP/Components/L6470/L6470.c **** {
 2236              		.loc 1 628 1
 2237              		.cfi_startproc
 2238              		@ args = 0, pretend = 0, frame = 8
 2239              		@ frame_needed = 1, uses_anonymous_args = 0
 2240              		@ link register save eliminated.
 2241 0000 80B4     		push	{r7}
 2242              	.LCFI100:
 2243              		.cfi_def_cfa_offset 4
 2244              		.cfi_offset 7, -4
 2245 0002 83B0     		sub	sp, sp, #12
 2246              	.LCFI101:
 2247              		.cfi_def_cfa_offset 16
 2248 0004 00AF     		add	r7, sp, #0
 2249              	.LCFI102:
 2250              		.cfi_def_cfa_register 7
 2251 0006 87ED010A 		vstr.32	s0, [r7, #4]
 629:Drivers/BSP/Components/L6470/L6470.c ****   if (Step_s <= ((L6470_MAX_FS_SPD+0.5) * ((float)15.25)))
 2252              		.loc 1 629 6
 2253 000a D7ED017A 		vldr.32	s15, [r7, #4]
 2254 000e 9FED0F7A 		vldr.32	s14, .L135
 2255 0012 F4EEC77A 		vcmpe.f32	s15, s14
 2256 0016 F1EE10FA 		vmrs	APSR_nzcv, FPSCR
 2257 001a 0FD8     		bhi	.L134
 630:Drivers/BSP/Components/L6470/L6470.c ****     return (uint16_t)((float)(Step_s / ((float)15.25)) - (float)0.5);
 2258              		.loc 1 630 23
 2259 001c 97ED017A 		vldr.32	s14, [r7, #4]
 2260 0020 DFED0B6A 		vldr.32	s13, .L135+4
 2261 0024 C7EE267A 		vdiv.f32	s15, s14, s13
 2262              		.loc 1 630 56
 2263 0028 B6EE007A 		vmov.f32	s14, #5.0e-1
 2264 002c 77EEC77A 		vsub.f32	s15, s15, s14
 2265              		.loc 1 630 12
 2266 0030 FCEEE77A 		vcvt.u32.f32	s15, s15
 2267 0034 17EE903A 		vmov	r3, s15	@ int
 2268 0038 9BB2     		uxth	r3, r3
 2269 003a 00E0     		b	.L132
 2270              	.L134:
 631:Drivers/BSP/Components/L6470/L6470.c ****   else
 632:Drivers/BSP/Components/L6470/L6470.c ****     return 0;   // Warning
 2271              		.loc 1 632 12
 2272 003c 0023     		movs	r3, #0
 2273              	.L132:
 633:Drivers/BSP/Components/L6470/L6470.c **** }
 2274              		.loc 1 633 1
 2275 003e 1846     		mov	r0, r3
 2276 0040 0C37     		adds	r7, r7, #12
 2277              	.LCFI103:
 2278              		.cfi_def_cfa_offset 4
 2279 0042 BD46     		mov	sp, r7
 2280              	.LCFI104:
 2281              		.cfi_def_cfa_register 13
 2282              		@ sp needed
 2283 0044 5DF8047B 		ldr	r7, [sp], #4
 2284              	.LCFI105:
 2285              		.cfi_restore 7
 2286              		.cfi_def_cfa_offset 0
ARM GAS  C:\Users\ep_ygh\AppData\Local\Temp\cccpn5kX.s 			page 53


 2287 0048 7047     		bx	lr
 2288              	.L136:
 2289 004a 00BF     		.align	2
 2290              	.L135:
 2291 004c 80E17346 		.word	1181999488
 2292 0050 00007441 		.word	1098121216
 2293              		.cfi_endproc
 2294              	.LFE145:
 2296              		.section	.text.IntSpeed_2_Step_s,"ax",%progbits
 2297              		.align	1
 2298              		.global	IntSpeed_2_Step_s
 2299              		.syntax unified
 2300              		.thumb
 2301              		.thumb_func
 2303              	IntSpeed_2_Step_s:
 2304              	.LFB146:
 634:Drivers/BSP/Components/L6470/L6470.c **** 
 635:Drivers/BSP/Components/L6470/L6470.c **** /**
 636:Drivers/BSP/Components/L6470/L6470.c ****   * @brief  Convert the INT_SPEED register value into step/s.
 637:Drivers/BSP/Components/L6470/L6470.c ****   * 
 638:Drivers/BSP/Components/L6470/L6470.c ****   * @param  IntSpeed    The INT_SPEED register value.
 639:Drivers/BSP/Components/L6470/L6470.c ****   * @retval step/s      The intersect speed as step/s.
 640:Drivers/BSP/Components/L6470/L6470.c ****   */
 641:Drivers/BSP/Components/L6470/L6470.c **** float IntSpeed_2_Step_s(uint16_t IntSpeed)
 642:Drivers/BSP/Components/L6470/L6470.c **** {
 2305              		.loc 1 642 1
 2306              		.cfi_startproc
 2307              		@ args = 0, pretend = 0, frame = 8
 2308              		@ frame_needed = 1, uses_anonymous_args = 0
 2309              		@ link register save eliminated.
 2310 0000 80B4     		push	{r7}
 2311              	.LCFI106:
 2312              		.cfi_def_cfa_offset 4
 2313              		.cfi_offset 7, -4
 2314 0002 83B0     		sub	sp, sp, #12
 2315              	.LCFI107:
 2316              		.cfi_def_cfa_offset 16
 2317 0004 00AF     		add	r7, sp, #0
 2318              	.LCFI108:
 2319              		.cfi_def_cfa_register 7
 2320 0006 0346     		mov	r3, r0
 2321 0008 FB80     		strh	r3, [r7, #6]	@ movhi
 643:Drivers/BSP/Components/L6470/L6470.c ****   if (IntSpeed <= L6470_MAX_INT_SPEED)
 2322              		.loc 1 643 6
 2323 000a FB88     		ldrh	r3, [r7, #6]
 2324 000c B3F5804F 		cmp	r3, #16384
 2325 0010 09D2     		bcs	.L138
 644:Drivers/BSP/Components/L6470/L6470.c ****     return (IntSpeed * ((float)59.6046e-3));
 2326              		.loc 1 644 22
 2327 0012 FB88     		ldrh	r3, [r7, #6]
 2328 0014 07EE903A 		vmov	s15, r3	@ int
 2329 0018 F8EEE77A 		vcvt.f32.s32	s15, s15
 2330 001c 9FED067A 		vldr.32	s14, .L140
 2331 0020 67EE877A 		vmul.f32	s15, s15, s14
 2332 0024 01E0     		b	.L139
 2333              	.L138:
 645:Drivers/BSP/Components/L6470/L6470.c ****   else
ARM GAS  C:\Users\ep_ygh\AppData\Local\Temp\cccpn5kX.s 			page 54


 646:Drivers/BSP/Components/L6470/L6470.c ****     return 0;   // Warning
 2334              		.loc 1 646 12
 2335 0026 DFED057A 		vldr.32	s15, .L140+4
 2336              	.L139:
 647:Drivers/BSP/Components/L6470/L6470.c **** }
 2337              		.loc 1 647 1
 2338 002a B0EE670A 		vmov.f32	s0, s15
 2339 002e 0C37     		adds	r7, r7, #12
 2340              	.LCFI109:
 2341              		.cfi_def_cfa_offset 4
 2342 0030 BD46     		mov	sp, r7
 2343              	.LCFI110:
 2344              		.cfi_def_cfa_register 13
 2345              		@ sp needed
 2346 0032 5DF8047B 		ldr	r7, [sp], #4
 2347              	.LCFI111:
 2348              		.cfi_restore 7
 2349              		.cfi_def_cfa_offset 0
 2350 0036 7047     		bx	lr
 2351              	.L141:
 2352              		.align	2
 2353              	.L140:
 2354 0038 F423743D 		.word	1031021556
 2355 003c 00000000 		.word	0
 2356              		.cfi_endproc
 2357              	.LFE146:
 2359              		.section	.text.Step_s_2_IntSpeed,"ax",%progbits
 2360              		.align	1
 2361              		.global	Step_s_2_IntSpeed
 2362              		.syntax unified
 2363              		.thumb
 2364              		.thumb_func
 2366              	Step_s_2_IntSpeed:
 2367              	.LFB147:
 648:Drivers/BSP/Components/L6470/L6470.c **** 
 649:Drivers/BSP/Components/L6470/L6470.c **** /**
 650:Drivers/BSP/Components/L6470/L6470.c ****   * @brief  Convert the intersect speed as step/s into a right value for INT_SPEED register.
 651:Drivers/BSP/Components/L6470/L6470.c ****   * 
 652:Drivers/BSP/Components/L6470/L6470.c ****   * @param  step/s      The full-step speed as step/s.
 653:Drivers/BSP/Components/L6470/L6470.c ****   * @retval FsSpd       The FS_SPD register value.
 654:Drivers/BSP/Components/L6470/L6470.c ****   */
 655:Drivers/BSP/Components/L6470/L6470.c **** uint16_t Step_s_2_IntSpeed(float Step_s)
 656:Drivers/BSP/Components/L6470/L6470.c **** {
 2368              		.loc 1 656 1
 2369              		.cfi_startproc
 2370              		@ args = 0, pretend = 0, frame = 8
 2371              		@ frame_needed = 1, uses_anonymous_args = 0
 2372              		@ link register save eliminated.
 2373 0000 80B4     		push	{r7}
 2374              	.LCFI112:
 2375              		.cfi_def_cfa_offset 4
 2376              		.cfi_offset 7, -4
 2377 0002 83B0     		sub	sp, sp, #12
 2378              	.LCFI113:
 2379              		.cfi_def_cfa_offset 16
 2380 0004 00AF     		add	r7, sp, #0
 2381              	.LCFI114:
ARM GAS  C:\Users\ep_ygh\AppData\Local\Temp\cccpn5kX.s 			page 55


 2382              		.cfi_def_cfa_register 7
 2383 0006 87ED010A 		vstr.32	s0, [r7, #4]
 657:Drivers/BSP/Components/L6470/L6470.c ****   if (Step_s <= (L6470_MAX_INT_SPEED * ((float)59.6046e-3)))
 2384              		.loc 1 657 6
 2385 000a D7ED017A 		vldr.32	s15, [r7, #4]
 2386 000e 9FED0D7A 		vldr.32	s14, .L148
 2387 0012 F4EEC77A 		vcmpe.f32	s15, s14
 2388 0016 F1EE10FA 		vmrs	APSR_nzcv, FPSCR
 2389 001a 0BD8     		bhi	.L147
 658:Drivers/BSP/Components/L6470/L6470.c ****     return (uint16_t)(Step_s / ((float)59.6046e-3));
 2390              		.loc 1 658 30
 2391 001c 97ED017A 		vldr.32	s14, [r7, #4]
 2392 0020 DFED096A 		vldr.32	s13, .L148+4
 2393 0024 C7EE267A 		vdiv.f32	s15, s14, s13
 2394              		.loc 1 658 12
 2395 0028 FCEEE77A 		vcvt.u32.f32	s15, s15
 2396 002c 17EE903A 		vmov	r3, s15	@ int
 2397 0030 9BB2     		uxth	r3, r3
 2398 0032 00E0     		b	.L145
 2399              	.L147:
 659:Drivers/BSP/Components/L6470/L6470.c ****   else
 660:Drivers/BSP/Components/L6470/L6470.c ****     return 0;   // Warning
 2400              		.loc 1 660 12
 2401 0034 0023     		movs	r3, #0
 2402              	.L145:
 661:Drivers/BSP/Components/L6470/L6470.c **** }
 2403              		.loc 1 661 1
 2404 0036 1846     		mov	r0, r3
 2405 0038 0C37     		adds	r7, r7, #12
 2406              	.LCFI115:
 2407              		.cfi_def_cfa_offset 4
 2408 003a BD46     		mov	sp, r7
 2409              	.LCFI116:
 2410              		.cfi_def_cfa_register 13
 2411              		@ sp needed
 2412 003c 5DF8047B 		ldr	r7, [sp], #4
 2413              	.LCFI117:
 2414              		.cfi_restore 7
 2415              		.cfi_def_cfa_offset 0
 2416 0040 7047     		bx	lr
 2417              	.L149:
 2418 0042 00BF     		.align	2
 2419              	.L148:
 2420 0044 23207444 		.word	1148461091
 2421 0048 F423743D 		.word	1031021556
 2422              		.cfi_endproc
 2423              	.LFE147:
 2425              		.section	.text.StSlp_2_s_Step,"ax",%progbits
 2426              		.align	1
 2427              		.global	StSlp_2_s_Step
 2428              		.syntax unified
 2429              		.thumb
 2430              		.thumb_func
 2432              	StSlp_2_s_Step:
 2433              	.LFB148:
 662:Drivers/BSP/Components/L6470/L6470.c **** 
 663:Drivers/BSP/Components/L6470/L6470.c **** /**
ARM GAS  C:\Users\ep_ygh\AppData\Local\Temp\cccpn5kX.s 			page 56


 664:Drivers/BSP/Components/L6470/L6470.c ****   * @brief  Convert the ST_SLP register value into s/step.
 665:Drivers/BSP/Components/L6470/L6470.c ****   * 
 666:Drivers/BSP/Components/L6470/L6470.c ****   * @param  StartSlope  The ST_SLP register value.
 667:Drivers/BSP/Components/L6470/L6470.c ****   * @retval s/step      The start slope as s/step.
 668:Drivers/BSP/Components/L6470/L6470.c ****   */
 669:Drivers/BSP/Components/L6470/L6470.c **** float StSlp_2_s_Step(uint8_t StSlp)
 670:Drivers/BSP/Components/L6470/L6470.c **** {
 2434              		.loc 1 670 1
 2435              		.cfi_startproc
 2436              		@ args = 0, pretend = 0, frame = 8
 2437              		@ frame_needed = 1, uses_anonymous_args = 0
 2438              		@ link register save eliminated.
 2439 0000 80B4     		push	{r7}
 2440              	.LCFI118:
 2441              		.cfi_def_cfa_offset 4
 2442              		.cfi_offset 7, -4
 2443 0002 83B0     		sub	sp, sp, #12
 2444              	.LCFI119:
 2445              		.cfi_def_cfa_offset 16
 2446 0004 00AF     		add	r7, sp, #0
 2447              	.LCFI120:
 2448              		.cfi_def_cfa_register 7
 2449 0006 0346     		mov	r3, r0
 2450 0008 FB71     		strb	r3, [r7, #7]
 671:Drivers/BSP/Components/L6470/L6470.c **** //  if (StSlp <= L6470_MAX_ST_SLP)
 672:Drivers/BSP/Components/L6470/L6470.c ****     return (StSlp * ((float)1.5686e-5));
 2451              		.loc 1 672 19
 2452 000a FB79     		ldrb	r3, [r7, #7]	@ zero_extendqisi2
 2453 000c 07EE903A 		vmov	s15, r3	@ int
 2454 0010 F8EEE77A 		vcvt.f32.s32	s15, s15
 2455 0014 9FED057A 		vldr.32	s14, .L152
 2456 0018 67EE877A 		vmul.f32	s15, s15, s14
 673:Drivers/BSP/Components/L6470/L6470.c **** //  else
 674:Drivers/BSP/Components/L6470/L6470.c **** //    return 0;   // Warning
 675:Drivers/BSP/Components/L6470/L6470.c **** }
 2457              		.loc 1 675 1
 2458 001c B0EE670A 		vmov.f32	s0, s15
 2459 0020 0C37     		adds	r7, r7, #12
 2460              	.LCFI121:
 2461              		.cfi_def_cfa_offset 4
 2462 0022 BD46     		mov	sp, r7
 2463              	.LCFI122:
 2464              		.cfi_def_cfa_register 13
 2465              		@ sp needed
 2466 0024 5DF8047B 		ldr	r7, [sp], #4
 2467              	.LCFI123:
 2468              		.cfi_restore 7
 2469              		.cfi_def_cfa_offset 0
 2470 0028 7047     		bx	lr
 2471              	.L153:
 2472 002a 00BF     		.align	2
 2473              	.L152:
 2474 002c 6E958337 		.word	931370350
 2475              		.cfi_endproc
 2476              	.LFE148:
 2478              		.section	.text.s_Step_2_StSlp,"ax",%progbits
 2479              		.align	1
ARM GAS  C:\Users\ep_ygh\AppData\Local\Temp\cccpn5kX.s 			page 57


 2480              		.global	s_Step_2_StSlp
 2481              		.syntax unified
 2482              		.thumb
 2483              		.thumb_func
 2485              	s_Step_2_StSlp:
 2486              	.LFB149:
 676:Drivers/BSP/Components/L6470/L6470.c **** 
 677:Drivers/BSP/Components/L6470/L6470.c **** /**
 678:Drivers/BSP/Components/L6470/L6470.c ****   * @brief  Convert the intersect speed as step/s into a right value for INT_SPEED register.
 679:Drivers/BSP/Components/L6470/L6470.c ****   * 
 680:Drivers/BSP/Components/L6470/L6470.c ****   * @param  step/s      The full-step speed as step/s.
 681:Drivers/BSP/Components/L6470/L6470.c ****   * @retval FsSpd       The FS_SPD register value.
 682:Drivers/BSP/Components/L6470/L6470.c ****   */
 683:Drivers/BSP/Components/L6470/L6470.c **** uint8_t s_Step_2_StSlp(float s_Step)
 684:Drivers/BSP/Components/L6470/L6470.c **** {
 2487              		.loc 1 684 1
 2488              		.cfi_startproc
 2489              		@ args = 0, pretend = 0, frame = 8
 2490              		@ frame_needed = 1, uses_anonymous_args = 0
 2491              		@ link register save eliminated.
 2492 0000 80B4     		push	{r7}
 2493              	.LCFI124:
 2494              		.cfi_def_cfa_offset 4
 2495              		.cfi_offset 7, -4
 2496 0002 83B0     		sub	sp, sp, #12
 2497              	.LCFI125:
 2498              		.cfi_def_cfa_offset 16
 2499 0004 00AF     		add	r7, sp, #0
 2500              	.LCFI126:
 2501              		.cfi_def_cfa_register 7
 2502 0006 87ED010A 		vstr.32	s0, [r7, #4]
 685:Drivers/BSP/Components/L6470/L6470.c ****   if (s_Step <= (L6470_MAX_ST_SLP * ((float)1.5686e-5)))
 2503              		.loc 1 685 6
 2504 000a D7ED017A 		vldr.32	s15, [r7, #4]
 2505 000e 9FED0D7A 		vldr.32	s14, .L160
 2506 0012 F4EEC77A 		vcmpe.f32	s15, s14
 2507 0016 F1EE10FA 		vmrs	APSR_nzcv, FPSCR
 2508 001a 0CD8     		bhi	.L159
 686:Drivers/BSP/Components/L6470/L6470.c ****     return (uint8_t)(s_Step / ((float)1.5686e-5));
 2509              		.loc 1 686 29
 2510 001c 97ED017A 		vldr.32	s14, [r7, #4]
 2511 0020 DFED096A 		vldr.32	s13, .L160+4
 2512 0024 C7EE267A 		vdiv.f32	s15, s14, s13
 2513              		.loc 1 686 12
 2514 0028 FCEEE77A 		vcvt.u32.f32	s15, s15
 2515 002c C7ED007A 		vstr.32	s15, [r7]	@ int
 2516 0030 3B78     		ldrb	r3, [r7]
 2517 0032 DBB2     		uxtb	r3, r3
 2518 0034 00E0     		b	.L157
 2519              	.L159:
 687:Drivers/BSP/Components/L6470/L6470.c ****   else
 688:Drivers/BSP/Components/L6470/L6470.c ****     return 0;   // Warning
 2520              		.loc 1 688 12
 2521 0036 0023     		movs	r3, #0
 2522              	.L157:
 689:Drivers/BSP/Components/L6470/L6470.c **** }
 2523              		.loc 1 689 1
ARM GAS  C:\Users\ep_ygh\AppData\Local\Temp\cccpn5kX.s 			page 58


 2524 0038 1846     		mov	r0, r3
 2525 003a 0C37     		adds	r7, r7, #12
 2526              	.LCFI127:
 2527              		.cfi_def_cfa_offset 4
 2528 003c BD46     		mov	sp, r7
 2529              	.LCFI128:
 2530              		.cfi_def_cfa_register 13
 2531              		@ sp needed
 2532 003e 5DF8047B 		ldr	r7, [sp], #4
 2533              	.LCFI129:
 2534              		.cfi_restore 7
 2535              		.cfi_def_cfa_offset 0
 2536 0042 7047     		bx	lr
 2537              	.L161:
 2538              		.align	2
 2539              	.L160:
 2540 0044 D911833B 		.word	998445529
 2541 0048 6E958337 		.word	931370350
 2542              		.cfi_endproc
 2543              	.LFE149:
 2545              		.section	.text.FnSlpAcc_2_s_Step,"ax",%progbits
 2546              		.align	1
 2547              		.global	FnSlpAcc_2_s_Step
 2548              		.syntax unified
 2549              		.thumb
 2550              		.thumb_func
 2552              	FnSlpAcc_2_s_Step:
 2553              	.LFB150:
 690:Drivers/BSP/Components/L6470/L6470.c **** 
 691:Drivers/BSP/Components/L6470/L6470.c **** /**
 692:Drivers/BSP/Components/L6470/L6470.c ****   * @brief  Convert the INT_SPEED register value into step/s.
 693:Drivers/BSP/Components/L6470/L6470.c ****   * 
 694:Drivers/BSP/Components/L6470/L6470.c ****   * @param  IntSpeed    The INT_SPEED register value.
 695:Drivers/BSP/Components/L6470/L6470.c ****   * @retval step/s      The intersect speed as step/s.
 696:Drivers/BSP/Components/L6470/L6470.c ****   */
 697:Drivers/BSP/Components/L6470/L6470.c **** float FnSlpAcc_2_s_Step(uint8_t FnSlpAcc)
 698:Drivers/BSP/Components/L6470/L6470.c **** {
 2554              		.loc 1 698 1
 2555              		.cfi_startproc
 2556              		@ args = 0, pretend = 0, frame = 8
 2557              		@ frame_needed = 1, uses_anonymous_args = 0
 2558              		@ link register save eliminated.
 2559 0000 80B4     		push	{r7}
 2560              	.LCFI130:
 2561              		.cfi_def_cfa_offset 4
 2562              		.cfi_offset 7, -4
 2563 0002 83B0     		sub	sp, sp, #12
 2564              	.LCFI131:
 2565              		.cfi_def_cfa_offset 16
 2566 0004 00AF     		add	r7, sp, #0
 2567              	.LCFI132:
 2568              		.cfi_def_cfa_register 7
 2569 0006 0346     		mov	r3, r0
 2570 0008 FB71     		strb	r3, [r7, #7]
 699:Drivers/BSP/Components/L6470/L6470.c **** //  if (FnSlpAcc <= L6470_MAX_FN_SLP_ACC)
 700:Drivers/BSP/Components/L6470/L6470.c ****     return (FnSlpAcc * ((float)1.5686e-5));
 2571              		.loc 1 700 22
ARM GAS  C:\Users\ep_ygh\AppData\Local\Temp\cccpn5kX.s 			page 59


 2572 000a FB79     		ldrb	r3, [r7, #7]	@ zero_extendqisi2
 2573 000c 07EE903A 		vmov	s15, r3	@ int
 2574 0010 F8EEE77A 		vcvt.f32.s32	s15, s15
 2575 0014 9FED057A 		vldr.32	s14, .L164
 2576 0018 67EE877A 		vmul.f32	s15, s15, s14
 701:Drivers/BSP/Components/L6470/L6470.c **** //  else
 702:Drivers/BSP/Components/L6470/L6470.c **** //    return 0;   // Warning
 703:Drivers/BSP/Components/L6470/L6470.c **** }
 2577              		.loc 1 703 1
 2578 001c B0EE670A 		vmov.f32	s0, s15
 2579 0020 0C37     		adds	r7, r7, #12
 2580              	.LCFI133:
 2581              		.cfi_def_cfa_offset 4
 2582 0022 BD46     		mov	sp, r7
 2583              	.LCFI134:
 2584              		.cfi_def_cfa_register 13
 2585              		@ sp needed
 2586 0024 5DF8047B 		ldr	r7, [sp], #4
 2587              	.LCFI135:
 2588              		.cfi_restore 7
 2589              		.cfi_def_cfa_offset 0
 2590 0028 7047     		bx	lr
 2591              	.L165:
 2592 002a 00BF     		.align	2
 2593              	.L164:
 2594 002c 6E958337 		.word	931370350
 2595              		.cfi_endproc
 2596              	.LFE150:
 2598              		.section	.text.s_Step_2_FnSlpAcc,"ax",%progbits
 2599              		.align	1
 2600              		.global	s_Step_2_FnSlpAcc
 2601              		.syntax unified
 2602              		.thumb
 2603              		.thumb_func
 2605              	s_Step_2_FnSlpAcc:
 2606              	.LFB151:
 704:Drivers/BSP/Components/L6470/L6470.c **** 
 705:Drivers/BSP/Components/L6470/L6470.c **** /**
 706:Drivers/BSP/Components/L6470/L6470.c ****   * @brief  Convert the intersect speed as step/s into a right value for INT_SPEED register.
 707:Drivers/BSP/Components/L6470/L6470.c ****   * 
 708:Drivers/BSP/Components/L6470/L6470.c ****   * @param  step/s      The full-step speed as step/s.
 709:Drivers/BSP/Components/L6470/L6470.c ****   * @retval FsSpd       The FS_SPD register value.
 710:Drivers/BSP/Components/L6470/L6470.c ****   */
 711:Drivers/BSP/Components/L6470/L6470.c **** uint8_t s_Step_2_FnSlpAcc(float s_Step)
 712:Drivers/BSP/Components/L6470/L6470.c **** {
 2607              		.loc 1 712 1
 2608              		.cfi_startproc
 2609              		@ args = 0, pretend = 0, frame = 8
 2610              		@ frame_needed = 1, uses_anonymous_args = 0
 2611              		@ link register save eliminated.
 2612 0000 80B4     		push	{r7}
 2613              	.LCFI136:
 2614              		.cfi_def_cfa_offset 4
 2615              		.cfi_offset 7, -4
 2616 0002 83B0     		sub	sp, sp, #12
 2617              	.LCFI137:
 2618              		.cfi_def_cfa_offset 16
ARM GAS  C:\Users\ep_ygh\AppData\Local\Temp\cccpn5kX.s 			page 60


 2619 0004 00AF     		add	r7, sp, #0
 2620              	.LCFI138:
 2621              		.cfi_def_cfa_register 7
 2622 0006 87ED010A 		vstr.32	s0, [r7, #4]
 713:Drivers/BSP/Components/L6470/L6470.c ****   if (s_Step <= (L6470_MAX_FN_SLP_ACC * ((float)1.5686e-5)))
 2623              		.loc 1 713 6
 2624 000a D7ED017A 		vldr.32	s15, [r7, #4]
 2625 000e 9FED0D7A 		vldr.32	s14, .L172
 2626 0012 F4EEC77A 		vcmpe.f32	s15, s14
 2627 0016 F1EE10FA 		vmrs	APSR_nzcv, FPSCR
 2628 001a 0CD8     		bhi	.L171
 714:Drivers/BSP/Components/L6470/L6470.c ****     return (uint8_t)(s_Step / ((float)1.5686e-5));
 2629              		.loc 1 714 29
 2630 001c 97ED017A 		vldr.32	s14, [r7, #4]
 2631 0020 DFED096A 		vldr.32	s13, .L172+4
 2632 0024 C7EE267A 		vdiv.f32	s15, s14, s13
 2633              		.loc 1 714 12
 2634 0028 FCEEE77A 		vcvt.u32.f32	s15, s15
 2635 002c C7ED007A 		vstr.32	s15, [r7]	@ int
 2636 0030 3B78     		ldrb	r3, [r7]
 2637 0032 DBB2     		uxtb	r3, r3
 2638 0034 00E0     		b	.L169
 2639              	.L171:
 715:Drivers/BSP/Components/L6470/L6470.c ****   else
 716:Drivers/BSP/Components/L6470/L6470.c ****     return 0;   // Warning
 2640              		.loc 1 716 12
 2641 0036 0023     		movs	r3, #0
 2642              	.L169:
 717:Drivers/BSP/Components/L6470/L6470.c **** }
 2643              		.loc 1 717 1
 2644 0038 1846     		mov	r0, r3
 2645 003a 0C37     		adds	r7, r7, #12
 2646              	.LCFI139:
 2647              		.cfi_def_cfa_offset 4
 2648 003c BD46     		mov	sp, r7
 2649              	.LCFI140:
 2650              		.cfi_def_cfa_register 13
 2651              		@ sp needed
 2652 003e 5DF8047B 		ldr	r7, [sp], #4
 2653              	.LCFI141:
 2654              		.cfi_restore 7
 2655              		.cfi_def_cfa_offset 0
 2656 0042 7047     		bx	lr
 2657              	.L173:
 2658              		.align	2
 2659              	.L172:
 2660 0044 D911833B 		.word	998445529
 2661 0048 6E958337 		.word	931370350
 2662              		.cfi_endproc
 2663              	.LFE151:
 2665              		.section	.text.FnSlpDec_2_s_Step,"ax",%progbits
 2666              		.align	1
 2667              		.global	FnSlpDec_2_s_Step
 2668              		.syntax unified
 2669              		.thumb
 2670              		.thumb_func
 2672              	FnSlpDec_2_s_Step:
ARM GAS  C:\Users\ep_ygh\AppData\Local\Temp\cccpn5kX.s 			page 61


 2673              	.LFB152:
 718:Drivers/BSP/Components/L6470/L6470.c **** 
 719:Drivers/BSP/Components/L6470/L6470.c **** /**
 720:Drivers/BSP/Components/L6470/L6470.c ****   * @brief  Convert the INT_SPEED register value into step/s.
 721:Drivers/BSP/Components/L6470/L6470.c ****   * 
 722:Drivers/BSP/Components/L6470/L6470.c ****   * @param  IntSpeed    The INT_SPEED register value.
 723:Drivers/BSP/Components/L6470/L6470.c ****   * @retval step/s      The intersect speed as step/s.
 724:Drivers/BSP/Components/L6470/L6470.c ****   */
 725:Drivers/BSP/Components/L6470/L6470.c **** float FnSlpDec_2_s_Step(uint8_t FnSlpDec)
 726:Drivers/BSP/Components/L6470/L6470.c **** {
 2674              		.loc 1 726 1
 2675              		.cfi_startproc
 2676              		@ args = 0, pretend = 0, frame = 8
 2677              		@ frame_needed = 1, uses_anonymous_args = 0
 2678              		@ link register save eliminated.
 2679 0000 80B4     		push	{r7}
 2680              	.LCFI142:
 2681              		.cfi_def_cfa_offset 4
 2682              		.cfi_offset 7, -4
 2683 0002 83B0     		sub	sp, sp, #12
 2684              	.LCFI143:
 2685              		.cfi_def_cfa_offset 16
 2686 0004 00AF     		add	r7, sp, #0
 2687              	.LCFI144:
 2688              		.cfi_def_cfa_register 7
 2689 0006 0346     		mov	r3, r0
 2690 0008 FB71     		strb	r3, [r7, #7]
 727:Drivers/BSP/Components/L6470/L6470.c **** //  if (FnSlpDec <= L6470_MAX_FN_SLP_DEC)
 728:Drivers/BSP/Components/L6470/L6470.c ****     return (FnSlpDec * ((float)1.5686e-5));
 2691              		.loc 1 728 22
 2692 000a FB79     		ldrb	r3, [r7, #7]	@ zero_extendqisi2
 2693 000c 07EE903A 		vmov	s15, r3	@ int
 2694 0010 F8EEE77A 		vcvt.f32.s32	s15, s15
 2695 0014 9FED057A 		vldr.32	s14, .L176
 2696 0018 67EE877A 		vmul.f32	s15, s15, s14
 729:Drivers/BSP/Components/L6470/L6470.c **** //  else
 730:Drivers/BSP/Components/L6470/L6470.c **** //    return 0;   // Warning
 731:Drivers/BSP/Components/L6470/L6470.c **** }
 2697              		.loc 1 731 1
 2698 001c B0EE670A 		vmov.f32	s0, s15
 2699 0020 0C37     		adds	r7, r7, #12
 2700              	.LCFI145:
 2701              		.cfi_def_cfa_offset 4
 2702 0022 BD46     		mov	sp, r7
 2703              	.LCFI146:
 2704              		.cfi_def_cfa_register 13
 2705              		@ sp needed
 2706 0024 5DF8047B 		ldr	r7, [sp], #4
 2707              	.LCFI147:
 2708              		.cfi_restore 7
 2709              		.cfi_def_cfa_offset 0
 2710 0028 7047     		bx	lr
 2711              	.L177:
 2712 002a 00BF     		.align	2
 2713              	.L176:
 2714 002c 6E958337 		.word	931370350
 2715              		.cfi_endproc
ARM GAS  C:\Users\ep_ygh\AppData\Local\Temp\cccpn5kX.s 			page 62


 2716              	.LFE152:
 2718              		.section	.text.s_Step_2_FnSlpDec,"ax",%progbits
 2719              		.align	1
 2720              		.global	s_Step_2_FnSlpDec
 2721              		.syntax unified
 2722              		.thumb
 2723              		.thumb_func
 2725              	s_Step_2_FnSlpDec:
 2726              	.LFB153:
 732:Drivers/BSP/Components/L6470/L6470.c **** 
 733:Drivers/BSP/Components/L6470/L6470.c **** /**
 734:Drivers/BSP/Components/L6470/L6470.c ****   * @brief  Convert the intersect speed as step/s into a right value for INT_SPEED register.
 735:Drivers/BSP/Components/L6470/L6470.c ****   * 
 736:Drivers/BSP/Components/L6470/L6470.c ****   * @param  step/s      The full-step speed as step/s.
 737:Drivers/BSP/Components/L6470/L6470.c ****   * @retval FsSpd       The FS_SPD register value.
 738:Drivers/BSP/Components/L6470/L6470.c ****   */
 739:Drivers/BSP/Components/L6470/L6470.c **** uint8_t s_Step_2_FnSlpDec(float s_Step)
 740:Drivers/BSP/Components/L6470/L6470.c **** {
 2727              		.loc 1 740 1
 2728              		.cfi_startproc
 2729              		@ args = 0, pretend = 0, frame = 8
 2730              		@ frame_needed = 1, uses_anonymous_args = 0
 2731              		@ link register save eliminated.
 2732 0000 80B4     		push	{r7}
 2733              	.LCFI148:
 2734              		.cfi_def_cfa_offset 4
 2735              		.cfi_offset 7, -4
 2736 0002 83B0     		sub	sp, sp, #12
 2737              	.LCFI149:
 2738              		.cfi_def_cfa_offset 16
 2739 0004 00AF     		add	r7, sp, #0
 2740              	.LCFI150:
 2741              		.cfi_def_cfa_register 7
 2742 0006 87ED010A 		vstr.32	s0, [r7, #4]
 741:Drivers/BSP/Components/L6470/L6470.c ****   if (s_Step <= (L6470_MAX_FN_SLP_DEC * ((float)1.5686e-5)))
 2743              		.loc 1 741 6
 2744 000a D7ED017A 		vldr.32	s15, [r7, #4]
 2745 000e 9FED0D7A 		vldr.32	s14, .L184
 2746 0012 F4EEC77A 		vcmpe.f32	s15, s14
 2747 0016 F1EE10FA 		vmrs	APSR_nzcv, FPSCR
 2748 001a 0CD8     		bhi	.L183
 742:Drivers/BSP/Components/L6470/L6470.c ****     return (uint8_t)(s_Step / ((float)1.5686e-5));
 2749              		.loc 1 742 29
 2750 001c 97ED017A 		vldr.32	s14, [r7, #4]
 2751 0020 DFED096A 		vldr.32	s13, .L184+4
 2752 0024 C7EE267A 		vdiv.f32	s15, s14, s13
 2753              		.loc 1 742 12
 2754 0028 FCEEE77A 		vcvt.u32.f32	s15, s15
 2755 002c C7ED007A 		vstr.32	s15, [r7]	@ int
 2756 0030 3B78     		ldrb	r3, [r7]
 2757 0032 DBB2     		uxtb	r3, r3
 2758 0034 00E0     		b	.L181
 2759              	.L183:
 743:Drivers/BSP/Components/L6470/L6470.c ****   else
 744:Drivers/BSP/Components/L6470/L6470.c ****     return 0;   // Warning
 2760              		.loc 1 744 12
 2761 0036 0023     		movs	r3, #0
ARM GAS  C:\Users\ep_ygh\AppData\Local\Temp\cccpn5kX.s 			page 63


 2762              	.L181:
 745:Drivers/BSP/Components/L6470/L6470.c **** }
 2763              		.loc 1 745 1
 2764 0038 1846     		mov	r0, r3
 2765 003a 0C37     		adds	r7, r7, #12
 2766              	.LCFI151:
 2767              		.cfi_def_cfa_offset 4
 2768 003c BD46     		mov	sp, r7
 2769              	.LCFI152:
 2770              		.cfi_def_cfa_register 13
 2771              		@ sp needed
 2772 003e 5DF8047B 		ldr	r7, [sp], #4
 2773              	.LCFI153:
 2774              		.cfi_restore 7
 2775              		.cfi_def_cfa_offset 0
 2776 0042 7047     		bx	lr
 2777              	.L185:
 2778              		.align	2
 2779              	.L184:
 2780 0044 D911833B 		.word	998445529
 2781 0048 6E958337 		.word	931370350
 2782              		.cfi_endproc
 2783              	.LFE153:
 2785              		.section	.text.OcdTh_2_mA,"ax",%progbits
 2786              		.align	1
 2787              		.global	OcdTh_2_mA
 2788              		.syntax unified
 2789              		.thumb
 2790              		.thumb_func
 2792              	OcdTh_2_mA:
 2793              	.LFB154:
 746:Drivers/BSP/Components/L6470/L6470.c **** 
 747:Drivers/BSP/Components/L6470/L6470.c **** /**
 748:Drivers/BSP/Components/L6470/L6470.c ****   * @brief  Convert the OCD_TH register value into mA.
 749:Drivers/BSP/Components/L6470/L6470.c ****   * 
 750:Drivers/BSP/Components/L6470/L6470.c ****   * @param  OcdTh       The OCD_TH register value.
 751:Drivers/BSP/Components/L6470/L6470.c ****   * @retval mA          The overcurrent threshold as mA.
 752:Drivers/BSP/Components/L6470/L6470.c ****   */
 753:Drivers/BSP/Components/L6470/L6470.c **** float OcdTh_2_mA(uint8_t OcdTh)
 754:Drivers/BSP/Components/L6470/L6470.c **** {
 2794              		.loc 1 754 1
 2795              		.cfi_startproc
 2796              		@ args = 0, pretend = 0, frame = 8
 2797              		@ frame_needed = 1, uses_anonymous_args = 0
 2798              		@ link register save eliminated.
 2799 0000 80B4     		push	{r7}
 2800              	.LCFI154:
 2801              		.cfi_def_cfa_offset 4
 2802              		.cfi_offset 7, -4
 2803 0002 83B0     		sub	sp, sp, #12
 2804              	.LCFI155:
 2805              		.cfi_def_cfa_offset 16
 2806 0004 00AF     		add	r7, sp, #0
 2807              	.LCFI156:
 2808              		.cfi_def_cfa_register 7
 2809 0006 0346     		mov	r3, r0
 2810 0008 FB71     		strb	r3, [r7, #7]
ARM GAS  C:\Users\ep_ygh\AppData\Local\Temp\cccpn5kX.s 			page 64


 755:Drivers/BSP/Components/L6470/L6470.c ****   if (OcdTh <= L6470_MAX_OCD_TH)
 2811              		.loc 1 755 6
 2812 000a FB79     		ldrb	r3, [r7, #7]	@ zero_extendqisi2
 2813 000c 0F2B     		cmp	r3, #15
 2814 000e 0AD8     		bhi	.L187
 756:Drivers/BSP/Components/L6470/L6470.c ****     return ((OcdTh+1) * ((float)375));
 2815              		.loc 1 756 19
 2816 0010 FB79     		ldrb	r3, [r7, #7]	@ zero_extendqisi2
 2817 0012 0133     		adds	r3, r3, #1
 2818              		.loc 1 756 23
 2819 0014 07EE903A 		vmov	s15, r3	@ int
 2820 0018 F8EEE77A 		vcvt.f32.s32	s15, s15
 2821 001c 9FED067A 		vldr.32	s14, .L189
 2822 0020 67EE877A 		vmul.f32	s15, s15, s14
 2823 0024 01E0     		b	.L188
 2824              	.L187:
 757:Drivers/BSP/Components/L6470/L6470.c ****   else
 758:Drivers/BSP/Components/L6470/L6470.c ****     return 0;   // Warning
 2825              		.loc 1 758 12
 2826 0026 DFED057A 		vldr.32	s15, .L189+4
 2827              	.L188:
 759:Drivers/BSP/Components/L6470/L6470.c **** }
 2828              		.loc 1 759 1
 2829 002a B0EE670A 		vmov.f32	s0, s15
 2830 002e 0C37     		adds	r7, r7, #12
 2831              	.LCFI157:
 2832              		.cfi_def_cfa_offset 4
 2833 0030 BD46     		mov	sp, r7
 2834              	.LCFI158:
 2835              		.cfi_def_cfa_register 13
 2836              		@ sp needed
 2837 0032 5DF8047B 		ldr	r7, [sp], #4
 2838              	.LCFI159:
 2839              		.cfi_restore 7
 2840              		.cfi_def_cfa_offset 0
 2841 0036 7047     		bx	lr
 2842              	.L190:
 2843              		.align	2
 2844              	.L189:
 2845 0038 0080BB43 		.word	1136361472
 2846 003c 00000000 		.word	0
 2847              		.cfi_endproc
 2848              	.LFE154:
 2850              		.section	.text.mA_2_OcdTh,"ax",%progbits
 2851              		.align	1
 2852              		.global	mA_2_OcdTh
 2853              		.syntax unified
 2854              		.thumb
 2855              		.thumb_func
 2857              	mA_2_OcdTh:
 2858              	.LFB155:
 760:Drivers/BSP/Components/L6470/L6470.c **** 
 761:Drivers/BSP/Components/L6470/L6470.c **** /**
 762:Drivers/BSP/Components/L6470/L6470.c ****   * @brief  Convert the overcurrent threshold as mA into a right value for OCD_TH register.
 763:Drivers/BSP/Components/L6470/L6470.c ****   * 
 764:Drivers/BSP/Components/L6470/L6470.c ****   * @param  mA          The overcurrent threshold as mA.
 765:Drivers/BSP/Components/L6470/L6470.c ****   * @retval OcdTh       The OCD_TH register value.
ARM GAS  C:\Users\ep_ygh\AppData\Local\Temp\cccpn5kX.s 			page 65


 766:Drivers/BSP/Components/L6470/L6470.c ****   */
 767:Drivers/BSP/Components/L6470/L6470.c **** uint8_t mA_2_OcdTh(float mA)
 768:Drivers/BSP/Components/L6470/L6470.c **** {
 2859              		.loc 1 768 1
 2860              		.cfi_startproc
 2861              		@ args = 0, pretend = 0, frame = 16
 2862              		@ frame_needed = 1, uses_anonymous_args = 0
 2863              		@ link register save eliminated.
 2864 0000 80B4     		push	{r7}
 2865              	.LCFI160:
 2866              		.cfi_def_cfa_offset 4
 2867              		.cfi_offset 7, -4
 2868 0002 85B0     		sub	sp, sp, #20
 2869              	.LCFI161:
 2870              		.cfi_def_cfa_offset 24
 2871 0004 00AF     		add	r7, sp, #0
 2872              	.LCFI162:
 2873              		.cfi_def_cfa_register 7
 2874 0006 87ED010A 		vstr.32	s0, [r7, #4]
 769:Drivers/BSP/Components/L6470/L6470.c ****   float result, decimal;
 770:Drivers/BSP/Components/L6470/L6470.c ****   
 771:Drivers/BSP/Components/L6470/L6470.c ****   if (mA <= ((L6470_MAX_OCD_TH+1) * ((float)375)))
 2875              		.loc 1 771 6
 2876 000a D7ED017A 		vldr.32	s15, [r7, #4]
 2877 000e 9FED227A 		vldr.32	s14, .L201
 2878 0012 F4EEC77A 		vcmpe.f32	s15, s14
 2879 0016 F1EE10FA 		vmrs	APSR_nzcv, FPSCR
 2880 001a 36D8     		bhi	.L199
 772:Drivers/BSP/Components/L6470/L6470.c ****   {
 773:Drivers/BSP/Components/L6470/L6470.c ****     result = (mA / ((float)375));
 2881              		.loc 1 773 12
 2882 001c 97ED017A 		vldr.32	s14, [r7, #4]
 2883 0020 DFED1E6A 		vldr.32	s13, .L201+4
 2884 0024 C7EE267A 		vdiv.f32	s15, s14, s13
 2885 0028 C7ED037A 		vstr.32	s15, [r7, #12]
 774:Drivers/BSP/Components/L6470/L6470.c ****     decimal = result - (uint8_t)result;
 2886              		.loc 1 774 24
 2887 002c D7ED037A 		vldr.32	s15, [r7, #12]
 2888 0030 FCEEE77A 		vcvt.u32.f32	s15, s15
 2889 0034 C7ED007A 		vstr.32	s15, [r7]	@ int
 2890 0038 3B78     		ldrb	r3, [r7]
 2891 003a DBB2     		uxtb	r3, r3
 2892 003c 07EE903A 		vmov	s15, r3	@ int
 2893              		.loc 1 774 22
 2894 0040 F8EEE77A 		vcvt.f32.s32	s15, s15
 2895              		.loc 1 774 13
 2896 0044 97ED037A 		vldr.32	s14, [r7, #12]
 2897 0048 77EE677A 		vsub.f32	s15, s14, s15
 2898 004c C7ED027A 		vstr.32	s15, [r7, #8]
 775:Drivers/BSP/Components/L6470/L6470.c ****     
 776:Drivers/BSP/Components/L6470/L6470.c ****     if (decimal < (float)0.5)
 2899              		.loc 1 776 8
 2900 0050 D7ED027A 		vldr.32	s15, [r7, #8]
 2901 0054 B6EE007A 		vmov.f32	s14, #5.0e-1
 2902 0058 F4EEC77A 		vcmpe.f32	s15, s14
 2903 005c F1EE10FA 		vmrs	APSR_nzcv, FPSCR
 2904 0060 0AD5     		bpl	.L200
ARM GAS  C:\Users\ep_ygh\AppData\Local\Temp\cccpn5kX.s 			page 66


 777:Drivers/BSP/Components/L6470/L6470.c ****       return ((uint8_t)result - 1);
 2905              		.loc 1 777 15
 2906 0062 D7ED037A 		vldr.32	s15, [r7, #12]
 2907 0066 FCEEE77A 		vcvt.u32.f32	s15, s15
 2908 006a C7ED007A 		vstr.32	s15, [r7]	@ int
 2909 006e 3B78     		ldrb	r3, [r7]
 2910 0070 DBB2     		uxtb	r3, r3
 2911              		.loc 1 777 31
 2912 0072 013B     		subs	r3, r3, #1
 2913 0074 DBB2     		uxtb	r3, r3
 2914 0076 09E0     		b	.L196
 2915              	.L200:
 778:Drivers/BSP/Components/L6470/L6470.c ****     else
 779:Drivers/BSP/Components/L6470/L6470.c ****       return ((uint8_t)result);    
 2916              		.loc 1 779 15
 2917 0078 D7ED037A 		vldr.32	s15, [r7, #12]
 2918 007c FCEEE77A 		vcvt.u32.f32	s15, s15
 2919 0080 C7ED007A 		vstr.32	s15, [r7]	@ int
 2920 0084 3B78     		ldrb	r3, [r7]
 2921 0086 DBB2     		uxtb	r3, r3
 2922 0088 00E0     		b	.L196
 2923              	.L199:
 780:Drivers/BSP/Components/L6470/L6470.c ****   }
 781:Drivers/BSP/Components/L6470/L6470.c ****   else
 782:Drivers/BSP/Components/L6470/L6470.c ****     return 0;   // Warning
 2924              		.loc 1 782 12
 2925 008a 0023     		movs	r3, #0
 2926              	.L196:
 783:Drivers/BSP/Components/L6470/L6470.c **** }
 2927              		.loc 1 783 1
 2928 008c 1846     		mov	r0, r3
 2929 008e 1437     		adds	r7, r7, #20
 2930              	.LCFI163:
 2931              		.cfi_def_cfa_offset 4
 2932 0090 BD46     		mov	sp, r7
 2933              	.LCFI164:
 2934              		.cfi_def_cfa_register 13
 2935              		@ sp needed
 2936 0092 5DF8047B 		ldr	r7, [sp], #4
 2937              	.LCFI165:
 2938              		.cfi_restore 7
 2939              		.cfi_def_cfa_offset 0
 2940 0096 7047     		bx	lr
 2941              	.L202:
 2942              		.align	2
 2943              	.L201:
 2944 0098 0080BB45 		.word	1169915904
 2945 009c 0080BB43 		.word	1136361472
 2946              		.cfi_endproc
 2947              	.LFE155:
 2949              		.section	.text.StallTh_2_mA,"ax",%progbits
 2950              		.align	1
 2951              		.global	StallTh_2_mA
 2952              		.syntax unified
 2953              		.thumb
 2954              		.thumb_func
 2956              	StallTh_2_mA:
ARM GAS  C:\Users\ep_ygh\AppData\Local\Temp\cccpn5kX.s 			page 67


 2957              	.LFB156:
 784:Drivers/BSP/Components/L6470/L6470.c **** 
 785:Drivers/BSP/Components/L6470/L6470.c **** /**
 786:Drivers/BSP/Components/L6470/L6470.c ****   * @brief  Convert the STALL_TH register value into mA.
 787:Drivers/BSP/Components/L6470/L6470.c ****   * 
 788:Drivers/BSP/Components/L6470/L6470.c ****   * @param  StallTh     The STALL_TH register value.
 789:Drivers/BSP/Components/L6470/L6470.c ****   * @retval mA          The stall detection threshold as mA.
 790:Drivers/BSP/Components/L6470/L6470.c ****   */
 791:Drivers/BSP/Components/L6470/L6470.c **** float StallTh_2_mA(uint8_t StallTh)
 792:Drivers/BSP/Components/L6470/L6470.c **** {
 2958              		.loc 1 792 1
 2959              		.cfi_startproc
 2960              		@ args = 0, pretend = 0, frame = 8
 2961              		@ frame_needed = 1, uses_anonymous_args = 0
 2962              		@ link register save eliminated.
 2963 0000 80B4     		push	{r7}
 2964              	.LCFI166:
 2965              		.cfi_def_cfa_offset 4
 2966              		.cfi_offset 7, -4
 2967 0002 83B0     		sub	sp, sp, #12
 2968              	.LCFI167:
 2969              		.cfi_def_cfa_offset 16
 2970 0004 00AF     		add	r7, sp, #0
 2971              	.LCFI168:
 2972              		.cfi_def_cfa_register 7
 2973 0006 0346     		mov	r3, r0
 2974 0008 FB71     		strb	r3, [r7, #7]
 793:Drivers/BSP/Components/L6470/L6470.c ****   if (StallTh <= L6470_MAX_STALL_TH)
 2975              		.loc 1 793 15
 2976 000a 97F90730 		ldrsb	r3, [r7, #7]
 2977              		.loc 1 793 6
 2978 000e 002B     		cmp	r3, #0
 2979 0010 0ADB     		blt	.L204
 794:Drivers/BSP/Components/L6470/L6470.c ****     return ((StallTh+1) * ((float)31.25));
 2980              		.loc 1 794 21
 2981 0012 FB79     		ldrb	r3, [r7, #7]	@ zero_extendqisi2
 2982 0014 0133     		adds	r3, r3, #1
 2983              		.loc 1 794 25
 2984 0016 07EE903A 		vmov	s15, r3	@ int
 2985 001a F8EEE77A 		vcvt.f32.s32	s15, s15
 2986 001e 9FED077A 		vldr.32	s14, .L206
 2987 0022 67EE877A 		vmul.f32	s15, s15, s14
 2988 0026 01E0     		b	.L205
 2989              	.L204:
 795:Drivers/BSP/Components/L6470/L6470.c ****   else
 796:Drivers/BSP/Components/L6470/L6470.c ****     return 0;   // Warning
 2990              		.loc 1 796 12
 2991 0028 DFED057A 		vldr.32	s15, .L206+4
 2992              	.L205:
 797:Drivers/BSP/Components/L6470/L6470.c **** }
 2993              		.loc 1 797 1
 2994 002c B0EE670A 		vmov.f32	s0, s15
 2995 0030 0C37     		adds	r7, r7, #12
 2996              	.LCFI169:
 2997              		.cfi_def_cfa_offset 4
 2998 0032 BD46     		mov	sp, r7
 2999              	.LCFI170:
ARM GAS  C:\Users\ep_ygh\AppData\Local\Temp\cccpn5kX.s 			page 68


 3000              		.cfi_def_cfa_register 13
 3001              		@ sp needed
 3002 0034 5DF8047B 		ldr	r7, [sp], #4
 3003              	.LCFI171:
 3004              		.cfi_restore 7
 3005              		.cfi_def_cfa_offset 0
 3006 0038 7047     		bx	lr
 3007              	.L207:
 3008 003a 00BF     		.align	2
 3009              	.L206:
 3010 003c 0000FA41 		.word	1106903040
 3011 0040 00000000 		.word	0
 3012              		.cfi_endproc
 3013              	.LFE156:
 3015              		.section	.text.mA_2_StallTh,"ax",%progbits
 3016              		.align	1
 3017              		.global	mA_2_StallTh
 3018              		.syntax unified
 3019              		.thumb
 3020              		.thumb_func
 3022              	mA_2_StallTh:
 3023              	.LFB157:
 798:Drivers/BSP/Components/L6470/L6470.c **** 
 799:Drivers/BSP/Components/L6470/L6470.c **** /**
 800:Drivers/BSP/Components/L6470/L6470.c ****   * @brief  Convert the stall detection threshold as mA into a right value for STALL_TH register.
 801:Drivers/BSP/Components/L6470/L6470.c ****   * 
 802:Drivers/BSP/Components/L6470/L6470.c ****   * @param  mA          The stall detection threshold as mA.
 803:Drivers/BSP/Components/L6470/L6470.c ****   * @retval StallTh     The STALL_TH register value.
 804:Drivers/BSP/Components/L6470/L6470.c ****   */
 805:Drivers/BSP/Components/L6470/L6470.c **** uint8_t mA_2_StallTh(float mA)
 806:Drivers/BSP/Components/L6470/L6470.c **** {
 3024              		.loc 1 806 1
 3025              		.cfi_startproc
 3026              		@ args = 0, pretend = 0, frame = 16
 3027              		@ frame_needed = 1, uses_anonymous_args = 0
 3028              		@ link register save eliminated.
 3029 0000 80B4     		push	{r7}
 3030              	.LCFI172:
 3031              		.cfi_def_cfa_offset 4
 3032              		.cfi_offset 7, -4
 3033 0002 85B0     		sub	sp, sp, #20
 3034              	.LCFI173:
 3035              		.cfi_def_cfa_offset 24
 3036 0004 00AF     		add	r7, sp, #0
 3037              	.LCFI174:
 3038              		.cfi_def_cfa_register 7
 3039 0006 87ED010A 		vstr.32	s0, [r7, #4]
 807:Drivers/BSP/Components/L6470/L6470.c ****   float result, decimal;
 808:Drivers/BSP/Components/L6470/L6470.c ****   
 809:Drivers/BSP/Components/L6470/L6470.c ****   if (mA <= ((L6470_MAX_STALL_TH+1) * ((float)31.25)))
 3040              		.loc 1 809 6
 3041 000a D7ED017A 		vldr.32	s15, [r7, #4]
 3042 000e 9FED227A 		vldr.32	s14, .L218
 3043 0012 F4EEC77A 		vcmpe.f32	s15, s14
 3044 0016 F1EE10FA 		vmrs	APSR_nzcv, FPSCR
 3045 001a 36D8     		bhi	.L216
 810:Drivers/BSP/Components/L6470/L6470.c ****   {
ARM GAS  C:\Users\ep_ygh\AppData\Local\Temp\cccpn5kX.s 			page 69


 811:Drivers/BSP/Components/L6470/L6470.c ****     result = (mA / ((float)31.25));
 3046              		.loc 1 811 12
 3047 001c 97ED017A 		vldr.32	s14, [r7, #4]
 3048 0020 DFED1E6A 		vldr.32	s13, .L218+4
 3049 0024 C7EE267A 		vdiv.f32	s15, s14, s13
 3050 0028 C7ED037A 		vstr.32	s15, [r7, #12]
 812:Drivers/BSP/Components/L6470/L6470.c ****     decimal = result - (uint8_t)result;
 3051              		.loc 1 812 24
 3052 002c D7ED037A 		vldr.32	s15, [r7, #12]
 3053 0030 FCEEE77A 		vcvt.u32.f32	s15, s15
 3054 0034 C7ED007A 		vstr.32	s15, [r7]	@ int
 3055 0038 3B78     		ldrb	r3, [r7]
 3056 003a DBB2     		uxtb	r3, r3
 3057 003c 07EE903A 		vmov	s15, r3	@ int
 3058              		.loc 1 812 22
 3059 0040 F8EEE77A 		vcvt.f32.s32	s15, s15
 3060              		.loc 1 812 13
 3061 0044 97ED037A 		vldr.32	s14, [r7, #12]
 3062 0048 77EE677A 		vsub.f32	s15, s14, s15
 3063 004c C7ED027A 		vstr.32	s15, [r7, #8]
 813:Drivers/BSP/Components/L6470/L6470.c ****     
 814:Drivers/BSP/Components/L6470/L6470.c ****     if (decimal < (float)0.5)
 3064              		.loc 1 814 8
 3065 0050 D7ED027A 		vldr.32	s15, [r7, #8]
 3066 0054 B6EE007A 		vmov.f32	s14, #5.0e-1
 3067 0058 F4EEC77A 		vcmpe.f32	s15, s14
 3068 005c F1EE10FA 		vmrs	APSR_nzcv, FPSCR
 3069 0060 0AD5     		bpl	.L217
 815:Drivers/BSP/Components/L6470/L6470.c ****       return ((uint8_t)result - 1);
 3070              		.loc 1 815 15
 3071 0062 D7ED037A 		vldr.32	s15, [r7, #12]
 3072 0066 FCEEE77A 		vcvt.u32.f32	s15, s15
 3073 006a C7ED007A 		vstr.32	s15, [r7]	@ int
 3074 006e 3B78     		ldrb	r3, [r7]
 3075 0070 DBB2     		uxtb	r3, r3
 3076              		.loc 1 815 31
 3077 0072 013B     		subs	r3, r3, #1
 3078 0074 DBB2     		uxtb	r3, r3
 3079 0076 09E0     		b	.L213
 3080              	.L217:
 816:Drivers/BSP/Components/L6470/L6470.c ****     else
 817:Drivers/BSP/Components/L6470/L6470.c ****       return ((uint8_t)result);    
 3081              		.loc 1 817 15
 3082 0078 D7ED037A 		vldr.32	s15, [r7, #12]
 3083 007c FCEEE77A 		vcvt.u32.f32	s15, s15
 3084 0080 C7ED007A 		vstr.32	s15, [r7]	@ int
 3085 0084 3B78     		ldrb	r3, [r7]
 3086 0086 DBB2     		uxtb	r3, r3
 3087 0088 00E0     		b	.L213
 3088              	.L216:
 818:Drivers/BSP/Components/L6470/L6470.c ****   }
 819:Drivers/BSP/Components/L6470/L6470.c ****   else
 820:Drivers/BSP/Components/L6470/L6470.c ****     return 0;   // Warning
 3089              		.loc 1 820 12
 3090 008a 0023     		movs	r3, #0
 3091              	.L213:
 821:Drivers/BSP/Components/L6470/L6470.c **** }
ARM GAS  C:\Users\ep_ygh\AppData\Local\Temp\cccpn5kX.s 			page 70


 3092              		.loc 1 821 1
 3093 008c 1846     		mov	r0, r3
 3094 008e 1437     		adds	r7, r7, #20
 3095              	.LCFI175:
 3096              		.cfi_def_cfa_offset 4
 3097 0090 BD46     		mov	sp, r7
 3098              	.LCFI176:
 3099              		.cfi_def_cfa_register 13
 3100              		@ sp needed
 3101 0092 5DF8047B 		ldr	r7, [sp], #4
 3102              	.LCFI177:
 3103              		.cfi_restore 7
 3104              		.cfi_def_cfa_offset 0
 3105 0096 7047     		bx	lr
 3106              	.L219:
 3107              		.align	2
 3108              	.L218:
 3109 0098 00007A45 		.word	1165623296
 3110 009c 0000FA41 		.word	1106903040
 3111              		.cfi_endproc
 3112              	.LFE157:
 3114              		.section	.text.L6470_SetParam,"ax",%progbits
 3115              		.align	1
 3116              		.global	L6470_SetParam
 3117              		.syntax unified
 3118              		.thumb
 3119              		.thumb_func
 3121              	L6470_SetParam:
 3122              	.LFB158:
 822:Drivers/BSP/Components/L6470/L6470.c **** 
 823:Drivers/BSP/Components/L6470/L6470.c **** /**
 824:Drivers/BSP/Components/L6470/L6470.c ****   * @}
 825:Drivers/BSP/Components/L6470/L6470.c ****   */ /* End of L6470_Conversion_Functions */
 826:Drivers/BSP/Components/L6470/L6470.c **** 
 827:Drivers/BSP/Components/L6470/L6470.c **** /**
 828:Drivers/BSP/Components/L6470/L6470.c ****   * @addtogroup L6470_AppCMDs
 829:Drivers/BSP/Components/L6470/L6470.c ****   * @{
 830:Drivers/BSP/Components/L6470/L6470.c ****   */
 831:Drivers/BSP/Components/L6470/L6470.c **** 
 832:Drivers/BSP/Components/L6470/L6470.c **** /**
 833:Drivers/BSP/Components/L6470/L6470.c ****   * @brief  SetParam command sets the register value equal to a new value.
 834:Drivers/BSP/Components/L6470/L6470.c ****   * 
 835:Drivers/BSP/Components/L6470/L6470.c ****   * @param  L6470_Id      The identifier of the L6470 target inside the daisy chain.
 836:Drivers/BSP/Components/L6470/L6470.c ****   * @param  L6470_RegId   The identifier of the L6470 register to be addressed.
 837:Drivers/BSP/Components/L6470/L6470.c ****   * @param  Value         The new value.
 838:Drivers/BSP/Components/L6470/L6470.c ****   */
 839:Drivers/BSP/Components/L6470/L6470.c **** void L6470_SetParam(uint8_t L6470_Id, eL6470_RegId_t L6470_RegId, uint32_t Value)
 840:Drivers/BSP/Components/L6470/L6470.c **** {
 3123              		.loc 1 840 1
 3124              		.cfi_startproc
 3125              		@ args = 0, pretend = 0, frame = 8
 3126              		@ frame_needed = 1, uses_anonymous_args = 0
 3127 0000 80B5     		push	{r7, lr}
 3128              	.LCFI178:
 3129              		.cfi_def_cfa_offset 8
 3130              		.cfi_offset 7, -8
 3131              		.cfi_offset 14, -4
ARM GAS  C:\Users\ep_ygh\AppData\Local\Temp\cccpn5kX.s 			page 71


 3132 0002 84B0     		sub	sp, sp, #16
 3133              	.LCFI179:
 3134              		.cfi_def_cfa_offset 24
 3135 0004 02AF     		add	r7, sp, #8
 3136              	.LCFI180:
 3137              		.cfi_def_cfa 7, 16
 3138 0006 0346     		mov	r3, r0
 3139 0008 3A60     		str	r2, [r7]
 3140 000a FB71     		strb	r3, [r7, #7]
 3141 000c 0B46     		mov	r3, r1
 3142 000e BB71     		strb	r3, [r7, #6]
 841:Drivers/BSP/Components/L6470/L6470.c ****   L6470_PrepareAppCmdPkg(L6470_Id, L6470_AppCmdPkg, L6470_SETPARAM_ID, L6470_RegId, Value, 0);
 3143              		.loc 1 841 3
 3144 0010 BA79     		ldrb	r2, [r7, #6]	@ zero_extendqisi2
 3145 0012 F879     		ldrb	r0, [r7, #7]	@ zero_extendqisi2
 3146 0014 0023     		movs	r3, #0
 3147 0016 0193     		str	r3, [sp, #4]
 3148 0018 3B68     		ldr	r3, [r7]
 3149 001a 0093     		str	r3, [sp]
 3150 001c 1346     		mov	r3, r2
 3151 001e 0122     		movs	r2, #1
 3152 0020 0749     		ldr	r1, .L221
 3153 0022 FFF7FEFF 		bl	L6470_PrepareAppCmdPkg
 842:Drivers/BSP/Components/L6470/L6470.c ****   L6470_PrepareDaisyChainCommand(L6470_AppCmdPkg, (uint8_t*)L6470_DaisyChainSpiTxStruct);
 3154              		.loc 1 842 3
 3155 0026 0749     		ldr	r1, .L221+4
 3156 0028 0548     		ldr	r0, .L221
 3157 002a FFF7FEFF 		bl	L6470_PrepareDaisyChainCommand
 843:Drivers/BSP/Components/L6470/L6470.c ****   L6470_DaisyChainCommand((uint8_t*)L6470_DaisyChainSpiTxStruct, (uint8_t*)L6470_DaisyChainSpiRxStr
 3158              		.loc 1 843 3
 3159 002e 0649     		ldr	r1, .L221+8
 3160 0030 0448     		ldr	r0, .L221+4
 3161 0032 FFF7FEFF 		bl	L6470_DaisyChainCommand
 844:Drivers/BSP/Components/L6470/L6470.c **** }
 3162              		.loc 1 844 1
 3163 0036 00BF     		nop
 3164 0038 0837     		adds	r7, r7, #8
 3165              	.LCFI181:
 3166              		.cfi_def_cfa_offset 8
 3167 003a BD46     		mov	sp, r7
 3168              	.LCFI182:
 3169              		.cfi_def_cfa_register 13
 3170              		@ sp needed
 3171 003c 80BD     		pop	{r7, pc}
 3172              	.L222:
 3173 003e 00BF     		.align	2
 3174              	.L221:
 3175 0040 00000000 		.word	L6470_AppCmdPkg
 3176 0044 00000000 		.word	L6470_DaisyChainSpiTxStruct
 3177 0048 00000000 		.word	L6470_DaisyChainSpiRxStruct
 3178              		.cfi_endproc
 3179              	.LFE158:
 3181              		.section	.text.L6470_GetParam,"ax",%progbits
 3182              		.align	1
 3183              		.global	L6470_GetParam
 3184              		.syntax unified
 3185              		.thumb
ARM GAS  C:\Users\ep_ygh\AppData\Local\Temp\cccpn5kX.s 			page 72


 3186              		.thumb_func
 3188              	L6470_GetParam:
 3189              	.LFB159:
 845:Drivers/BSP/Components/L6470/L6470.c **** 
 846:Drivers/BSP/Components/L6470/L6470.c **** /**
 847:Drivers/BSP/Components/L6470/L6470.c ****   * @brief  GetParam command reads the register value.
 848:Drivers/BSP/Components/L6470/L6470.c ****   * 
 849:Drivers/BSP/Components/L6470/L6470.c ****   * @param  L6470_Id      The identifier of the L6470 target inside the daisy chain.
 850:Drivers/BSP/Components/L6470/L6470.c ****   * @param  L6470_RegId   The identifier of the L6470 register to be addressed.
 851:Drivers/BSP/Components/L6470/L6470.c ****   * 
 852:Drivers/BSP/Components/L6470/L6470.c ****   * @retval ReceivedValue The register value.
 853:Drivers/BSP/Components/L6470/L6470.c ****   */
 854:Drivers/BSP/Components/L6470/L6470.c **** uint32_t L6470_GetParam(uint8_t L6470_Id, eL6470_RegId_t L6470_RegId)
 855:Drivers/BSP/Components/L6470/L6470.c **** {
 3190              		.loc 1 855 1
 3191              		.cfi_startproc
 3192              		@ args = 0, pretend = 0, frame = 16
 3193              		@ frame_needed = 1, uses_anonymous_args = 0
 3194 0000 80B5     		push	{r7, lr}
 3195              	.LCFI183:
 3196              		.cfi_def_cfa_offset 8
 3197              		.cfi_offset 7, -8
 3198              		.cfi_offset 14, -4
 3199 0002 86B0     		sub	sp, sp, #24
 3200              	.LCFI184:
 3201              		.cfi_def_cfa_offset 32
 3202 0004 02AF     		add	r7, sp, #8
 3203              	.LCFI185:
 3204              		.cfi_def_cfa 7, 24
 3205 0006 0346     		mov	r3, r0
 3206 0008 0A46     		mov	r2, r1
 3207 000a FB71     		strb	r3, [r7, #7]
 3208 000c 1346     		mov	r3, r2
 3209 000e BB71     		strb	r3, [r7, #6]
 856:Drivers/BSP/Components/L6470/L6470.c ****   uint8_t ValueLengthByte;
 857:Drivers/BSP/Components/L6470/L6470.c ****   uint32_t ReceivedValue;
 858:Drivers/BSP/Components/L6470/L6470.c **** 
 859:Drivers/BSP/Components/L6470/L6470.c ****   L6470_PrepareAppCmdPkg(L6470_Id, L6470_AppCmdPkg, L6470_GETPARAM_ID, L6470_RegId, 0, 0);
 3210              		.loc 1 859 3
 3211 0010 BB79     		ldrb	r3, [r7, #6]	@ zero_extendqisi2
 3212 0012 F879     		ldrb	r0, [r7, #7]	@ zero_extendqisi2
 3213 0014 0022     		movs	r2, #0
 3214 0016 0192     		str	r2, [sp, #4]
 3215 0018 0022     		movs	r2, #0
 3216 001a 0092     		str	r2, [sp]
 3217 001c 0222     		movs	r2, #2
 3218 001e 1049     		ldr	r1, .L225
 3219 0020 FFF7FEFF 		bl	L6470_PrepareAppCmdPkg
 860:Drivers/BSP/Components/L6470/L6470.c ****   L6470_PrepareDaisyChainCommand(L6470_AppCmdPkg, (uint8_t*)L6470_DaisyChainSpiTxStruct);
 3220              		.loc 1 860 3
 3221 0024 0F49     		ldr	r1, .L225+4
 3222 0026 0E48     		ldr	r0, .L225
 3223 0028 FFF7FEFF 		bl	L6470_PrepareDaisyChainCommand
 861:Drivers/BSP/Components/L6470/L6470.c ****   L6470_DaisyChainCommand((uint8_t*)L6470_DaisyChainSpiTxStruct, (uint8_t*)L6470_DaisyChainSpiRxStr
 3224              		.loc 1 861 3
 3225 002c 0E49     		ldr	r1, .L225+8
 3226 002e 0D48     		ldr	r0, .L225+4
ARM GAS  C:\Users\ep_ygh\AppData\Local\Temp\cccpn5kX.s 			page 73


 3227 0030 FFF7FEFF 		bl	L6470_DaisyChainCommand
 862:Drivers/BSP/Components/L6470/L6470.c ****   
 863:Drivers/BSP/Components/L6470/L6470.c ****   ValueLengthByte = L6470_Register[L6470_RegId].LengthByte;
 3228              		.loc 1 863 48
 3229 0034 BA79     		ldrb	r2, [r7, #6]	@ zero_extendqisi2
 3230              		.loc 1 863 19
 3231 0036 0D49     		ldr	r1, .L225+12
 3232 0038 1346     		mov	r3, r2
 3233 003a 9B00     		lsls	r3, r3, #2
 3234 003c 1344     		add	r3, r3, r2
 3235 003e 9B00     		lsls	r3, r3, #2
 3236 0040 0B44     		add	r3, r3, r1
 3237 0042 0E33     		adds	r3, r3, #14
 3238 0044 1B78     		ldrb	r3, [r3]
 3239 0046 FB73     		strb	r3, [r7, #15]
 864:Drivers/BSP/Components/L6470/L6470.c ****   
 865:Drivers/BSP/Components/L6470/L6470.c ****   ReceivedValue = L6470_ExtractReturnedData(L6470_Id, (uint8_t*)L6470_DaisyChainSpiRxStruct, ValueL
 3240              		.loc 1 865 19
 3241 0048 FA7B     		ldrb	r2, [r7, #15]	@ zero_extendqisi2
 3242 004a FB79     		ldrb	r3, [r7, #7]	@ zero_extendqisi2
 3243 004c 0649     		ldr	r1, .L225+8
 3244 004e 1846     		mov	r0, r3
 3245 0050 FFF7FEFF 		bl	L6470_ExtractReturnedData
 3246 0054 B860     		str	r0, [r7, #8]
 866:Drivers/BSP/Components/L6470/L6470.c ****   
 867:Drivers/BSP/Components/L6470/L6470.c ****   return ReceivedValue;
 3247              		.loc 1 867 10
 3248 0056 BB68     		ldr	r3, [r7, #8]
 868:Drivers/BSP/Components/L6470/L6470.c **** }
 3249              		.loc 1 868 1
 3250 0058 1846     		mov	r0, r3
 3251 005a 1037     		adds	r7, r7, #16
 3252              	.LCFI186:
 3253              		.cfi_def_cfa_offset 8
 3254 005c BD46     		mov	sp, r7
 3255              	.LCFI187:
 3256              		.cfi_def_cfa_register 13
 3257              		@ sp needed
 3258 005e 80BD     		pop	{r7, pc}
 3259              	.L226:
 3260              		.align	2
 3261              	.L225:
 3262 0060 00000000 		.word	L6470_AppCmdPkg
 3263 0064 00000000 		.word	L6470_DaisyChainSpiTxStruct
 3264 0068 00000000 		.word	L6470_DaisyChainSpiRxStruct
 3265 006c 00000000 		.word	L6470_Register
 3266              		.cfi_endproc
 3267              	.LFE159:
 3269              		.section	.text.L6470_Run,"ax",%progbits
 3270              		.align	1
 3271              		.global	L6470_Run
 3272              		.syntax unified
 3273              		.thumb
 3274              		.thumb_func
 3276              	L6470_Run:
 3277              	.LFB160:
 869:Drivers/BSP/Components/L6470/L6470.c **** 
ARM GAS  C:\Users\ep_ygh\AppData\Local\Temp\cccpn5kX.s 			page 74


 870:Drivers/BSP/Components/L6470/L6470.c **** /**
 871:Drivers/BSP/Components/L6470/L6470.c ****   * @brief  Run command produces a motion at fixed speed.
 872:Drivers/BSP/Components/L6470/L6470.c ****   * 
 873:Drivers/BSP/Components/L6470/L6470.c ****   * @param  L6470_Id      The identifier of the L6470 target inside the daisy chain.
 874:Drivers/BSP/Components/L6470/L6470.c ****   * @param  L6470_DirId   The identifier of the L6470 motion direction.
 875:Drivers/BSP/Components/L6470/L6470.c ****   * @param  Speed         The speed value as (([step/s] * 250e-9) / 2^-28)
 876:Drivers/BSP/Components/L6470/L6470.c ****   */
 877:Drivers/BSP/Components/L6470/L6470.c **** void L6470_Run(uint8_t L6470_Id, eL6470_DirId_t L6470_DirId, uint32_t Speed)
 878:Drivers/BSP/Components/L6470/L6470.c **** {
 3278              		.loc 1 878 1
 3279              		.cfi_startproc
 3280              		@ args = 0, pretend = 0, frame = 8
 3281              		@ frame_needed = 1, uses_anonymous_args = 0
 3282 0000 80B5     		push	{r7, lr}
 3283              	.LCFI188:
 3284              		.cfi_def_cfa_offset 8
 3285              		.cfi_offset 7, -8
 3286              		.cfi_offset 14, -4
 3287 0002 84B0     		sub	sp, sp, #16
 3288              	.LCFI189:
 3289              		.cfi_def_cfa_offset 24
 3290 0004 02AF     		add	r7, sp, #8
 3291              	.LCFI190:
 3292              		.cfi_def_cfa 7, 16
 3293 0006 0346     		mov	r3, r0
 3294 0008 3A60     		str	r2, [r7]
 3295 000a FB71     		strb	r3, [r7, #7]
 3296 000c 0B46     		mov	r3, r1
 3297 000e BB71     		strb	r3, [r7, #6]
 879:Drivers/BSP/Components/L6470/L6470.c ****   L6470_PrepareAppCmdPkg(L6470_Id, L6470_AppCmdPkg, L6470_RUN_ID, L6470_DirId, Speed, 0);
 3298              		.loc 1 879 3
 3299 0010 BA79     		ldrb	r2, [r7, #6]	@ zero_extendqisi2
 3300 0012 F879     		ldrb	r0, [r7, #7]	@ zero_extendqisi2
 3301 0014 0023     		movs	r3, #0
 3302 0016 0193     		str	r3, [sp, #4]
 3303 0018 3B68     		ldr	r3, [r7]
 3304 001a 0093     		str	r3, [sp]
 3305 001c 1346     		mov	r3, r2
 3306 001e 0322     		movs	r2, #3
 3307 0020 0749     		ldr	r1, .L228
 3308 0022 FFF7FEFF 		bl	L6470_PrepareAppCmdPkg
 880:Drivers/BSP/Components/L6470/L6470.c ****   L6470_PrepareDaisyChainCommand(L6470_AppCmdPkg, (uint8_t*)L6470_DaisyChainSpiTxStruct);
 3309              		.loc 1 880 3
 3310 0026 0749     		ldr	r1, .L228+4
 3311 0028 0548     		ldr	r0, .L228
 3312 002a FFF7FEFF 		bl	L6470_PrepareDaisyChainCommand
 881:Drivers/BSP/Components/L6470/L6470.c ****   L6470_DaisyChainCommand((uint8_t*)L6470_DaisyChainSpiTxStruct, (uint8_t*)L6470_DaisyChainSpiRxStr
 3313              		.loc 1 881 3
 3314 002e 0649     		ldr	r1, .L228+8
 3315 0030 0448     		ldr	r0, .L228+4
 3316 0032 FFF7FEFF 		bl	L6470_DaisyChainCommand
 882:Drivers/BSP/Components/L6470/L6470.c **** }
 3317              		.loc 1 882 1
 3318 0036 00BF     		nop
 3319 0038 0837     		adds	r7, r7, #8
 3320              	.LCFI191:
 3321              		.cfi_def_cfa_offset 8
ARM GAS  C:\Users\ep_ygh\AppData\Local\Temp\cccpn5kX.s 			page 75


 3322 003a BD46     		mov	sp, r7
 3323              	.LCFI192:
 3324              		.cfi_def_cfa_register 13
 3325              		@ sp needed
 3326 003c 80BD     		pop	{r7, pc}
 3327              	.L229:
 3328 003e 00BF     		.align	2
 3329              	.L228:
 3330 0040 00000000 		.word	L6470_AppCmdPkg
 3331 0044 00000000 		.word	L6470_DaisyChainSpiTxStruct
 3332 0048 00000000 		.word	L6470_DaisyChainSpiRxStruct
 3333              		.cfi_endproc
 3334              	.LFE160:
 3336              		.section	.text.L6470_StepClock,"ax",%progbits
 3337              		.align	1
 3338              		.global	L6470_StepClock
 3339              		.syntax unified
 3340              		.thumb
 3341              		.thumb_func
 3343              	L6470_StepClock:
 3344              	.LFB161:
 883:Drivers/BSP/Components/L6470/L6470.c **** 
 884:Drivers/BSP/Components/L6470/L6470.c **** /**
 885:Drivers/BSP/Components/L6470/L6470.c ****   * @brief  StepClock command switches the device in Step-clock mode.
 886:Drivers/BSP/Components/L6470/L6470.c ****   * 
 887:Drivers/BSP/Components/L6470/L6470.c ****   * @param  L6470_Id      The identifier of the L6470 target inside the daisy chain.
 888:Drivers/BSP/Components/L6470/L6470.c ****   * @param  L6470_DirId   The identifier of the L6470 motion direction.
 889:Drivers/BSP/Components/L6470/L6470.c ****   */
 890:Drivers/BSP/Components/L6470/L6470.c **** void L6470_StepClock(uint8_t L6470_Id, eL6470_DirId_t L6470_DirId)
 891:Drivers/BSP/Components/L6470/L6470.c **** {
 3345              		.loc 1 891 1
 3346              		.cfi_startproc
 3347              		@ args = 0, pretend = 0, frame = 8
 3348              		@ frame_needed = 1, uses_anonymous_args = 0
 3349 0000 80B5     		push	{r7, lr}
 3350              	.LCFI193:
 3351              		.cfi_def_cfa_offset 8
 3352              		.cfi_offset 7, -8
 3353              		.cfi_offset 14, -4
 3354 0002 84B0     		sub	sp, sp, #16
 3355              	.LCFI194:
 3356              		.cfi_def_cfa_offset 24
 3357 0004 02AF     		add	r7, sp, #8
 3358              	.LCFI195:
 3359              		.cfi_def_cfa 7, 16
 3360 0006 0346     		mov	r3, r0
 3361 0008 0A46     		mov	r2, r1
 3362 000a FB71     		strb	r3, [r7, #7]
 3363 000c 1346     		mov	r3, r2
 3364 000e BB71     		strb	r3, [r7, #6]
 892:Drivers/BSP/Components/L6470/L6470.c ****   L6470_PrepareAppCmdPkg(L6470_Id, L6470_AppCmdPkg, L6470_STEPCLOCK_ID, L6470_DirId, 0, 0);
 3365              		.loc 1 892 3
 3366 0010 BB79     		ldrb	r3, [r7, #6]	@ zero_extendqisi2
 3367 0012 F879     		ldrb	r0, [r7, #7]	@ zero_extendqisi2
 3368 0014 0022     		movs	r2, #0
 3369 0016 0192     		str	r2, [sp, #4]
 3370 0018 0022     		movs	r2, #0
ARM GAS  C:\Users\ep_ygh\AppData\Local\Temp\cccpn5kX.s 			page 76


 3371 001a 0092     		str	r2, [sp]
 3372 001c 0422     		movs	r2, #4
 3373 001e 0749     		ldr	r1, .L231
 3374 0020 FFF7FEFF 		bl	L6470_PrepareAppCmdPkg
 893:Drivers/BSP/Components/L6470/L6470.c ****   L6470_PrepareDaisyChainCommand(L6470_AppCmdPkg, (uint8_t*)L6470_DaisyChainSpiTxStruct);
 3375              		.loc 1 893 3
 3376 0024 0649     		ldr	r1, .L231+4
 3377 0026 0548     		ldr	r0, .L231
 3378 0028 FFF7FEFF 		bl	L6470_PrepareDaisyChainCommand
 894:Drivers/BSP/Components/L6470/L6470.c ****   L6470_DaisyChainCommand((uint8_t*)L6470_DaisyChainSpiTxStruct, (uint8_t*)L6470_DaisyChainSpiRxStr
 3379              		.loc 1 894 3
 3380 002c 0549     		ldr	r1, .L231+8
 3381 002e 0448     		ldr	r0, .L231+4
 3382 0030 FFF7FEFF 		bl	L6470_DaisyChainCommand
 895:Drivers/BSP/Components/L6470/L6470.c **** }
 3383              		.loc 1 895 1
 3384 0034 00BF     		nop
 3385 0036 0837     		adds	r7, r7, #8
 3386              	.LCFI196:
 3387              		.cfi_def_cfa_offset 8
 3388 0038 BD46     		mov	sp, r7
 3389              	.LCFI197:
 3390              		.cfi_def_cfa_register 13
 3391              		@ sp needed
 3392 003a 80BD     		pop	{r7, pc}
 3393              	.L232:
 3394              		.align	2
 3395              	.L231:
 3396 003c 00000000 		.word	L6470_AppCmdPkg
 3397 0040 00000000 		.word	L6470_DaisyChainSpiTxStruct
 3398 0044 00000000 		.word	L6470_DaisyChainSpiRxStruct
 3399              		.cfi_endproc
 3400              	.LFE161:
 3402              		.section	.text.L6470_Move,"ax",%progbits
 3403              		.align	1
 3404              		.global	L6470_Move
 3405              		.syntax unified
 3406              		.thumb
 3407              		.thumb_func
 3409              	L6470_Move:
 3410              	.LFB162:
 896:Drivers/BSP/Components/L6470/L6470.c **** 
 897:Drivers/BSP/Components/L6470/L6470.c **** /**
 898:Drivers/BSP/Components/L6470/L6470.c ****   * @brief  Move command produces a motion of N_STEP microsteps.
 899:Drivers/BSP/Components/L6470/L6470.c ****   * 
 900:Drivers/BSP/Components/L6470/L6470.c ****   * @param  L6470_Id      The identifier of the L6470 target inside the daisy chain.
 901:Drivers/BSP/Components/L6470/L6470.c ****   * @param  L6470_DirId   The identifier of the L6470 motion direction.
 902:Drivers/BSP/Components/L6470/L6470.c ****   * @param  N_Step        The number of microsteps.
 903:Drivers/BSP/Components/L6470/L6470.c ****   */
 904:Drivers/BSP/Components/L6470/L6470.c **** void L6470_Move(uint8_t L6470_Id, eL6470_DirId_t L6470_DirId, uint32_t N_Step)
 905:Drivers/BSP/Components/L6470/L6470.c **** {
 3411              		.loc 1 905 1
 3412              		.cfi_startproc
 3413              		@ args = 0, pretend = 0, frame = 8
 3414              		@ frame_needed = 1, uses_anonymous_args = 0
 3415 0000 80B5     		push	{r7, lr}
 3416              	.LCFI198:
ARM GAS  C:\Users\ep_ygh\AppData\Local\Temp\cccpn5kX.s 			page 77


 3417              		.cfi_def_cfa_offset 8
 3418              		.cfi_offset 7, -8
 3419              		.cfi_offset 14, -4
 3420 0002 84B0     		sub	sp, sp, #16
 3421              	.LCFI199:
 3422              		.cfi_def_cfa_offset 24
 3423 0004 02AF     		add	r7, sp, #8
 3424              	.LCFI200:
 3425              		.cfi_def_cfa 7, 16
 3426 0006 0346     		mov	r3, r0
 3427 0008 3A60     		str	r2, [r7]
 3428 000a FB71     		strb	r3, [r7, #7]
 3429 000c 0B46     		mov	r3, r1
 3430 000e BB71     		strb	r3, [r7, #6]
 906:Drivers/BSP/Components/L6470/L6470.c ****   L6470_PrepareAppCmdPkg(L6470_Id, L6470_AppCmdPkg, L6470_MOVE_ID, L6470_DirId, N_Step, 0);
 3431              		.loc 1 906 3
 3432 0010 BA79     		ldrb	r2, [r7, #6]	@ zero_extendqisi2
 3433 0012 F879     		ldrb	r0, [r7, #7]	@ zero_extendqisi2
 3434 0014 0023     		movs	r3, #0
 3435 0016 0193     		str	r3, [sp, #4]
 3436 0018 3B68     		ldr	r3, [r7]
 3437 001a 0093     		str	r3, [sp]
 3438 001c 1346     		mov	r3, r2
 3439 001e 0522     		movs	r2, #5
 3440 0020 0749     		ldr	r1, .L234
 3441 0022 FFF7FEFF 		bl	L6470_PrepareAppCmdPkg
 907:Drivers/BSP/Components/L6470/L6470.c ****   L6470_PrepareDaisyChainCommand(L6470_AppCmdPkg, (uint8_t*)L6470_DaisyChainSpiTxStruct);
 3442              		.loc 1 907 3
 3443 0026 0749     		ldr	r1, .L234+4
 3444 0028 0548     		ldr	r0, .L234
 3445 002a FFF7FEFF 		bl	L6470_PrepareDaisyChainCommand
 908:Drivers/BSP/Components/L6470/L6470.c ****   L6470_DaisyChainCommand((uint8_t*)L6470_DaisyChainSpiTxStruct, (uint8_t*)L6470_DaisyChainSpiRxStr
 3446              		.loc 1 908 3
 3447 002e 0649     		ldr	r1, .L234+8
 3448 0030 0448     		ldr	r0, .L234+4
 3449 0032 FFF7FEFF 		bl	L6470_DaisyChainCommand
 909:Drivers/BSP/Components/L6470/L6470.c **** }
 3450              		.loc 1 909 1
 3451 0036 00BF     		nop
 3452 0038 0837     		adds	r7, r7, #8
 3453              	.LCFI201:
 3454              		.cfi_def_cfa_offset 8
 3455 003a BD46     		mov	sp, r7
 3456              	.LCFI202:
 3457              		.cfi_def_cfa_register 13
 3458              		@ sp needed
 3459 003c 80BD     		pop	{r7, pc}
 3460              	.L235:
 3461 003e 00BF     		.align	2
 3462              	.L234:
 3463 0040 00000000 		.word	L6470_AppCmdPkg
 3464 0044 00000000 		.word	L6470_DaisyChainSpiTxStruct
 3465 0048 00000000 		.word	L6470_DaisyChainSpiRxStruct
 3466              		.cfi_endproc
 3467              	.LFE162:
 3469              		.section	.text.L6470_GoTo,"ax",%progbits
 3470              		.align	1
ARM GAS  C:\Users\ep_ygh\AppData\Local\Temp\cccpn5kX.s 			page 78


 3471              		.global	L6470_GoTo
 3472              		.syntax unified
 3473              		.thumb
 3474              		.thumb_func
 3476              	L6470_GoTo:
 3477              	.LFB163:
 910:Drivers/BSP/Components/L6470/L6470.c **** 
 911:Drivers/BSP/Components/L6470/L6470.c **** /**
 912:Drivers/BSP/Components/L6470/L6470.c ****   * @brief  GoTo command produces a motion to ABS_POS absolute position through the shortest path.
 913:Drivers/BSP/Components/L6470/L6470.c ****   * 
 914:Drivers/BSP/Components/L6470/L6470.c ****   * @param  L6470_Id      The identifier of the L6470 target inside the daisy chain.
 915:Drivers/BSP/Components/L6470/L6470.c ****   * @param  AbsPos        The target absolute position.
 916:Drivers/BSP/Components/L6470/L6470.c ****   */
 917:Drivers/BSP/Components/L6470/L6470.c **** void L6470_GoTo(uint8_t L6470_Id, uint32_t AbsPos)
 918:Drivers/BSP/Components/L6470/L6470.c **** {
 3478              		.loc 1 918 1
 3479              		.cfi_startproc
 3480              		@ args = 0, pretend = 0, frame = 8
 3481              		@ frame_needed = 1, uses_anonymous_args = 0
 3482 0000 80B5     		push	{r7, lr}
 3483              	.LCFI203:
 3484              		.cfi_def_cfa_offset 8
 3485              		.cfi_offset 7, -8
 3486              		.cfi_offset 14, -4
 3487 0002 84B0     		sub	sp, sp, #16
 3488              	.LCFI204:
 3489              		.cfi_def_cfa_offset 24
 3490 0004 02AF     		add	r7, sp, #8
 3491              	.LCFI205:
 3492              		.cfi_def_cfa 7, 16
 3493 0006 0346     		mov	r3, r0
 3494 0008 3960     		str	r1, [r7]
 3495 000a FB71     		strb	r3, [r7, #7]
 919:Drivers/BSP/Components/L6470/L6470.c ****   if (AbsPos <= L6470_POSITION_RANGE)
 3496              		.loc 1 919 6
 3497 000c 3B68     		ldr	r3, [r7]
 3498 000e B3F5800F 		cmp	r3, #4194304
 3499 0012 11D2     		bcs	.L238
 920:Drivers/BSP/Components/L6470/L6470.c ****   {
 921:Drivers/BSP/Components/L6470/L6470.c ****     L6470_PrepareAppCmdPkg(L6470_Id, L6470_AppCmdPkg, L6470_GOTO_ID, AbsPos, 0, 0);
 3500              		.loc 1 921 5
 3501 0014 F879     		ldrb	r0, [r7, #7]	@ zero_extendqisi2
 3502 0016 0023     		movs	r3, #0
 3503 0018 0193     		str	r3, [sp, #4]
 3504 001a 0023     		movs	r3, #0
 3505 001c 0093     		str	r3, [sp]
 3506 001e 3B68     		ldr	r3, [r7]
 3507 0020 0622     		movs	r2, #6
 3508 0022 0749     		ldr	r1, .L239
 3509 0024 FFF7FEFF 		bl	L6470_PrepareAppCmdPkg
 922:Drivers/BSP/Components/L6470/L6470.c ****     L6470_PrepareDaisyChainCommand(L6470_AppCmdPkg, (uint8_t*)L6470_DaisyChainSpiTxStruct);
 3510              		.loc 1 922 5
 3511 0028 0649     		ldr	r1, .L239+4
 3512 002a 0548     		ldr	r0, .L239
 3513 002c FFF7FEFF 		bl	L6470_PrepareDaisyChainCommand
 923:Drivers/BSP/Components/L6470/L6470.c ****     L6470_DaisyChainCommand((uint8_t*)L6470_DaisyChainSpiTxStruct, (uint8_t*)L6470_DaisyChainSpiRxS
 3514              		.loc 1 923 5
ARM GAS  C:\Users\ep_ygh\AppData\Local\Temp\cccpn5kX.s 			page 79


 3515 0030 0549     		ldr	r1, .L239+8
 3516 0032 0448     		ldr	r0, .L239+4
 3517 0034 FFF7FEFF 		bl	L6470_DaisyChainCommand
 3518              	.L238:
 924:Drivers/BSP/Components/L6470/L6470.c ****   }
 925:Drivers/BSP/Components/L6470/L6470.c **** }
 3519              		.loc 1 925 1
 3520 0038 00BF     		nop
 3521 003a 0837     		adds	r7, r7, #8
 3522              	.LCFI206:
 3523              		.cfi_def_cfa_offset 8
 3524 003c BD46     		mov	sp, r7
 3525              	.LCFI207:
 3526              		.cfi_def_cfa_register 13
 3527              		@ sp needed
 3528 003e 80BD     		pop	{r7, pc}
 3529              	.L240:
 3530              		.align	2
 3531              	.L239:
 3532 0040 00000000 		.word	L6470_AppCmdPkg
 3533 0044 00000000 		.word	L6470_DaisyChainSpiTxStruct
 3534 0048 00000000 		.word	L6470_DaisyChainSpiRxStruct
 3535              		.cfi_endproc
 3536              	.LFE163:
 3538              		.section	.text.L6470_GoToDir,"ax",%progbits
 3539              		.align	1
 3540              		.global	L6470_GoToDir
 3541              		.syntax unified
 3542              		.thumb
 3543              		.thumb_func
 3545              	L6470_GoToDir:
 3546              	.LFB164:
 926:Drivers/BSP/Components/L6470/L6470.c **** 
 927:Drivers/BSP/Components/L6470/L6470.c **** /**
 928:Drivers/BSP/Components/L6470/L6470.c ****   * @brief  GoTo_DIR command produces a motion to ABS_POS absolute position imposing a direction.
 929:Drivers/BSP/Components/L6470/L6470.c ****   * 
 930:Drivers/BSP/Components/L6470/L6470.c ****   * @param  L6470_Id      The identifier of the L6470 target inside the daisy chain.
 931:Drivers/BSP/Components/L6470/L6470.c ****   * @param  L6470_DirId   The identifier of the L6470 motion direction.
 932:Drivers/BSP/Components/L6470/L6470.c ****   * @param  AbsPos        The target absolute position.
 933:Drivers/BSP/Components/L6470/L6470.c ****   */
 934:Drivers/BSP/Components/L6470/L6470.c **** void L6470_GoToDir(uint8_t L6470_Id, eL6470_DirId_t L6470_DirId, uint32_t AbsPos)
 935:Drivers/BSP/Components/L6470/L6470.c **** {
 3547              		.loc 1 935 1
 3548              		.cfi_startproc
 3549              		@ args = 0, pretend = 0, frame = 8
 3550              		@ frame_needed = 1, uses_anonymous_args = 0
 3551 0000 80B5     		push	{r7, lr}
 3552              	.LCFI208:
 3553              		.cfi_def_cfa_offset 8
 3554              		.cfi_offset 7, -8
 3555              		.cfi_offset 14, -4
 3556 0002 84B0     		sub	sp, sp, #16
 3557              	.LCFI209:
 3558              		.cfi_def_cfa_offset 24
 3559 0004 02AF     		add	r7, sp, #8
 3560              	.LCFI210:
 3561              		.cfi_def_cfa 7, 16
ARM GAS  C:\Users\ep_ygh\AppData\Local\Temp\cccpn5kX.s 			page 80


 3562 0006 0346     		mov	r3, r0
 3563 0008 3A60     		str	r2, [r7]
 3564 000a FB71     		strb	r3, [r7, #7]
 3565 000c 0B46     		mov	r3, r1
 3566 000e BB71     		strb	r3, [r7, #6]
 936:Drivers/BSP/Components/L6470/L6470.c ****   if (AbsPos <= L6470_POSITION_RANGE)
 3567              		.loc 1 936 6
 3568 0010 3B68     		ldr	r3, [r7]
 3569 0012 B3F5800F 		cmp	r3, #4194304
 3570 0016 12D2     		bcs	.L243
 937:Drivers/BSP/Components/L6470/L6470.c ****   {
 938:Drivers/BSP/Components/L6470/L6470.c ****     L6470_PrepareAppCmdPkg(L6470_Id, L6470_AppCmdPkg, L6470_GOTODIR_ID, L6470_DirId, AbsPos, 0);
 3571              		.loc 1 938 5
 3572 0018 BA79     		ldrb	r2, [r7, #6]	@ zero_extendqisi2
 3573 001a F879     		ldrb	r0, [r7, #7]	@ zero_extendqisi2
 3574 001c 0023     		movs	r3, #0
 3575 001e 0193     		str	r3, [sp, #4]
 3576 0020 3B68     		ldr	r3, [r7]
 3577 0022 0093     		str	r3, [sp]
 3578 0024 1346     		mov	r3, r2
 3579 0026 0722     		movs	r2, #7
 3580 0028 0749     		ldr	r1, .L244
 3581 002a FFF7FEFF 		bl	L6470_PrepareAppCmdPkg
 939:Drivers/BSP/Components/L6470/L6470.c ****     L6470_PrepareDaisyChainCommand(L6470_AppCmdPkg, (uint8_t*)L6470_DaisyChainSpiTxStruct);
 3582              		.loc 1 939 5
 3583 002e 0749     		ldr	r1, .L244+4
 3584 0030 0548     		ldr	r0, .L244
 3585 0032 FFF7FEFF 		bl	L6470_PrepareDaisyChainCommand
 940:Drivers/BSP/Components/L6470/L6470.c ****     L6470_DaisyChainCommand((uint8_t*)L6470_DaisyChainSpiTxStruct, (uint8_t*)L6470_DaisyChainSpiRxS
 3586              		.loc 1 940 5
 3587 0036 0649     		ldr	r1, .L244+8
 3588 0038 0448     		ldr	r0, .L244+4
 3589 003a FFF7FEFF 		bl	L6470_DaisyChainCommand
 3590              	.L243:
 941:Drivers/BSP/Components/L6470/L6470.c ****   }
 942:Drivers/BSP/Components/L6470/L6470.c **** }
 3591              		.loc 1 942 1
 3592 003e 00BF     		nop
 3593 0040 0837     		adds	r7, r7, #8
 3594              	.LCFI211:
 3595              		.cfi_def_cfa_offset 8
 3596 0042 BD46     		mov	sp, r7
 3597              	.LCFI212:
 3598              		.cfi_def_cfa_register 13
 3599              		@ sp needed
 3600 0044 80BD     		pop	{r7, pc}
 3601              	.L245:
 3602 0046 00BF     		.align	2
 3603              	.L244:
 3604 0048 00000000 		.word	L6470_AppCmdPkg
 3605 004c 00000000 		.word	L6470_DaisyChainSpiTxStruct
 3606 0050 00000000 		.word	L6470_DaisyChainSpiRxStruct
 3607              		.cfi_endproc
 3608              	.LFE164:
 3610              		.section	.text.L6470_GoUntil,"ax",%progbits
 3611              		.align	1
 3612              		.global	L6470_GoUntil
ARM GAS  C:\Users\ep_ygh\AppData\Local\Temp\cccpn5kX.s 			page 81


 3613              		.syntax unified
 3614              		.thumb
 3615              		.thumb_func
 3617              	L6470_GoUntil:
 3618              	.LFB165:
 943:Drivers/BSP/Components/L6470/L6470.c **** 
 944:Drivers/BSP/Components/L6470/L6470.c **** /**
 945:Drivers/BSP/Components/L6470/L6470.c ****   * @brief  GoUntil command produces a motion at fixed speed imposing a direction
 946:Drivers/BSP/Components/L6470/L6470.c ****   *         until an external switch turn-on event occurs.
 947:Drivers/BSP/Components/L6470/L6470.c ****   * 
 948:Drivers/BSP/Components/L6470/L6470.c ****   * @param  L6470_Id      The identifier of the L6470 target inside the daisy chain.
 949:Drivers/BSP/Components/L6470/L6470.c ****   * @param  L6470_ActId   The identifier of the L6470 action about the absolute position.
 950:Drivers/BSP/Components/L6470/L6470.c ****   * @param  L6470_DirId   The identifier of the L6470 motion direction.
 951:Drivers/BSP/Components/L6470/L6470.c ****   * @param  Speed         The speed value as (([step/s] * 250e-9) / 2^-28)
 952:Drivers/BSP/Components/L6470/L6470.c ****   */
 953:Drivers/BSP/Components/L6470/L6470.c **** void L6470_GoUntil(uint8_t L6470_Id, eL6470_ActId_t L6470_ActId, eL6470_DirId_t L6470_DirId, uint32
 954:Drivers/BSP/Components/L6470/L6470.c **** {
 3619              		.loc 1 954 1
 3620              		.cfi_startproc
 3621              		@ args = 0, pretend = 0, frame = 8
 3622              		@ frame_needed = 1, uses_anonymous_args = 0
 3623 0000 80B5     		push	{r7, lr}
 3624              	.LCFI213:
 3625              		.cfi_def_cfa_offset 8
 3626              		.cfi_offset 7, -8
 3627              		.cfi_offset 14, -4
 3628 0002 84B0     		sub	sp, sp, #16
 3629              	.LCFI214:
 3630              		.cfi_def_cfa_offset 24
 3631 0004 02AF     		add	r7, sp, #8
 3632              	.LCFI215:
 3633              		.cfi_def_cfa 7, 16
 3634 0006 3B60     		str	r3, [r7]
 3635 0008 0346     		mov	r3, r0
 3636 000a FB71     		strb	r3, [r7, #7]
 3637 000c 0B46     		mov	r3, r1
 3638 000e BB71     		strb	r3, [r7, #6]
 3639 0010 1346     		mov	r3, r2
 3640 0012 7B71     		strb	r3, [r7, #5]
 955:Drivers/BSP/Components/L6470/L6470.c ****   L6470_PrepareAppCmdPkg(L6470_Id, L6470_AppCmdPkg, L6470_GOUNTIL_ID, L6470_ActId, L6470_DirId, Spe
 3641              		.loc 1 955 3
 3642 0014 B979     		ldrb	r1, [r7, #6]	@ zero_extendqisi2
 3643 0016 7B79     		ldrb	r3, [r7, #5]	@ zero_extendqisi2
 3644 0018 F879     		ldrb	r0, [r7, #7]	@ zero_extendqisi2
 3645 001a 3A68     		ldr	r2, [r7]
 3646 001c 0192     		str	r2, [sp, #4]
 3647 001e 0093     		str	r3, [sp]
 3648 0020 0B46     		mov	r3, r1
 3649 0022 0822     		movs	r2, #8
 3650 0024 0749     		ldr	r1, .L247
 3651 0026 FFF7FEFF 		bl	L6470_PrepareAppCmdPkg
 956:Drivers/BSP/Components/L6470/L6470.c ****   L6470_PrepareDaisyChainCommand(L6470_AppCmdPkg, (uint8_t*)L6470_DaisyChainSpiTxStruct);
 3652              		.loc 1 956 3
 3653 002a 0749     		ldr	r1, .L247+4
 3654 002c 0548     		ldr	r0, .L247
 3655 002e FFF7FEFF 		bl	L6470_PrepareDaisyChainCommand
 957:Drivers/BSP/Components/L6470/L6470.c ****   L6470_DaisyChainCommand((uint8_t*)L6470_DaisyChainSpiTxStruct, (uint8_t*)L6470_DaisyChainSpiRxStr
ARM GAS  C:\Users\ep_ygh\AppData\Local\Temp\cccpn5kX.s 			page 82


 3656              		.loc 1 957 3
 3657 0032 0649     		ldr	r1, .L247+8
 3658 0034 0448     		ldr	r0, .L247+4
 3659 0036 FFF7FEFF 		bl	L6470_DaisyChainCommand
 958:Drivers/BSP/Components/L6470/L6470.c **** }
 3660              		.loc 1 958 1
 3661 003a 00BF     		nop
 3662 003c 0837     		adds	r7, r7, #8
 3663              	.LCFI216:
 3664              		.cfi_def_cfa_offset 8
 3665 003e BD46     		mov	sp, r7
 3666              	.LCFI217:
 3667              		.cfi_def_cfa_register 13
 3668              		@ sp needed
 3669 0040 80BD     		pop	{r7, pc}
 3670              	.L248:
 3671 0042 00BF     		.align	2
 3672              	.L247:
 3673 0044 00000000 		.word	L6470_AppCmdPkg
 3674 0048 00000000 		.word	L6470_DaisyChainSpiTxStruct
 3675 004c 00000000 		.word	L6470_DaisyChainSpiRxStruct
 3676              		.cfi_endproc
 3677              	.LFE165:
 3679              		.section	.text.L6470_ReleaseSW,"ax",%progbits
 3680              		.align	1
 3681              		.global	L6470_ReleaseSW
 3682              		.syntax unified
 3683              		.thumb
 3684              		.thumb_func
 3686              	L6470_ReleaseSW:
 3687              	.LFB166:
 959:Drivers/BSP/Components/L6470/L6470.c **** 
 960:Drivers/BSP/Components/L6470/L6470.c **** /**
 961:Drivers/BSP/Components/L6470/L6470.c ****   * @brief  ReleaseSW command produces a motion at minimum speed imposing a direction
 962:Drivers/BSP/Components/L6470/L6470.c ****   *         until SW is released.
 963:Drivers/BSP/Components/L6470/L6470.c ****   * 
 964:Drivers/BSP/Components/L6470/L6470.c ****   * @param  L6470_Id      The identifier of the L6470 target inside the daisy chain.
 965:Drivers/BSP/Components/L6470/L6470.c ****   * @param  L6470_ActId   The identifier of the L6470 action about the absolute position.
 966:Drivers/BSP/Components/L6470/L6470.c ****   * @param  L6470_DirId   The identifier of the L6470 motion direction.
 967:Drivers/BSP/Components/L6470/L6470.c ****   */
 968:Drivers/BSP/Components/L6470/L6470.c **** void L6470_ReleaseSW(uint8_t L6470_Id, eL6470_ActId_t L6470_ActId, eL6470_DirId_t L6470_DirId)
 969:Drivers/BSP/Components/L6470/L6470.c **** {
 3688              		.loc 1 969 1
 3689              		.cfi_startproc
 3690              		@ args = 0, pretend = 0, frame = 8
 3691              		@ frame_needed = 1, uses_anonymous_args = 0
 3692 0000 80B5     		push	{r7, lr}
 3693              	.LCFI218:
 3694              		.cfi_def_cfa_offset 8
 3695              		.cfi_offset 7, -8
 3696              		.cfi_offset 14, -4
 3697 0002 84B0     		sub	sp, sp, #16
 3698              	.LCFI219:
 3699              		.cfi_def_cfa_offset 24
 3700 0004 02AF     		add	r7, sp, #8
 3701              	.LCFI220:
 3702              		.cfi_def_cfa 7, 16
ARM GAS  C:\Users\ep_ygh\AppData\Local\Temp\cccpn5kX.s 			page 83


 3703 0006 0346     		mov	r3, r0
 3704 0008 FB71     		strb	r3, [r7, #7]
 3705 000a 0B46     		mov	r3, r1
 3706 000c BB71     		strb	r3, [r7, #6]
 3707 000e 1346     		mov	r3, r2
 3708 0010 7B71     		strb	r3, [r7, #5]
 970:Drivers/BSP/Components/L6470/L6470.c ****   L6470_PrepareAppCmdPkg(L6470_Id, L6470_AppCmdPkg, L6470_RELEASESW_ID, L6470_ActId, L6470_DirId, 0
 3709              		.loc 1 970 3
 3710 0012 BA79     		ldrb	r2, [r7, #6]	@ zero_extendqisi2
 3711 0014 7B79     		ldrb	r3, [r7, #5]	@ zero_extendqisi2
 3712 0016 F879     		ldrb	r0, [r7, #7]	@ zero_extendqisi2
 3713 0018 0021     		movs	r1, #0
 3714 001a 0191     		str	r1, [sp, #4]
 3715 001c 0093     		str	r3, [sp]
 3716 001e 1346     		mov	r3, r2
 3717 0020 0922     		movs	r2, #9
 3718 0022 0749     		ldr	r1, .L250
 3719 0024 FFF7FEFF 		bl	L6470_PrepareAppCmdPkg
 971:Drivers/BSP/Components/L6470/L6470.c ****   L6470_PrepareDaisyChainCommand(L6470_AppCmdPkg, (uint8_t*)L6470_DaisyChainSpiTxStruct);
 3720              		.loc 1 971 3
 3721 0028 0649     		ldr	r1, .L250+4
 3722 002a 0548     		ldr	r0, .L250
 3723 002c FFF7FEFF 		bl	L6470_PrepareDaisyChainCommand
 972:Drivers/BSP/Components/L6470/L6470.c ****   L6470_DaisyChainCommand((uint8_t*)L6470_DaisyChainSpiTxStruct, (uint8_t*)L6470_DaisyChainSpiRxStr
 3724              		.loc 1 972 3
 3725 0030 0549     		ldr	r1, .L250+8
 3726 0032 0448     		ldr	r0, .L250+4
 3727 0034 FFF7FEFF 		bl	L6470_DaisyChainCommand
 973:Drivers/BSP/Components/L6470/L6470.c **** }
 3728              		.loc 1 973 1
 3729 0038 00BF     		nop
 3730 003a 0837     		adds	r7, r7, #8
 3731              	.LCFI221:
 3732              		.cfi_def_cfa_offset 8
 3733 003c BD46     		mov	sp, r7
 3734              	.LCFI222:
 3735              		.cfi_def_cfa_register 13
 3736              		@ sp needed
 3737 003e 80BD     		pop	{r7, pc}
 3738              	.L251:
 3739              		.align	2
 3740              	.L250:
 3741 0040 00000000 		.word	L6470_AppCmdPkg
 3742 0044 00000000 		.word	L6470_DaisyChainSpiTxStruct
 3743 0048 00000000 		.word	L6470_DaisyChainSpiRxStruct
 3744              		.cfi_endproc
 3745              	.LFE166:
 3747              		.section	.text.L6470_GoHome,"ax",%progbits
 3748              		.align	1
 3749              		.global	L6470_GoHome
 3750              		.syntax unified
 3751              		.thumb
 3752              		.thumb_func
 3754              	L6470_GoHome:
 3755              	.LFB167:
 974:Drivers/BSP/Components/L6470/L6470.c **** 
 975:Drivers/BSP/Components/L6470/L6470.c **** /**
ARM GAS  C:\Users\ep_ygh\AppData\Local\Temp\cccpn5kX.s 			page 84


 976:Drivers/BSP/Components/L6470/L6470.c ****   * @brief  GoHome command produces a motion to the HOME position (zero position)
 977:Drivers/BSP/Components/L6470/L6470.c ****   *         via the shortest path.
 978:Drivers/BSP/Components/L6470/L6470.c ****   * 
 979:Drivers/BSP/Components/L6470/L6470.c ****   * @param  L6470_Id      The identifier of the L6470 target inside the daisy chain.
 980:Drivers/BSP/Components/L6470/L6470.c ****   */
 981:Drivers/BSP/Components/L6470/L6470.c **** void L6470_GoHome(uint8_t L6470_Id)
 982:Drivers/BSP/Components/L6470/L6470.c **** {
 3756              		.loc 1 982 1
 3757              		.cfi_startproc
 3758              		@ args = 0, pretend = 0, frame = 8
 3759              		@ frame_needed = 1, uses_anonymous_args = 0
 3760 0000 80B5     		push	{r7, lr}
 3761              	.LCFI223:
 3762              		.cfi_def_cfa_offset 8
 3763              		.cfi_offset 7, -8
 3764              		.cfi_offset 14, -4
 3765 0002 84B0     		sub	sp, sp, #16
 3766              	.LCFI224:
 3767              		.cfi_def_cfa_offset 24
 3768 0004 02AF     		add	r7, sp, #8
 3769              	.LCFI225:
 3770              		.cfi_def_cfa 7, 16
 3771 0006 0346     		mov	r3, r0
 3772 0008 FB71     		strb	r3, [r7, #7]
 983:Drivers/BSP/Components/L6470/L6470.c ****   L6470_PrepareAppCmdPkg(L6470_Id, L6470_AppCmdPkg, L6470_GOHOME_ID, 0, 0, 0);
 3773              		.loc 1 983 3
 3774 000a F879     		ldrb	r0, [r7, #7]	@ zero_extendqisi2
 3775 000c 0023     		movs	r3, #0
 3776 000e 0193     		str	r3, [sp, #4]
 3777 0010 0023     		movs	r3, #0
 3778 0012 0093     		str	r3, [sp]
 3779 0014 0023     		movs	r3, #0
 3780 0016 0A22     		movs	r2, #10
 3781 0018 0749     		ldr	r1, .L253
 3782 001a FFF7FEFF 		bl	L6470_PrepareAppCmdPkg
 984:Drivers/BSP/Components/L6470/L6470.c ****   L6470_PrepareDaisyChainCommand(L6470_AppCmdPkg, (uint8_t*)L6470_DaisyChainSpiTxStruct);
 3783              		.loc 1 984 3
 3784 001e 0749     		ldr	r1, .L253+4
 3785 0020 0548     		ldr	r0, .L253
 3786 0022 FFF7FEFF 		bl	L6470_PrepareDaisyChainCommand
 985:Drivers/BSP/Components/L6470/L6470.c ****   L6470_DaisyChainCommand((uint8_t*)L6470_DaisyChainSpiTxStruct, (uint8_t*)L6470_DaisyChainSpiRxStr
 3787              		.loc 1 985 3
 3788 0026 0649     		ldr	r1, .L253+8
 3789 0028 0448     		ldr	r0, .L253+4
 3790 002a FFF7FEFF 		bl	L6470_DaisyChainCommand
 986:Drivers/BSP/Components/L6470/L6470.c **** }
 3791              		.loc 1 986 1
 3792 002e 00BF     		nop
 3793 0030 0837     		adds	r7, r7, #8
 3794              	.LCFI226:
 3795              		.cfi_def_cfa_offset 8
 3796 0032 BD46     		mov	sp, r7
 3797              	.LCFI227:
 3798              		.cfi_def_cfa_register 13
 3799              		@ sp needed
 3800 0034 80BD     		pop	{r7, pc}
 3801              	.L254:
ARM GAS  C:\Users\ep_ygh\AppData\Local\Temp\cccpn5kX.s 			page 85


 3802 0036 00BF     		.align	2
 3803              	.L253:
 3804 0038 00000000 		.word	L6470_AppCmdPkg
 3805 003c 00000000 		.word	L6470_DaisyChainSpiTxStruct
 3806 0040 00000000 		.word	L6470_DaisyChainSpiRxStruct
 3807              		.cfi_endproc
 3808              	.LFE167:
 3810              		.section	.text.L6470_GoMark,"ax",%progbits
 3811              		.align	1
 3812              		.global	L6470_GoMark
 3813              		.syntax unified
 3814              		.thumb
 3815              		.thumb_func
 3817              	L6470_GoMark:
 3818              	.LFB168:
 987:Drivers/BSP/Components/L6470/L6470.c **** 
 988:Drivers/BSP/Components/L6470/L6470.c **** /**
 989:Drivers/BSP/Components/L6470/L6470.c ****   * @brief  GoMark command produces a motion to the MARK position performing the
 990:Drivers/BSP/Components/L6470/L6470.c ****   *         minimum path.
 991:Drivers/BSP/Components/L6470/L6470.c ****   * 
 992:Drivers/BSP/Components/L6470/L6470.c ****   * @param  L6470_Id      The identifier of the L6470 target inside the daisy chain.
 993:Drivers/BSP/Components/L6470/L6470.c ****   */
 994:Drivers/BSP/Components/L6470/L6470.c **** void L6470_GoMark(uint8_t L6470_Id)
 995:Drivers/BSP/Components/L6470/L6470.c **** {
 3819              		.loc 1 995 1
 3820              		.cfi_startproc
 3821              		@ args = 0, pretend = 0, frame = 8
 3822              		@ frame_needed = 1, uses_anonymous_args = 0
 3823 0000 80B5     		push	{r7, lr}
 3824              	.LCFI228:
 3825              		.cfi_def_cfa_offset 8
 3826              		.cfi_offset 7, -8
 3827              		.cfi_offset 14, -4
 3828 0002 84B0     		sub	sp, sp, #16
 3829              	.LCFI229:
 3830              		.cfi_def_cfa_offset 24
 3831 0004 02AF     		add	r7, sp, #8
 3832              	.LCFI230:
 3833              		.cfi_def_cfa 7, 16
 3834 0006 0346     		mov	r3, r0
 3835 0008 FB71     		strb	r3, [r7, #7]
 996:Drivers/BSP/Components/L6470/L6470.c ****   L6470_PrepareAppCmdPkg(L6470_Id, L6470_AppCmdPkg, L6470_GOMARK_ID, 0, 0, 0);
 3836              		.loc 1 996 3
 3837 000a F879     		ldrb	r0, [r7, #7]	@ zero_extendqisi2
 3838 000c 0023     		movs	r3, #0
 3839 000e 0193     		str	r3, [sp, #4]
 3840 0010 0023     		movs	r3, #0
 3841 0012 0093     		str	r3, [sp]
 3842 0014 0023     		movs	r3, #0
 3843 0016 0B22     		movs	r2, #11
 3844 0018 0749     		ldr	r1, .L256
 3845 001a FFF7FEFF 		bl	L6470_PrepareAppCmdPkg
 997:Drivers/BSP/Components/L6470/L6470.c ****   L6470_PrepareDaisyChainCommand(L6470_AppCmdPkg, (uint8_t*)L6470_DaisyChainSpiTxStruct);
 3846              		.loc 1 997 3
 3847 001e 0749     		ldr	r1, .L256+4
 3848 0020 0548     		ldr	r0, .L256
 3849 0022 FFF7FEFF 		bl	L6470_PrepareDaisyChainCommand
ARM GAS  C:\Users\ep_ygh\AppData\Local\Temp\cccpn5kX.s 			page 86


 998:Drivers/BSP/Components/L6470/L6470.c ****   L6470_DaisyChainCommand((uint8_t*)L6470_DaisyChainSpiTxStruct, (uint8_t*)L6470_DaisyChainSpiRxStr
 3850              		.loc 1 998 3
 3851 0026 0649     		ldr	r1, .L256+8
 3852 0028 0448     		ldr	r0, .L256+4
 3853 002a FFF7FEFF 		bl	L6470_DaisyChainCommand
 999:Drivers/BSP/Components/L6470/L6470.c **** }
 3854              		.loc 1 999 1
 3855 002e 00BF     		nop
 3856 0030 0837     		adds	r7, r7, #8
 3857              	.LCFI231:
 3858              		.cfi_def_cfa_offset 8
 3859 0032 BD46     		mov	sp, r7
 3860              	.LCFI232:
 3861              		.cfi_def_cfa_register 13
 3862              		@ sp needed
 3863 0034 80BD     		pop	{r7, pc}
 3864              	.L257:
 3865 0036 00BF     		.align	2
 3866              	.L256:
 3867 0038 00000000 		.word	L6470_AppCmdPkg
 3868 003c 00000000 		.word	L6470_DaisyChainSpiTxStruct
 3869 0040 00000000 		.word	L6470_DaisyChainSpiRxStruct
 3870              		.cfi_endproc
 3871              	.LFE168:
 3873              		.section	.text.L6470_ResetPos,"ax",%progbits
 3874              		.align	1
 3875              		.global	L6470_ResetPos
 3876              		.syntax unified
 3877              		.thumb
 3878              		.thumb_func
 3880              	L6470_ResetPos:
 3881              	.LFB169:
1000:Drivers/BSP/Components/L6470/L6470.c **** 
1001:Drivers/BSP/Components/L6470/L6470.c **** /**
1002:Drivers/BSP/Components/L6470/L6470.c ****   * @brief  ResetPos command resets the ABS_POS register to zero.
1003:Drivers/BSP/Components/L6470/L6470.c ****   * 
1004:Drivers/BSP/Components/L6470/L6470.c ****   * @param  L6470_Id      The identifier of the L6470 target inside the daisy chain.
1005:Drivers/BSP/Components/L6470/L6470.c ****   */
1006:Drivers/BSP/Components/L6470/L6470.c **** void L6470_ResetPos(uint8_t L6470_Id)
1007:Drivers/BSP/Components/L6470/L6470.c **** {
 3882              		.loc 1 1007 1
 3883              		.cfi_startproc
 3884              		@ args = 0, pretend = 0, frame = 8
 3885              		@ frame_needed = 1, uses_anonymous_args = 0
 3886 0000 80B5     		push	{r7, lr}
 3887              	.LCFI233:
 3888              		.cfi_def_cfa_offset 8
 3889              		.cfi_offset 7, -8
 3890              		.cfi_offset 14, -4
 3891 0002 84B0     		sub	sp, sp, #16
 3892              	.LCFI234:
 3893              		.cfi_def_cfa_offset 24
 3894 0004 02AF     		add	r7, sp, #8
 3895              	.LCFI235:
 3896              		.cfi_def_cfa 7, 16
 3897 0006 0346     		mov	r3, r0
 3898 0008 FB71     		strb	r3, [r7, #7]
ARM GAS  C:\Users\ep_ygh\AppData\Local\Temp\cccpn5kX.s 			page 87


1008:Drivers/BSP/Components/L6470/L6470.c ****   L6470_PrepareAppCmdPkg(L6470_Id, L6470_AppCmdPkg, L6470_RESETPOS_ID, 0, 0, 0);
 3899              		.loc 1 1008 3
 3900 000a F879     		ldrb	r0, [r7, #7]	@ zero_extendqisi2
 3901 000c 0023     		movs	r3, #0
 3902 000e 0193     		str	r3, [sp, #4]
 3903 0010 0023     		movs	r3, #0
 3904 0012 0093     		str	r3, [sp]
 3905 0014 0023     		movs	r3, #0
 3906 0016 0C22     		movs	r2, #12
 3907 0018 0749     		ldr	r1, .L259
 3908 001a FFF7FEFF 		bl	L6470_PrepareAppCmdPkg
1009:Drivers/BSP/Components/L6470/L6470.c ****   L6470_PrepareDaisyChainCommand(L6470_AppCmdPkg, (uint8_t*)L6470_DaisyChainSpiTxStruct);
 3909              		.loc 1 1009 3
 3910 001e 0749     		ldr	r1, .L259+4
 3911 0020 0548     		ldr	r0, .L259
 3912 0022 FFF7FEFF 		bl	L6470_PrepareDaisyChainCommand
1010:Drivers/BSP/Components/L6470/L6470.c ****   L6470_DaisyChainCommand((uint8_t*)L6470_DaisyChainSpiTxStruct, (uint8_t*)L6470_DaisyChainSpiRxStr
 3913              		.loc 1 1010 3
 3914 0026 0649     		ldr	r1, .L259+8
 3915 0028 0448     		ldr	r0, .L259+4
 3916 002a FFF7FEFF 		bl	L6470_DaisyChainCommand
1011:Drivers/BSP/Components/L6470/L6470.c **** }
 3917              		.loc 1 1011 1
 3918 002e 00BF     		nop
 3919 0030 0837     		adds	r7, r7, #8
 3920              	.LCFI236:
 3921              		.cfi_def_cfa_offset 8
 3922 0032 BD46     		mov	sp, r7
 3923              	.LCFI237:
 3924              		.cfi_def_cfa_register 13
 3925              		@ sp needed
 3926 0034 80BD     		pop	{r7, pc}
 3927              	.L260:
 3928 0036 00BF     		.align	2
 3929              	.L259:
 3930 0038 00000000 		.word	L6470_AppCmdPkg
 3931 003c 00000000 		.word	L6470_DaisyChainSpiTxStruct
 3932 0040 00000000 		.word	L6470_DaisyChainSpiRxStruct
 3933              		.cfi_endproc
 3934              	.LFE169:
 3936              		.section	.text.L6470_ResetDevice,"ax",%progbits
 3937              		.align	1
 3938              		.global	L6470_ResetDevice
 3939              		.syntax unified
 3940              		.thumb
 3941              		.thumb_func
 3943              	L6470_ResetDevice:
 3944              	.LFB170:
1012:Drivers/BSP/Components/L6470/L6470.c **** 
1013:Drivers/BSP/Components/L6470/L6470.c **** /**
1014:Drivers/BSP/Components/L6470/L6470.c ****   * @brief  ResetDevice command resets the device to power-up conditions.
1015:Drivers/BSP/Components/L6470/L6470.c ****   * 
1016:Drivers/BSP/Components/L6470/L6470.c ****   * @param  L6470_Id      The identifier of the L6470 target inside the daisy chain.
1017:Drivers/BSP/Components/L6470/L6470.c ****   */
1018:Drivers/BSP/Components/L6470/L6470.c **** void L6470_ResetDevice(uint8_t L6470_Id)
1019:Drivers/BSP/Components/L6470/L6470.c **** {
 3945              		.loc 1 1019 1
ARM GAS  C:\Users\ep_ygh\AppData\Local\Temp\cccpn5kX.s 			page 88


 3946              		.cfi_startproc
 3947              		@ args = 0, pretend = 0, frame = 8
 3948              		@ frame_needed = 1, uses_anonymous_args = 0
 3949 0000 80B5     		push	{r7, lr}
 3950              	.LCFI238:
 3951              		.cfi_def_cfa_offset 8
 3952              		.cfi_offset 7, -8
 3953              		.cfi_offset 14, -4
 3954 0002 84B0     		sub	sp, sp, #16
 3955              	.LCFI239:
 3956              		.cfi_def_cfa_offset 24
 3957 0004 02AF     		add	r7, sp, #8
 3958              	.LCFI240:
 3959              		.cfi_def_cfa 7, 16
 3960 0006 0346     		mov	r3, r0
 3961 0008 FB71     		strb	r3, [r7, #7]
1020:Drivers/BSP/Components/L6470/L6470.c ****   L6470_PrepareAppCmdPkg(L6470_Id, L6470_AppCmdPkg, L6470_RESETDEVICE_ID, 0, 0, 0);
 3962              		.loc 1 1020 3
 3963 000a F879     		ldrb	r0, [r7, #7]	@ zero_extendqisi2
 3964 000c 0023     		movs	r3, #0
 3965 000e 0193     		str	r3, [sp, #4]
 3966 0010 0023     		movs	r3, #0
 3967 0012 0093     		str	r3, [sp]
 3968 0014 0023     		movs	r3, #0
 3969 0016 0D22     		movs	r2, #13
 3970 0018 0749     		ldr	r1, .L262
 3971 001a FFF7FEFF 		bl	L6470_PrepareAppCmdPkg
1021:Drivers/BSP/Components/L6470/L6470.c ****   L6470_PrepareDaisyChainCommand(L6470_AppCmdPkg, (uint8_t*)L6470_DaisyChainSpiTxStruct);
 3972              		.loc 1 1021 3
 3973 001e 0749     		ldr	r1, .L262+4
 3974 0020 0548     		ldr	r0, .L262
 3975 0022 FFF7FEFF 		bl	L6470_PrepareDaisyChainCommand
1022:Drivers/BSP/Components/L6470/L6470.c ****   L6470_DaisyChainCommand((uint8_t*)L6470_DaisyChainSpiTxStruct, (uint8_t*)L6470_DaisyChainSpiRxStr
 3976              		.loc 1 1022 3
 3977 0026 0649     		ldr	r1, .L262+8
 3978 0028 0448     		ldr	r0, .L262+4
 3979 002a FFF7FEFF 		bl	L6470_DaisyChainCommand
1023:Drivers/BSP/Components/L6470/L6470.c **** }
 3980              		.loc 1 1023 1
 3981 002e 00BF     		nop
 3982 0030 0837     		adds	r7, r7, #8
 3983              	.LCFI241:
 3984              		.cfi_def_cfa_offset 8
 3985 0032 BD46     		mov	sp, r7
 3986              	.LCFI242:
 3987              		.cfi_def_cfa_register 13
 3988              		@ sp needed
 3989 0034 80BD     		pop	{r7, pc}
 3990              	.L263:
 3991 0036 00BF     		.align	2
 3992              	.L262:
 3993 0038 00000000 		.word	L6470_AppCmdPkg
 3994 003c 00000000 		.word	L6470_DaisyChainSpiTxStruct
 3995 0040 00000000 		.word	L6470_DaisyChainSpiRxStruct
 3996              		.cfi_endproc
 3997              	.LFE170:
 3999              		.section	.text.L6470_SoftStop,"ax",%progbits
ARM GAS  C:\Users\ep_ygh\AppData\Local\Temp\cccpn5kX.s 			page 89


 4000              		.align	1
 4001              		.global	L6470_SoftStop
 4002              		.syntax unified
 4003              		.thumb
 4004              		.thumb_func
 4006              	L6470_SoftStop:
 4007              	.LFB171:
1024:Drivers/BSP/Components/L6470/L6470.c **** 
1025:Drivers/BSP/Components/L6470/L6470.c **** /**
1026:Drivers/BSP/Components/L6470/L6470.c ****   * @brief  SoftStop command causes an immediate deceleration to zero speed and
1027:Drivers/BSP/Components/L6470/L6470.c ****   *         a consequent motor stop; the deceleration value used is the one stored
1028:Drivers/BSP/Components/L6470/L6470.c ****   *         in the DEC register.
1029:Drivers/BSP/Components/L6470/L6470.c ****   * 
1030:Drivers/BSP/Components/L6470/L6470.c ****   * @param  L6470_Id      The identifier of the L6470 target inside the daisy chain.
1031:Drivers/BSP/Components/L6470/L6470.c ****   */
1032:Drivers/BSP/Components/L6470/L6470.c **** void L6470_SoftStop(uint8_t L6470_Id)
1033:Drivers/BSP/Components/L6470/L6470.c **** {
 4008              		.loc 1 1033 1
 4009              		.cfi_startproc
 4010              		@ args = 0, pretend = 0, frame = 8
 4011              		@ frame_needed = 1, uses_anonymous_args = 0
 4012 0000 80B5     		push	{r7, lr}
 4013              	.LCFI243:
 4014              		.cfi_def_cfa_offset 8
 4015              		.cfi_offset 7, -8
 4016              		.cfi_offset 14, -4
 4017 0002 84B0     		sub	sp, sp, #16
 4018              	.LCFI244:
 4019              		.cfi_def_cfa_offset 24
 4020 0004 02AF     		add	r7, sp, #8
 4021              	.LCFI245:
 4022              		.cfi_def_cfa 7, 16
 4023 0006 0346     		mov	r3, r0
 4024 0008 FB71     		strb	r3, [r7, #7]
1034:Drivers/BSP/Components/L6470/L6470.c ****   L6470_PrepareAppCmdPkg(L6470_Id, L6470_AppCmdPkg, L6470_SOFTSTOP_ID, 0, 0, 0);
 4025              		.loc 1 1034 3
 4026 000a F879     		ldrb	r0, [r7, #7]	@ zero_extendqisi2
 4027 000c 0023     		movs	r3, #0
 4028 000e 0193     		str	r3, [sp, #4]
 4029 0010 0023     		movs	r3, #0
 4030 0012 0093     		str	r3, [sp]
 4031 0014 0023     		movs	r3, #0
 4032 0016 0E22     		movs	r2, #14
 4033 0018 0749     		ldr	r1, .L265
 4034 001a FFF7FEFF 		bl	L6470_PrepareAppCmdPkg
1035:Drivers/BSP/Components/L6470/L6470.c ****   L6470_PrepareDaisyChainCommand(L6470_AppCmdPkg, (uint8_t*)L6470_DaisyChainSpiTxStruct);
 4035              		.loc 1 1035 3
 4036 001e 0749     		ldr	r1, .L265+4
 4037 0020 0548     		ldr	r0, .L265
 4038 0022 FFF7FEFF 		bl	L6470_PrepareDaisyChainCommand
1036:Drivers/BSP/Components/L6470/L6470.c ****   L6470_DaisyChainCommand((uint8_t*)L6470_DaisyChainSpiTxStruct, (uint8_t*)L6470_DaisyChainSpiRxStr
 4039              		.loc 1 1036 3
 4040 0026 0649     		ldr	r1, .L265+8
 4041 0028 0448     		ldr	r0, .L265+4
 4042 002a FFF7FEFF 		bl	L6470_DaisyChainCommand
1037:Drivers/BSP/Components/L6470/L6470.c **** }
 4043              		.loc 1 1037 1
ARM GAS  C:\Users\ep_ygh\AppData\Local\Temp\cccpn5kX.s 			page 90


 4044 002e 00BF     		nop
 4045 0030 0837     		adds	r7, r7, #8
 4046              	.LCFI246:
 4047              		.cfi_def_cfa_offset 8
 4048 0032 BD46     		mov	sp, r7
 4049              	.LCFI247:
 4050              		.cfi_def_cfa_register 13
 4051              		@ sp needed
 4052 0034 80BD     		pop	{r7, pc}
 4053              	.L266:
 4054 0036 00BF     		.align	2
 4055              	.L265:
 4056 0038 00000000 		.word	L6470_AppCmdPkg
 4057 003c 00000000 		.word	L6470_DaisyChainSpiTxStruct
 4058 0040 00000000 		.word	L6470_DaisyChainSpiRxStruct
 4059              		.cfi_endproc
 4060              	.LFE171:
 4062              		.section	.text.L6470_HardStop,"ax",%progbits
 4063              		.align	1
 4064              		.global	L6470_HardStop
 4065              		.syntax unified
 4066              		.thumb
 4067              		.thumb_func
 4069              	L6470_HardStop:
 4070              	.LFB172:
1038:Drivers/BSP/Components/L6470/L6470.c **** 
1039:Drivers/BSP/Components/L6470/L6470.c **** /**
1040:Drivers/BSP/Components/L6470/L6470.c ****   * @brief  HardStop command causes an immediate motor stop with infinite deceleration.
1041:Drivers/BSP/Components/L6470/L6470.c ****   * 
1042:Drivers/BSP/Components/L6470/L6470.c ****   * @param  L6470_Id      The identifier of the L6470 target inside the daisy chain.
1043:Drivers/BSP/Components/L6470/L6470.c ****   */
1044:Drivers/BSP/Components/L6470/L6470.c **** void L6470_HardStop(uint8_t L6470_Id)
1045:Drivers/BSP/Components/L6470/L6470.c **** {
 4071              		.loc 1 1045 1
 4072              		.cfi_startproc
 4073              		@ args = 0, pretend = 0, frame = 8
 4074              		@ frame_needed = 1, uses_anonymous_args = 0
 4075 0000 80B5     		push	{r7, lr}
 4076              	.LCFI248:
 4077              		.cfi_def_cfa_offset 8
 4078              		.cfi_offset 7, -8
 4079              		.cfi_offset 14, -4
 4080 0002 84B0     		sub	sp, sp, #16
 4081              	.LCFI249:
 4082              		.cfi_def_cfa_offset 24
 4083 0004 02AF     		add	r7, sp, #8
 4084              	.LCFI250:
 4085              		.cfi_def_cfa 7, 16
 4086 0006 0346     		mov	r3, r0
 4087 0008 FB71     		strb	r3, [r7, #7]
1046:Drivers/BSP/Components/L6470/L6470.c ****   L6470_PrepareAppCmdPkg(L6470_Id, L6470_AppCmdPkg, L6470_HARDSTOP_ID, 0, 0, 0);
 4088              		.loc 1 1046 3
 4089 000a F879     		ldrb	r0, [r7, #7]	@ zero_extendqisi2
 4090 000c 0023     		movs	r3, #0
 4091 000e 0193     		str	r3, [sp, #4]
 4092 0010 0023     		movs	r3, #0
 4093 0012 0093     		str	r3, [sp]
ARM GAS  C:\Users\ep_ygh\AppData\Local\Temp\cccpn5kX.s 			page 91


 4094 0014 0023     		movs	r3, #0
 4095 0016 0F22     		movs	r2, #15
 4096 0018 0749     		ldr	r1, .L268
 4097 001a FFF7FEFF 		bl	L6470_PrepareAppCmdPkg
1047:Drivers/BSP/Components/L6470/L6470.c ****   L6470_PrepareDaisyChainCommand(L6470_AppCmdPkg, (uint8_t*)L6470_DaisyChainSpiTxStruct);
 4098              		.loc 1 1047 3
 4099 001e 0749     		ldr	r1, .L268+4
 4100 0020 0548     		ldr	r0, .L268
 4101 0022 FFF7FEFF 		bl	L6470_PrepareDaisyChainCommand
1048:Drivers/BSP/Components/L6470/L6470.c ****   L6470_DaisyChainCommand((uint8_t*)L6470_DaisyChainSpiTxStruct, (uint8_t*)L6470_DaisyChainSpiRxStr
 4102              		.loc 1 1048 3
 4103 0026 0649     		ldr	r1, .L268+8
 4104 0028 0448     		ldr	r0, .L268+4
 4105 002a FFF7FEFF 		bl	L6470_DaisyChainCommand
1049:Drivers/BSP/Components/L6470/L6470.c **** }
 4106              		.loc 1 1049 1
 4107 002e 00BF     		nop
 4108 0030 0837     		adds	r7, r7, #8
 4109              	.LCFI251:
 4110              		.cfi_def_cfa_offset 8
 4111 0032 BD46     		mov	sp, r7
 4112              	.LCFI252:
 4113              		.cfi_def_cfa_register 13
 4114              		@ sp needed
 4115 0034 80BD     		pop	{r7, pc}
 4116              	.L269:
 4117 0036 00BF     		.align	2
 4118              	.L268:
 4119 0038 00000000 		.word	L6470_AppCmdPkg
 4120 003c 00000000 		.word	L6470_DaisyChainSpiTxStruct
 4121 0040 00000000 		.word	L6470_DaisyChainSpiRxStruct
 4122              		.cfi_endproc
 4123              	.LFE172:
 4125              		.section	.text.L6470_SoftHiZ,"ax",%progbits
 4126              		.align	1
 4127              		.global	L6470_SoftHiZ
 4128              		.syntax unified
 4129              		.thumb
 4130              		.thumb_func
 4132              	L6470_SoftHiZ:
 4133              	.LFB173:
1050:Drivers/BSP/Components/L6470/L6470.c **** 
1051:Drivers/BSP/Components/L6470/L6470.c **** /**
1052:Drivers/BSP/Components/L6470/L6470.c ****   * @brief  SoftHiZ command disables the power bridges (high impedance state)
1053:Drivers/BSP/Components/L6470/L6470.c ****   *         after a deceleration to zero; the deceleration value used is the one
1054:Drivers/BSP/Components/L6470/L6470.c ****   *         stored in the DEC register.
1055:Drivers/BSP/Components/L6470/L6470.c ****   * 
1056:Drivers/BSP/Components/L6470/L6470.c ****   * @param  L6470_Id      The identifier of the L6470 target inside the daisy chain.
1057:Drivers/BSP/Components/L6470/L6470.c ****   */
1058:Drivers/BSP/Components/L6470/L6470.c **** void L6470_SoftHiZ(uint8_t L6470_Id)
1059:Drivers/BSP/Components/L6470/L6470.c **** {
 4134              		.loc 1 1059 1
 4135              		.cfi_startproc
 4136              		@ args = 0, pretend = 0, frame = 8
 4137              		@ frame_needed = 1, uses_anonymous_args = 0
 4138 0000 80B5     		push	{r7, lr}
 4139              	.LCFI253:
ARM GAS  C:\Users\ep_ygh\AppData\Local\Temp\cccpn5kX.s 			page 92


 4140              		.cfi_def_cfa_offset 8
 4141              		.cfi_offset 7, -8
 4142              		.cfi_offset 14, -4
 4143 0002 84B0     		sub	sp, sp, #16
 4144              	.LCFI254:
 4145              		.cfi_def_cfa_offset 24
 4146 0004 02AF     		add	r7, sp, #8
 4147              	.LCFI255:
 4148              		.cfi_def_cfa 7, 16
 4149 0006 0346     		mov	r3, r0
 4150 0008 FB71     		strb	r3, [r7, #7]
1060:Drivers/BSP/Components/L6470/L6470.c ****   L6470_PrepareAppCmdPkg(L6470_Id, L6470_AppCmdPkg, L6470_SOFTHIZ_ID, 0, 0, 0);
 4151              		.loc 1 1060 3
 4152 000a F879     		ldrb	r0, [r7, #7]	@ zero_extendqisi2
 4153 000c 0023     		movs	r3, #0
 4154 000e 0193     		str	r3, [sp, #4]
 4155 0010 0023     		movs	r3, #0
 4156 0012 0093     		str	r3, [sp]
 4157 0014 0023     		movs	r3, #0
 4158 0016 1022     		movs	r2, #16
 4159 0018 0749     		ldr	r1, .L271
 4160 001a FFF7FEFF 		bl	L6470_PrepareAppCmdPkg
1061:Drivers/BSP/Components/L6470/L6470.c ****   L6470_PrepareDaisyChainCommand(L6470_AppCmdPkg, (uint8_t*)L6470_DaisyChainSpiTxStruct);
 4161              		.loc 1 1061 3
 4162 001e 0749     		ldr	r1, .L271+4
 4163 0020 0548     		ldr	r0, .L271
 4164 0022 FFF7FEFF 		bl	L6470_PrepareDaisyChainCommand
1062:Drivers/BSP/Components/L6470/L6470.c ****   L6470_DaisyChainCommand((uint8_t*)L6470_DaisyChainSpiTxStruct, (uint8_t*)L6470_DaisyChainSpiRxStr
 4165              		.loc 1 1062 3
 4166 0026 0649     		ldr	r1, .L271+8
 4167 0028 0448     		ldr	r0, .L271+4
 4168 002a FFF7FEFF 		bl	L6470_DaisyChainCommand
1063:Drivers/BSP/Components/L6470/L6470.c **** }
 4169              		.loc 1 1063 1
 4170 002e 00BF     		nop
 4171 0030 0837     		adds	r7, r7, #8
 4172              	.LCFI256:
 4173              		.cfi_def_cfa_offset 8
 4174 0032 BD46     		mov	sp, r7
 4175              	.LCFI257:
 4176              		.cfi_def_cfa_register 13
