ARM GAS  C:\Users\ep_ygh\AppData\Local\Temp\ccsX1uNj.s 			page 1


   1              		.cpu cortex-m4
   2              		.arch armv7e-m
   3              		.fpu fpv4-sp-d16
   4              		.eabi_attribute 27, 1
   5              		.eabi_attribute 28, 1
   6              		.eabi_attribute 20, 1
   7              		.eabi_attribute 21, 1
   8              		.eabi_attribute 23, 3
   9              		.eabi_attribute 24, 1
  10              		.eabi_attribute 25, 1
  11              		.eabi_attribute 26, 1
  12              		.eabi_attribute 30, 6
  13              		.eabi_attribute 34, 1
  14              		.eabi_attribute 18, 4
  15              		.file	"L6470.c"
  16              		.text
  17              	.Ltext0:
  18              		.cfi_sections	.debug_frame
  19              		.global	L6470_Register
  20              		.section	.rodata.L6470_Register,"a"
  21              		.align	2
  24              	L6470_Register:
  25 0000 01       		.byte	1
  26 0001 4142535F 		.ascii	"ABS_POS\000"
  26      504F5300 
  27 0009 00000000 		.space	4
  28 000d 16       		.byte	22
  29 000e 03       		.byte	3
  30 000f 00       		.space	1
  31 0010 00000000 		.word	0
  32 0014 02       		.byte	2
  33 0015 454C5F50 		.ascii	"EL_POS\000"
  33      4F5300
  34 001c 00000000 		.space	5
  34      00
  35 0021 09       		.byte	9
  36 0022 02       		.byte	2
  37 0023 00       		.space	1
  38 0024 00000000 		.word	0
  39 0028 03       		.byte	3
  40 0029 4D41524B 		.ascii	"MARK\000"
  40      00
  41 002e 00000000 		.space	7
  41      000000
  42 0035 16       		.byte	22
  43 0036 03       		.byte	3
  44 0037 00       		.space	1
  45 0038 00000000 		.word	0
  46 003c 04       		.byte	4
  47 003d 53504545 		.ascii	"SPEED\000"
  47      4400
  48 0043 00000000 		.space	6
  48      0000
  49 0049 14       		.byte	20
  50 004a 03       		.byte	3
  51 004b 00       		.space	1
  52 004c 00000000 		.word	0
ARM GAS  C:\Users\ep_ygh\AppData\Local\Temp\ccsX1uNj.s 			page 2


  53 0050 05       		.byte	5
  54 0051 41434300 		.ascii	"ACC\000"
  55 0055 00000000 		.space	8
  55      00000000 
  56 005d 0C       		.byte	12
  57 005e 02       		.byte	2
  58 005f 00       		.space	1
  59 0060 8A000000 		.word	138
  60 0064 06       		.byte	6
  61 0065 44454300 		.ascii	"DEC\000"
  62 0069 00000000 		.space	8
  62      00000000 
  63 0071 0C       		.byte	12
  64 0072 02       		.byte	2
  65 0073 00       		.space	1
  66 0074 8A000000 		.word	138
  67 0078 07       		.byte	7
  68 0079 4D41585F 		.ascii	"MAX_SPEED\000"
  68      53504545 
  68      4400
  69 0083 0000     		.space	2
  70 0085 0A       		.byte	10
  71 0086 02       		.byte	2
  72 0087 00       		.space	1
  73 0088 41000000 		.word	65
  74 008c 08       		.byte	8
  75 008d 4D494E5F 		.ascii	"MIN_SPEED\000"
  75      53504545 
  75      4400
  76 0097 0000     		.space	2
  77 0099 0D       		.byte	13
  78 009a 02       		.byte	2
  79 009b 00       		.space	1
  80 009c 00000000 		.word	0
  81 00a0 15       		.byte	21
  82 00a1 46535F53 		.ascii	"FS_SPD\000"
  82      504400
  83 00a8 00000000 		.space	5
  83      00
  84 00ad 0A       		.byte	10
  85 00ae 02       		.byte	2
  86 00af 00       		.space	1
  87 00b0 27000000 		.word	39
  88 00b4 09       		.byte	9
  89 00b5 4B56414C 		.ascii	"KVAL_HOLD\000"
  89      5F484F4C 
  89      4400
  90 00bf 0000     		.space	2
  91 00c1 08       		.byte	8
  92 00c2 01       		.byte	1
  93 00c3 00       		.space	1
  94 00c4 29000000 		.word	41
  95 00c8 0A       		.byte	10
  96 00c9 4B56414C 		.ascii	"KVAL_RUN\000"
  96      5F52554E 
  96      00
  97 00d2 000000   		.space	3
ARM GAS  C:\Users\ep_ygh\AppData\Local\Temp\ccsX1uNj.s 			page 3


  98 00d5 08       		.byte	8
  99 00d6 01       		.byte	1
 100 00d7 00       		.space	1
 101 00d8 29000000 		.word	41
 102 00dc 0B       		.byte	11
 103 00dd 4B56414C 		.ascii	"KVAL_ACC\000"
 103      5F414343 
 103      00
 104 00e6 000000   		.space	3
 105 00e9 08       		.byte	8
 106 00ea 01       		.byte	1
 107 00eb 00       		.space	1
 108 00ec 29000000 		.word	41
 109 00f0 0C       		.byte	12
 110 00f1 4B56414C 		.ascii	"KVAL_DEC\000"
 110      5F444543 
 110      00
 111 00fa 000000   		.space	3
 112 00fd 08       		.byte	8
 113 00fe 01       		.byte	1
 114 00ff 00       		.space	1
 115 0100 29000000 		.word	41
 116 0104 0D       		.byte	13
 117 0105 494E545F 		.ascii	"INT_SPEED\000"
 117      53504545 
 117      4400
 118 010f 0000     		.space	2
 119 0111 0E       		.byte	14
 120 0112 02       		.byte	2
 121 0113 00       		.space	1
 122 0114 08040000 		.word	1032
 123 0118 0E       		.byte	14
 124 0119 53545F53 		.ascii	"ST_SLP\000"
 124      4C5000
 125 0120 00000000 		.space	5
 125      00
 126 0125 08       		.byte	8
 127 0126 01       		.byte	1
 128 0127 00       		.space	1
 129 0128 19000000 		.word	25
 130 012c 0F       		.byte	15
 131 012d 464E5F53 		.ascii	"FN_SLP_ACC\000"
 131      4C505F41 
 131      434300
 132 0138 00       		.space	1
 133 0139 08       		.byte	8
 134 013a 01       		.byte	1
 135 013b 00       		.space	1
 136 013c 29000000 		.word	41
 137 0140 10       		.byte	16
 138 0141 464E5F53 		.ascii	"FN_SLP_DEC\000"
 138      4C505F44 
 138      454300
 139 014c 00       		.space	1
 140 014d 08       		.byte	8
 141 014e 01       		.byte	1
 142 014f 00       		.space	1
ARM GAS  C:\Users\ep_ygh\AppData\Local\Temp\ccsX1uNj.s 			page 4


 143 0150 29000000 		.word	41
 144 0154 11       		.byte	17
 145 0155 4B5F5448 		.ascii	"K_THERM\000"
 145      45524D00 
 146 015d 00000000 		.space	4
 147 0161 04       		.byte	4
 148 0162 01       		.byte	1
 149 0163 00       		.space	1
 150 0164 00000000 		.word	0
 151 0168 12       		.byte	18
 152 0169 4144435F 		.ascii	"ADC_OUT\000"
 152      4F555400 
 153 0171 00000000 		.space	4
 154 0175 05       		.byte	5
 155 0176 01       		.byte	1
 156 0177 00       		.space	1
 157 0178 00000000 		.word	0
 158 017c 13       		.byte	19
 159 017d 4F43445F 		.ascii	"OCD_TH\000"
 159      544800
 160 0184 00000000 		.space	5
 160      00
 161 0189 04       		.byte	4
 162 018a 01       		.byte	1
 163 018b 00       		.space	1
 164 018c 08000000 		.word	8
 165 0190 14       		.byte	20
 166 0191 5354414C 		.ascii	"STALL_TH\000"
 166      4C5F5448 
 166      00
 167 019a 000000   		.space	3
 168 019d 07       		.byte	7
 169 019e 01       		.byte	1
 170 019f 00       		.space	1
 171 01a0 40000000 		.word	64
 172 01a4 16       		.byte	22
 173 01a5 53544550 		.ascii	"STEP_MODE\000"
 173      5F4D4F44 
 173      4500
 174 01af 0000     		.space	2
 175 01b1 08       		.byte	8
 176 01b2 01       		.byte	1
 177 01b3 00       		.space	1
 178 01b4 07000000 		.word	7
 179 01b8 17       		.byte	23
 180 01b9 414C4152 		.ascii	"ALARM_EN\000"
 180      4D5F454E 
 180      00
 181 01c2 000000   		.space	3
 182 01c5 08       		.byte	8
 183 01c6 01       		.byte	1
 184 01c7 00       		.space	1
 185 01c8 FF000000 		.word	255
 186 01cc 18       		.byte	24
 187 01cd 434F4E46 		.ascii	"CONFIG\000"
 187      494700
 188 01d4 00000000 		.space	5
ARM GAS  C:\Users\ep_ygh\AppData\Local\Temp\ccsX1uNj.s 			page 5


 188      00
 189 01d9 10       		.byte	16
 190 01da 02       		.byte	2
 191 01db 00       		.space	1
 192 01dc 882E0000 		.word	11912
 193 01e0 19       		.byte	25
 194 01e1 53544154 		.ascii	"STATUS\000"
 194      555300
 195 01e8 00000000 		.space	5
 195      00
 196 01ed 10       		.byte	16
 197 01ee 02       		.byte	2
 198 01ef 00       		.space	1
 199 01f0 00000000 		.word	0
 200              		.global	L6470_ApplicationCommand
 201              		.section	.rodata.L6470_ApplicationCommand,"a"
 202              		.align	2
 205              	L6470_ApplicationCommand:
 206 0000 4E4F5000 		.ascii	"NOP\000"
 207 0004 00000000 		.space	8
 207      00000000 
 208 000c 00       		.byte	0
 209 000d 00       		.byte	0
 210 000e 53455450 		.ascii	"SETPARAM\000"
 210      4152414D 
 210      00
 211 0017 000000   		.space	3
 212 001a 00       		.byte	0
 213 001b 02       		.byte	2
 214 001c 47455450 		.ascii	"GETPARAM\000"
 214      4152414D 
 214      00
 215 0025 000000   		.space	3
 216 0028 20       		.byte	32
 217 0029 01       		.byte	1
 218 002a 52554E00 		.ascii	"RUN\000"
 219 002e 00000000 		.space	8
 219      00000000 
 220 0036 50       		.byte	80
 221 0037 02       		.byte	2
 222 0038 53544550 		.ascii	"STEPCLOCK\000"
 222      434C4F43 
 222      4B00
 223 0042 0000     		.space	2
 224 0044 58       		.byte	88
 225 0045 01       		.byte	1
 226 0046 4D4F5645 		.ascii	"MOVE\000"
 226      00
 227 004b 00000000 		.space	7
 227      000000
 228 0052 40       		.byte	64
 229 0053 02       		.byte	2
 230 0054 474F544F 		.ascii	"GOTO\000"
 230      00
 231 0059 00000000 		.space	7
 231      000000
 232 0060 60       		.byte	96
ARM GAS  C:\Users\ep_ygh\AppData\Local\Temp\ccsX1uNj.s 			page 6


 233 0061 01       		.byte	1
 234 0062 474F544F 		.ascii	"GOTO_DIR\000"
 234      5F444952 
 234      00
 235 006b 000000   		.space	3
 236 006e 68       		.byte	104
 237 006f 02       		.byte	2
 238 0070 474F554E 		.ascii	"GOUNTIL\000"
 238      54494C00 
 239 0078 00000000 		.space	4
 240 007c 82       		.byte	-126
 241 007d 03       		.byte	3
 242 007e 52454C45 		.ascii	"RELEASESW\000"
 242      41534553 
 242      5700
 243 0088 0000     		.space	2
 244 008a 92       		.byte	-110
 245 008b 02       		.byte	2
 246 008c 474F484F 		.ascii	"GOHOME\000"
 246      4D4500
 247 0093 00000000 		.space	5
 247      00
 248 0098 70       		.byte	112
 249 0099 00       		.byte	0
 250 009a 474F4D41 		.ascii	"GOMARK\000"
 250      524B00
 251 00a1 00000000 		.space	5
 251      00
 252 00a6 78       		.byte	120
 253 00a7 00       		.byte	0
 254 00a8 52455345 		.ascii	"RESETPOS\000"
 254      54504F53 
 254      00
 255 00b1 000000   		.space	3
 256 00b4 D8       		.byte	-40
 257 00b5 00       		.byte	0
 258 00b6 52455345 		.ascii	"RESETDEVICE\000"
 258      54444556 
 258      49434500 
 259 00c2 C0       		.byte	-64
 260 00c3 00       		.byte	0
 261 00c4 534F4654 		.ascii	"SOFTSTOP\000"
 261      53544F50 
 261      00
 262 00cd 000000   		.space	3
 263 00d0 B0       		.byte	-80
 264 00d1 00       		.byte	0
 265 00d2 48415244 		.ascii	"HARDSTOP\000"
 265      53544F50 
 265      00
 266 00db 000000   		.space	3
 267 00de B8       		.byte	-72
 268 00df 00       		.byte	0
 269 00e0 534F4654 		.ascii	"SOFTHIZ\000"
 269      48495A00 
 270 00e8 00000000 		.space	4
 271 00ec A0       		.byte	-96
ARM GAS  C:\Users\ep_ygh\AppData\Local\Temp\ccsX1uNj.s 			page 7


 272 00ed 00       		.byte	0
 273 00ee 48415244 		.ascii	"HARDHIZ\000"
 273      48495A00 
 274 00f6 00000000 		.space	4
 275 00fa A8       		.byte	-88
 276 00fb 00       		.byte	0
 277 00fc 47455453 		.ascii	"GETSTATUS\000"
 277      54415455 
 277      5300
 278 0106 0000     		.space	2
 279 0108 D0       		.byte	-48
 280 0109 00       		.byte	0
 281 010a 53415645 		.ascii	"SAVE\000"
 281      00
 282 010f 00000000 		.space	7
 282      000000
 283 0116 00       		.byte	0
 284 0117 00       		.byte	0
 285              		.global	L6470_Direction
 286              		.section	.rodata.L6470_Direction,"a"
 287              		.align	2
 290              	L6470_Direction:
 291 0000 52455600 		.ascii	"REV\000"
 292 0004 00000000 		.space	4
 293 0008 00       		.byte	0
 294 0009 46574400 		.ascii	"FWD\000"
 295 000d 00000000 		.space	4
 296 0011 01       		.byte	1
 297              		.global	L6470_ACT
 298              		.section	.rodata.L6470_ACT,"a"
 299              		.align	2
 302              	L6470_ACT:
 303 0000 52535400 		.ascii	"RST\000"
 304 0004 00       		.byte	0
 305 0005 43505900 		.ascii	"CPY\000"
 306 0009 01       		.byte	1
 307              		.global	L6470Command
 308              		.section	.data.L6470Command,"aw"
 309              		.align	2
 312              	L6470Command:
 313 0000 00000000 		.word	L6470_SetParam
 314 0004 00000000 		.word	L6470_GetParam
 315 0008 00000000 		.word	L6470_Run
 316 000c 00000000 		.word	L6470_StepClock
 317 0010 00000000 		.word	L6470_Move
 318 0014 00000000 		.word	L6470_GoTo
 319 0018 00000000 		.word	L6470_GoToDir
 320 001c 00000000 		.word	L6470_GoUntil
 321 0020 00000000 		.word	L6470_ReleaseSW
 322 0024 00000000 		.word	L6470_GoHome
 323 0028 00000000 		.word	L6470_GoMark
 324 002c 00000000 		.word	L6470_ResetPos
 325 0030 00000000 		.word	L6470_ResetDevice
 326 0034 00000000 		.word	L6470_SoftStop
 327 0038 00000000 		.word	L6470_HardStop
 328 003c 00000000 		.word	L6470_SoftHiZ
 329 0040 00000000 		.word	L6470_HardHiZ
ARM GAS  C:\Users\ep_ygh\AppData\Local\Temp\ccsX1uNj.s 			page 8


 330 0044 00000000 		.word	L6470_GetStatus
 331 0048 00000000 		.word	L6470_PrepareSetParam
 332 004c 00000000 		.word	L6470_PrepareGetParam
 333 0050 00000000 		.word	L6470_PrepareRun
 334 0054 00000000 		.word	L6470_PrepareStepClock
 335 0058 00000000 		.word	L6470_PrepareMove
 336 005c 00000000 		.word	L6470_PrepareGoTo
 337 0060 00000000 		.word	L6470_PrepareGoToDir
 338 0064 00000000 		.word	L6470_PrepareGoUntil
 339 0068 00000000 		.word	L6470_PrepareReleaseSW
 340 006c 00000000 		.word	L6470_PrepareGoHome
 341 0070 00000000 		.word	L6470_PrepareGoMark
 342 0074 00000000 		.word	L6470_PrepareResetPos
 343 0078 00000000 		.word	L6470_PrepareResetDevice
 344 007c 00000000 		.word	L6470_PrepareSoftStop
 345 0080 00000000 		.word	L6470_PrepareHardStop
 346 0084 00000000 		.word	L6470_PrepareSoftHiZ
 347 0088 00000000 		.word	L6470_PrepareHardHiZ
 348 008c 00000000 		.word	L6470_PrepareGetStatus
 349 0090 00000000 		.word	L6470_CheckStatusRegisterFlag
 350              		.global	L6470_AppCmdPkg
 351              		.section	.bss.L6470_AppCmdPkg,"aw",%nobits
 352              		.align	2
 355              	L6470_AppCmdPkg:
 356 0000 00000000 		.space	32
 356      00000000 
 356      00000000 
 356      00000000 
 356      00000000 
 357              		.global	L6470_DaisyChainSpiTxStruct
 358              		.section	.bss.L6470_DaisyChainSpiTxStruct,"aw",%nobits
 359              		.align	2
 362              	L6470_DaisyChainSpiTxStruct:
 363 0000 00000000 		.space	8
 363      00000000 
 364              		.global	L6470_DaisyChainSpiRxStruct
 365              		.section	.bss.L6470_DaisyChainSpiRxStruct,"aw",%nobits
 366              		.align	2
 369              	L6470_DaisyChainSpiRxStruct:
 370 0000 00000000 		.space	8
 370      00000000 
 371              		.global	L6470_DaisyChain_HalfPrepared
 372              		.section	.bss.L6470_DaisyChain_HalfPrepared,"aw",%nobits
 375              	L6470_DaisyChain_HalfPrepared:
 376 0000 00       		.space	1
 377              		.global	L6470_StatusRegister
 378              		.section	.bss.L6470_StatusRegister,"aw",%nobits
 379              		.align	2
 382              	L6470_StatusRegister:
 383 0000 0000     		.space	2
 384              		.global	pL6470_StatusRegister
 385              		.section	.data.pL6470_StatusRegister,"aw"
 386              		.align	2
 389              	pL6470_StatusRegister:
 390 0000 00000000 		.word	L6470_StatusRegister
 391              		.global	delay_cnt
 392              		.section	.bss.delay_cnt,"aw",%nobits
ARM GAS  C:\Users\ep_ygh\AppData\Local\Temp\ccsX1uNj.s 			page 9


 395              	delay_cnt:
 396 0000 00       		.space	1
 397              		.section	.text.L6470_ResetAppCmdPkg,"ax",%progbits
 398              		.align	1
 399              		.global	L6470_ResetAppCmdPkg
 400              		.syntax unified
 401              		.thumb
 402              		.thumb_func
 404              	L6470_ResetAppCmdPkg:
 405              	.LFB128:
 406              		.file 1 "Drivers/BSP/Components/L6470/L6470.c"
   1:Drivers/BSP/Components/L6470/L6470.c **** /**
   2:Drivers/BSP/Components/L6470/L6470.c ****   ******************************************************************************
   3:Drivers/BSP/Components/L6470/L6470.c ****   * @file       L6470.c
   4:Drivers/BSP/Components/L6470/L6470.c ****   * @date       01/10/2014 12:00:00
   5:Drivers/BSP/Components/L6470/L6470.c ****   * @brief      This file provides set of firmware functions to manage the
   6:Drivers/BSP/Components/L6470/L6470.c ****   *             L6470.
   7:Drivers/BSP/Components/L6470/L6470.c ****   ******************************************************************************
   8:Drivers/BSP/Components/L6470/L6470.c ****   *
   9:Drivers/BSP/Components/L6470/L6470.c ****   * COPYRIGHT(c) 2014 STMicroelectronics
  10:Drivers/BSP/Components/L6470/L6470.c ****   *
  11:Drivers/BSP/Components/L6470/L6470.c ****   * Redistribution and use in source and binary forms, with or without modification,
  12:Drivers/BSP/Components/L6470/L6470.c ****   * are permitted provided that the following conditions are met:
  13:Drivers/BSP/Components/L6470/L6470.c ****   *   1. Redistributions of source code must retain the above copyright notice,
  14:Drivers/BSP/Components/L6470/L6470.c ****   *      this list of conditions and the following disclaimer.
  15:Drivers/BSP/Components/L6470/L6470.c ****   *   2. Redistributions in binary form must reproduce the above copyright notice,
  16:Drivers/BSP/Components/L6470/L6470.c ****   *      this list of conditions and the following disclaimer in the documentation
  17:Drivers/BSP/Components/L6470/L6470.c ****   *      and/or other materials provided with the distribution.
  18:Drivers/BSP/Components/L6470/L6470.c ****   *   3. Neither the name of STMicroelectronics nor the names of its contributors
  19:Drivers/BSP/Components/L6470/L6470.c ****   *      may be used to endorse or promote products derived from this software
  20:Drivers/BSP/Components/L6470/L6470.c ****   *      without specific prior written permission.
  21:Drivers/BSP/Components/L6470/L6470.c ****   *
  22:Drivers/BSP/Components/L6470/L6470.c ****   * THIS SOFTWARE IS PROVIDED BY THE COPYRIGHT HOLDERS AND CONTRIBUTORS "AS IS"
  23:Drivers/BSP/Components/L6470/L6470.c ****   * AND ANY EXPRESS OR IMPLIED WARRANTIES, INCLUDING, BUT NOT LIMITED TO, THE
  24:Drivers/BSP/Components/L6470/L6470.c ****   * IMPLIED WARRANTIES OF MERCHANTABILITY AND FITNESS FOR A PARTICULAR PURPOSE ARE
  25:Drivers/BSP/Components/L6470/L6470.c ****   * DISCLAIMED. IN NO EVENT SHALL THE COPYRIGHT HOLDER OR CONTRIBUTORS BE LIABLE
  26:Drivers/BSP/Components/L6470/L6470.c ****   * FOR ANY DIRECT, INDIRECT, INCIDENTAL, SPECIAL, EXEMPLARY, OR CONSEQUENTIAL
  27:Drivers/BSP/Components/L6470/L6470.c ****   * DAMAGES (INCLUDING, BUT NOT LIMITED TO, PROCUREMENT OF SUBSTITUTE GOODS OR
  28:Drivers/BSP/Components/L6470/L6470.c ****   * SERVICES; LOSS OF USE, DATA, OR PROFITS; OR BUSINESS INTERRUPTION) HOWEVER
  29:Drivers/BSP/Components/L6470/L6470.c ****   * CAUSED AND ON ANY THEORY OF LIABILITY, WHETHER IN CONTRACT, STRICT LIABILITY,
  30:Drivers/BSP/Components/L6470/L6470.c ****   * OR TORT (INCLUDING NEGLIGENCE OR OTHERWISE) ARISING IN ANY WAY OUT OF THE USE
  31:Drivers/BSP/Components/L6470/L6470.c ****   * OF THIS SOFTWARE, EVEN IF ADVISED OF THE POSSIBILITY OF SUCH DAMAGE.
  32:Drivers/BSP/Components/L6470/L6470.c ****   *
  33:Drivers/BSP/Components/L6470/L6470.c ****   ******************************************************************************
  34:Drivers/BSP/Components/L6470/L6470.c ****   */
  35:Drivers/BSP/Components/L6470/L6470.c **** 
  36:Drivers/BSP/Components/L6470/L6470.c **** /* Includes ------------------------------------------------------------------*/
  37:Drivers/BSP/Components/L6470/L6470.c **** #include "L6470.h"
  38:Drivers/BSP/Components/L6470/L6470.c **** #include "xnucleoihm02a1_interface.h"
  39:Drivers/BSP/Components/L6470/L6470.c **** 
  40:Drivers/BSP/Components/L6470/L6470.c **** /**
  41:Drivers/BSP/Components/L6470/L6470.c ****   * @addtogroup BSP
  42:Drivers/BSP/Components/L6470/L6470.c ****   * @{
  43:Drivers/BSP/Components/L6470/L6470.c ****   */
  44:Drivers/BSP/Components/L6470/L6470.c **** 
  45:Drivers/BSP/Components/L6470/L6470.c **** /**
  46:Drivers/BSP/Components/L6470/L6470.c ****   * @addtogroup Components
ARM GAS  C:\Users\ep_ygh\AppData\Local\Temp\ccsX1uNj.s 			page 10


  47:Drivers/BSP/Components/L6470/L6470.c ****   * @{
  48:Drivers/BSP/Components/L6470/L6470.c ****   */
  49:Drivers/BSP/Components/L6470/L6470.c **** 
  50:Drivers/BSP/Components/L6470/L6470.c **** /**
  51:Drivers/BSP/Components/L6470/L6470.c ****   * @addtogroup L6470
  52:Drivers/BSP/Components/L6470/L6470.c ****   * @{
  53:Drivers/BSP/Components/L6470/L6470.c ****   */
  54:Drivers/BSP/Components/L6470/L6470.c ****     
  55:Drivers/BSP/Components/L6470/L6470.c **** /**
  56:Drivers/BSP/Components/L6470/L6470.c ****   * @defgroup   L6470_Private_Constants
  57:Drivers/BSP/Components/L6470/L6470.c ****   * @brief      L6470 Private Constants.
  58:Drivers/BSP/Components/L6470/L6470.c ****   * @{
  59:Drivers/BSP/Components/L6470/L6470.c ****   */
  60:Drivers/BSP/Components/L6470/L6470.c **** 
  61:Drivers/BSP/Components/L6470/L6470.c **** /**
  62:Drivers/BSP/Components/L6470/L6470.c ****   * @brief Array whose elements are a structure in which store information about
  63:Drivers/BSP/Components/L6470/L6470.c ****   *        the L6470 Registers (the address, the names, the length in bits, the
  64:Drivers/BSP/Components/L6470/L6470.c ****   *        reset value)
  65:Drivers/BSP/Components/L6470/L6470.c ****   */
  66:Drivers/BSP/Components/L6470/L6470.c **** const sL6470_Register_t L6470_Register[L6470REGIDSIZE] = {
  67:Drivers/BSP/Components/L6470/L6470.c ****   {0x01, "ABS_POS",    22, 3, 0x000000},  //!< Current position
  68:Drivers/BSP/Components/L6470/L6470.c ****   {0x02, "EL_POS",      9, 2, 0x000},     //!< Electrical position
  69:Drivers/BSP/Components/L6470/L6470.c ****   {0x03 , "MARK",      22, 3, 0x000000},  //!< Mark position
  70:Drivers/BSP/Components/L6470/L6470.c ****   {0x04 , "SPEED",     20, 3, 0x0000},    //!< Current speed
  71:Drivers/BSP/Components/L6470/L6470.c ****   {0x05 , "ACC",       12, 2, 0x08A},     //!< Acceleration
  72:Drivers/BSP/Components/L6470/L6470.c ****   {0x06 , "DEC",       12, 2, 0x08A},     //!< Deceleration
  73:Drivers/BSP/Components/L6470/L6470.c ****   {0x07 , "MAX_SPEED", 10, 2, 0x041},     //!< Maximum speed
  74:Drivers/BSP/Components/L6470/L6470.c ****   {0x08 , "MIN_SPEED", 13, 2, 0x000},     //!< Minimum speed
  75:Drivers/BSP/Components/L6470/L6470.c ****   {0x15 , "FS_SPD",    10, 2, 0x027},     //!< Full-step speed
  76:Drivers/BSP/Components/L6470/L6470.c ****   {0x09 , "KVAL_HOLD",  8, 1, 0x29},      //!< Holding KVAL
  77:Drivers/BSP/Components/L6470/L6470.c ****   {0x0A , "KVAL_RUN",   8, 1, 0x29},      //!< Constant speed KVAL
  78:Drivers/BSP/Components/L6470/L6470.c ****   {0x0B , "KVAL_ACC",   8, 1, 0x29},      //!< Acceleration starting KVAL
  79:Drivers/BSP/Components/L6470/L6470.c ****   {0x0C , "KVAL_DEC",   8, 1, 0x29},      //!< Deceleration starting KVAL
  80:Drivers/BSP/Components/L6470/L6470.c ****   {0x0D , "INT_SPEED", 14, 2, 0x0408},    //!< Intersect speed
  81:Drivers/BSP/Components/L6470/L6470.c ****   {0x0E , "ST_SLP",     8, 1, 0x19},      //!< Start slope
  82:Drivers/BSP/Components/L6470/L6470.c ****   {0x0F , "FN_SLP_ACC", 8, 1, 0x29},      //!< Acceleration final slope
  83:Drivers/BSP/Components/L6470/L6470.c ****   {0x10 , "FN_SLP_DEC", 8, 1, 0x29},      //!< Deceleration final slope
  84:Drivers/BSP/Components/L6470/L6470.c ****   {0x11 , "K_THERM",    4, 1, 0x0},       //!< Thermal compensation factor
  85:Drivers/BSP/Components/L6470/L6470.c ****   {0x12 , "ADC_OUT",    5, 1, 0x00},      //!< ADC output, (the reset value is according to startup
  86:Drivers/BSP/Components/L6470/L6470.c ****   {0x13 , "OCD_TH",     4, 1, 0x8},       //!< OCD threshold
  87:Drivers/BSP/Components/L6470/L6470.c ****   {0x14 , "STALL_TH",   7, 1, 0x40},      //!< STALL threshold
  88:Drivers/BSP/Components/L6470/L6470.c ****   {0x16 , "STEP_MODE",  8, 1, 0x7},       //!< Step mode
  89:Drivers/BSP/Components/L6470/L6470.c ****   {0x17 , "ALARM_EN",   8, 1, 0xFF},      //!< Alarm enable
  90:Drivers/BSP/Components/L6470/L6470.c ****   {0x18 , "CONFIG",    16, 2, 0x2E88},    //!< IC configuration
  91:Drivers/BSP/Components/L6470/L6470.c ****   {0x19 , "STATUS",    16, 2, 0x0000}     //!< Status, (the reset value is according to startup con
  92:Drivers/BSP/Components/L6470/L6470.c **** };
  93:Drivers/BSP/Components/L6470/L6470.c **** 
  94:Drivers/BSP/Components/L6470/L6470.c **** /**
  95:Drivers/BSP/Components/L6470/L6470.c ****   * @brief Array whose elements are a structure in which store information about
  96:Drivers/BSP/Components/L6470/L6470.c ****   *        the L6470 Application Commands (the mnemonic name, the number of
  97:Drivers/BSP/Components/L6470/L6470.c ****   *        needed parameters, the related funtion to call)
  98:Drivers/BSP/Components/L6470/L6470.c ****   */
  99:Drivers/BSP/Components/L6470/L6470.c **** const sL6470_ApplicationCommand_t L6470_ApplicationCommand[L6470APPCMDIDSIZE] =  {
 100:Drivers/BSP/Components/L6470/L6470.c ****   {"NOP",         0x00, 0},
 101:Drivers/BSP/Components/L6470/L6470.c ****   {"SETPARAM",    0x00, 2},
 102:Drivers/BSP/Components/L6470/L6470.c ****   {"GETPARAM",    0x20, 1},
 103:Drivers/BSP/Components/L6470/L6470.c ****   {"RUN",         0x50, 2},
ARM GAS  C:\Users\ep_ygh\AppData\Local\Temp\ccsX1uNj.s 			page 11


 104:Drivers/BSP/Components/L6470/L6470.c ****   {"STEPCLOCK",   0x58, 1},
 105:Drivers/BSP/Components/L6470/L6470.c ****   {"MOVE",        0x40, 2},
 106:Drivers/BSP/Components/L6470/L6470.c ****   {"GOTO",        0x60, 1},
 107:Drivers/BSP/Components/L6470/L6470.c ****   {"GOTO_DIR",    0x68, 2},
 108:Drivers/BSP/Components/L6470/L6470.c ****   {"GOUNTIL",     0x82, 3},
 109:Drivers/BSP/Components/L6470/L6470.c ****   {"RELEASESW",   0x92, 2},
 110:Drivers/BSP/Components/L6470/L6470.c ****   {"GOHOME",      0x70, 0},
 111:Drivers/BSP/Components/L6470/L6470.c ****   {"GOMARK",      0x78, 0},
 112:Drivers/BSP/Components/L6470/L6470.c ****   {"RESETPOS",    0xD8, 0},
 113:Drivers/BSP/Components/L6470/L6470.c ****   {"RESETDEVICE", 0xC0, 0},
 114:Drivers/BSP/Components/L6470/L6470.c ****   {"SOFTSTOP",    0xB0, 0},
 115:Drivers/BSP/Components/L6470/L6470.c ****   {"HARDSTOP",    0xB8, 0},
 116:Drivers/BSP/Components/L6470/L6470.c ****   {"SOFTHIZ",     0xA0, 0},
 117:Drivers/BSP/Components/L6470/L6470.c ****   {"HARDHIZ",     0xA8, 0},
 118:Drivers/BSP/Components/L6470/L6470.c ****   {"GETSTATUS",   0xD0, 0},
 119:Drivers/BSP/Components/L6470/L6470.c ****   {"SAVE",        0x00, 0}
 120:Drivers/BSP/Components/L6470/L6470.c **** };
 121:Drivers/BSP/Components/L6470/L6470.c **** 
 122:Drivers/BSP/Components/L6470/L6470.c **** /**
 123:Drivers/BSP/Components/L6470/L6470.c ****   * @brief The mnemonic names for the L6470 direction
 124:Drivers/BSP/Components/L6470/L6470.c ****   */
 125:Drivers/BSP/Components/L6470/L6470.c **** const sL6470_Direction_t L6470_Direction[L6470DIRIDSIZE] = {
 126:Drivers/BSP/Components/L6470/L6470.c ****   {"REV", 0x00},  //!< Reverse direction
 127:Drivers/BSP/Components/L6470/L6470.c ****   {"FWD", 0x01}   //!< Forward direction
 128:Drivers/BSP/Components/L6470/L6470.c **** };
 129:Drivers/BSP/Components/L6470/L6470.c **** 
 130:Drivers/BSP/Components/L6470/L6470.c **** /**
 131:Drivers/BSP/Components/L6470/L6470.c ****   * @brief Action taken about ABS_POS register
 132:Drivers/BSP/Components/L6470/L6470.c ****   */
 133:Drivers/BSP/Components/L6470/L6470.c **** const sL6470_ACT_t L6470_ACT[L6470ACTIDSIZE] = {
 134:Drivers/BSP/Components/L6470/L6470.c ****   {"RST", 0x00},  //!< ABS_POS register is reset
 135:Drivers/BSP/Components/L6470/L6470.c ****   {"CPY", 0x01}   //!< ABS_POS register value is copied into the MARK register
 136:Drivers/BSP/Components/L6470/L6470.c **** };
 137:Drivers/BSP/Components/L6470/L6470.c **** 
 138:Drivers/BSP/Components/L6470/L6470.c **** /**
 139:Drivers/BSP/Components/L6470/L6470.c ****   * @}
 140:Drivers/BSP/Components/L6470/L6470.c ****   */ /* End of L6470_Private_Constants */
 141:Drivers/BSP/Components/L6470/L6470.c **** 
 142:Drivers/BSP/Components/L6470/L6470.c **** /**
 143:Drivers/BSP/Components/L6470/L6470.c ****   * @defgroup   L6470_Private_Macros
 144:Drivers/BSP/Components/L6470/L6470.c ****   * @brief      L6470 Private Macros.
 145:Drivers/BSP/Components/L6470/L6470.c ****   * @{
 146:Drivers/BSP/Components/L6470/L6470.c ****   */
 147:Drivers/BSP/Components/L6470/L6470.c **** #define L6470_SPI_Communication     HAL_SPI_TransmitReceive   //!< Rename the HAL function to trans
 148:Drivers/BSP/Components/L6470/L6470.c **** #define _DELAY(TDISCS)              for(delay_cnt=0; delay_cnt<20; delay_cnt++) __NOP()   //!<Simpl
 149:Drivers/BSP/Components/L6470/L6470.c **** /**
 150:Drivers/BSP/Components/L6470/L6470.c ****   * @}
 151:Drivers/BSP/Components/L6470/L6470.c ****   */ /* End of L6470_Private_Macros */
 152:Drivers/BSP/Components/L6470/L6470.c **** 
 153:Drivers/BSP/Components/L6470/L6470.c **** /**
 154:Drivers/BSP/Components/L6470/L6470.c ****   * @defgroup   L6470_Private_Variables
 155:Drivers/BSP/Components/L6470/L6470.c ****   * @brief      L6470 Private Variables.
 156:Drivers/BSP/Components/L6470/L6470.c ****   * @{
 157:Drivers/BSP/Components/L6470/L6470.c ****   */
 158:Drivers/BSP/Components/L6470/L6470.c **** 
 159:Drivers/BSP/Components/L6470/L6470.c **** /**
 160:Drivers/BSP/Components/L6470/L6470.c ****   * @brief      L6470 Application Command
ARM GAS  C:\Users\ep_ygh\AppData\Local\Temp\ccsX1uNj.s 			page 12


 161:Drivers/BSP/Components/L6470/L6470.c ****   */
 162:Drivers/BSP/Components/L6470/L6470.c **** StepperMotorCommand_t L6470Command =
 163:Drivers/BSP/Components/L6470/L6470.c **** {
 164:Drivers/BSP/Components/L6470/L6470.c ****   L6470_SetParam,
 165:Drivers/BSP/Components/L6470/L6470.c ****   L6470_GetParam,
 166:Drivers/BSP/Components/L6470/L6470.c ****   L6470_Run,
 167:Drivers/BSP/Components/L6470/L6470.c ****   L6470_StepClock,
 168:Drivers/BSP/Components/L6470/L6470.c ****   L6470_Move,
 169:Drivers/BSP/Components/L6470/L6470.c ****   L6470_GoTo,
 170:Drivers/BSP/Components/L6470/L6470.c ****   L6470_GoToDir,
 171:Drivers/BSP/Components/L6470/L6470.c ****   L6470_GoUntil,
 172:Drivers/BSP/Components/L6470/L6470.c ****   L6470_ReleaseSW,
 173:Drivers/BSP/Components/L6470/L6470.c ****   L6470_GoHome,
 174:Drivers/BSP/Components/L6470/L6470.c ****   L6470_GoMark,
 175:Drivers/BSP/Components/L6470/L6470.c ****   L6470_ResetPos,
 176:Drivers/BSP/Components/L6470/L6470.c ****   L6470_ResetDevice,
 177:Drivers/BSP/Components/L6470/L6470.c ****   L6470_SoftStop,
 178:Drivers/BSP/Components/L6470/L6470.c ****   L6470_HardStop,
 179:Drivers/BSP/Components/L6470/L6470.c ****   L6470_SoftHiZ,
 180:Drivers/BSP/Components/L6470/L6470.c ****   L6470_HardHiZ,
 181:Drivers/BSP/Components/L6470/L6470.c ****   L6470_GetStatus,
 182:Drivers/BSP/Components/L6470/L6470.c ****   L6470_PrepareSetParam,
 183:Drivers/BSP/Components/L6470/L6470.c ****   L6470_PrepareGetParam,
 184:Drivers/BSP/Components/L6470/L6470.c ****   L6470_PrepareRun,
 185:Drivers/BSP/Components/L6470/L6470.c ****   L6470_PrepareStepClock,
 186:Drivers/BSP/Components/L6470/L6470.c ****   L6470_PrepareMove,
 187:Drivers/BSP/Components/L6470/L6470.c ****   L6470_PrepareGoTo,
 188:Drivers/BSP/Components/L6470/L6470.c ****   L6470_PrepareGoToDir,
 189:Drivers/BSP/Components/L6470/L6470.c ****   L6470_PrepareGoUntil,
 190:Drivers/BSP/Components/L6470/L6470.c ****   L6470_PrepareReleaseSW,
 191:Drivers/BSP/Components/L6470/L6470.c ****   L6470_PrepareGoHome,
 192:Drivers/BSP/Components/L6470/L6470.c ****   L6470_PrepareGoMark,
 193:Drivers/BSP/Components/L6470/L6470.c ****   L6470_PrepareResetPos,
 194:Drivers/BSP/Components/L6470/L6470.c ****   L6470_PrepareResetDevice,
 195:Drivers/BSP/Components/L6470/L6470.c ****   L6470_PrepareSoftStop,
 196:Drivers/BSP/Components/L6470/L6470.c ****   L6470_PrepareHardStop,
 197:Drivers/BSP/Components/L6470/L6470.c ****   L6470_PrepareSoftHiZ,
 198:Drivers/BSP/Components/L6470/L6470.c ****   L6470_PrepareHardHiZ,
 199:Drivers/BSP/Components/L6470/L6470.c ****   L6470_PrepareGetStatus,
 200:Drivers/BSP/Components/L6470/L6470.c ****   L6470_CheckStatusRegisterFlag,
 201:Drivers/BSP/Components/L6470/L6470.c **** };
 202:Drivers/BSP/Components/L6470/L6470.c **** 
 203:Drivers/BSP/Components/L6470/L6470.c **** sL6470_AppCmdPkg_t L6470_AppCmdPkg[L6470DAISYCHAINSIZE];                             //!< To store 
 204:Drivers/BSP/Components/L6470/L6470.c **** uint8_t L6470_DaisyChainSpiTxStruct[L6470MAXSPICMDBYTESIZE][L6470DAISYCHAINSIZE];  //!< To store th
 205:Drivers/BSP/Components/L6470/L6470.c **** uint8_t L6470_DaisyChainSpiRxStruct[L6470MAXSPICMDBYTESIZE][L6470DAISYCHAINSIZE];  //!< To store th
 206:Drivers/BSP/Components/L6470/L6470.c **** eFlagStatus_t L6470_DaisyChain_HalfPrepared = ZERO_F;                                     //!< Bool
 207:Drivers/BSP/Components/L6470/L6470.c **** sL6470_StatusRegister_t L6470_StatusRegister;                                          //!< To stor
 208:Drivers/BSP/Components/L6470/L6470.c **** sL6470_StatusRegister_t *pL6470_StatusRegister = &L6470_StatusRegister;                //!< Pointer
 209:Drivers/BSP/Components/L6470/L6470.c **** uint8_t delay_cnt;                                                                    //!< To be us
 210:Drivers/BSP/Components/L6470/L6470.c **** /**
 211:Drivers/BSP/Components/L6470/L6470.c ****   * @}
 212:Drivers/BSP/Components/L6470/L6470.c ****   */ /* End of L6470_Private_Variables */
 213:Drivers/BSP/Components/L6470/L6470.c **** 
 214:Drivers/BSP/Components/L6470/L6470.c **** /* Function Prototypes -------------------------------------------------------*/
 215:Drivers/BSP/Components/L6470/L6470.c **** 
 216:Drivers/BSP/Components/L6470/L6470.c **** /**
 217:Drivers/BSP/Components/L6470/L6470.c ****   * @defgroup L6470_Private_Functions
ARM GAS  C:\Users\ep_ygh\AppData\Local\Temp\ccsX1uNj.s 			page 13


 218:Drivers/BSP/Components/L6470/L6470.c ****   * @brief    L6470 Private Functions.
 219:Drivers/BSP/Components/L6470/L6470.c ****   * @{
 220:Drivers/BSP/Components/L6470/L6470.c ****   */
 221:Drivers/BSP/Components/L6470/L6470.c **** 
 222:Drivers/BSP/Components/L6470/L6470.c **** void L6470_ResetAppCmdPkg(sL6470_AppCmdPkg_t* pL6470_AppCmdPkg);
 223:Drivers/BSP/Components/L6470/L6470.c **** void L6470_FillAppCmdPkg(uint8_t L6470_Id, sL6470_AppCmdPkg_t* pL6470_AppCmdPkg, eL6470_AppCmdId_t 
 224:Drivers/BSP/Components/L6470/L6470.c **** void L6470_PrepareAppCmdPkg(uint8_t L6470_Id, sL6470_AppCmdPkg_t* pL6470_AppCmdPkg, eL6470_AppCmdId
 225:Drivers/BSP/Components/L6470/L6470.c **** void L6470_PrepareDaisyChainCommand(sL6470_AppCmdPkg_t* pL6470_AppCmdPkg, uint8_t* pL6470_DaisyChai
 226:Drivers/BSP/Components/L6470/L6470.c **** 
 227:Drivers/BSP/Components/L6470/L6470.c **** /**
 228:Drivers/BSP/Components/L6470/L6470.c ****   * @}
 229:Drivers/BSP/Components/L6470/L6470.c ****   */ /* End of L6470_Private_Functions */
 230:Drivers/BSP/Components/L6470/L6470.c **** 
 231:Drivers/BSP/Components/L6470/L6470.c **** /**
 232:Drivers/BSP/Components/L6470/L6470.c ****   * @addtogroup L6470_Private_Functions
 233:Drivers/BSP/Components/L6470/L6470.c ****   * @{
 234:Drivers/BSP/Components/L6470/L6470.c ****   */
 235:Drivers/BSP/Components/L6470/L6470.c **** 
 236:Drivers/BSP/Components/L6470/L6470.c **** /**
 237:Drivers/BSP/Components/L6470/L6470.c ****   * @brief  Reset the structure used to store the identifier of the L6470
 238:Drivers/BSP/Components/L6470/L6470.c ****   *         application command and its the needed parameters.
 239:Drivers/BSP/Components/L6470/L6470.c ****   * @param  L6470_AppCmdPkg   The structure to be reset.
 240:Drivers/BSP/Components/L6470/L6470.c ****   */
 241:Drivers/BSP/Components/L6470/L6470.c **** void L6470_ResetAppCmdPkg(sL6470_AppCmdPkg_t* pL6470_AppCmdPkg)
 242:Drivers/BSP/Components/L6470/L6470.c **** {
 407              		.loc 1 242 1
 408              		.cfi_startproc
 409              		@ args = 0, pretend = 0, frame = 16
 410              		@ frame_needed = 1, uses_anonymous_args = 0
 411              		@ link register save eliminated.
 412 0000 80B4     		push	{r7}
 413              	.LCFI0:
 414              		.cfi_def_cfa_offset 4
 415              		.cfi_offset 7, -4
 416 0002 85B0     		sub	sp, sp, #20
 417              	.LCFI1:
 418              		.cfi_def_cfa_offset 24
 419 0004 00AF     		add	r7, sp, #0
 420              	.LCFI2:
 421              		.cfi_def_cfa_register 7
 422 0006 7860     		str	r0, [r7, #4]
 243:Drivers/BSP/Components/L6470/L6470.c ****   uint8_t id;
 244:Drivers/BSP/Components/L6470/L6470.c ****   
 245:Drivers/BSP/Components/L6470/L6470.c ****   for(id=0; id<L6470DAISYCHAINSIZE; id++)
 423              		.loc 1 245 9
 424 0008 0023     		movs	r3, #0
 425 000a FB73     		strb	r3, [r7, #15]
 426              		.loc 1 245 3
 427 000c 1AE0     		b	.L2
 428              	.L3:
 246:Drivers/BSP/Components/L6470/L6470.c ****   {
 247:Drivers/BSP/Components/L6470/L6470.c ****     (pL6470_AppCmdPkg+id)->L6470_AppCmdId=(eL6470_AppCmdId_t)0;
 429              		.loc 1 247 22 discriminator 3
 430 000e FB7B     		ldrb	r3, [r7, #15]	@ zero_extendqisi2
 431 0010 1B01     		lsls	r3, r3, #4
 432 0012 7A68     		ldr	r2, [r7, #4]
 433 0014 1344     		add	r3, r3, r2
ARM GAS  C:\Users\ep_ygh\AppData\Local\Temp\ccsX1uNj.s 			page 14


 434              		.loc 1 247 42 discriminator 3
 435 0016 0022     		movs	r2, #0
 436 0018 1A70     		strb	r2, [r3]
 248:Drivers/BSP/Components/L6470/L6470.c ****     (pL6470_AppCmdPkg+id)->p1=0;
 437              		.loc 1 248 22 discriminator 3
 438 001a FB7B     		ldrb	r3, [r7, #15]	@ zero_extendqisi2
 439 001c 1B01     		lsls	r3, r3, #4
 440 001e 7A68     		ldr	r2, [r7, #4]
 441 0020 1344     		add	r3, r3, r2
 442              		.loc 1 248 30 discriminator 3
 443 0022 0022     		movs	r2, #0
 444 0024 5A60     		str	r2, [r3, #4]
 249:Drivers/BSP/Components/L6470/L6470.c ****     (pL6470_AppCmdPkg+id)->p2=0;
 445              		.loc 1 249 22 discriminator 3
 446 0026 FB7B     		ldrb	r3, [r7, #15]	@ zero_extendqisi2
 447 0028 1B01     		lsls	r3, r3, #4
 448 002a 7A68     		ldr	r2, [r7, #4]
 449 002c 1344     		add	r3, r3, r2
 450              		.loc 1 249 30 discriminator 3
 451 002e 0022     		movs	r2, #0
 452 0030 9A60     		str	r2, [r3, #8]
 250:Drivers/BSP/Components/L6470/L6470.c ****     (pL6470_AppCmdPkg+id)->p3=0;
 453              		.loc 1 250 22 discriminator 3
 454 0032 FB7B     		ldrb	r3, [r7, #15]	@ zero_extendqisi2
 455 0034 1B01     		lsls	r3, r3, #4
 456 0036 7A68     		ldr	r2, [r7, #4]
 457 0038 1344     		add	r3, r3, r2
 458              		.loc 1 250 30 discriminator 3
 459 003a 0022     		movs	r2, #0
 460 003c DA60     		str	r2, [r3, #12]
 245:Drivers/BSP/Components/L6470/L6470.c ****   {
 461              		.loc 1 245 39 discriminator 3
 462 003e FB7B     		ldrb	r3, [r7, #15]	@ zero_extendqisi2
 463 0040 0133     		adds	r3, r3, #1
 464 0042 FB73     		strb	r3, [r7, #15]
 465              	.L2:
 245:Drivers/BSP/Components/L6470/L6470.c ****   {
 466              		.loc 1 245 3 discriminator 1
 467 0044 FB7B     		ldrb	r3, [r7, #15]	@ zero_extendqisi2
 468 0046 012B     		cmp	r3, #1
 469 0048 E1D9     		bls	.L3
 251:Drivers/BSP/Components/L6470/L6470.c ****   }
 252:Drivers/BSP/Components/L6470/L6470.c **** }
 470              		.loc 1 252 1
 471 004a 00BF     		nop
 472 004c 00BF     		nop
 473 004e 1437     		adds	r7, r7, #20
 474              	.LCFI3:
 475              		.cfi_def_cfa_offset 4
 476 0050 BD46     		mov	sp, r7
 477              	.LCFI4:
 478              		.cfi_def_cfa_register 13
 479              		@ sp needed
 480 0052 5DF8047B 		ldr	r7, [sp], #4
 481              	.LCFI5:
 482              		.cfi_restore 7
 483              		.cfi_def_cfa_offset 0
ARM GAS  C:\Users\ep_ygh\AppData\Local\Temp\ccsX1uNj.s 			page 15


 484 0056 7047     		bx	lr
 485              		.cfi_endproc
 486              	.LFE128:
 488              		.section	.text.L6470_FillAppCmdPkg,"ax",%progbits
 489              		.align	1
 490              		.global	L6470_FillAppCmdPkg
 491              		.syntax unified
 492              		.thumb
 493              		.thumb_func
 495              	L6470_FillAppCmdPkg:
 496              	.LFB129:
 253:Drivers/BSP/Components/L6470/L6470.c **** 
 254:Drivers/BSP/Components/L6470/L6470.c **** /**
 255:Drivers/BSP/Components/L6470/L6470.c ****   * @brief  Fill the structure used to store the identifier of the L6470
 256:Drivers/BSP/Components/L6470/L6470.c ****   *         application command and its the needed parameters.
 257:Drivers/BSP/Components/L6470/L6470.c ****   * @param  L6470_Id          The identifier of the L6470 target inside the daisy chain.
 258:Drivers/BSP/Components/L6470/L6470.c ****   * @param  L6470_AppCmdPkg   The structure to be filled.
 259:Drivers/BSP/Components/L6470/L6470.c ****   * @param  L6470_AppCmdId    The identifier of the L6470 application command to be sent.
 260:Drivers/BSP/Components/L6470/L6470.c ****   * @param  p1                The 1st parameter (if it is not needed it will be not considered).
 261:Drivers/BSP/Components/L6470/L6470.c ****   * @param  p2                The 2nd parameter (if it is not needed it will be not considered).
 262:Drivers/BSP/Components/L6470/L6470.c ****   * @param  p3                The 3rd parameter (if it is not needed it will be not considered).
 263:Drivers/BSP/Components/L6470/L6470.c ****   */
 264:Drivers/BSP/Components/L6470/L6470.c **** void L6470_FillAppCmdPkg(uint8_t L6470_Id, sL6470_AppCmdPkg_t* pL6470_AppCmdPkg, eL6470_AppCmdId_t 
 265:Drivers/BSP/Components/L6470/L6470.c **** {
 497              		.loc 1 265 1
 498              		.cfi_startproc
 499              		@ args = 8, pretend = 0, frame = 16
 500              		@ frame_needed = 1, uses_anonymous_args = 0
 501              		@ link register save eliminated.
 502 0000 80B4     		push	{r7}
 503              	.LCFI6:
 504              		.cfi_def_cfa_offset 4
 505              		.cfi_offset 7, -4
 506 0002 85B0     		sub	sp, sp, #20
 507              	.LCFI7:
 508              		.cfi_def_cfa_offset 24
 509 0004 00AF     		add	r7, sp, #0
 510              	.LCFI8:
 511              		.cfi_def_cfa_register 7
 512 0006 B960     		str	r1, [r7, #8]
 513 0008 7B60     		str	r3, [r7, #4]
 514 000a 0346     		mov	r3, r0
 515 000c FB73     		strb	r3, [r7, #15]
 516 000e 1346     		mov	r3, r2
 517 0010 BB73     		strb	r3, [r7, #14]
 266:Drivers/BSP/Components/L6470/L6470.c ****   (pL6470_AppCmdPkg+L6470_Id)->L6470_AppCmdId = L6470_AppCmdId;
 518              		.loc 1 266 20
 519 0012 FB7B     		ldrb	r3, [r7, #15]	@ zero_extendqisi2
 520 0014 1B01     		lsls	r3, r3, #4
 521 0016 BA68     		ldr	r2, [r7, #8]
 522 0018 1344     		add	r3, r3, r2
 523              		.loc 1 266 47
 524 001a BA7B     		ldrb	r2, [r7, #14]
 525 001c 1A70     		strb	r2, [r3]
 267:Drivers/BSP/Components/L6470/L6470.c ****   (pL6470_AppCmdPkg+L6470_Id)->p1 = p1;
 526              		.loc 1 267 20
 527 001e FB7B     		ldrb	r3, [r7, #15]	@ zero_extendqisi2
ARM GAS  C:\Users\ep_ygh\AppData\Local\Temp\ccsX1uNj.s 			page 16


 528 0020 1B01     		lsls	r3, r3, #4
 529 0022 BA68     		ldr	r2, [r7, #8]
 530 0024 1344     		add	r3, r3, r2
 531              		.loc 1 267 35
 532 0026 7A68     		ldr	r2, [r7, #4]
 533 0028 5A60     		str	r2, [r3, #4]
 268:Drivers/BSP/Components/L6470/L6470.c ****   (pL6470_AppCmdPkg+L6470_Id)->p2 = p2;
 534              		.loc 1 268 20
 535 002a FB7B     		ldrb	r3, [r7, #15]	@ zero_extendqisi2
 536 002c 1B01     		lsls	r3, r3, #4
 537 002e BA68     		ldr	r2, [r7, #8]
 538 0030 1344     		add	r3, r3, r2
 539              		.loc 1 268 35
 540 0032 BA69     		ldr	r2, [r7, #24]
 541 0034 9A60     		str	r2, [r3, #8]
 269:Drivers/BSP/Components/L6470/L6470.c ****   (pL6470_AppCmdPkg+L6470_Id)->p3 = p3;
 542              		.loc 1 269 20
 543 0036 FB7B     		ldrb	r3, [r7, #15]	@ zero_extendqisi2
 544 0038 1B01     		lsls	r3, r3, #4
 545 003a BA68     		ldr	r2, [r7, #8]
 546 003c 1344     		add	r3, r3, r2
 547              		.loc 1 269 35
 548 003e FA69     		ldr	r2, [r7, #28]
 549 0040 DA60     		str	r2, [r3, #12]
 270:Drivers/BSP/Components/L6470/L6470.c **** }
 550              		.loc 1 270 1
 551 0042 00BF     		nop
 552 0044 1437     		adds	r7, r7, #20
 553              	.LCFI9:
 554              		.cfi_def_cfa_offset 4
 555 0046 BD46     		mov	sp, r7
 556              	.LCFI10:
 557              		.cfi_def_cfa_register 13
 558              		@ sp needed
 559 0048 5DF8047B 		ldr	r7, [sp], #4
 560              	.LCFI11:
 561              		.cfi_restore 7
 562              		.cfi_def_cfa_offset 0
 563 004c 7047     		bx	lr
 564              		.cfi_endproc
 565              	.LFE129:
 567              		.section	.text.L6470_PrepareAppCmdPkg,"ax",%progbits
 568              		.align	1
 569              		.global	L6470_PrepareAppCmdPkg
 570              		.syntax unified
 571              		.thumb
 572              		.thumb_func
 574              	L6470_PrepareAppCmdPkg:
 575              	.LFB130:
 271:Drivers/BSP/Components/L6470/L6470.c **** 
 272:Drivers/BSP/Components/L6470/L6470.c **** /**
 273:Drivers/BSP/Components/L6470/L6470.c ****   * @brief  This function will fill the column of the L6470_AppCmdPkg related
 274:Drivers/BSP/Components/L6470/L6470.c ****   *         the L6470 to be addressed inside the daisy chain.
 275:Drivers/BSP/Components/L6470/L6470.c ****   *
 276:Drivers/BSP/Components/L6470/L6470.c ****   * @param  L6470_Id          The identifier of the L6470 target inside the daisy chain.
 277:Drivers/BSP/Components/L6470/L6470.c ****   * @param  pL6470_AppCmdPkg  Pointer to the sL6470_AppCmdPkg_t to be filled.
 278:Drivers/BSP/Components/L6470/L6470.c ****   * @param  L6470_AppCmdId    The identifier of the L6470 application command to be sent.
ARM GAS  C:\Users\ep_ygh\AppData\Local\Temp\ccsX1uNj.s 			page 17


 279:Drivers/BSP/Components/L6470/L6470.c ****   * @param  p1                The 1st parameter (if it is not needed it will be not considered).
 280:Drivers/BSP/Components/L6470/L6470.c ****   * @param  p2                The 2nd parameter (if it is not needed it will be not considered).
 281:Drivers/BSP/Components/L6470/L6470.c ****   * @param  p3                The 3rd parameter (if it is not needed it will be not considered).
 282:Drivers/BSP/Components/L6470/L6470.c ****   */
 283:Drivers/BSP/Components/L6470/L6470.c **** void L6470_PrepareAppCmdPkg(uint8_t L6470_Id, sL6470_AppCmdPkg_t* pL6470_AppCmdPkg, eL6470_AppCmdId
 284:Drivers/BSP/Components/L6470/L6470.c **** {
 576              		.loc 1 284 1
 577              		.cfi_startproc
 578              		@ args = 8, pretend = 0, frame = 16
 579              		@ frame_needed = 1, uses_anonymous_args = 0
 580 0000 80B5     		push	{r7, lr}
 581              	.LCFI12:
 582              		.cfi_def_cfa_offset 8
 583              		.cfi_offset 7, -8
 584              		.cfi_offset 14, -4
 585 0002 86B0     		sub	sp, sp, #24
 586              	.LCFI13:
 587              		.cfi_def_cfa_offset 32
 588 0004 02AF     		add	r7, sp, #8
 589              	.LCFI14:
 590              		.cfi_def_cfa 7, 24
 591 0006 B960     		str	r1, [r7, #8]
 592 0008 7B60     		str	r3, [r7, #4]
 593 000a 0346     		mov	r3, r0
 594 000c FB73     		strb	r3, [r7, #15]
 595 000e 1346     		mov	r3, r2
 596 0010 BB73     		strb	r3, [r7, #14]
 285:Drivers/BSP/Components/L6470/L6470.c ****   if(!L6470_DaisyChain_HalfPrepared)
 597              		.loc 1 285 6
 598 0012 0C4B     		ldr	r3, .L7
 599 0014 1B78     		ldrb	r3, [r3]	@ zero_extendqisi2
 600              		.loc 1 285 5
 601 0016 002B     		cmp	r3, #0
 602 0018 05D1     		bne	.L6
 286:Drivers/BSP/Components/L6470/L6470.c ****   {
 287:Drivers/BSP/Components/L6470/L6470.c ****     L6470_DaisyChain_HalfPrepared = ONE_F; /* To avoid to delete the previous entered command */
 603              		.loc 1 287 35
 604 001a 0A4B     		ldr	r3, .L7
 605 001c 0122     		movs	r2, #1
 606 001e 1A70     		strb	r2, [r3]
 288:Drivers/BSP/Components/L6470/L6470.c ****     L6470_ResetAppCmdPkg(pL6470_AppCmdPkg);
 607              		.loc 1 288 5
 608 0020 B868     		ldr	r0, [r7, #8]
 609 0022 FFF7FEFF 		bl	L6470_ResetAppCmdPkg
 610              	.L6:
 289:Drivers/BSP/Components/L6470/L6470.c ****   }
 290:Drivers/BSP/Components/L6470/L6470.c ****   
 291:Drivers/BSP/Components/L6470/L6470.c ****   L6470_FillAppCmdPkg(L6470_Id, pL6470_AppCmdPkg, L6470_AppCmdId, p1, p2, p3);
 611              		.loc 1 291 3
 612 0026 BA7B     		ldrb	r2, [r7, #14]	@ zero_extendqisi2
 613 0028 F87B     		ldrb	r0, [r7, #15]	@ zero_extendqisi2
 614 002a FB69     		ldr	r3, [r7, #28]
 615 002c 0193     		str	r3, [sp, #4]
 616 002e BB69     		ldr	r3, [r7, #24]
 617 0030 0093     		str	r3, [sp]
 618 0032 7B68     		ldr	r3, [r7, #4]
 619 0034 B968     		ldr	r1, [r7, #8]
ARM GAS  C:\Users\ep_ygh\AppData\Local\Temp\ccsX1uNj.s 			page 18


 620 0036 FFF7FEFF 		bl	L6470_FillAppCmdPkg
 292:Drivers/BSP/Components/L6470/L6470.c **** }
 621              		.loc 1 292 1
 622 003a 00BF     		nop
 623 003c 1037     		adds	r7, r7, #16
 624              	.LCFI15:
 625              		.cfi_def_cfa_offset 8
 626 003e BD46     		mov	sp, r7
 627              	.LCFI16:
 628              		.cfi_def_cfa_register 13
 629              		@ sp needed
 630 0040 80BD     		pop	{r7, pc}
 631              	.L8:
 632 0042 00BF     		.align	2
 633              	.L7:
 634 0044 00000000 		.word	L6470_DaisyChain_HalfPrepared
 635              		.cfi_endproc
 636              	.LFE130:
 638              		.section	.text.L6470_PrepareDaisyChainCommand,"ax",%progbits
 639              		.align	1
 640              		.global	L6470_PrepareDaisyChainCommand
 641              		.syntax unified
 642              		.thumb
 643              		.thumb_func
 645              	L6470_PrepareDaisyChainCommand:
 646              	.LFB131:
 293:Drivers/BSP/Components/L6470/L6470.c **** 
 294:Drivers/BSP/Components/L6470/L6470.c **** /**
 295:Drivers/BSP/Components/L6470/L6470.c ****   * @brief  This function will translate the data inside the L6470_AppCmdPkg into
 296:Drivers/BSP/Components/L6470/L6470.c ****   *         the right data to be sent via SPI to the L6470 daisy chain.
 297:Drivers/BSP/Components/L6470/L6470.c ****   *
 298:Drivers/BSP/Components/L6470/L6470.c ****   * @param  pL6470_AppCmdPkg              Pointer to the sL6470_AppCmdPkg_t to be filled.
 299:Drivers/BSP/Components/L6470/L6470.c ****   * @param  pL6470_DaisyChainSpiTxStruct  Pointer to the structure used by SPI to send the commands
 300:Drivers/BSP/Components/L6470/L6470.c ****   */
 301:Drivers/BSP/Components/L6470/L6470.c **** void L6470_PrepareDaisyChainCommand(sL6470_AppCmdPkg_t* pL6470_AppCmdPkg, uint8_t* pL6470_DaisyChai
 302:Drivers/BSP/Components/L6470/L6470.c **** {
 647              		.loc 1 302 1
 648              		.cfi_startproc
 649              		@ args = 0, pretend = 0, frame = 16
 650              		@ frame_needed = 1, uses_anonymous_args = 0
 651              		@ link register save eliminated.
 652 0000 80B4     		push	{r7}
 653              	.LCFI17:
 654              		.cfi_def_cfa_offset 4
 655              		.cfi_offset 7, -4
 656 0002 85B0     		sub	sp, sp, #20
 657              	.LCFI18:
 658              		.cfi_def_cfa_offset 24
 659 0004 00AF     		add	r7, sp, #0
 660              	.LCFI19:
 661              		.cfi_def_cfa_register 7
 662 0006 7860     		str	r0, [r7, #4]
 663 0008 3960     		str	r1, [r7]
 303:Drivers/BSP/Components/L6470/L6470.c ****   uint8_t PkgId;
 304:Drivers/BSP/Components/L6470/L6470.c ****   uint8_t PARAMLengthBytes; /* The number of bytes related to the numeric value for the addressed r
 305:Drivers/BSP/Components/L6470/L6470.c ****   uint8_t spibyte;
 306:Drivers/BSP/Components/L6470/L6470.c ****   uint8_t i;
ARM GAS  C:\Users\ep_ygh\AppData\Local\Temp\ccsX1uNj.s 			page 19


 307:Drivers/BSP/Components/L6470/L6470.c ****   
 308:Drivers/BSP/Components/L6470/L6470.c ****   /* Reset the structure used to send the command to the L6470 Daisy Chain through the SPI */
 309:Drivers/BSP/Components/L6470/L6470.c ****   i = 0;
 664              		.loc 1 309 5
 665 000a 0023     		movs	r3, #0
 666 000c 7B73     		strb	r3, [r7, #13]
 310:Drivers/BSP/Components/L6470/L6470.c ****   for(spibyte=0;spibyte<L6470MAXSPICMDBYTESIZE;spibyte++)
 667              		.loc 1 310 14
 668 000e 0023     		movs	r3, #0
 669 0010 BB73     		strb	r3, [r7, #14]
 670              		.loc 1 310 3
 671 0012 13E0     		b	.L10
 672              	.L13:
 311:Drivers/BSP/Components/L6470/L6470.c ****     for(PkgId=0; PkgId<L6470DAISYCHAINSIZE; PkgId++)
 673              		.loc 1 311 14
 674 0014 0023     		movs	r3, #0
 675 0016 FB73     		strb	r3, [r7, #15]
 676              		.loc 1 311 5
 677 0018 0AE0     		b	.L11
 678              	.L12:
 312:Drivers/BSP/Components/L6470/L6470.c ****       *(pL6470_DaisyChainSpiTxStruct+(i++)) = 0x00;
 679              		.loc 1 312 40 discriminator 3
 680 001a 7B7B     		ldrb	r3, [r7, #13]	@ zero_extendqisi2
 681 001c 5A1C     		adds	r2, r3, #1
 682 001e 7A73     		strb	r2, [r7, #13]
 683 0020 1A46     		mov	r2, r3
 684              		.loc 1 312 37 discriminator 3
 685 0022 3B68     		ldr	r3, [r7]
 686 0024 1344     		add	r3, r3, r2
 687              		.loc 1 312 45 discriminator 3
 688 0026 0022     		movs	r2, #0
 689 0028 1A70     		strb	r2, [r3]
 311:Drivers/BSP/Components/L6470/L6470.c ****     for(PkgId=0; PkgId<L6470DAISYCHAINSIZE; PkgId++)
 690              		.loc 1 311 50 discriminator 3
 691 002a FB7B     		ldrb	r3, [r7, #15]	@ zero_extendqisi2
 692 002c 0133     		adds	r3, r3, #1
 693 002e FB73     		strb	r3, [r7, #15]
 694              	.L11:
 311:Drivers/BSP/Components/L6470/L6470.c ****     for(PkgId=0; PkgId<L6470DAISYCHAINSIZE; PkgId++)
 695              		.loc 1 311 5 discriminator 1
 696 0030 FB7B     		ldrb	r3, [r7, #15]	@ zero_extendqisi2
 697 0032 012B     		cmp	r3, #1
 698 0034 F1D9     		bls	.L12
 310:Drivers/BSP/Components/L6470/L6470.c ****   for(spibyte=0;spibyte<L6470MAXSPICMDBYTESIZE;spibyte++)
 699              		.loc 1 310 55 discriminator 2
 700 0036 BB7B     		ldrb	r3, [r7, #14]	@ zero_extendqisi2
 701 0038 0133     		adds	r3, r3, #1
 702 003a BB73     		strb	r3, [r7, #14]
 703              	.L10:
 310:Drivers/BSP/Components/L6470/L6470.c ****   for(spibyte=0;spibyte<L6470MAXSPICMDBYTESIZE;spibyte++)
 704              		.loc 1 310 3 discriminator 1
 705 003c BB7B     		ldrb	r3, [r7, #14]	@ zero_extendqisi2
 706 003e 032B     		cmp	r3, #3
 707 0040 E8D9     		bls	.L13
 313:Drivers/BSP/Components/L6470/L6470.c ****   
 314:Drivers/BSP/Components/L6470/L6470.c ****   for(PkgId=0; PkgId<L6470DAISYCHAINSIZE; PkgId++)
 708              		.loc 1 314 12
ARM GAS  C:\Users\ep_ygh\AppData\Local\Temp\ccsX1uNj.s 			page 20


 709 0042 0023     		movs	r3, #0
 710 0044 FB73     		strb	r3, [r7, #15]
 711              		.loc 1 314 3
 712 0046 F6E1     		b	.L14
 713              	.L48:
 315:Drivers/BSP/Components/L6470/L6470.c ****   {
 316:Drivers/BSP/Components/L6470/L6470.c ****     /* Build the 1st bytes to transmit with the binary code of the command */
 317:Drivers/BSP/Components/L6470/L6470.c ****     *(pL6470_DaisyChainSpiTxStruct+((0*L6470DAISYCHAINSIZE)+PkgId)) = (L6470_ApplicationCommand[(pL
 714              		.loc 1 317 114
 715 0048 FB7B     		ldrb	r3, [r7, #15]	@ zero_extendqisi2
 716 004a 1B01     		lsls	r3, r3, #4
 717 004c 7A68     		ldr	r2, [r7, #4]
 718 004e 1344     		add	r3, r3, r2
 719              		.loc 1 317 121
 720 0050 1B78     		ldrb	r3, [r3]	@ zero_extendqisi2
 721 0052 1846     		mov	r0, r3
 722              		.loc 1 317 60
 723 0054 FB7B     		ldrb	r3, [r7, #15]	@ zero_extendqisi2
 724              		.loc 1 317 35
 725 0056 3A68     		ldr	r2, [r7]
 726 0058 1A44     		add	r2, r2, r3
 727              		.loc 1 317 138
 728 005a A549     		ldr	r1, .L49
 729 005c 0346     		mov	r3, r0
 730 005e DB00     		lsls	r3, r3, #3
 731 0060 1B1A     		subs	r3, r3, r0
 732 0062 5B00     		lsls	r3, r3, #1
 733 0064 0B44     		add	r3, r3, r1
 734 0066 0C33     		adds	r3, r3, #12
 735 0068 1B78     		ldrb	r3, [r3]	@ zero_extendqisi2
 736              		.loc 1 317 69
 737 006a 1370     		strb	r3, [r2]
 318:Drivers/BSP/Components/L6470/L6470.c ****     
 319:Drivers/BSP/Components/L6470/L6470.c ****     /* Perform the related L6470_AppCmdId */
 320:Drivers/BSP/Components/L6470/L6470.c ****     switch((pL6470_AppCmdPkg+PkgId)->L6470_AppCmdId)
 738              		.loc 1 320 29
 739 006c FB7B     		ldrb	r3, [r7, #15]	@ zero_extendqisi2
 740 006e 1B01     		lsls	r3, r3, #4
 741 0070 7A68     		ldr	r2, [r7, #4]
 742 0072 1344     		add	r3, r3, r2
 743              		.loc 1 320 36
 744 0074 1B78     		ldrb	r3, [r3]	@ zero_extendqisi2
 745              		.loc 1 320 5
 746 0076 122B     		cmp	r3, #18
 747 0078 00F2DA81 		bhi	.L15
 748 007c 01A2     		adr	r2, .L17
 749 007e 52F823F0 		ldr	pc, [r2, r3, lsl #2]
 750 0082 00BF     		.p2align 2
 751              	.L17:
 752 0084 31040000 		.word	.L15+1
 753 0088 D1000000 		.word	.L34+1
 754 008c 57010000 		.word	.L33+1
 755 0090 85010000 		.word	.L32+1
 756 0094 ED010000 		.word	.L31+1
 757 0098 1B020000 		.word	.L30+1
 758 009c 83020000 		.word	.L29+1
 759 00a0 BF020000 		.word	.L28+1
ARM GAS  C:\Users\ep_ygh\AppData\Local\Temp\ccsX1uNj.s 			page 21


 760 00a4 33030000 		.word	.L27+1
 761 00a8 CF030000 		.word	.L26+1
 762 00ac 31040000 		.word	.L15+1
 763 00b0 31040000 		.word	.L15+1
 764 00b4 31040000 		.word	.L15+1
 765 00b8 31040000 		.word	.L15+1
 766 00bc 31040000 		.word	.L15+1
 767 00c0 31040000 		.word	.L15+1
 768 00c4 31040000 		.word	.L15+1
 769 00c8 31040000 		.word	.L15+1
 770 00cc 31040000 		.word	.L15+1
 771              		.p2align 1
 772              	.L34:
 321:Drivers/BSP/Components/L6470/L6470.c ****     {
 322:Drivers/BSP/Components/L6470/L6470.c ****     case L6470_NOP_ID:
 323:Drivers/BSP/Components/L6470/L6470.c ****       break;
 324:Drivers/BSP/Components/L6470/L6470.c ****     case L6470_SETPARAM_ID:
 325:Drivers/BSP/Components/L6470/L6470.c ****       /* Build the 1st bytes to transmit (PARAM) */
 326:Drivers/BSP/Components/L6470/L6470.c ****       *(pL6470_DaisyChainSpiTxStruct+((0*L6470DAISYCHAINSIZE)+PkgId)) |= (L6470_Register[((pL6470_A
 773              		.loc 1 326 71
 774 00d0 FB7B     		ldrb	r3, [r7, #15]	@ zero_extendqisi2
 775 00d2 3A68     		ldr	r2, [r7]
 776 00d4 1344     		add	r3, r3, r2
 777 00d6 1978     		ldrb	r1, [r3]	@ zero_extendqisi2
 778              		.loc 1 326 108
 779 00d8 FB7B     		ldrb	r3, [r7, #15]	@ zero_extendqisi2
 780 00da 1B01     		lsls	r3, r3, #4
 781 00dc 7A68     		ldr	r2, [r7, #4]
 782 00de 1344     		add	r3, r3, r2
 783              		.loc 1 326 115
 784 00e0 5A68     		ldr	r2, [r3, #4]
 785              		.loc 1 326 121
 786 00e2 8448     		ldr	r0, .L49+4
 787 00e4 1346     		mov	r3, r2
 788 00e6 9B00     		lsls	r3, r3, #2
 789 00e8 1344     		add	r3, r3, r2
 790 00ea 9B00     		lsls	r3, r3, #2
 791 00ec 0344     		add	r3, r3, r0
 792 00ee 1A78     		ldrb	r2, [r3]	@ zero_extendqisi2
 793              		.loc 1 326 71
 794 00f0 FB7B     		ldrb	r3, [r7, #15]	@ zero_extendqisi2
 795 00f2 3868     		ldr	r0, [r7]
 796 00f4 0344     		add	r3, r3, r0
 797 00f6 0A43     		orrs	r2, r2, r1
 798 00f8 D2B2     		uxtb	r2, r2
 799 00fa 1A70     		strb	r2, [r3]
 327:Drivers/BSP/Components/L6470/L6470.c ****       
 328:Drivers/BSP/Components/L6470/L6470.c ****       /* The length, in byte, of this register (PARAM) is... */
 329:Drivers/BSP/Components/L6470/L6470.c ****       PARAMLengthBytes = L6470_Register[((pL6470_AppCmdPkg+PkgId)->p1)].LengthByte;
 800              		.loc 1 329 59
 801 00fc FB7B     		ldrb	r3, [r7, #15]	@ zero_extendqisi2
 802 00fe 1B01     		lsls	r3, r3, #4
 803 0100 7A68     		ldr	r2, [r7, #4]
 804 0102 1344     		add	r3, r3, r2
 805              		.loc 1 329 66
 806 0104 5A68     		ldr	r2, [r3, #4]
 807              		.loc 1 329 24
ARM GAS  C:\Users\ep_ygh\AppData\Local\Temp\ccsX1uNj.s 			page 22


 808 0106 7B49     		ldr	r1, .L49+4
 809 0108 1346     		mov	r3, r2
 810 010a 9B00     		lsls	r3, r3, #2
 811 010c 1344     		add	r3, r3, r2
 812 010e 9B00     		lsls	r3, r3, #2
 813 0110 0B44     		add	r3, r3, r1
 814 0112 0E33     		adds	r3, r3, #14
 815 0114 1B78     		ldrb	r3, [r3]
 816 0116 3B73     		strb	r3, [r7, #12]
 330:Drivers/BSP/Components/L6470/L6470.c ****       
 331:Drivers/BSP/Components/L6470/L6470.c ****       /* Build the others bytes to transmit (VALUE) */
 332:Drivers/BSP/Components/L6470/L6470.c ****       for (spibyte=1; spibyte<(PARAMLengthBytes+1); spibyte++)
 817              		.loc 1 332 19
 818 0118 0123     		movs	r3, #1
 819 011a BB73     		strb	r3, [r7, #14]
 820              		.loc 1 332 7
 821 011c 16E0     		b	.L36
 822              	.L37:
 333:Drivers/BSP/Components/L6470/L6470.c ****       {
 334:Drivers/BSP/Components/L6470/L6470.c ****         *(pL6470_DaisyChainSpiTxStruct+((spibyte*L6470DAISYCHAINSIZE)+PkgId)) = (uint8_t)(((pL6470_
 823              		.loc 1 334 109 discriminator 3
 824 011e FB7B     		ldrb	r3, [r7, #15]	@ zero_extendqisi2
 825 0120 1B01     		lsls	r3, r3, #4
 826 0122 7A68     		ldr	r2, [r7, #4]
 827 0124 1344     		add	r3, r3, r2
 828              		.loc 1 334 116 discriminator 3
 829 0126 9A68     		ldr	r2, [r3, #8]
 830              		.loc 1 334 145 discriminator 3
 831 0128 397B     		ldrb	r1, [r7, #12]	@ zero_extendqisi2
 832 012a BB7B     		ldrb	r3, [r7, #14]	@ zero_extendqisi2
 833 012c CB1A     		subs	r3, r1, r3
 834              		.loc 1 334 127 discriminator 3
 835 012e DB00     		lsls	r3, r3, #3
 836              		.loc 1 334 122 discriminator 3
 837 0130 22FA03F1 		lsr	r1, r2, r3
 838              		.loc 1 334 49 discriminator 3
 839 0134 BB7B     		ldrb	r3, [r7, #14]	@ zero_extendqisi2
 840 0136 5A00     		lsls	r2, r3, #1
 841              		.loc 1 334 70 discriminator 3
 842 0138 FB7B     		ldrb	r3, [r7, #15]	@ zero_extendqisi2
 843 013a 1344     		add	r3, r3, r2
 844 013c 1A46     		mov	r2, r3
 845              		.loc 1 334 39 discriminator 3
 846 013e 3B68     		ldr	r3, [r7]
 847 0140 1344     		add	r3, r3, r2
 848              		.loc 1 334 81 discriminator 3
 849 0142 CAB2     		uxtb	r2, r1
 850              		.loc 1 334 79 discriminator 3
 851 0144 1A70     		strb	r2, [r3]
 332:Drivers/BSP/Components/L6470/L6470.c ****       {
 852              		.loc 1 332 60 discriminator 3
 853 0146 BB7B     		ldrb	r3, [r7, #14]	@ zero_extendqisi2
 854 0148 0133     		adds	r3, r3, #1
 855 014a BB73     		strb	r3, [r7, #14]
 856              	.L36:
 332:Drivers/BSP/Components/L6470/L6470.c ****       {
 857              		.loc 1 332 7 discriminator 1
ARM GAS  C:\Users\ep_ygh\AppData\Local\Temp\ccsX1uNj.s 			page 23


 858 014c 3A7B     		ldrb	r2, [r7, #12]	@ zero_extendqisi2
 859 014e BB7B     		ldrb	r3, [r7, #14]	@ zero_extendqisi2
 860 0150 9A42     		cmp	r2, r3
 861 0152 E4D2     		bcs	.L37
 335:Drivers/BSP/Components/L6470/L6470.c ****       }
 336:Drivers/BSP/Components/L6470/L6470.c ****       break;
 862              		.loc 1 336 7
 863 0154 6CE1     		b	.L15
 864              	.L33:
 337:Drivers/BSP/Components/L6470/L6470.c ****     case L6470_GETPARAM_ID:
 338:Drivers/BSP/Components/L6470/L6470.c ****       /* Build the 1st bytes to transmit (PARAM) */
 339:Drivers/BSP/Components/L6470/L6470.c ****       *(pL6470_DaisyChainSpiTxStruct+((0*L6470DAISYCHAINSIZE)+PkgId)) |= (L6470_Register[((pL6470_A
 865              		.loc 1 339 71
 866 0156 FB7B     		ldrb	r3, [r7, #15]	@ zero_extendqisi2
 867 0158 3A68     		ldr	r2, [r7]
 868 015a 1344     		add	r3, r3, r2
 869 015c 1978     		ldrb	r1, [r3]	@ zero_extendqisi2
 870              		.loc 1 339 108
 871 015e FB7B     		ldrb	r3, [r7, #15]	@ zero_extendqisi2
 872 0160 1B01     		lsls	r3, r3, #4
 873 0162 7A68     		ldr	r2, [r7, #4]
 874 0164 1344     		add	r3, r3, r2
 875              		.loc 1 339 115
 876 0166 5A68     		ldr	r2, [r3, #4]
 877              		.loc 1 339 121
 878 0168 6248     		ldr	r0, .L49+4
 879 016a 1346     		mov	r3, r2
 880 016c 9B00     		lsls	r3, r3, #2
 881 016e 1344     		add	r3, r3, r2
 882 0170 9B00     		lsls	r3, r3, #2
 883 0172 0344     		add	r3, r3, r0
 884 0174 1A78     		ldrb	r2, [r3]	@ zero_extendqisi2
 885              		.loc 1 339 71
 886 0176 FB7B     		ldrb	r3, [r7, #15]	@ zero_extendqisi2
 887 0178 3868     		ldr	r0, [r7]
 888 017a 0344     		add	r3, r3, r0
 889 017c 0A43     		orrs	r2, r2, r1
 890 017e D2B2     		uxtb	r2, r2
 891 0180 1A70     		strb	r2, [r3]
 340:Drivers/BSP/Components/L6470/L6470.c ****       break;
 892              		.loc 1 340 7
 893 0182 55E1     		b	.L15
 894              	.L32:
 341:Drivers/BSP/Components/L6470/L6470.c ****     case L6470_RUN_ID:
 342:Drivers/BSP/Components/L6470/L6470.c ****       /* Build the 1st bytes to transmit (DIR) */
 343:Drivers/BSP/Components/L6470/L6470.c ****       *(pL6470_DaisyChainSpiTxStruct+((0*L6470DAISYCHAINSIZE)+PkgId)) |= (L6470_Direction[((pL6470_
 895              		.loc 1 343 71
 896 0184 FB7B     		ldrb	r3, [r7, #15]	@ zero_extendqisi2
 897 0186 3A68     		ldr	r2, [r7]
 898 0188 1344     		add	r3, r3, r2
 899 018a 1978     		ldrb	r1, [r3]	@ zero_extendqisi2
 900              		.loc 1 343 109
 901 018c FB7B     		ldrb	r3, [r7, #15]	@ zero_extendqisi2
 902 018e 1B01     		lsls	r3, r3, #4
 903 0190 7A68     		ldr	r2, [r7, #4]
 904 0192 1344     		add	r3, r3, r2
 905              		.loc 1 343 116
ARM GAS  C:\Users\ep_ygh\AppData\Local\Temp\ccsX1uNj.s 			page 24


 906 0194 5A68     		ldr	r2, [r3, #4]
 907              		.loc 1 343 122
 908 0196 5848     		ldr	r0, .L49+8
 909 0198 1346     		mov	r3, r2
 910 019a DB00     		lsls	r3, r3, #3
 911 019c 1344     		add	r3, r3, r2
 912 019e 0344     		add	r3, r3, r0
 913 01a0 0833     		adds	r3, r3, #8
 914 01a2 1A78     		ldrb	r2, [r3]	@ zero_extendqisi2
 915              		.loc 1 343 71
 916 01a4 FB7B     		ldrb	r3, [r7, #15]	@ zero_extendqisi2
 917 01a6 3868     		ldr	r0, [r7]
 918 01a8 0344     		add	r3, r3, r0
 919 01aa 0A43     		orrs	r2, r2, r1
 920 01ac D2B2     		uxtb	r2, r2
 921 01ae 1A70     		strb	r2, [r3]
 344:Drivers/BSP/Components/L6470/L6470.c ****       
 345:Drivers/BSP/Components/L6470/L6470.c ****       /* Build the others bytes to transmit (SPD) */
 346:Drivers/BSP/Components/L6470/L6470.c ****       for (spibyte=1; spibyte<(3+1); spibyte++)
 922              		.loc 1 346 19
 923 01b0 0123     		movs	r3, #1
 924 01b2 BB73     		strb	r3, [r7, #14]
 925              		.loc 1 346 7
 926 01b4 16E0     		b	.L38
 927              	.L39:
 347:Drivers/BSP/Components/L6470/L6470.c ****       {
 348:Drivers/BSP/Components/L6470/L6470.c ****         *(pL6470_DaisyChainSpiTxStruct+((spibyte*L6470DAISYCHAINSIZE)+PkgId)) = (uint8_t)(((pL6470_
 928              		.loc 1 348 109 discriminator 3
 929 01b6 FB7B     		ldrb	r3, [r7, #15]	@ zero_extendqisi2
 930 01b8 1B01     		lsls	r3, r3, #4
 931 01ba 7A68     		ldr	r2, [r7, #4]
 932 01bc 1344     		add	r3, r3, r2
 933              		.loc 1 348 116 discriminator 3
 934 01be 9A68     		ldr	r2, [r3, #8]
 935              		.loc 1 348 130 discriminator 3
 936 01c0 BB7B     		ldrb	r3, [r7, #14]	@ zero_extendqisi2
 937 01c2 C3F10303 		rsb	r3, r3, #3
 938              		.loc 1 348 127 discriminator 3
 939 01c6 DB00     		lsls	r3, r3, #3
 940              		.loc 1 348 122 discriminator 3
 941 01c8 22FA03F1 		lsr	r1, r2, r3
 942              		.loc 1 348 49 discriminator 3
 943 01cc BB7B     		ldrb	r3, [r7, #14]	@ zero_extendqisi2
 944 01ce 5A00     		lsls	r2, r3, #1
 945              		.loc 1 348 70 discriminator 3
 946 01d0 FB7B     		ldrb	r3, [r7, #15]	@ zero_extendqisi2
 947 01d2 1344     		add	r3, r3, r2
 948 01d4 1A46     		mov	r2, r3
 949              		.loc 1 348 39 discriminator 3
 950 01d6 3B68     		ldr	r3, [r7]
 951 01d8 1344     		add	r3, r3, r2
 952              		.loc 1 348 81 discriminator 3
 953 01da CAB2     		uxtb	r2, r1
 954              		.loc 1 348 79 discriminator 3
 955 01dc 1A70     		strb	r2, [r3]
 346:Drivers/BSP/Components/L6470/L6470.c ****       {
 956              		.loc 1 346 45 discriminator 3
ARM GAS  C:\Users\ep_ygh\AppData\Local\Temp\ccsX1uNj.s 			page 25


 957 01de BB7B     		ldrb	r3, [r7, #14]	@ zero_extendqisi2
 958 01e0 0133     		adds	r3, r3, #1
 959 01e2 BB73     		strb	r3, [r7, #14]
 960              	.L38:
 346:Drivers/BSP/Components/L6470/L6470.c ****       {
 961              		.loc 1 346 7 discriminator 1
 962 01e4 BB7B     		ldrb	r3, [r7, #14]	@ zero_extendqisi2
 963 01e6 032B     		cmp	r3, #3
 964 01e8 E5D9     		bls	.L39
 349:Drivers/BSP/Components/L6470/L6470.c ****       }
 350:Drivers/BSP/Components/L6470/L6470.c ****       break;
 965              		.loc 1 350 7
 966 01ea 21E1     		b	.L15
 967              	.L31:
 351:Drivers/BSP/Components/L6470/L6470.c ****     case L6470_STEPCLOCK_ID:
 352:Drivers/BSP/Components/L6470/L6470.c ****       /* Build the 1st bytes to transmit (DIR) */
 353:Drivers/BSP/Components/L6470/L6470.c ****       *(pL6470_DaisyChainSpiTxStruct+((0*L6470DAISYCHAINSIZE)+PkgId)) |= (L6470_Direction[((pL6470_
 968              		.loc 1 353 71
 969 01ec FB7B     		ldrb	r3, [r7, #15]	@ zero_extendqisi2
 970 01ee 3A68     		ldr	r2, [r7]
 971 01f0 1344     		add	r3, r3, r2
 972 01f2 1978     		ldrb	r1, [r3]	@ zero_extendqisi2
 973              		.loc 1 353 109
 974 01f4 FB7B     		ldrb	r3, [r7, #15]	@ zero_extendqisi2
 975 01f6 1B01     		lsls	r3, r3, #4
 976 01f8 7A68     		ldr	r2, [r7, #4]
 977 01fa 1344     		add	r3, r3, r2
 978              		.loc 1 353 116
 979 01fc 5A68     		ldr	r2, [r3, #4]
 980              		.loc 1 353 122
 981 01fe 3E48     		ldr	r0, .L49+8
 982 0200 1346     		mov	r3, r2
 983 0202 DB00     		lsls	r3, r3, #3
 984 0204 1344     		add	r3, r3, r2
 985 0206 0344     		add	r3, r3, r0
 986 0208 0833     		adds	r3, r3, #8
 987 020a 1A78     		ldrb	r2, [r3]	@ zero_extendqisi2
 988              		.loc 1 353 71
 989 020c FB7B     		ldrb	r3, [r7, #15]	@ zero_extendqisi2
 990 020e 3868     		ldr	r0, [r7]
 991 0210 0344     		add	r3, r3, r0
 992 0212 0A43     		orrs	r2, r2, r1
 993 0214 D2B2     		uxtb	r2, r2
 994 0216 1A70     		strb	r2, [r3]
 354:Drivers/BSP/Components/L6470/L6470.c ****       break;
 995              		.loc 1 354 7
 996 0218 0AE1     		b	.L15
 997              	.L30:
 355:Drivers/BSP/Components/L6470/L6470.c ****     case L6470_MOVE_ID:
 356:Drivers/BSP/Components/L6470/L6470.c ****       /* Build the 1st bytes to transmit (DIR) */
 357:Drivers/BSP/Components/L6470/L6470.c ****       *(pL6470_DaisyChainSpiTxStruct+((0*L6470DAISYCHAINSIZE)+PkgId)) |= (L6470_Direction[((pL6470_
 998              		.loc 1 357 71
 999 021a FB7B     		ldrb	r3, [r7, #15]	@ zero_extendqisi2
 1000 021c 3A68     		ldr	r2, [r7]
 1001 021e 1344     		add	r3, r3, r2
 1002 0220 1978     		ldrb	r1, [r3]	@ zero_extendqisi2
 1003              		.loc 1 357 109
ARM GAS  C:\Users\ep_ygh\AppData\Local\Temp\ccsX1uNj.s 			page 26


 1004 0222 FB7B     		ldrb	r3, [r7, #15]	@ zero_extendqisi2
 1005 0224 1B01     		lsls	r3, r3, #4
 1006 0226 7A68     		ldr	r2, [r7, #4]
 1007 0228 1344     		add	r3, r3, r2
 1008              		.loc 1 357 116
 1009 022a 5A68     		ldr	r2, [r3, #4]
 1010              		.loc 1 357 122
 1011 022c 3248     		ldr	r0, .L49+8
 1012 022e 1346     		mov	r3, r2
 1013 0230 DB00     		lsls	r3, r3, #3
 1014 0232 1344     		add	r3, r3, r2
 1015 0234 0344     		add	r3, r3, r0
 1016 0236 0833     		adds	r3, r3, #8
 1017 0238 1A78     		ldrb	r2, [r3]	@ zero_extendqisi2
 1018              		.loc 1 357 71
 1019 023a FB7B     		ldrb	r3, [r7, #15]	@ zero_extendqisi2
 1020 023c 3868     		ldr	r0, [r7]
 1021 023e 0344     		add	r3, r3, r0
 1022 0240 0A43     		orrs	r2, r2, r1
 1023 0242 D2B2     		uxtb	r2, r2
 1024 0244 1A70     		strb	r2, [r3]
 358:Drivers/BSP/Components/L6470/L6470.c ****       
 359:Drivers/BSP/Components/L6470/L6470.c ****       /* Build the others bytes to transmit (N_STEP) */
 360:Drivers/BSP/Components/L6470/L6470.c ****       for (spibyte=1; spibyte<(3+1); spibyte++)
 1025              		.loc 1 360 19
 1026 0246 0123     		movs	r3, #1
 1027 0248 BB73     		strb	r3, [r7, #14]
 1028              		.loc 1 360 7
 1029 024a 16E0     		b	.L40
 1030              	.L41:
 361:Drivers/BSP/Components/L6470/L6470.c ****       {
 362:Drivers/BSP/Components/L6470/L6470.c ****         *(pL6470_DaisyChainSpiTxStruct+((spibyte*L6470DAISYCHAINSIZE)+PkgId)) = (uint8_t)(((pL6470_
 1031              		.loc 1 362 109 discriminator 3
 1032 024c FB7B     		ldrb	r3, [r7, #15]	@ zero_extendqisi2
 1033 024e 1B01     		lsls	r3, r3, #4
 1034 0250 7A68     		ldr	r2, [r7, #4]
 1035 0252 1344     		add	r3, r3, r2
 1036              		.loc 1 362 116 discriminator 3
 1037 0254 9A68     		ldr	r2, [r3, #8]
 1038              		.loc 1 362 130 discriminator 3
 1039 0256 BB7B     		ldrb	r3, [r7, #14]	@ zero_extendqisi2
 1040 0258 C3F10303 		rsb	r3, r3, #3
 1041              		.loc 1 362 127 discriminator 3
 1042 025c DB00     		lsls	r3, r3, #3
 1043              		.loc 1 362 122 discriminator 3
 1044 025e 22FA03F1 		lsr	r1, r2, r3
 1045              		.loc 1 362 49 discriminator 3
 1046 0262 BB7B     		ldrb	r3, [r7, #14]	@ zero_extendqisi2
 1047 0264 5A00     		lsls	r2, r3, #1
 1048              		.loc 1 362 70 discriminator 3
 1049 0266 FB7B     		ldrb	r3, [r7, #15]	@ zero_extendqisi2
 1050 0268 1344     		add	r3, r3, r2
 1051 026a 1A46     		mov	r2, r3
 1052              		.loc 1 362 39 discriminator 3
 1053 026c 3B68     		ldr	r3, [r7]
 1054 026e 1344     		add	r3, r3, r2
 1055              		.loc 1 362 81 discriminator 3
ARM GAS  C:\Users\ep_ygh\AppData\Local\Temp\ccsX1uNj.s 			page 27


 1056 0270 CAB2     		uxtb	r2, r1
 1057              		.loc 1 362 79 discriminator 3
 1058 0272 1A70     		strb	r2, [r3]
 360:Drivers/BSP/Components/L6470/L6470.c ****       {
 1059              		.loc 1 360 45 discriminator 3
 1060 0274 BB7B     		ldrb	r3, [r7, #14]	@ zero_extendqisi2
 1061 0276 0133     		adds	r3, r3, #1
 1062 0278 BB73     		strb	r3, [r7, #14]
 1063              	.L40:
 360:Drivers/BSP/Components/L6470/L6470.c ****       {
 1064              		.loc 1 360 7 discriminator 1
 1065 027a BB7B     		ldrb	r3, [r7, #14]	@ zero_extendqisi2
 1066 027c 032B     		cmp	r3, #3
 1067 027e E5D9     		bls	.L41
 363:Drivers/BSP/Components/L6470/L6470.c ****       }      
 364:Drivers/BSP/Components/L6470/L6470.c ****       break;
 1068              		.loc 1 364 7
 1069 0280 D6E0     		b	.L15
 1070              	.L29:
 365:Drivers/BSP/Components/L6470/L6470.c ****     case L6470_GOTO_ID:
 366:Drivers/BSP/Components/L6470/L6470.c ****       /* Build the others bytes to transmit (ABS_POS) */
 367:Drivers/BSP/Components/L6470/L6470.c ****       for (spibyte=1; spibyte<(3+1); spibyte++)
 1071              		.loc 1 367 19
 1072 0282 0123     		movs	r3, #1
 1073 0284 BB73     		strb	r3, [r7, #14]
 1074              		.loc 1 367 7
 1075 0286 16E0     		b	.L42
 1076              	.L43:
 368:Drivers/BSP/Components/L6470/L6470.c ****       {
 369:Drivers/BSP/Components/L6470/L6470.c ****         *(pL6470_DaisyChainSpiTxStruct+((spibyte*L6470DAISYCHAINSIZE)+PkgId)) = (uint8_t)(((pL6470_
 1077              		.loc 1 369 109 discriminator 3
 1078 0288 FB7B     		ldrb	r3, [r7, #15]	@ zero_extendqisi2
 1079 028a 1B01     		lsls	r3, r3, #4
 1080 028c 7A68     		ldr	r2, [r7, #4]
 1081 028e 1344     		add	r3, r3, r2
 1082              		.loc 1 369 116 discriminator 3
 1083 0290 5A68     		ldr	r2, [r3, #4]
 1084              		.loc 1 369 130 discriminator 3
 1085 0292 BB7B     		ldrb	r3, [r7, #14]	@ zero_extendqisi2
 1086 0294 C3F10303 		rsb	r3, r3, #3
 1087              		.loc 1 369 127 discriminator 3
 1088 0298 DB00     		lsls	r3, r3, #3
 1089              		.loc 1 369 122 discriminator 3
 1090 029a 22FA03F1 		lsr	r1, r2, r3
 1091              		.loc 1 369 49 discriminator 3
 1092 029e BB7B     		ldrb	r3, [r7, #14]	@ zero_extendqisi2
 1093 02a0 5A00     		lsls	r2, r3, #1
 1094              		.loc 1 369 70 discriminator 3
 1095 02a2 FB7B     		ldrb	r3, [r7, #15]	@ zero_extendqisi2
 1096 02a4 1344     		add	r3, r3, r2
 1097 02a6 1A46     		mov	r2, r3
 1098              		.loc 1 369 39 discriminator 3
 1099 02a8 3B68     		ldr	r3, [r7]
 1100 02aa 1344     		add	r3, r3, r2
 1101              		.loc 1 369 81 discriminator 3
 1102 02ac CAB2     		uxtb	r2, r1
 1103              		.loc 1 369 79 discriminator 3
ARM GAS  C:\Users\ep_ygh\AppData\Local\Temp\ccsX1uNj.s 			page 28


 1104 02ae 1A70     		strb	r2, [r3]
 367:Drivers/BSP/Components/L6470/L6470.c ****       {
 1105              		.loc 1 367 45 discriminator 3
 1106 02b0 BB7B     		ldrb	r3, [r7, #14]	@ zero_extendqisi2
 1107 02b2 0133     		adds	r3, r3, #1
 1108 02b4 BB73     		strb	r3, [r7, #14]
 1109              	.L42:
 367:Drivers/BSP/Components/L6470/L6470.c ****       {
 1110              		.loc 1 367 7 discriminator 1
 1111 02b6 BB7B     		ldrb	r3, [r7, #14]	@ zero_extendqisi2
 1112 02b8 032B     		cmp	r3, #3
 1113 02ba E5D9     		bls	.L43
 370:Drivers/BSP/Components/L6470/L6470.c ****       }
 371:Drivers/BSP/Components/L6470/L6470.c ****       break;
 1114              		.loc 1 371 7
 1115 02bc B8E0     		b	.L15
 1116              	.L28:
 372:Drivers/BSP/Components/L6470/L6470.c ****     case L6470_GOTODIR_ID:
 373:Drivers/BSP/Components/L6470/L6470.c ****       /* Build the 1st bytes to transmit (DIR) */
 374:Drivers/BSP/Components/L6470/L6470.c ****       *(pL6470_DaisyChainSpiTxStruct+((0*L6470DAISYCHAINSIZE)+PkgId)) |= (L6470_Direction[((pL6470_
 1117              		.loc 1 374 71
 1118 02be FB7B     		ldrb	r3, [r7, #15]	@ zero_extendqisi2
 1119 02c0 3A68     		ldr	r2, [r7]
 1120 02c2 1344     		add	r3, r3, r2
 1121 02c4 1978     		ldrb	r1, [r3]	@ zero_extendqisi2
 1122              		.loc 1 374 109
 1123 02c6 FB7B     		ldrb	r3, [r7, #15]	@ zero_extendqisi2
 1124 02c8 1B01     		lsls	r3, r3, #4
 1125 02ca 7A68     		ldr	r2, [r7, #4]
 1126 02cc 1344     		add	r3, r3, r2
 1127              		.loc 1 374 116
 1128 02ce 5A68     		ldr	r2, [r3, #4]
 1129              		.loc 1 374 122
 1130 02d0 0948     		ldr	r0, .L49+8
 1131 02d2 1346     		mov	r3, r2
 1132 02d4 DB00     		lsls	r3, r3, #3
 1133 02d6 1344     		add	r3, r3, r2
 1134 02d8 0344     		add	r3, r3, r0
 1135 02da 0833     		adds	r3, r3, #8
 1136 02dc 1A78     		ldrb	r2, [r3]	@ zero_extendqisi2
 1137              		.loc 1 374 71
 1138 02de FB7B     		ldrb	r3, [r7, #15]	@ zero_extendqisi2
 1139 02e0 3868     		ldr	r0, [r7]
 1140 02e2 0344     		add	r3, r3, r0
 1141 02e4 0A43     		orrs	r2, r2, r1
 1142 02e6 D2B2     		uxtb	r2, r2
 1143 02e8 1A70     		strb	r2, [r3]
 375:Drivers/BSP/Components/L6470/L6470.c ****       
 376:Drivers/BSP/Components/L6470/L6470.c ****       /* Build the others bytes to transmit (ABS_POS) */
 377:Drivers/BSP/Components/L6470/L6470.c ****       for (spibyte=1; spibyte<(3+1); spibyte++)
 1144              		.loc 1 377 19
 1145 02ea 0123     		movs	r3, #1
 1146 02ec BB73     		strb	r3, [r7, #14]
 1147              		.loc 1 377 7
 1148 02ee 1CE0     		b	.L44
 1149              	.L50:
 1150              		.align	2
ARM GAS  C:\Users\ep_ygh\AppData\Local\Temp\ccsX1uNj.s 			page 29


 1151              	.L49:
 1152 02f0 00000000 		.word	L6470_ApplicationCommand
 1153 02f4 00000000 		.word	L6470_Register
 1154 02f8 00000000 		.word	L6470_Direction
 1155              	.L45:
 378:Drivers/BSP/Components/L6470/L6470.c ****       {
 379:Drivers/BSP/Components/L6470/L6470.c ****         *(pL6470_DaisyChainSpiTxStruct+((spibyte*L6470DAISYCHAINSIZE)+PkgId)) = (uint8_t)(((pL6470_
 1156              		.loc 1 379 109 discriminator 3
 1157 02fc FB7B     		ldrb	r3, [r7, #15]	@ zero_extendqisi2
 1158 02fe 1B01     		lsls	r3, r3, #4
 1159 0300 7A68     		ldr	r2, [r7, #4]
 1160 0302 1344     		add	r3, r3, r2
 1161              		.loc 1 379 116 discriminator 3
 1162 0304 9A68     		ldr	r2, [r3, #8]
 1163              		.loc 1 379 130 discriminator 3
 1164 0306 BB7B     		ldrb	r3, [r7, #14]	@ zero_extendqisi2
 1165 0308 C3F10303 		rsb	r3, r3, #3
 1166              		.loc 1 379 127 discriminator 3
 1167 030c DB00     		lsls	r3, r3, #3
 1168              		.loc 1 379 122 discriminator 3
 1169 030e 22FA03F1 		lsr	r1, r2, r3
 1170              		.loc 1 379 49 discriminator 3
 1171 0312 BB7B     		ldrb	r3, [r7, #14]	@ zero_extendqisi2
 1172 0314 5A00     		lsls	r2, r3, #1
 1173              		.loc 1 379 70 discriminator 3
 1174 0316 FB7B     		ldrb	r3, [r7, #15]	@ zero_extendqisi2
 1175 0318 1344     		add	r3, r3, r2
 1176 031a 1A46     		mov	r2, r3
 1177              		.loc 1 379 39 discriminator 3
 1178 031c 3B68     		ldr	r3, [r7]
 1179 031e 1344     		add	r3, r3, r2
 1180              		.loc 1 379 81 discriminator 3
 1181 0320 CAB2     		uxtb	r2, r1
 1182              		.loc 1 379 79 discriminator 3
 1183 0322 1A70     		strb	r2, [r3]
 377:Drivers/BSP/Components/L6470/L6470.c ****       {
 1184              		.loc 1 377 45 discriminator 3
 1185 0324 BB7B     		ldrb	r3, [r7, #14]	@ zero_extendqisi2
 1186 0326 0133     		adds	r3, r3, #1
 1187 0328 BB73     		strb	r3, [r7, #14]
 1188              	.L44:
 377:Drivers/BSP/Components/L6470/L6470.c ****       {
 1189              		.loc 1 377 7 discriminator 1
 1190 032a BB7B     		ldrb	r3, [r7, #14]	@ zero_extendqisi2
 1191 032c 032B     		cmp	r3, #3
 1192 032e E5D9     		bls	.L45
 380:Drivers/BSP/Components/L6470/L6470.c ****       }
 381:Drivers/BSP/Components/L6470/L6470.c ****       break;
 1193              		.loc 1 381 7
 1194 0330 7EE0     		b	.L15
 1195              	.L27:
 382:Drivers/BSP/Components/L6470/L6470.c ****     case L6470_GOUNTIL_ID:
 383:Drivers/BSP/Components/L6470/L6470.c ****       /* Build the 1st bytes to transmit (ACT) */
 384:Drivers/BSP/Components/L6470/L6470.c ****       *(pL6470_DaisyChainSpiTxStruct+((0*L6470DAISYCHAINSIZE)+PkgId)) |= ((L6470_ACT[((pL6470_AppCm
 1196              		.loc 1 384 71
 1197 0332 FB7B     		ldrb	r3, [r7, #15]	@ zero_extendqisi2
 1198 0334 3A68     		ldr	r2, [r7]
ARM GAS  C:\Users\ep_ygh\AppData\Local\Temp\ccsX1uNj.s 			page 30


 1199 0336 1344     		add	r3, r3, r2
 1200 0338 1B78     		ldrb	r3, [r3]	@ zero_extendqisi2
 1201 033a 59B2     		sxtb	r1, r3
 1202              		.loc 1 384 104
 1203 033c FB7B     		ldrb	r3, [r7, #15]	@ zero_extendqisi2
 1204 033e 1B01     		lsls	r3, r3, #4
 1205 0340 7A68     		ldr	r2, [r7, #4]
 1206 0342 1344     		add	r3, r3, r2
 1207              		.loc 1 384 111
 1208 0344 5A68     		ldr	r2, [r3, #4]
 1209              		.loc 1 384 117
 1210 0346 4148     		ldr	r0, .L51
 1211 0348 1346     		mov	r3, r2
 1212 034a 9B00     		lsls	r3, r3, #2
 1213 034c 1344     		add	r3, r3, r2
 1214 034e 0344     		add	r3, r3, r0
 1215 0350 0433     		adds	r3, r3, #4
 1216 0352 1B78     		ldrb	r3, [r3]	@ zero_extendqisi2
 1217              		.loc 1 384 129
 1218 0354 DB00     		lsls	r3, r3, #3
 1219              		.loc 1 384 71
 1220 0356 5BB2     		sxtb	r3, r3
 1221 0358 0B43     		orrs	r3, r3, r1
 1222 035a 59B2     		sxtb	r1, r3
 1223 035c FB7B     		ldrb	r3, [r7, #15]	@ zero_extendqisi2
 1224 035e 3A68     		ldr	r2, [r7]
 1225 0360 1344     		add	r3, r3, r2
 1226 0362 CAB2     		uxtb	r2, r1
 1227 0364 1A70     		strb	r2, [r3]
 385:Drivers/BSP/Components/L6470/L6470.c ****       /* Build the 1st bytes to transmit (DIR) */
 386:Drivers/BSP/Components/L6470/L6470.c ****       *(pL6470_DaisyChainSpiTxStruct+((0*L6470DAISYCHAINSIZE)+PkgId)) |= (L6470_Direction[((pL6470_
 1228              		.loc 1 386 71
 1229 0366 FB7B     		ldrb	r3, [r7, #15]	@ zero_extendqisi2
 1230 0368 3A68     		ldr	r2, [r7]
 1231 036a 1344     		add	r3, r3, r2
 1232 036c 1978     		ldrb	r1, [r3]	@ zero_extendqisi2
 1233              		.loc 1 386 109
 1234 036e FB7B     		ldrb	r3, [r7, #15]	@ zero_extendqisi2
 1235 0370 1B01     		lsls	r3, r3, #4
 1236 0372 7A68     		ldr	r2, [r7, #4]
 1237 0374 1344     		add	r3, r3, r2
 1238              		.loc 1 386 116
 1239 0376 9A68     		ldr	r2, [r3, #8]
 1240              		.loc 1 386 122
 1241 0378 3548     		ldr	r0, .L51+4
 1242 037a 1346     		mov	r3, r2
 1243 037c DB00     		lsls	r3, r3, #3
 1244 037e 1344     		add	r3, r3, r2
 1245 0380 0344     		add	r3, r3, r0
 1246 0382 0833     		adds	r3, r3, #8
 1247 0384 1A78     		ldrb	r2, [r3]	@ zero_extendqisi2
 1248              		.loc 1 386 71
 1249 0386 FB7B     		ldrb	r3, [r7, #15]	@ zero_extendqisi2
 1250 0388 3868     		ldr	r0, [r7]
 1251 038a 0344     		add	r3, r3, r0
 1252 038c 0A43     		orrs	r2, r2, r1
 1253 038e D2B2     		uxtb	r2, r2
ARM GAS  C:\Users\ep_ygh\AppData\Local\Temp\ccsX1uNj.s 			page 31


 1254 0390 1A70     		strb	r2, [r3]
 387:Drivers/BSP/Components/L6470/L6470.c ****       
 388:Drivers/BSP/Components/L6470/L6470.c ****       /* Build the others bytes to transmit (SPD) */
 389:Drivers/BSP/Components/L6470/L6470.c ****       for (spibyte=1; spibyte<(3+1); spibyte++)
 1255              		.loc 1 389 19
 1256 0392 0123     		movs	r3, #1
 1257 0394 BB73     		strb	r3, [r7, #14]
 1258              		.loc 1 389 7
 1259 0396 16E0     		b	.L46
 1260              	.L47:
 390:Drivers/BSP/Components/L6470/L6470.c ****       {
 391:Drivers/BSP/Components/L6470/L6470.c ****         *(pL6470_DaisyChainSpiTxStruct+((spibyte*L6470DAISYCHAINSIZE)+PkgId)) = (uint8_t)(((pL6470_
 1261              		.loc 1 391 109 discriminator 3
 1262 0398 FB7B     		ldrb	r3, [r7, #15]	@ zero_extendqisi2
 1263 039a 1B01     		lsls	r3, r3, #4
 1264 039c 7A68     		ldr	r2, [r7, #4]
 1265 039e 1344     		add	r3, r3, r2
 1266              		.loc 1 391 116 discriminator 3
 1267 03a0 DA68     		ldr	r2, [r3, #12]
 1268              		.loc 1 391 130 discriminator 3
 1269 03a2 BB7B     		ldrb	r3, [r7, #14]	@ zero_extendqisi2
 1270 03a4 C3F10303 		rsb	r3, r3, #3
 1271              		.loc 1 391 127 discriminator 3
 1272 03a8 DB00     		lsls	r3, r3, #3
 1273              		.loc 1 391 122 discriminator 3
 1274 03aa 22FA03F1 		lsr	r1, r2, r3
 1275              		.loc 1 391 49 discriminator 3
 1276 03ae BB7B     		ldrb	r3, [r7, #14]	@ zero_extendqisi2
 1277 03b0 5A00     		lsls	r2, r3, #1
 1278              		.loc 1 391 70 discriminator 3
 1279 03b2 FB7B     		ldrb	r3, [r7, #15]	@ zero_extendqisi2
 1280 03b4 1344     		add	r3, r3, r2
 1281 03b6 1A46     		mov	r2, r3
 1282              		.loc 1 391 39 discriminator 3
 1283 03b8 3B68     		ldr	r3, [r7]
 1284 03ba 1344     		add	r3, r3, r2
 1285              		.loc 1 391 81 discriminator 3
 1286 03bc CAB2     		uxtb	r2, r1
 1287              		.loc 1 391 79 discriminator 3
 1288 03be 1A70     		strb	r2, [r3]
 389:Drivers/BSP/Components/L6470/L6470.c ****       {
 1289              		.loc 1 389 45 discriminator 3
 1290 03c0 BB7B     		ldrb	r3, [r7, #14]	@ zero_extendqisi2
 1291 03c2 0133     		adds	r3, r3, #1
 1292 03c4 BB73     		strb	r3, [r7, #14]
 1293              	.L46:
 389:Drivers/BSP/Components/L6470/L6470.c ****       {
 1294              		.loc 1 389 7 discriminator 1
 1295 03c6 BB7B     		ldrb	r3, [r7, #14]	@ zero_extendqisi2
 1296 03c8 032B     		cmp	r3, #3
 1297 03ca E5D9     		bls	.L47
 392:Drivers/BSP/Components/L6470/L6470.c ****       }
 393:Drivers/BSP/Components/L6470/L6470.c ****       break;
 1298              		.loc 1 393 7
 1299 03cc 30E0     		b	.L15
 1300              	.L26:
 394:Drivers/BSP/Components/L6470/L6470.c ****     case L6470_RELEASESW_ID:
ARM GAS  C:\Users\ep_ygh\AppData\Local\Temp\ccsX1uNj.s 			page 32


 395:Drivers/BSP/Components/L6470/L6470.c ****       /* Build the 1st bytes to transmit (ACT) */
 396:Drivers/BSP/Components/L6470/L6470.c ****       *(pL6470_DaisyChainSpiTxStruct+((0*L6470DAISYCHAINSIZE)+PkgId)) |= ((L6470_ACT[((pL6470_AppCm
 1301              		.loc 1 396 71
 1302 03ce FB7B     		ldrb	r3, [r7, #15]	@ zero_extendqisi2
 1303 03d0 3A68     		ldr	r2, [r7]
 1304 03d2 1344     		add	r3, r3, r2
 1305 03d4 1B78     		ldrb	r3, [r3]	@ zero_extendqisi2
 1306 03d6 59B2     		sxtb	r1, r3
 1307              		.loc 1 396 104
 1308 03d8 FB7B     		ldrb	r3, [r7, #15]	@ zero_extendqisi2
 1309 03da 1B01     		lsls	r3, r3, #4
 1310 03dc 7A68     		ldr	r2, [r7, #4]
 1311 03de 1344     		add	r3, r3, r2
 1312              		.loc 1 396 111
 1313 03e0 5A68     		ldr	r2, [r3, #4]
 1314              		.loc 1 396 117
 1315 03e2 1A48     		ldr	r0, .L51
 1316 03e4 1346     		mov	r3, r2
 1317 03e6 9B00     		lsls	r3, r3, #2
 1318 03e8 1344     		add	r3, r3, r2
 1319 03ea 0344     		add	r3, r3, r0
 1320 03ec 0433     		adds	r3, r3, #4
 1321 03ee 1B78     		ldrb	r3, [r3]	@ zero_extendqisi2
 1322              		.loc 1 396 129
 1323 03f0 DB00     		lsls	r3, r3, #3
 1324              		.loc 1 396 71
 1325 03f2 5BB2     		sxtb	r3, r3
 1326 03f4 0B43     		orrs	r3, r3, r1
 1327 03f6 59B2     		sxtb	r1, r3
 1328 03f8 FB7B     		ldrb	r3, [r7, #15]	@ zero_extendqisi2
 1329 03fa 3A68     		ldr	r2, [r7]
 1330 03fc 1344     		add	r3, r3, r2
 1331 03fe CAB2     		uxtb	r2, r1
 1332 0400 1A70     		strb	r2, [r3]
 397:Drivers/BSP/Components/L6470/L6470.c ****       /* Build the 1st bytes to transmit (DIR) */
 398:Drivers/BSP/Components/L6470/L6470.c ****       *(pL6470_DaisyChainSpiTxStruct+((0*L6470DAISYCHAINSIZE)+PkgId)) |= (L6470_Direction[((pL6470_
 1333              		.loc 1 398 71
 1334 0402 FB7B     		ldrb	r3, [r7, #15]	@ zero_extendqisi2
 1335 0404 3A68     		ldr	r2, [r7]
 1336 0406 1344     		add	r3, r3, r2
 1337 0408 1978     		ldrb	r1, [r3]	@ zero_extendqisi2
 1338              		.loc 1 398 109
 1339 040a FB7B     		ldrb	r3, [r7, #15]	@ zero_extendqisi2
 1340 040c 1B01     		lsls	r3, r3, #4
 1341 040e 7A68     		ldr	r2, [r7, #4]
 1342 0410 1344     		add	r3, r3, r2
 1343              		.loc 1 398 116
 1344 0412 9A68     		ldr	r2, [r3, #8]
 1345              		.loc 1 398 122
 1346 0414 0E48     		ldr	r0, .L51+4
 1347 0416 1346     		mov	r3, r2
 1348 0418 DB00     		lsls	r3, r3, #3
 1349 041a 1344     		add	r3, r3, r2
 1350 041c 0344     		add	r3, r3, r0
 1351 041e 0833     		adds	r3, r3, #8
 1352 0420 1A78     		ldrb	r2, [r3]	@ zero_extendqisi2
 1353              		.loc 1 398 71
ARM GAS  C:\Users\ep_ygh\AppData\Local\Temp\ccsX1uNj.s 			page 33


 1354 0422 FB7B     		ldrb	r3, [r7, #15]	@ zero_extendqisi2
 1355 0424 3868     		ldr	r0, [r7]
 1356 0426 0344     		add	r3, r3, r0
 1357 0428 0A43     		orrs	r2, r2, r1
 1358 042a D2B2     		uxtb	r2, r2
 1359 042c 1A70     		strb	r2, [r3]
 399:Drivers/BSP/Components/L6470/L6470.c ****       break;
 1360              		.loc 1 399 7
 1361 042e 00BF     		nop
 1362              	.L15:
 314:Drivers/BSP/Components/L6470/L6470.c ****   {
 1363              		.loc 1 314 48 discriminator 2
 1364 0430 FB7B     		ldrb	r3, [r7, #15]	@ zero_extendqisi2
 1365 0432 0133     		adds	r3, r3, #1
 1366 0434 FB73     		strb	r3, [r7, #15]
 1367              	.L14:
 314:Drivers/BSP/Components/L6470/L6470.c ****   {
 1368              		.loc 1 314 3 discriminator 1
 1369 0436 FB7B     		ldrb	r3, [r7, #15]	@ zero_extendqisi2
 1370 0438 012B     		cmp	r3, #1
 1371 043a 7FF605AE 		bls	.L48
 400:Drivers/BSP/Components/L6470/L6470.c ****     case L6470_GOHOME_ID:
 401:Drivers/BSP/Components/L6470/L6470.c ****       break;
 402:Drivers/BSP/Components/L6470/L6470.c ****     case L6470_GOMARK_ID:
 403:Drivers/BSP/Components/L6470/L6470.c ****       break;
 404:Drivers/BSP/Components/L6470/L6470.c ****     case L6470_RESETPOS_ID:
 405:Drivers/BSP/Components/L6470/L6470.c ****       break;
 406:Drivers/BSP/Components/L6470/L6470.c ****     case L6470_RESETDEVICE_ID:
 407:Drivers/BSP/Components/L6470/L6470.c ****       break;
 408:Drivers/BSP/Components/L6470/L6470.c ****     case L6470_SOFTSTOP_ID:
 409:Drivers/BSP/Components/L6470/L6470.c ****       break;
 410:Drivers/BSP/Components/L6470/L6470.c ****     case L6470_HARDSTOP_ID:
 411:Drivers/BSP/Components/L6470/L6470.c ****       break;
 412:Drivers/BSP/Components/L6470/L6470.c ****     case L6470_SOFTHIZ_ID:
 413:Drivers/BSP/Components/L6470/L6470.c ****       break;
 414:Drivers/BSP/Components/L6470/L6470.c ****     case L6470_HARDHIZ_ID:
 415:Drivers/BSP/Components/L6470/L6470.c ****       break;
 416:Drivers/BSP/Components/L6470/L6470.c ****     case L6470_GETSTATUS_ID:
 417:Drivers/BSP/Components/L6470/L6470.c ****       break;
 418:Drivers/BSP/Components/L6470/L6470.c ****     }
 419:Drivers/BSP/Components/L6470/L6470.c ****   }
 420:Drivers/BSP/Components/L6470/L6470.c **** }
 1372              		.loc 1 420 1
 1373 043e 00BF     		nop
 1374 0440 00BF     		nop
 1375 0442 1437     		adds	r7, r7, #20
 1376              	.LCFI20:
 1377              		.cfi_def_cfa_offset 4
 1378 0444 BD46     		mov	sp, r7
 1379              	.LCFI21:
 1380              		.cfi_def_cfa_register 13
 1381              		@ sp needed
 1382 0446 5DF8047B 		ldr	r7, [sp], #4
 1383              	.LCFI22:
 1384              		.cfi_restore 7
 1385              		.cfi_def_cfa_offset 0
 1386 044a 7047     		bx	lr
ARM GAS  C:\Users\ep_ygh\AppData\Local\Temp\ccsX1uNj.s 			page 34


 1387              	.L52:
 1388              		.align	2
 1389              	.L51:
 1390 044c 00000000 		.word	L6470_ACT
 1391 0450 00000000 		.word	L6470_Direction
 1392              		.cfi_endproc
 1393              	.LFE131:
 1395              		.section	.text.AbsPos_2_Position,"ax",%progbits
 1396              		.align	1
 1397              		.global	AbsPos_2_Position
 1398              		.syntax unified
 1399              		.thumb
 1400              		.thumb_func
 1402              	AbsPos_2_Position:
 1403              	.LFB132:
 421:Drivers/BSP/Components/L6470/L6470.c **** 
 422:Drivers/BSP/Components/L6470/L6470.c **** /**
 423:Drivers/BSP/Components/L6470/L6470.c ****   * @}
 424:Drivers/BSP/Components/L6470/L6470.c ****   */ /* End of L6470_Private_Functions */
 425:Drivers/BSP/Components/L6470/L6470.c **** 
 426:Drivers/BSP/Components/L6470/L6470.c **** /**
 427:Drivers/BSP/Components/L6470/L6470.c ****   * @addtogroup L6470_Exported_Functions
 428:Drivers/BSP/Components/L6470/L6470.c ****   * @{
 429:Drivers/BSP/Components/L6470/L6470.c ****   */
 430:Drivers/BSP/Components/L6470/L6470.c **** 
 431:Drivers/BSP/Components/L6470/L6470.c **** /**
 432:Drivers/BSP/Components/L6470/L6470.c ****   * @addtogroup L6470_Conversion_Functions
 433:Drivers/BSP/Components/L6470/L6470.c ****   * @brief      The following functions act just on one driver inside the L6470
 434:Drivers/BSP/Components/L6470/L6470.c ****   *             daisy chain. The command is immediately sent.
 435:Drivers/BSP/Components/L6470/L6470.c ****   * @{
 436:Drivers/BSP/Components/L6470/L6470.c ****   */
 437:Drivers/BSP/Components/L6470/L6470.c **** 
 438:Drivers/BSP/Components/L6470/L6470.c ****  /**
 439:Drivers/BSP/Components/L6470/L6470.c ****   * @brief  Convert the absolute position as 2's complement format into the signed number.
 440:Drivers/BSP/Components/L6470/L6470.c ****   * 
 441:Drivers/BSP/Components/L6470/L6470.c ****   * @param  AbsPos      The absolute position in the range from [-(2^21)] to [+(2^21)-1].
 442:Drivers/BSP/Components/L6470/L6470.c ****   * @retval Position    The position as signed number.
 443:Drivers/BSP/Components/L6470/L6470.c ****   */
 444:Drivers/BSP/Components/L6470/L6470.c **** int32_t AbsPos_2_Position(uint32_t AbsPos)
 445:Drivers/BSP/Components/L6470/L6470.c **** {
 1404              		.loc 1 445 1
 1405              		.cfi_startproc
 1406              		@ args = 0, pretend = 0, frame = 8
 1407              		@ frame_needed = 1, uses_anonymous_args = 0
 1408              		@ link register save eliminated.
 1409 0000 80B4     		push	{r7}
 1410              	.LCFI23:
 1411              		.cfi_def_cfa_offset 4
 1412              		.cfi_offset 7, -4
 1413 0002 83B0     		sub	sp, sp, #12
 1414              	.LCFI24:
 1415              		.cfi_def_cfa_offset 16
 1416 0004 00AF     		add	r7, sp, #0
 1417              	.LCFI25:
 1418              		.cfi_def_cfa_register 7
 1419 0006 7860     		str	r0, [r7, #4]
 446:Drivers/BSP/Components/L6470/L6470.c ****   if (AbsPos > L6470_MAX_POSITION)
ARM GAS  C:\Users\ep_ygh\AppData\Local\Temp\ccsX1uNj.s 			page 35


 1420              		.loc 1 446 6
 1421 0008 7B68     		ldr	r3, [r7, #4]
 1422 000a B3F5001F 		cmp	r3, #2097152
 1423 000e 03D3     		bcc	.L54
 447:Drivers/BSP/Components/L6470/L6470.c ****     return (AbsPos - (L6470_POSITION_RANGE + 1));
 1424              		.loc 1 447 20
 1425 0010 7B68     		ldr	r3, [r7, #4]
 1426 0012 A3F58003 		sub	r3, r3, #4194304
 1427 0016 00E0     		b	.L55
 1428              	.L54:
 448:Drivers/BSP/Components/L6470/L6470.c ****   else
 449:Drivers/BSP/Components/L6470/L6470.c ****     return AbsPos;
 1429              		.loc 1 449 12
 1430 0018 7B68     		ldr	r3, [r7, #4]
 1431              	.L55:
 450:Drivers/BSP/Components/L6470/L6470.c **** }
 1432              		.loc 1 450 1
 1433 001a 1846     		mov	r0, r3
 1434 001c 0C37     		adds	r7, r7, #12
 1435              	.LCFI26:
 1436              		.cfi_def_cfa_offset 4
 1437 001e BD46     		mov	sp, r7
 1438              	.LCFI27:
 1439              		.cfi_def_cfa_register 13
 1440              		@ sp needed
 1441 0020 5DF8047B 		ldr	r7, [sp], #4
 1442              	.LCFI28:
 1443              		.cfi_restore 7
 1444              		.cfi_def_cfa_offset 0
 1445 0024 7047     		bx	lr
 1446              		.cfi_endproc
 1447              	.LFE132:
 1449              		.section	.text.Position_2_AbsPos,"ax",%progbits
 1450              		.align	1
 1451              		.global	Position_2_AbsPos
 1452              		.syntax unified
 1453              		.thumb
 1454              		.thumb_func
 1456              	Position_2_AbsPos:
 1457              	.LFB133:
 451:Drivers/BSP/Components/L6470/L6470.c **** 
 452:Drivers/BSP/Components/L6470/L6470.c **** /**
 453:Drivers/BSP/Components/L6470/L6470.c ****   * @brief  Convert the position as signed number into absolute position as 2's complement format.
 454:Drivers/BSP/Components/L6470/L6470.c ****   * 
 455:Drivers/BSP/Components/L6470/L6470.c ****   * @param  Position    The position as signed number.
 456:Drivers/BSP/Components/L6470/L6470.c ****   * @retval AbsPos      The absolute position in the range from [-(2^21)] to [+(2^21)-1].
 457:Drivers/BSP/Components/L6470/L6470.c ****   */
 458:Drivers/BSP/Components/L6470/L6470.c **** uint32_t Position_2_AbsPos(int32_t Position)
 459:Drivers/BSP/Components/L6470/L6470.c **** {
 1458              		.loc 1 459 1
 1459              		.cfi_startproc
 1460              		@ args = 0, pretend = 0, frame = 8
 1461              		@ frame_needed = 1, uses_anonymous_args = 0
 1462              		@ link register save eliminated.
 1463 0000 80B4     		push	{r7}
 1464              	.LCFI29:
 1465              		.cfi_def_cfa_offset 4
ARM GAS  C:\Users\ep_ygh\AppData\Local\Temp\ccsX1uNj.s 			page 36


 1466              		.cfi_offset 7, -4
 1467 0002 83B0     		sub	sp, sp, #12
 1468              	.LCFI30:
 1469              		.cfi_def_cfa_offset 16
 1470 0004 00AF     		add	r7, sp, #0
 1471              	.LCFI31:
 1472              		.cfi_def_cfa_register 7
 1473 0006 7860     		str	r0, [r7, #4]
 460:Drivers/BSP/Components/L6470/L6470.c ****   if ((Position >= 0) && (Position <= L6470_MAX_POSITION))
 1474              		.loc 1 460 6
 1475 0008 7B68     		ldr	r3, [r7, #4]
 1476 000a 002B     		cmp	r3, #0
 1477 000c 05DB     		blt	.L57
 1478              		.loc 1 460 23 discriminator 1
 1479 000e 7B68     		ldr	r3, [r7, #4]
 1480 0010 B3F5001F 		cmp	r3, #2097152
 1481 0014 01DA     		bge	.L57
 461:Drivers/BSP/Components/L6470/L6470.c ****     return Position;
 1482              		.loc 1 461 12
 1483 0016 7B68     		ldr	r3, [r7, #4]
 1484 0018 0CE0     		b	.L58
 1485              	.L57:
 462:Drivers/BSP/Components/L6470/L6470.c ****   else
 463:Drivers/BSP/Components/L6470/L6470.c ****   {
 464:Drivers/BSP/Components/L6470/L6470.c ****     if ((Position >= L6470_MIN_POSITION) && (Position < 0))
 1486              		.loc 1 464 8
 1487 001a 7B68     		ldr	r3, [r7, #4]
 1488 001c 13F5001F 		cmn	r3, #2097152
 1489 0020 06DB     		blt	.L59
 1490              		.loc 1 464 42 discriminator 1
 1491 0022 7B68     		ldr	r3, [r7, #4]
 1492 0024 002B     		cmp	r3, #0
 1493 0026 03DA     		bge	.L59
 465:Drivers/BSP/Components/L6470/L6470.c ****       return (Position + (L6470_POSITION_RANGE + 1));
 1494              		.loc 1 465 24
 1495 0028 7B68     		ldr	r3, [r7, #4]
 1496 002a 03F58003 		add	r3, r3, #4194304
 1497 002e 01E0     		b	.L58
 1498              	.L59:
 466:Drivers/BSP/Components/L6470/L6470.c ****     else
 467:Drivers/BSP/Components/L6470/L6470.c ****       return (L6470_POSITION_RANGE + 1);        // OVF
 1499              		.loc 1 467 14
 1500 0030 4FF48003 		mov	r3, #4194304
 1501              	.L58:
 468:Drivers/BSP/Components/L6470/L6470.c ****   }
 469:Drivers/BSP/Components/L6470/L6470.c **** }
 1502              		.loc 1 469 1
 1503 0034 1846     		mov	r0, r3
 1504 0036 0C37     		adds	r7, r7, #12
 1505              	.LCFI32:
 1506              		.cfi_def_cfa_offset 4
 1507 0038 BD46     		mov	sp, r7
 1508              	.LCFI33:
 1509              		.cfi_def_cfa_register 13
 1510              		@ sp needed
 1511 003a 5DF8047B 		ldr	r7, [sp], #4
 1512              	.LCFI34:
ARM GAS  C:\Users\ep_ygh\AppData\Local\Temp\ccsX1uNj.s 			page 37


 1513              		.cfi_restore 7
 1514              		.cfi_def_cfa_offset 0
 1515 003e 7047     		bx	lr
 1516              		.cfi_endproc
 1517              	.LFE133:
 1519              		.section	.text.Speed_2_Step_s,"ax",%progbits
 1520              		.align	1
 1521              		.global	Speed_2_Step_s
 1522              		.syntax unified
 1523              		.thumb
 1524              		.thumb_func
 1526              	Speed_2_Step_s:
 1527              	.LFB134:
 470:Drivers/BSP/Components/L6470/L6470.c **** 
 471:Drivers/BSP/Components/L6470/L6470.c **** /**
 472:Drivers/BSP/Components/L6470/L6470.c ****   * @brief  Convert the SPEED register value into step/s.
 473:Drivers/BSP/Components/L6470/L6470.c ****   * 
 474:Drivers/BSP/Components/L6470/L6470.c ****   * @param  Speed       The SPEED register value.
 475:Drivers/BSP/Components/L6470/L6470.c ****   * @retval step/s      The speed as step/s.
 476:Drivers/BSP/Components/L6470/L6470.c ****   */
 477:Drivers/BSP/Components/L6470/L6470.c **** float Speed_2_Step_s(uint32_t Speed)
 478:Drivers/BSP/Components/L6470/L6470.c **** {
 1528              		.loc 1 478 1
 1529              		.cfi_startproc
 1530              		@ args = 0, pretend = 0, frame = 8
 1531              		@ frame_needed = 1, uses_anonymous_args = 0
 1532              		@ link register save eliminated.
 1533 0000 80B4     		push	{r7}
 1534              	.LCFI35:
 1535              		.cfi_def_cfa_offset 4
 1536              		.cfi_offset 7, -4
 1537 0002 83B0     		sub	sp, sp, #12
 1538              	.LCFI36:
 1539              		.cfi_def_cfa_offset 16
 1540 0004 00AF     		add	r7, sp, #0
 1541              	.LCFI37:
 1542              		.cfi_def_cfa_register 7
 1543 0006 7860     		str	r0, [r7, #4]
 479:Drivers/BSP/Components/L6470/L6470.c ****   return (Speed * ((float)14.9012e-3));
 1544              		.loc 1 479 17
 1545 0008 7B68     		ldr	r3, [r7, #4]
 1546 000a 07EE903A 		vmov	s15, r3	@ int
 1547 000e F8EE677A 		vcvt.f32.u32	s15, s15
 1548 0012 9FED057A 		vldr.32	s14, .L62
 1549 0016 67EE877A 		vmul.f32	s15, s15, s14
 480:Drivers/BSP/Components/L6470/L6470.c **** }
 1550              		.loc 1 480 1
 1551 001a B0EE670A 		vmov.f32	s0, s15
 1552 001e 0C37     		adds	r7, r7, #12
 1553              	.LCFI38:
 1554              		.cfi_def_cfa_offset 4
 1555 0020 BD46     		mov	sp, r7
 1556              	.LCFI39:
 1557              		.cfi_def_cfa_register 13
 1558              		@ sp needed
 1559 0022 5DF8047B 		ldr	r7, [sp], #4
 1560              	.LCFI40:
ARM GAS  C:\Users\ep_ygh\AppData\Local\Temp\ccsX1uNj.s 			page 38


 1561              		.cfi_restore 7
 1562              		.cfi_def_cfa_offset 0
 1563 0026 7047     		bx	lr
 1564              	.L63:
 1565              		.align	2
 1566              	.L62:
 1567 0028 2A24743C 		.word	1014244394
 1568              		.cfi_endproc
 1569              	.LFE134:
 1571              		.section	.text.Step_s_2_Speed,"ax",%progbits
 1572              		.align	1
 1573              		.global	Step_s_2_Speed
 1574              		.syntax unified
 1575              		.thumb
 1576              		.thumb_func
 1578              	Step_s_2_Speed:
 1579              	.LFB135:
 481:Drivers/BSP/Components/L6470/L6470.c **** 
 482:Drivers/BSP/Components/L6470/L6470.c **** /**
 483:Drivers/BSP/Components/L6470/L6470.c ****   * @brief  Convert the speed as step/s into a right value for SPEED register.
 484:Drivers/BSP/Components/L6470/L6470.c ****   * 
 485:Drivers/BSP/Components/L6470/L6470.c ****   * @param  step/s      The speed as step/s.
 486:Drivers/BSP/Components/L6470/L6470.c ****   * @retval Speed       The SPEED register value.
 487:Drivers/BSP/Components/L6470/L6470.c ****   */
 488:Drivers/BSP/Components/L6470/L6470.c **** uint32_t Step_s_2_Speed(float Step_s)
 489:Drivers/BSP/Components/L6470/L6470.c **** {
 1580              		.loc 1 489 1
 1581              		.cfi_startproc
 1582              		@ args = 0, pretend = 0, frame = 8
 1583              		@ frame_needed = 1, uses_anonymous_args = 0
 1584              		@ link register save eliminated.
 1585 0000 80B4     		push	{r7}
 1586              	.LCFI41:
 1587              		.cfi_def_cfa_offset 4
 1588              		.cfi_offset 7, -4
 1589 0002 83B0     		sub	sp, sp, #12
 1590              	.LCFI42:
 1591              		.cfi_def_cfa_offset 16
 1592 0004 00AF     		add	r7, sp, #0
 1593              	.LCFI43:
 1594              		.cfi_def_cfa_register 7
 1595 0006 87ED010A 		vstr.32	s0, [r7, #4]
 490:Drivers/BSP/Components/L6470/L6470.c ****   if (Step_s <= (L6470_MAX_SPEED * ((float)14.9012e-3)))
 1596              		.loc 1 490 6
 1597 000a D7ED017A 		vldr.32	s15, [r7, #4]
 1598 000e 9FED0C7A 		vldr.32	s14, .L70
 1599 0012 F4EEC77A 		vcmpe.f32	s15, s14
 1600 0016 F1EE10FA 		vmrs	APSR_nzcv, FPSCR
 1601 001a 0AD8     		bhi	.L69
 491:Drivers/BSP/Components/L6470/L6470.c ****     return (uint32_t)(Step_s / ((float)14.9012e-3));
 1602              		.loc 1 491 30
 1603 001c 97ED017A 		vldr.32	s14, [r7, #4]
 1604 0020 DFED086A 		vldr.32	s13, .L70+4
 1605 0024 C7EE267A 		vdiv.f32	s15, s14, s13
 1606              		.loc 1 491 12
 1607 0028 FCEEE77A 		vcvt.u32.f32	s15, s15
 1608 002c 17EE903A 		vmov	r3, s15	@ int
ARM GAS  C:\Users\ep_ygh\AppData\Local\Temp\ccsX1uNj.s 			page 39


 1609 0030 00E0     		b	.L67
 1610              	.L69:
 492:Drivers/BSP/Components/L6470/L6470.c ****   else
 493:Drivers/BSP/Components/L6470/L6470.c ****     return 0;   // Warning
 1611              		.loc 1 493 12
 1612 0032 0023     		movs	r3, #0
 1613              	.L67:
 494:Drivers/BSP/Components/L6470/L6470.c **** }
 1614              		.loc 1 494 1
 1615 0034 1846     		mov	r0, r3
 1616 0036 0C37     		adds	r7, r7, #12
 1617              	.LCFI44:
 1618              		.cfi_def_cfa_offset 4
 1619 0038 BD46     		mov	sp, r7
 1620              	.LCFI45:
 1621              		.cfi_def_cfa_register 13
 1622              		@ sp needed
 1623 003a 5DF8047B 		ldr	r7, [sp], #4
 1624              	.LCFI46:
 1625              		.cfi_restore 7
 1626              		.cfi_def_cfa_offset 0
 1627 003e 7047     		bx	lr
 1628              	.L71:
 1629              		.align	2
 1630              	.L70:
 1631 0040 1B247446 		.word	1182016539
 1632 0044 2A24743C 		.word	1014244394
 1633              		.cfi_endproc
 1634              	.LFE135:
 1636              		.section	.text.Acc_2_Step_s2,"ax",%progbits
 1637              		.align	1
 1638              		.global	Acc_2_Step_s2
 1639              		.syntax unified
 1640              		.thumb
 1641              		.thumb_func
 1643              	Acc_2_Step_s2:
 1644              	.LFB136:
 495:Drivers/BSP/Components/L6470/L6470.c **** 
 496:Drivers/BSP/Components/L6470/L6470.c **** /**
 497:Drivers/BSP/Components/L6470/L6470.c ****   * @brief  Convert the ACC register value into step/(s^2).
 498:Drivers/BSP/Components/L6470/L6470.c ****   * 
 499:Drivers/BSP/Components/L6470/L6470.c ****   * @param  Acc         The ACC register value.
 500:Drivers/BSP/Components/L6470/L6470.c ****   * @retval step/(s^2)  The acceleration as step/(s^2).
 501:Drivers/BSP/Components/L6470/L6470.c ****   */
 502:Drivers/BSP/Components/L6470/L6470.c **** float Acc_2_Step_s2(uint16_t Acc)
 503:Drivers/BSP/Components/L6470/L6470.c **** {
 1645              		.loc 1 503 1
 1646              		.cfi_startproc
 1647              		@ args = 0, pretend = 0, frame = 8
 1648              		@ frame_needed = 1, uses_anonymous_args = 0
 1649              		@ link register save eliminated.
 1650 0000 80B4     		push	{r7}
 1651              	.LCFI47:
 1652              		.cfi_def_cfa_offset 4
 1653              		.cfi_offset 7, -4
 1654 0002 83B0     		sub	sp, sp, #12
 1655              	.LCFI48:
ARM GAS  C:\Users\ep_ygh\AppData\Local\Temp\ccsX1uNj.s 			page 40


 1656              		.cfi_def_cfa_offset 16
 1657 0004 00AF     		add	r7, sp, #0
 1658              	.LCFI49:
 1659              		.cfi_def_cfa_register 7
 1660 0006 0346     		mov	r3, r0
 1661 0008 FB80     		strh	r3, [r7, #6]	@ movhi
 504:Drivers/BSP/Components/L6470/L6470.c ****   if (Acc <= L6470_MAX_ACC)
 1662              		.loc 1 504 6
 1663 000a FB88     		ldrh	r3, [r7, #6]
 1664 000c B3F5805F 		cmp	r3, #4096
 1665 0010 09D2     		bcs	.L73
 505:Drivers/BSP/Components/L6470/L6470.c ****     return (Acc * ((float)1.4552e1));
 1666              		.loc 1 505 17
 1667 0012 FB88     		ldrh	r3, [r7, #6]
 1668 0014 07EE903A 		vmov	s15, r3	@ int
 1669 0018 F8EEE77A 		vcvt.f32.s32	s15, s15
 1670 001c 9FED067A 		vldr.32	s14, .L75
 1671 0020 67EE877A 		vmul.f32	s15, s15, s14
 1672 0024 01E0     		b	.L74
 1673              	.L73:
 506:Drivers/BSP/Components/L6470/L6470.c ****   else
 507:Drivers/BSP/Components/L6470/L6470.c ****     return 0;   // Warning
 1674              		.loc 1 507 12
 1675 0026 DFED057A 		vldr.32	s15, .L75+4
 1676              	.L74:
 508:Drivers/BSP/Components/L6470/L6470.c **** }
 1677              		.loc 1 508 1
 1678 002a B0EE670A 		vmov.f32	s0, s15
 1679 002e 0C37     		adds	r7, r7, #12
 1680              	.LCFI50:
 1681              		.cfi_def_cfa_offset 4
 1682 0030 BD46     		mov	sp, r7
 1683              	.LCFI51:
 1684              		.cfi_def_cfa_register 13
 1685              		@ sp needed
 1686 0032 5DF8047B 		ldr	r7, [sp], #4
 1687              	.LCFI52:
 1688              		.cfi_restore 7
 1689              		.cfi_def_cfa_offset 0
 1690 0036 7047     		bx	lr
 1691              	.L76:
 1692              		.align	2
 1693              	.L75:
 1694 0038 FED46841 		.word	1097389310
 1695 003c 00000000 		.word	0
 1696              		.cfi_endproc
 1697              	.LFE136:
 1699              		.section	.text.Step_s2_2_Acc,"ax",%progbits
 1700              		.align	1
 1701              		.global	Step_s2_2_Acc
 1702              		.syntax unified
 1703              		.thumb
 1704              		.thumb_func
 1706              	Step_s2_2_Acc:
 1707              	.LFB137:
 509:Drivers/BSP/Components/L6470/L6470.c **** 
 510:Drivers/BSP/Components/L6470/L6470.c **** /**
ARM GAS  C:\Users\ep_ygh\AppData\Local\Temp\ccsX1uNj.s 			page 41


 511:Drivers/BSP/Components/L6470/L6470.c ****   * @brief  Convert the acceleartion as step/(s^2) into a right value for ACC register.
 512:Drivers/BSP/Components/L6470/L6470.c ****   * 
 513:Drivers/BSP/Components/L6470/L6470.c ****   * @param  step/(s^2)  The acceleration as step/(s^2).
 514:Drivers/BSP/Components/L6470/L6470.c ****   * @retval Acc         The ACC register value.
 515:Drivers/BSP/Components/L6470/L6470.c ****   */
 516:Drivers/BSP/Components/L6470/L6470.c **** uint16_t Step_s2_2_Acc(float Step_s2)
 517:Drivers/BSP/Components/L6470/L6470.c **** {
 1708              		.loc 1 517 1
 1709              		.cfi_startproc
 1710              		@ args = 0, pretend = 0, frame = 8
 1711              		@ frame_needed = 1, uses_anonymous_args = 0
 1712              		@ link register save eliminated.
 1713 0000 80B4     		push	{r7}
 1714              	.LCFI53:
 1715              		.cfi_def_cfa_offset 4
 1716              		.cfi_offset 7, -4
 1717 0002 83B0     		sub	sp, sp, #12
 1718              	.LCFI54:
 1719              		.cfi_def_cfa_offset 16
 1720 0004 00AF     		add	r7, sp, #0
 1721              	.LCFI55:
 1722              		.cfi_def_cfa_register 7
 1723 0006 87ED010A 		vstr.32	s0, [r7, #4]
 518:Drivers/BSP/Components/L6470/L6470.c ****   if (Step_s2 <= (L6470_MAX_ACC * ((float)1.4552e1)))
 1724              		.loc 1 518 6
 1725 000a D7ED017A 		vldr.32	s15, [r7, #4]
 1726 000e 9FED0D7A 		vldr.32	s14, .L83
 1727 0012 F4EEC77A 		vcmpe.f32	s15, s14
 1728 0016 F1EE10FA 		vmrs	APSR_nzcv, FPSCR
 1729 001a 0BD8     		bhi	.L82
 519:Drivers/BSP/Components/L6470/L6470.c ****     return (uint16_t)(Step_s2 / ((float)1.4552e1));
 1730              		.loc 1 519 31
 1731 001c 97ED017A 		vldr.32	s14, [r7, #4]
 1732 0020 DFED096A 		vldr.32	s13, .L83+4
 1733 0024 C7EE267A 		vdiv.f32	s15, s14, s13
 1734              		.loc 1 519 12
 1735 0028 FCEEE77A 		vcvt.u32.f32	s15, s15
 1736 002c 17EE903A 		vmov	r3, s15	@ int
 1737 0030 9BB2     		uxth	r3, r3
 1738 0032 00E0     		b	.L80
 1739              	.L82:
 520:Drivers/BSP/Components/L6470/L6470.c ****   else
 521:Drivers/BSP/Components/L6470/L6470.c ****     return 0;   // Warning
 1740              		.loc 1 521 12
 1741 0034 0023     		movs	r3, #0
 1742              	.L80:
 522:Drivers/BSP/Components/L6470/L6470.c **** }
 1743              		.loc 1 522 1
 1744 0036 1846     		mov	r0, r3
 1745 0038 0C37     		adds	r7, r7, #12
 1746              	.LCFI56:
 1747              		.cfi_def_cfa_offset 4
 1748 003a BD46     		mov	sp, r7
 1749              	.LCFI57:
 1750              		.cfi_def_cfa_register 13
 1751              		@ sp needed
 1752 003c 5DF8047B 		ldr	r7, [sp], #4
ARM GAS  C:\Users\ep_ygh\AppData\Local\Temp\ccsX1uNj.s 			page 42


 1753              	.LCFI58:
 1754              		.cfi_restore 7
 1755              		.cfi_def_cfa_offset 0
 1756 0040 7047     		bx	lr
 1757              	.L84:
 1758 0042 00BF     		.align	2
 1759              	.L83:
 1760 0044 71C66847 		.word	1198048881
 1761 0048 FED46841 		.word	1097389310
 1762              		.cfi_endproc
 1763              	.LFE137:
 1765              		.section	.text.Dec_2_Step_s2,"ax",%progbits
 1766              		.align	1
 1767              		.global	Dec_2_Step_s2
 1768              		.syntax unified
 1769              		.thumb
 1770              		.thumb_func
 1772              	Dec_2_Step_s2:
 1773              	.LFB138:
 523:Drivers/BSP/Components/L6470/L6470.c **** 
 524:Drivers/BSP/Components/L6470/L6470.c **** /**
 525:Drivers/BSP/Components/L6470/L6470.c ****   * @brief  Convert the DEC register value into step/(s^2).
 526:Drivers/BSP/Components/L6470/L6470.c ****   * 
 527:Drivers/BSP/Components/L6470/L6470.c ****   * @param  Dec         The DEC register value.
 528:Drivers/BSP/Components/L6470/L6470.c ****   * @retval step/(s^2)  The deceleration as step/(s^2).
 529:Drivers/BSP/Components/L6470/L6470.c ****   */
 530:Drivers/BSP/Components/L6470/L6470.c **** float Dec_2_Step_s2(uint16_t Dec)
 531:Drivers/BSP/Components/L6470/L6470.c **** {
 1774              		.loc 1 531 1
 1775              		.cfi_startproc
 1776              		@ args = 0, pretend = 0, frame = 8
 1777              		@ frame_needed = 1, uses_anonymous_args = 0
 1778              		@ link register save eliminated.
 1779 0000 80B4     		push	{r7}
 1780              	.LCFI59:
 1781              		.cfi_def_cfa_offset 4
 1782              		.cfi_offset 7, -4
 1783 0002 83B0     		sub	sp, sp, #12
 1784              	.LCFI60:
 1785              		.cfi_def_cfa_offset 16
 1786 0004 00AF     		add	r7, sp, #0
 1787              	.LCFI61:
 1788              		.cfi_def_cfa_register 7
 1789 0006 0346     		mov	r3, r0
 1790 0008 FB80     		strh	r3, [r7, #6]	@ movhi
 532:Drivers/BSP/Components/L6470/L6470.c ****   if (Dec <= L6470_MAX_DEC)
 1791              		.loc 1 532 6
 1792 000a FB88     		ldrh	r3, [r7, #6]
 1793 000c B3F5805F 		cmp	r3, #4096
 1794 0010 09D2     		bcs	.L86
 533:Drivers/BSP/Components/L6470/L6470.c ****     return (Dec * ((float)1.4552e1));
 1795              		.loc 1 533 17
 1796 0012 FB88     		ldrh	r3, [r7, #6]
 1797 0014 07EE903A 		vmov	s15, r3	@ int
 1798 0018 F8EEE77A 		vcvt.f32.s32	s15, s15
 1799 001c 9FED067A 		vldr.32	s14, .L88
 1800 0020 67EE877A 		vmul.f32	s15, s15, s14
ARM GAS  C:\Users\ep_ygh\AppData\Local\Temp\ccsX1uNj.s 			page 43


 1801 0024 01E0     		b	.L87
 1802              	.L86:
 534:Drivers/BSP/Components/L6470/L6470.c ****   else
 535:Drivers/BSP/Components/L6470/L6470.c ****     return 0;   // Warning
 1803              		.loc 1 535 12
 1804 0026 DFED057A 		vldr.32	s15, .L88+4
 1805              	.L87:
 536:Drivers/BSP/Components/L6470/L6470.c **** }
 1806              		.loc 1 536 1
 1807 002a B0EE670A 		vmov.f32	s0, s15
 1808 002e 0C37     		adds	r7, r7, #12
 1809              	.LCFI62:
 1810              		.cfi_def_cfa_offset 4
 1811 0030 BD46     		mov	sp, r7
 1812              	.LCFI63:
 1813              		.cfi_def_cfa_register 13
 1814              		@ sp needed
 1815 0032 5DF8047B 		ldr	r7, [sp], #4
 1816              	.LCFI64:
 1817              		.cfi_restore 7
 1818              		.cfi_def_cfa_offset 0
 1819 0036 7047     		bx	lr
 1820              	.L89:
 1821              		.align	2
 1822              	.L88:
 1823 0038 FED46841 		.word	1097389310
 1824 003c 00000000 		.word	0
 1825              		.cfi_endproc
 1826              	.LFE138:
 1828              		.section	.text.Step_s2_2_Dec,"ax",%progbits
 1829              		.align	1
 1830              		.global	Step_s2_2_Dec
 1831              		.syntax unified
 1832              		.thumb
 1833              		.thumb_func
 1835              	Step_s2_2_Dec:
 1836              	.LFB139:
 537:Drivers/BSP/Components/L6470/L6470.c **** 
 538:Drivers/BSP/Components/L6470/L6470.c **** /**
 539:Drivers/BSP/Components/L6470/L6470.c ****   * @brief  Convert the deceleration as step/(s^2) into a right value for DEC register.
 540:Drivers/BSP/Components/L6470/L6470.c ****   * 
 541:Drivers/BSP/Components/L6470/L6470.c ****   * @param  step/(s^2)  The deceleration as step/(s^2).
 542:Drivers/BSP/Components/L6470/L6470.c ****   * @retval Dec         The DEC register value.
 543:Drivers/BSP/Components/L6470/L6470.c ****   */
 544:Drivers/BSP/Components/L6470/L6470.c **** uint16_t Step_s2_2_Dec(float Step_s2)
 545:Drivers/BSP/Components/L6470/L6470.c **** {
 1837              		.loc 1 545 1
 1838              		.cfi_startproc
 1839              		@ args = 0, pretend = 0, frame = 8
 1840              		@ frame_needed = 1, uses_anonymous_args = 0
 1841              		@ link register save eliminated.
 1842 0000 80B4     		push	{r7}
 1843              	.LCFI65:
 1844              		.cfi_def_cfa_offset 4
 1845              		.cfi_offset 7, -4
 1846 0002 83B0     		sub	sp, sp, #12
 1847              	.LCFI66:
ARM GAS  C:\Users\ep_ygh\AppData\Local\Temp\ccsX1uNj.s 			page 44


 1848              		.cfi_def_cfa_offset 16
 1849 0004 00AF     		add	r7, sp, #0
 1850              	.LCFI67:
 1851              		.cfi_def_cfa_register 7
 1852 0006 87ED010A 		vstr.32	s0, [r7, #4]
 546:Drivers/BSP/Components/L6470/L6470.c ****   if (Step_s2 <= (L6470_MAX_DEC * ((float)1.4552e1)))
 1853              		.loc 1 546 6
 1854 000a D7ED017A 		vldr.32	s15, [r7, #4]
 1855 000e 9FED0D7A 		vldr.32	s14, .L96
 1856 0012 F4EEC77A 		vcmpe.f32	s15, s14
 1857 0016 F1EE10FA 		vmrs	APSR_nzcv, FPSCR
 1858 001a 0BD8     		bhi	.L95
 547:Drivers/BSP/Components/L6470/L6470.c ****     return (uint16_t)(Step_s2 / ((float)1.4552e1));
 1859              		.loc 1 547 31
 1860 001c 97ED017A 		vldr.32	s14, [r7, #4]
 1861 0020 DFED096A 		vldr.32	s13, .L96+4
 1862 0024 C7EE267A 		vdiv.f32	s15, s14, s13
 1863              		.loc 1 547 12
 1864 0028 FCEEE77A 		vcvt.u32.f32	s15, s15
 1865 002c 17EE903A 		vmov	r3, s15	@ int
 1866 0030 9BB2     		uxth	r3, r3
 1867 0032 00E0     		b	.L93
 1868              	.L95:
 548:Drivers/BSP/Components/L6470/L6470.c ****   else
 549:Drivers/BSP/Components/L6470/L6470.c ****     return 0;   // Warning
 1869              		.loc 1 549 12
 1870 0034 0023     		movs	r3, #0
 1871              	.L93:
 550:Drivers/BSP/Components/L6470/L6470.c **** }
 1872              		.loc 1 550 1
 1873 0036 1846     		mov	r0, r3
 1874 0038 0C37     		adds	r7, r7, #12
 1875              	.LCFI68:
 1876              		.cfi_def_cfa_offset 4
 1877 003a BD46     		mov	sp, r7
 1878              	.LCFI69:
 1879              		.cfi_def_cfa_register 13
 1880              		@ sp needed
 1881 003c 5DF8047B 		ldr	r7, [sp], #4
 1882              	.LCFI70:
 1883              		.cfi_restore 7
 1884              		.cfi_def_cfa_offset 0
 1885 0040 7047     		bx	lr
 1886              	.L97:
 1887 0042 00BF     		.align	2
 1888              	.L96:
 1889 0044 71C66847 		.word	1198048881
 1890 0048 FED46841 		.word	1097389310
 1891              		.cfi_endproc
 1892              	.LFE139:
 1894              		.section	.text.MaxSpeed_2_Step_s,"ax",%progbits
 1895              		.align	1
 1896              		.global	MaxSpeed_2_Step_s
 1897              		.syntax unified
 1898              		.thumb
 1899              		.thumb_func
 1901              	MaxSpeed_2_Step_s:
ARM GAS  C:\Users\ep_ygh\AppData\Local\Temp\ccsX1uNj.s 			page 45


 1902              	.LFB140:
 551:Drivers/BSP/Components/L6470/L6470.c **** 
 552:Drivers/BSP/Components/L6470/L6470.c **** /**
 553:Drivers/BSP/Components/L6470/L6470.c ****   * @brief  Convert the MAX_SPEED register value into step/s.
 554:Drivers/BSP/Components/L6470/L6470.c ****   * 
 555:Drivers/BSP/Components/L6470/L6470.c ****   * @param  MaxSpeed    The MAX_SPEED register value.
 556:Drivers/BSP/Components/L6470/L6470.c ****   * @retval step/s      The max speed as step/s.
 557:Drivers/BSP/Components/L6470/L6470.c ****   */
 558:Drivers/BSP/Components/L6470/L6470.c **** float MaxSpeed_2_Step_s(uint16_t MaxSpeed)
 559:Drivers/BSP/Components/L6470/L6470.c **** {
 1903              		.loc 1 559 1
 1904              		.cfi_startproc
 1905              		@ args = 0, pretend = 0, frame = 8
 1906              		@ frame_needed = 1, uses_anonymous_args = 0
 1907              		@ link register save eliminated.
 1908 0000 80B4     		push	{r7}
 1909              	.LCFI71:
 1910              		.cfi_def_cfa_offset 4
 1911              		.cfi_offset 7, -4
 1912 0002 83B0     		sub	sp, sp, #12
 1913              	.LCFI72:
 1914              		.cfi_def_cfa_offset 16
 1915 0004 00AF     		add	r7, sp, #0
 1916              	.LCFI73:
 1917              		.cfi_def_cfa_register 7
 1918 0006 0346     		mov	r3, r0
 1919 0008 FB80     		strh	r3, [r7, #6]	@ movhi
 560:Drivers/BSP/Components/L6470/L6470.c ****   if (MaxSpeed <= L6470_MAX_MAX_SPEED)
 1920              		.loc 1 560 6
 1921 000a FB88     		ldrh	r3, [r7, #6]
 1922 000c B3F5806F 		cmp	r3, #1024
 1923 0010 09D2     		bcs	.L99
 561:Drivers/BSP/Components/L6470/L6470.c ****     return (MaxSpeed * ((float)15.2588));
 1924              		.loc 1 561 22
 1925 0012 FB88     		ldrh	r3, [r7, #6]
 1926 0014 07EE903A 		vmov	s15, r3	@ int
 1927 0018 F8EEE77A 		vcvt.f32.s32	s15, s15
 1928 001c 9FED067A 		vldr.32	s14, .L101
 1929 0020 67EE877A 		vmul.f32	s15, s15, s14
 1930 0024 01E0     		b	.L100
 1931              	.L99:
 562:Drivers/BSP/Components/L6470/L6470.c ****   else
 563:Drivers/BSP/Components/L6470/L6470.c ****     return 0;   // Warning
 1932              		.loc 1 563 12
 1933 0026 DFED057A 		vldr.32	s15, .L101+4
 1934              	.L100:
 564:Drivers/BSP/Components/L6470/L6470.c **** }
 1935              		.loc 1 564 1
 1936 002a B0EE670A 		vmov.f32	s0, s15
 1937 002e 0C37     		adds	r7, r7, #12
 1938              	.LCFI74:
 1939              		.cfi_def_cfa_offset 4
 1940 0030 BD46     		mov	sp, r7
 1941              	.LCFI75:
 1942              		.cfi_def_cfa_register 13
 1943              		@ sp needed
 1944 0032 5DF8047B 		ldr	r7, [sp], #4
ARM GAS  C:\Users\ep_ygh\AppData\Local\Temp\ccsX1uNj.s 			page 46


 1945              	.LCFI76:
 1946              		.cfi_restore 7
 1947              		.cfi_def_cfa_offset 0
 1948 0036 7047     		bx	lr
 1949              	.L102:
 1950              		.align	2
 1951              	.L101:
 1952 0038 0B247441 		.word	1098130443
 1953 003c 00000000 		.word	0
 1954              		.cfi_endproc
 1955              	.LFE140:
 1957              		.section	.text.Step_s_2_MaxSpeed,"ax",%progbits
 1958              		.align	1
 1959              		.global	Step_s_2_MaxSpeed
 1960              		.syntax unified
 1961              		.thumb
 1962              		.thumb_func
 1964              	Step_s_2_MaxSpeed:
 1965              	.LFB141:
 565:Drivers/BSP/Components/L6470/L6470.c **** 
 566:Drivers/BSP/Components/L6470/L6470.c **** /**
 567:Drivers/BSP/Components/L6470/L6470.c ****   * @brief  Convert the max speed as step/s into a right value for MAX_SPEED register.
 568:Drivers/BSP/Components/L6470/L6470.c ****   * 
 569:Drivers/BSP/Components/L6470/L6470.c ****   * @param  step/s      The max speed as step/s.
 570:Drivers/BSP/Components/L6470/L6470.c ****   * @retval MaxSpeed    The MAX_SPEED register value.
 571:Drivers/BSP/Components/L6470/L6470.c ****   */
 572:Drivers/BSP/Components/L6470/L6470.c **** uint16_t Step_s_2_MaxSpeed(float Step_s)
 573:Drivers/BSP/Components/L6470/L6470.c **** {
 1966              		.loc 1 573 1
 1967              		.cfi_startproc
 1968              		@ args = 0, pretend = 0, frame = 8
 1969              		@ frame_needed = 1, uses_anonymous_args = 0
 1970              		@ link register save eliminated.
 1971 0000 80B4     		push	{r7}
 1972              	.LCFI77:
 1973              		.cfi_def_cfa_offset 4
 1974              		.cfi_offset 7, -4
 1975 0002 83B0     		sub	sp, sp, #12
 1976              	.LCFI78:
 1977              		.cfi_def_cfa_offset 16
 1978 0004 00AF     		add	r7, sp, #0
 1979              	.LCFI79:
 1980              		.cfi_def_cfa_register 7
 1981 0006 87ED010A 		vstr.32	s0, [r7, #4]
 574:Drivers/BSP/Components/L6470/L6470.c ****   if (Step_s <= (L6470_MAX_MAX_SPEED * ((float)15.2588)))
 1982              		.loc 1 574 6
 1983 000a D7ED017A 		vldr.32	s15, [r7, #4]
 1984 000e 9FED0D7A 		vldr.32	s14, .L109
 1985 0012 F4EEC77A 		vcmpe.f32	s15, s14
 1986 0016 F1EE10FA 		vmrs	APSR_nzcv, FPSCR
 1987 001a 0BD8     		bhi	.L108
 575:Drivers/BSP/Components/L6470/L6470.c ****     return (uint16_t)(Step_s / ((float)15.2588));
 1988              		.loc 1 575 30
 1989 001c 97ED017A 		vldr.32	s14, [r7, #4]
 1990 0020 DFED096A 		vldr.32	s13, .L109+4
 1991 0024 C7EE267A 		vdiv.f32	s15, s14, s13
 1992              		.loc 1 575 12
ARM GAS  C:\Users\ep_ygh\AppData\Local\Temp\ccsX1uNj.s 			page 47


 1993 0028 FCEEE77A 		vcvt.u32.f32	s15, s15
 1994 002c 17EE903A 		vmov	r3, s15	@ int
 1995 0030 9BB2     		uxth	r3, r3
 1996 0032 00E0     		b	.L106
 1997              	.L108:
 576:Drivers/BSP/Components/L6470/L6470.c ****   else
 577:Drivers/BSP/Components/L6470/L6470.c ****     return 0;   // Warning
 1998              		.loc 1 577 12
 1999 0034 0023     		movs	r3, #0
 2000              	.L106:
 578:Drivers/BSP/Components/L6470/L6470.c **** }
 2001              		.loc 1 578 1
 2002 0036 1846     		mov	r0, r3
 2003 0038 0C37     		adds	r7, r7, #12
 2004              	.LCFI80:
 2005              		.cfi_def_cfa_offset 4
 2006 003a BD46     		mov	sp, r7
 2007              	.LCFI81:
 2008              		.cfi_def_cfa_register 13
 2009              		@ sp needed
 2010 003c 5DF8047B 		ldr	r7, [sp], #4
 2011              	.LCFI82:
 2012              		.cfi_restore 7
 2013              		.cfi_def_cfa_offset 0
 2014 0040 7047     		bx	lr
 2015              	.L110:
 2016 0042 00BF     		.align	2
 2017              	.L109:
 2018 0044 02E77346 		.word	1182000898
 2019 0048 0B247441 		.word	1098130443
 2020              		.cfi_endproc
 2021              	.LFE141:
 2023              		.section	.text.MinSpeed_2_Step_s,"ax",%progbits
 2024              		.align	1
 2025              		.global	MinSpeed_2_Step_s
 2026              		.syntax unified
 2027              		.thumb
 2028              		.thumb_func
 2030              	MinSpeed_2_Step_s:
 2031              	.LFB142:
 579:Drivers/BSP/Components/L6470/L6470.c **** 
 580:Drivers/BSP/Components/L6470/L6470.c **** /**
 581:Drivers/BSP/Components/L6470/L6470.c ****   * @brief  Convert the MIN_SPEED register value into step/s.
 582:Drivers/BSP/Components/L6470/L6470.c ****   * 
 583:Drivers/BSP/Components/L6470/L6470.c ****   * @param  MinSpeed    The MIN_SPEED register value.
 584:Drivers/BSP/Components/L6470/L6470.c ****   * @retval step/s      The min speed as step/s.
 585:Drivers/BSP/Components/L6470/L6470.c ****   */
 586:Drivers/BSP/Components/L6470/L6470.c **** float MinSpeed_2_Step_s(uint16_t MinSpeed)
 587:Drivers/BSP/Components/L6470/L6470.c **** {
 2032              		.loc 1 587 1
 2033              		.cfi_startproc
 2034              		@ args = 0, pretend = 0, frame = 8
 2035              		@ frame_needed = 1, uses_anonymous_args = 0
 2036              		@ link register save eliminated.
 2037 0000 80B4     		push	{r7}
 2038              	.LCFI83:
 2039              		.cfi_def_cfa_offset 4
ARM GAS  C:\Users\ep_ygh\AppData\Local\Temp\ccsX1uNj.s 			page 48


 2040              		.cfi_offset 7, -4
 2041 0002 83B0     		sub	sp, sp, #12
 2042              	.LCFI84:
 2043              		.cfi_def_cfa_offset 16
 2044 0004 00AF     		add	r7, sp, #0
 2045              	.LCFI85:
 2046              		.cfi_def_cfa_register 7
 2047 0006 0346     		mov	r3, r0
 2048 0008 FB80     		strh	r3, [r7, #6]	@ movhi
 588:Drivers/BSP/Components/L6470/L6470.c ****   if (MinSpeed <= L6470_MAX_MIN_SPEED)
 2049              		.loc 1 588 6
 2050 000a FB88     		ldrh	r3, [r7, #6]
 2051 000c B3F5805F 		cmp	r3, #4096
 2052 0010 09D2     		bcs	.L112
 589:Drivers/BSP/Components/L6470/L6470.c ****     return (MinSpeed * ((float)238.4186e-3));
 2053              		.loc 1 589 22
 2054 0012 FB88     		ldrh	r3, [r7, #6]
 2055 0014 07EE903A 		vmov	s15, r3	@ int
 2056 0018 F8EEE77A 		vcvt.f32.s32	s15, s15
 2057 001c 9FED067A 		vldr.32	s14, .L114
 2058 0020 67EE877A 		vmul.f32	s15, s15, s14
 2059 0024 01E0     		b	.L113
 2060              	.L112:
 590:Drivers/BSP/Components/L6470/L6470.c ****   else
 591:Drivers/BSP/Components/L6470/L6470.c ****     return 0;   // Warning
 2061              		.loc 1 591 12
 2062 0026 DFED057A 		vldr.32	s15, .L114+4
 2063              	.L113:
 592:Drivers/BSP/Components/L6470/L6470.c **** }
 2064              		.loc 1 592 1
 2065 002a B0EE670A 		vmov.f32	s0, s15
 2066 002e 0C37     		adds	r7, r7, #12
 2067              	.LCFI86:
 2068              		.cfi_def_cfa_offset 4
 2069 0030 BD46     		mov	sp, r7
 2070              	.LCFI87:
 2071              		.cfi_def_cfa_register 13
 2072              		@ sp needed
 2073 0032 5DF8047B 		ldr	r7, [sp], #4
 2074              	.LCFI88:
 2075              		.cfi_restore 7
 2076              		.cfi_def_cfa_offset 0
 2077 0036 7047     		bx	lr
 2078              	.L115:
 2079              		.align	2
 2080              	.L114:
 2081 0038 0124743E 		.word	1047798785
 2082 003c 00000000 		.word	0
 2083              		.cfi_endproc
 2084              	.LFE142:
 2086              		.section	.text.Step_s_2_MinSpeed,"ax",%progbits
 2087              		.align	1
 2088              		.global	Step_s_2_MinSpeed
 2089              		.syntax unified
 2090              		.thumb
 2091              		.thumb_func
 2093              	Step_s_2_MinSpeed:
ARM GAS  C:\Users\ep_ygh\AppData\Local\Temp\ccsX1uNj.s 			page 49


 2094              	.LFB143:
 593:Drivers/BSP/Components/L6470/L6470.c **** 
 594:Drivers/BSP/Components/L6470/L6470.c **** /**
 595:Drivers/BSP/Components/L6470/L6470.c ****   * @brief  Convert the min speed as step/s into a right value for MIN_SPEED register.
 596:Drivers/BSP/Components/L6470/L6470.c ****   * 
 597:Drivers/BSP/Components/L6470/L6470.c ****   * @param  step/s      The min speed as step/s.
 598:Drivers/BSP/Components/L6470/L6470.c ****   * @retval MinSpeed    The MIN_SPEED register value.
 599:Drivers/BSP/Components/L6470/L6470.c ****   */
 600:Drivers/BSP/Components/L6470/L6470.c **** uint16_t Step_s_2_MinSpeed(float Step_s)
 601:Drivers/BSP/Components/L6470/L6470.c **** {
 2095              		.loc 1 601 1
 2096              		.cfi_startproc
 2097              		@ args = 0, pretend = 0, frame = 8
 2098              		@ frame_needed = 1, uses_anonymous_args = 0
 2099              		@ link register save eliminated.
 2100 0000 80B4     		push	{r7}
 2101              	.LCFI89:
 2102              		.cfi_def_cfa_offset 4
 2103              		.cfi_offset 7, -4
 2104 0002 83B0     		sub	sp, sp, #12
 2105              	.LCFI90:
 2106              		.cfi_def_cfa_offset 16
 2107 0004 00AF     		add	r7, sp, #0
 2108              	.LCFI91:
 2109              		.cfi_def_cfa_register 7
 2110 0006 87ED010A 		vstr.32	s0, [r7, #4]
 602:Drivers/BSP/Components/L6470/L6470.c ****   if (Step_s <= (L6470_MAX_MIN_SPEED * ((float)238.4186e-3)))
 2111              		.loc 1 602 6
 2112 000a D7ED017A 		vldr.32	s15, [r7, #4]
 2113 000e 9FED0D7A 		vldr.32	s14, .L122
 2114 0012 F4EEC77A 		vcmpe.f32	s15, s14
 2115 0016 F1EE10FA 		vmrs	APSR_nzcv, FPSCR
 2116 001a 0BD8     		bhi	.L121
 603:Drivers/BSP/Components/L6470/L6470.c ****     return (uint16_t)(Step_s / ((float)238.4186e-3));
 2117              		.loc 1 603 30
 2118 001c 97ED017A 		vldr.32	s14, [r7, #4]
 2119 0020 DFED096A 		vldr.32	s13, .L122+4
 2120 0024 C7EE267A 		vdiv.f32	s15, s14, s13
 2121              		.loc 1 603 12
 2122 0028 FCEEE77A 		vcvt.u32.f32	s15, s15
 2123 002c 17EE903A 		vmov	r3, s15	@ int
 2124 0030 9BB2     		uxth	r3, r3
 2125 0032 00E0     		b	.L119
 2126              	.L121:
 604:Drivers/BSP/Components/L6470/L6470.c ****   else
 605:Drivers/BSP/Components/L6470/L6470.c ****     return 0;   // Warning
 2127              		.loc 1 605 12
 2128 0034 0023     		movs	r3, #0
 2129              	.L119:
 606:Drivers/BSP/Components/L6470/L6470.c **** }
 2130              		.loc 1 606 1
 2131 0036 1846     		mov	r0, r3
 2132 0038 0C37     		adds	r7, r7, #12
 2133              	.LCFI92:
 2134              		.cfi_def_cfa_offset 4
 2135 003a BD46     		mov	sp, r7
 2136              	.LCFI93:
ARM GAS  C:\Users\ep_ygh\AppData\Local\Temp\ccsX1uNj.s 			page 50


 2137              		.cfi_def_cfa_register 13
 2138              		@ sp needed
 2139 003c 5DF8047B 		ldr	r7, [sp], #4
 2140              	.LCFI94:
 2141              		.cfi_restore 7
 2142              		.cfi_def_cfa_offset 0
 2143 0040 7047     		bx	lr
 2144              	.L123:
 2145 0042 00BF     		.align	2
 2146              	.L122:
 2147 0044 BF147444 		.word	1148458175
 2148 0048 0124743E 		.word	1047798785
 2149              		.cfi_endproc
 2150              	.LFE143:
 2152              		.global	__aeabi_i2d
 2153              		.global	__aeabi_dadd
 2154              		.global	__aeabi_dmul
 2155              		.global	__aeabi_d2f
 2156              		.section	.text.FsSpd_2_Step_s,"ax",%progbits
 2157              		.align	1
 2158              		.global	FsSpd_2_Step_s
 2159              		.syntax unified
 2160              		.thumb
 2161              		.thumb_func
 2163              	FsSpd_2_Step_s:
 2164              	.LFB144:
 607:Drivers/BSP/Components/L6470/L6470.c **** 
 608:Drivers/BSP/Components/L6470/L6470.c **** /**
 609:Drivers/BSP/Components/L6470/L6470.c ****   * @brief  Convert the FS_SPD register value into step/s.
 610:Drivers/BSP/Components/L6470/L6470.c ****   * 
 611:Drivers/BSP/Components/L6470/L6470.c ****   * @param  FsSpd       The FS_SPD register value.
 612:Drivers/BSP/Components/L6470/L6470.c ****   * @retval step/s      The full-step speed as step/s.
 613:Drivers/BSP/Components/L6470/L6470.c ****   */
 614:Drivers/BSP/Components/L6470/L6470.c **** float FsSpd_2_Step_s(uint16_t FsSpd)
 615:Drivers/BSP/Components/L6470/L6470.c **** {
 2165              		.loc 1 615 1
 2166              		.cfi_startproc
 2167              		@ args = 0, pretend = 0, frame = 8
 2168              		@ frame_needed = 1, uses_anonymous_args = 0
 2169 0000 80B5     		push	{r7, lr}
 2170              	.LCFI95:
 2171              		.cfi_def_cfa_offset 8
 2172              		.cfi_offset 7, -8
 2173              		.cfi_offset 14, -4
 2174 0002 82B0     		sub	sp, sp, #8
 2175              	.LCFI96:
 2176              		.cfi_def_cfa_offset 16
 2177 0004 00AF     		add	r7, sp, #0
 2178              	.LCFI97:
 2179              		.cfi_def_cfa_register 7
 2180 0006 0346     		mov	r3, r0
 2181 0008 FB80     		strh	r3, [r7, #6]	@ movhi
 616:Drivers/BSP/Components/L6470/L6470.c ****   if (FsSpd <= L6470_MAX_FS_SPD)
 2182              		.loc 1 616 6
 2183 000a FB88     		ldrh	r3, [r7, #6]
 2184 000c B3F5806F 		cmp	r3, #1024
 2185 0010 19D2     		bcs	.L125
ARM GAS  C:\Users\ep_ygh\AppData\Local\Temp\ccsX1uNj.s 			page 51


 617:Drivers/BSP/Components/L6470/L6470.c ****     return ((FsSpd+0.5) * ((float)15.25));
 2186              		.loc 1 617 19
 2187 0012 FB88     		ldrh	r3, [r7, #6]
 2188 0014 1846     		mov	r0, r3
 2189 0016 FFF7FEFF 		bl	__aeabi_i2d
 2190 001a 4FF00002 		mov	r2, #0
 2191 001e 0E4B     		ldr	r3, .L127
 2192 0020 FFF7FEFF 		bl	__aeabi_dadd
 2193 0024 0246     		mov	r2, r0
 2194 0026 0B46     		mov	r3, r1
 2195 0028 1046     		mov	r0, r2
 2196 002a 1946     		mov	r1, r3
 2197              		.loc 1 617 25
 2198 002c 4FF00002 		mov	r2, #0
 2199 0030 0A4B     		ldr	r3, .L127+4
 2200 0032 FFF7FEFF 		bl	__aeabi_dmul
 2201 0036 0246     		mov	r2, r0
 2202 0038 0B46     		mov	r3, r1
 2203 003a 1046     		mov	r0, r2
 2204 003c 1946     		mov	r1, r3
 2205 003e FFF7FEFF 		bl	__aeabi_d2f
 2206 0042 0346     		mov	r3, r0	@ float
 2207 0044 01E0     		b	.L126
 2208              	.L125:
 618:Drivers/BSP/Components/L6470/L6470.c ****   else
 619:Drivers/BSP/Components/L6470/L6470.c ****     return 0;   // Warning
 2209              		.loc 1 619 12
 2210 0046 4FF00003 		mov	r3, #0
 2211              	.L126:
 620:Drivers/BSP/Components/L6470/L6470.c **** }
 2212              		.loc 1 620 1
 2213 004a 07EE903A 		vmov	s15, r3
 2214 004e B0EE670A 		vmov.f32	s0, s15
 2215 0052 0837     		adds	r7, r7, #8
 2216              	.LCFI98:
 2217              		.cfi_def_cfa_offset 8
 2218 0054 BD46     		mov	sp, r7
 2219              	.LCFI99:
 2220              		.cfi_def_cfa_register 13
 2221              		@ sp needed
 2222 0056 80BD     		pop	{r7, pc}
 2223              	.L128:
 2224              		.align	2
 2225              	.L127:
 2226 0058 0000E03F 		.word	1071644672
 2227 005c 00802E40 		.word	1076789248
 2228              		.cfi_endproc
 2229              	.LFE144:
 2231              		.section	.text.Step_s_2_FsSpd,"ax",%progbits
 2232              		.align	1
 2233              		.global	Step_s_2_FsSpd
 2234              		.syntax unified
 2235              		.thumb
 2236              		.thumb_func
 2238              	Step_s_2_FsSpd:
 2239              	.LFB145:
 621:Drivers/BSP/Components/L6470/L6470.c **** 
ARM GAS  C:\Users\ep_ygh\AppData\Local\Temp\ccsX1uNj.s 			page 52


 622:Drivers/BSP/Components/L6470/L6470.c **** /**
 623:Drivers/BSP/Components/L6470/L6470.c ****   * @brief  Convert the full-step speed as step/s into a right value for FS_SPD register.
 624:Drivers/BSP/Components/L6470/L6470.c ****   * 
 625:Drivers/BSP/Components/L6470/L6470.c ****   * @param  step/s      The full-step speed as step/s.
 626:Drivers/BSP/Components/L6470/L6470.c ****   * @retval FsSpd       The FS_SPD register value.
 627:Drivers/BSP/Components/L6470/L6470.c ****   */
 628:Drivers/BSP/Components/L6470/L6470.c **** uint16_t Step_s_2_FsSpd(float Step_s)
 629:Drivers/BSP/Components/L6470/L6470.c **** {
 2240              		.loc 1 629 1
 2241              		.cfi_startproc
 2242              		@ args = 0, pretend = 0, frame = 8
 2243              		@ frame_needed = 1, uses_anonymous_args = 0
 2244              		@ link register save eliminated.
 2245 0000 80B4     		push	{r7}
 2246              	.LCFI100:
 2247              		.cfi_def_cfa_offset 4
 2248              		.cfi_offset 7, -4
 2249 0002 83B0     		sub	sp, sp, #12
 2250              	.LCFI101:
 2251              		.cfi_def_cfa_offset 16
 2252 0004 00AF     		add	r7, sp, #0
 2253              	.LCFI102:
 2254              		.cfi_def_cfa_register 7
 2255 0006 87ED010A 		vstr.32	s0, [r7, #4]
 630:Drivers/BSP/Components/L6470/L6470.c ****   if (Step_s <= ((L6470_MAX_FS_SPD+0.5) * ((float)15.25)))
 2256              		.loc 1 630 6
 2257 000a D7ED017A 		vldr.32	s15, [r7, #4]
 2258 000e 9FED0F7A 		vldr.32	s14, .L135
 2259 0012 F4EEC77A 		vcmpe.f32	s15, s14
 2260 0016 F1EE10FA 		vmrs	APSR_nzcv, FPSCR
 2261 001a 0FD8     		bhi	.L134
 631:Drivers/BSP/Components/L6470/L6470.c ****     return (uint16_t)((float)(Step_s / ((float)15.25)) - (float)0.5);
 2262              		.loc 1 631 23
 2263 001c 97ED017A 		vldr.32	s14, [r7, #4]
 2264 0020 DFED0B6A 		vldr.32	s13, .L135+4
 2265 0024 C7EE267A 		vdiv.f32	s15, s14, s13
 2266              		.loc 1 631 56
 2267 0028 B6EE007A 		vmov.f32	s14, #5.0e-1
 2268 002c 77EEC77A 		vsub.f32	s15, s15, s14
 2269              		.loc 1 631 12
 2270 0030 FCEEE77A 		vcvt.u32.f32	s15, s15
 2271 0034 17EE903A 		vmov	r3, s15	@ int
 2272 0038 9BB2     		uxth	r3, r3
 2273 003a 00E0     		b	.L132
 2274              	.L134:
 632:Drivers/BSP/Components/L6470/L6470.c ****   else
 633:Drivers/BSP/Components/L6470/L6470.c ****     return 0;   // Warning
 2275              		.loc 1 633 12
 2276 003c 0023     		movs	r3, #0
 2277              	.L132:
 634:Drivers/BSP/Components/L6470/L6470.c **** }
 2278              		.loc 1 634 1
 2279 003e 1846     		mov	r0, r3
 2280 0040 0C37     		adds	r7, r7, #12
 2281              	.LCFI103:
 2282              		.cfi_def_cfa_offset 4
 2283 0042 BD46     		mov	sp, r7
ARM GAS  C:\Users\ep_ygh\AppData\Local\Temp\ccsX1uNj.s 			page 53


 2284              	.LCFI104:
 2285              		.cfi_def_cfa_register 13
 2286              		@ sp needed
 2287 0044 5DF8047B 		ldr	r7, [sp], #4
 2288              	.LCFI105:
 2289              		.cfi_restore 7
 2290              		.cfi_def_cfa_offset 0
 2291 0048 7047     		bx	lr
 2292              	.L136:
 2293 004a 00BF     		.align	2
 2294              	.L135:
 2295 004c 80E17346 		.word	1181999488
 2296 0050 00007441 		.word	1098121216
 2297              		.cfi_endproc
 2298              	.LFE145:
 2300              		.section	.text.IntSpeed_2_Step_s,"ax",%progbits
 2301              		.align	1
 2302              		.global	IntSpeed_2_Step_s
 2303              		.syntax unified
 2304              		.thumb
 2305              		.thumb_func
 2307              	IntSpeed_2_Step_s:
 2308              	.LFB146:
 635:Drivers/BSP/Components/L6470/L6470.c **** 
 636:Drivers/BSP/Components/L6470/L6470.c **** /**
 637:Drivers/BSP/Components/L6470/L6470.c ****   * @brief  Convert the INT_SPEED register value into step/s.
 638:Drivers/BSP/Components/L6470/L6470.c ****   * 
 639:Drivers/BSP/Components/L6470/L6470.c ****   * @param  IntSpeed    The INT_SPEED register value.
 640:Drivers/BSP/Components/L6470/L6470.c ****   * @retval step/s      The intersect speed as step/s.
 641:Drivers/BSP/Components/L6470/L6470.c ****   */
 642:Drivers/BSP/Components/L6470/L6470.c **** float IntSpeed_2_Step_s(uint16_t IntSpeed)
 643:Drivers/BSP/Components/L6470/L6470.c **** {
 2309              		.loc 1 643 1
 2310              		.cfi_startproc
 2311              		@ args = 0, pretend = 0, frame = 8
 2312              		@ frame_needed = 1, uses_anonymous_args = 0
 2313              		@ link register save eliminated.
 2314 0000 80B4     		push	{r7}
 2315              	.LCFI106:
 2316              		.cfi_def_cfa_offset 4
 2317              		.cfi_offset 7, -4
 2318 0002 83B0     		sub	sp, sp, #12
 2319              	.LCFI107:
 2320              		.cfi_def_cfa_offset 16
 2321 0004 00AF     		add	r7, sp, #0
 2322              	.LCFI108:
 2323              		.cfi_def_cfa_register 7
 2324 0006 0346     		mov	r3, r0
 2325 0008 FB80     		strh	r3, [r7, #6]	@ movhi
 644:Drivers/BSP/Components/L6470/L6470.c ****   if (IntSpeed <= L6470_MAX_INT_SPEED)
 2326              		.loc 1 644 6
 2327 000a FB88     		ldrh	r3, [r7, #6]
 2328 000c B3F5804F 		cmp	r3, #16384
 2329 0010 09D2     		bcs	.L138
 645:Drivers/BSP/Components/L6470/L6470.c ****     return (IntSpeed * ((float)59.6046e-3));
 2330              		.loc 1 645 22
 2331 0012 FB88     		ldrh	r3, [r7, #6]
ARM GAS  C:\Users\ep_ygh\AppData\Local\Temp\ccsX1uNj.s 			page 54


 2332 0014 07EE903A 		vmov	s15, r3	@ int
 2333 0018 F8EEE77A 		vcvt.f32.s32	s15, s15
 2334 001c 9FED067A 		vldr.32	s14, .L140
 2335 0020 67EE877A 		vmul.f32	s15, s15, s14
 2336 0024 01E0     		b	.L139
 2337              	.L138:
 646:Drivers/BSP/Components/L6470/L6470.c ****   else
 647:Drivers/BSP/Components/L6470/L6470.c ****     return 0;   // Warning
 2338              		.loc 1 647 12
 2339 0026 DFED057A 		vldr.32	s15, .L140+4
 2340              	.L139:
 648:Drivers/BSP/Components/L6470/L6470.c **** }
 2341              		.loc 1 648 1
 2342 002a B0EE670A 		vmov.f32	s0, s15
 2343 002e 0C37     		adds	r7, r7, #12
 2344              	.LCFI109:
 2345              		.cfi_def_cfa_offset 4
 2346 0030 BD46     		mov	sp, r7
 2347              	.LCFI110:
 2348              		.cfi_def_cfa_register 13
 2349              		@ sp needed
 2350 0032 5DF8047B 		ldr	r7, [sp], #4
 2351              	.LCFI111:
 2352              		.cfi_restore 7
 2353              		.cfi_def_cfa_offset 0
 2354 0036 7047     		bx	lr
 2355              	.L141:
 2356              		.align	2
 2357              	.L140:
 2358 0038 F423743D 		.word	1031021556
 2359 003c 00000000 		.word	0
 2360              		.cfi_endproc
 2361              	.LFE146:
 2363              		.section	.text.Step_s_2_IntSpeed,"ax",%progbits
 2364              		.align	1
 2365              		.global	Step_s_2_IntSpeed
 2366              		.syntax unified
 2367              		.thumb
 2368              		.thumb_func
 2370              	Step_s_2_IntSpeed:
 2371              	.LFB147:
 649:Drivers/BSP/Components/L6470/L6470.c **** 
 650:Drivers/BSP/Components/L6470/L6470.c **** /**
 651:Drivers/BSP/Components/L6470/L6470.c ****   * @brief  Convert the intersect speed as step/s into a right value for INT_SPEED register.
 652:Drivers/BSP/Components/L6470/L6470.c ****   * 
 653:Drivers/BSP/Components/L6470/L6470.c ****   * @param  step/s      The full-step speed as step/s.
 654:Drivers/BSP/Components/L6470/L6470.c ****   * @retval FsSpd       The FS_SPD register value.
 655:Drivers/BSP/Components/L6470/L6470.c ****   */
 656:Drivers/BSP/Components/L6470/L6470.c **** uint16_t Step_s_2_IntSpeed(float Step_s)
 657:Drivers/BSP/Components/L6470/L6470.c **** {
 2372              		.loc 1 657 1
 2373              		.cfi_startproc
 2374              		@ args = 0, pretend = 0, frame = 8
 2375              		@ frame_needed = 1, uses_anonymous_args = 0
 2376              		@ link register save eliminated.
 2377 0000 80B4     		push	{r7}
 2378              	.LCFI112:
ARM GAS  C:\Users\ep_ygh\AppData\Local\Temp\ccsX1uNj.s 			page 55


 2379              		.cfi_def_cfa_offset 4
 2380              		.cfi_offset 7, -4
 2381 0002 83B0     		sub	sp, sp, #12
 2382              	.LCFI113:
 2383              		.cfi_def_cfa_offset 16
 2384 0004 00AF     		add	r7, sp, #0
 2385              	.LCFI114:
 2386              		.cfi_def_cfa_register 7
 2387 0006 87ED010A 		vstr.32	s0, [r7, #4]
 658:Drivers/BSP/Components/L6470/L6470.c ****   if (Step_s <= (L6470_MAX_INT_SPEED * ((float)59.6046e-3)))
 2388              		.loc 1 658 6
 2389 000a D7ED017A 		vldr.32	s15, [r7, #4]
 2390 000e 9FED0D7A 		vldr.32	s14, .L148
 2391 0012 F4EEC77A 		vcmpe.f32	s15, s14
 2392 0016 F1EE10FA 		vmrs	APSR_nzcv, FPSCR
 2393 001a 0BD8     		bhi	.L147
 659:Drivers/BSP/Components/L6470/L6470.c ****     return (uint16_t)(Step_s / ((float)59.6046e-3));
 2394              		.loc 1 659 30
 2395 001c 97ED017A 		vldr.32	s14, [r7, #4]
 2396 0020 DFED096A 		vldr.32	s13, .L148+4
 2397 0024 C7EE267A 		vdiv.f32	s15, s14, s13
 2398              		.loc 1 659 12
 2399 0028 FCEEE77A 		vcvt.u32.f32	s15, s15
 2400 002c 17EE903A 		vmov	r3, s15	@ int
 2401 0030 9BB2     		uxth	r3, r3
 2402 0032 00E0     		b	.L145
 2403              	.L147:
 660:Drivers/BSP/Components/L6470/L6470.c ****   else
 661:Drivers/BSP/Components/L6470/L6470.c ****     return 0;   // Warning
 2404              		.loc 1 661 12
 2405 0034 0023     		movs	r3, #0
 2406              	.L145:
 662:Drivers/BSP/Components/L6470/L6470.c **** }
 2407              		.loc 1 662 1
 2408 0036 1846     		mov	r0, r3
 2409 0038 0C37     		adds	r7, r7, #12
 2410              	.LCFI115:
 2411              		.cfi_def_cfa_offset 4
 2412 003a BD46     		mov	sp, r7
 2413              	.LCFI116:
 2414              		.cfi_def_cfa_register 13
 2415              		@ sp needed
 2416 003c 5DF8047B 		ldr	r7, [sp], #4
 2417              	.LCFI117:
 2418              		.cfi_restore 7
 2419              		.cfi_def_cfa_offset 0
 2420 0040 7047     		bx	lr
 2421              	.L149:
 2422 0042 00BF     		.align	2
 2423              	.L148:
 2424 0044 23207444 		.word	1148461091
 2425 0048 F423743D 		.word	1031021556
 2426              		.cfi_endproc
 2427              	.LFE147:
 2429              		.section	.text.StSlp_2_s_Step,"ax",%progbits
 2430              		.align	1
 2431              		.global	StSlp_2_s_Step
ARM GAS  C:\Users\ep_ygh\AppData\Local\Temp\ccsX1uNj.s 			page 56


 2432              		.syntax unified
 2433              		.thumb
 2434              		.thumb_func
 2436              	StSlp_2_s_Step:
 2437              	.LFB148:
 663:Drivers/BSP/Components/L6470/L6470.c **** 
 664:Drivers/BSP/Components/L6470/L6470.c **** /**
 665:Drivers/BSP/Components/L6470/L6470.c ****   * @brief  Convert the ST_SLP register value into s/step.
 666:Drivers/BSP/Components/L6470/L6470.c ****   * 
 667:Drivers/BSP/Components/L6470/L6470.c ****   * @param  StartSlope  The ST_SLP register value.
 668:Drivers/BSP/Components/L6470/L6470.c ****   * @retval s/step      The start slope as s/step.
 669:Drivers/BSP/Components/L6470/L6470.c ****   */
 670:Drivers/BSP/Components/L6470/L6470.c **** float StSlp_2_s_Step(uint8_t StSlp)
 671:Drivers/BSP/Components/L6470/L6470.c **** {
 2438              		.loc 1 671 1
 2439              		.cfi_startproc
 2440              		@ args = 0, pretend = 0, frame = 8
 2441              		@ frame_needed = 1, uses_anonymous_args = 0
 2442              		@ link register save eliminated.
 2443 0000 80B4     		push	{r7}
 2444              	.LCFI118:
 2445              		.cfi_def_cfa_offset 4
 2446              		.cfi_offset 7, -4
 2447 0002 83B0     		sub	sp, sp, #12
 2448              	.LCFI119:
 2449              		.cfi_def_cfa_offset 16
 2450 0004 00AF     		add	r7, sp, #0
 2451              	.LCFI120:
 2452              		.cfi_def_cfa_register 7
 2453 0006 0346     		mov	r3, r0
 2454 0008 FB71     		strb	r3, [r7, #7]
 672:Drivers/BSP/Components/L6470/L6470.c **** //  if (StSlp <= L6470_MAX_ST_SLP)
 673:Drivers/BSP/Components/L6470/L6470.c ****     return (StSlp * ((float)1.5686e-5));
 2455              		.loc 1 673 19
 2456 000a FB79     		ldrb	r3, [r7, #7]	@ zero_extendqisi2
 2457 000c 07EE903A 		vmov	s15, r3	@ int
 2458 0010 F8EEE77A 		vcvt.f32.s32	s15, s15
 2459 0014 9FED057A 		vldr.32	s14, .L152
 2460 0018 67EE877A 		vmul.f32	s15, s15, s14
 674:Drivers/BSP/Components/L6470/L6470.c **** //  else
 675:Drivers/BSP/Components/L6470/L6470.c **** //    return 0;   // Warning
 676:Drivers/BSP/Components/L6470/L6470.c **** }
 2461              		.loc 1 676 1
 2462 001c B0EE670A 		vmov.f32	s0, s15
 2463 0020 0C37     		adds	r7, r7, #12
 2464              	.LCFI121:
 2465              		.cfi_def_cfa_offset 4
 2466 0022 BD46     		mov	sp, r7
 2467              	.LCFI122:
 2468              		.cfi_def_cfa_register 13
 2469              		@ sp needed
 2470 0024 5DF8047B 		ldr	r7, [sp], #4
 2471              	.LCFI123:
 2472              		.cfi_restore 7
 2473              		.cfi_def_cfa_offset 0
 2474 0028 7047     		bx	lr
 2475              	.L153:
ARM GAS  C:\Users\ep_ygh\AppData\Local\Temp\ccsX1uNj.s 			page 57


 2476 002a 00BF     		.align	2
 2477              	.L152:
 2478 002c 6E958337 		.word	931370350
 2479              		.cfi_endproc
 2480              	.LFE148:
 2482              		.section	.text.s_Step_2_StSlp,"ax",%progbits
 2483              		.align	1
 2484              		.global	s_Step_2_StSlp
 2485              		.syntax unified
 2486              		.thumb
 2487              		.thumb_func
 2489              	s_Step_2_StSlp:
 2490              	.LFB149:
 677:Drivers/BSP/Components/L6470/L6470.c **** 
 678:Drivers/BSP/Components/L6470/L6470.c **** /**
 679:Drivers/BSP/Components/L6470/L6470.c ****   * @brief  Convert the intersect speed as step/s into a right value for INT_SPEED register.
 680:Drivers/BSP/Components/L6470/L6470.c ****   * 
 681:Drivers/BSP/Components/L6470/L6470.c ****   * @param  step/s      The full-step speed as step/s.
 682:Drivers/BSP/Components/L6470/L6470.c ****   * @retval FsSpd       The FS_SPD register value.
 683:Drivers/BSP/Components/L6470/L6470.c ****   */
 684:Drivers/BSP/Components/L6470/L6470.c **** uint8_t s_Step_2_StSlp(float s_Step)
 685:Drivers/BSP/Components/L6470/L6470.c **** {
 2491              		.loc 1 685 1
 2492              		.cfi_startproc
 2493              		@ args = 0, pretend = 0, frame = 8
 2494              		@ frame_needed = 1, uses_anonymous_args = 0
 2495              		@ link register save eliminated.
 2496 0000 80B4     		push	{r7}
 2497              	.LCFI124:
 2498              		.cfi_def_cfa_offset 4
 2499              		.cfi_offset 7, -4
 2500 0002 83B0     		sub	sp, sp, #12
 2501              	.LCFI125:
 2502              		.cfi_def_cfa_offset 16
 2503 0004 00AF     		add	r7, sp, #0
 2504              	.LCFI126:
 2505              		.cfi_def_cfa_register 7
 2506 0006 87ED010A 		vstr.32	s0, [r7, #4]
 686:Drivers/BSP/Components/L6470/L6470.c ****   if (s_Step <= (L6470_MAX_ST_SLP * ((float)1.5686e-5)))
 2507              		.loc 1 686 6
 2508 000a D7ED017A 		vldr.32	s15, [r7, #4]
 2509 000e 9FED0D7A 		vldr.32	s14, .L160
 2510 0012 F4EEC77A 		vcmpe.f32	s15, s14
 2511 0016 F1EE10FA 		vmrs	APSR_nzcv, FPSCR
 2512 001a 0CD8     		bhi	.L159
 687:Drivers/BSP/Components/L6470/L6470.c ****     return (uint8_t)(s_Step / ((float)1.5686e-5));
 2513              		.loc 1 687 29
 2514 001c 97ED017A 		vldr.32	s14, [r7, #4]
 2515 0020 DFED096A 		vldr.32	s13, .L160+4
 2516 0024 C7EE267A 		vdiv.f32	s15, s14, s13
 2517              		.loc 1 687 12
 2518 0028 FCEEE77A 		vcvt.u32.f32	s15, s15
 2519 002c C7ED007A 		vstr.32	s15, [r7]	@ int
 2520 0030 3B78     		ldrb	r3, [r7]
 2521 0032 DBB2     		uxtb	r3, r3
 2522 0034 00E0     		b	.L157
 2523              	.L159:
ARM GAS  C:\Users\ep_ygh\AppData\Local\Temp\ccsX1uNj.s 			page 58


 688:Drivers/BSP/Components/L6470/L6470.c ****   else
 689:Drivers/BSP/Components/L6470/L6470.c ****     return 0;   // Warning
 2524              		.loc 1 689 12
 2525 0036 0023     		movs	r3, #0
 2526              	.L157:
 690:Drivers/BSP/Components/L6470/L6470.c **** }
 2527              		.loc 1 690 1
 2528 0038 1846     		mov	r0, r3
 2529 003a 0C37     		adds	r7, r7, #12
 2530              	.LCFI127:
 2531              		.cfi_def_cfa_offset 4
 2532 003c BD46     		mov	sp, r7
 2533              	.LCFI128:
 2534              		.cfi_def_cfa_register 13
 2535              		@ sp needed
 2536 003e 5DF8047B 		ldr	r7, [sp], #4
 2537              	.LCFI129:
 2538              		.cfi_restore 7
 2539              		.cfi_def_cfa_offset 0
 2540 0042 7047     		bx	lr
 2541              	.L161:
 2542              		.align	2
 2543              	.L160:
 2544 0044 D911833B 		.word	998445529
 2545 0048 6E958337 		.word	931370350
 2546              		.cfi_endproc
 2547              	.LFE149:
 2549              		.section	.text.FnSlpAcc_2_s_Step,"ax",%progbits
 2550              		.align	1
 2551              		.global	FnSlpAcc_2_s_Step
 2552              		.syntax unified
 2553              		.thumb
 2554              		.thumb_func
 2556              	FnSlpAcc_2_s_Step:
 2557              	.LFB150:
 691:Drivers/BSP/Components/L6470/L6470.c **** 
 692:Drivers/BSP/Components/L6470/L6470.c **** /**
 693:Drivers/BSP/Components/L6470/L6470.c ****   * @brief  Convert the INT_SPEED register value into step/s.
 694:Drivers/BSP/Components/L6470/L6470.c ****   * 
 695:Drivers/BSP/Components/L6470/L6470.c ****   * @param  IntSpeed    The INT_SPEED register value.
 696:Drivers/BSP/Components/L6470/L6470.c ****   * @retval step/s      The intersect speed as step/s.
 697:Drivers/BSP/Components/L6470/L6470.c ****   */
 698:Drivers/BSP/Components/L6470/L6470.c **** float FnSlpAcc_2_s_Step(uint8_t FnSlpAcc)
 699:Drivers/BSP/Components/L6470/L6470.c **** {
 2558              		.loc 1 699 1
 2559              		.cfi_startproc
 2560              		@ args = 0, pretend = 0, frame = 8
 2561              		@ frame_needed = 1, uses_anonymous_args = 0
 2562              		@ link register save eliminated.
 2563 0000 80B4     		push	{r7}
 2564              	.LCFI130:
 2565              		.cfi_def_cfa_offset 4
 2566              		.cfi_offset 7, -4
 2567 0002 83B0     		sub	sp, sp, #12
 2568              	.LCFI131:
 2569              		.cfi_def_cfa_offset 16
 2570 0004 00AF     		add	r7, sp, #0
ARM GAS  C:\Users\ep_ygh\AppData\Local\Temp\ccsX1uNj.s 			page 59


 2571              	.LCFI132:
 2572              		.cfi_def_cfa_register 7
 2573 0006 0346     		mov	r3, r0
 2574 0008 FB71     		strb	r3, [r7, #7]
 700:Drivers/BSP/Components/L6470/L6470.c **** //  if (FnSlpAcc <= L6470_MAX_FN_SLP_ACC)
 701:Drivers/BSP/Components/L6470/L6470.c ****     return (FnSlpAcc * ((float)1.5686e-5));
 2575              		.loc 1 701 22
 2576 000a FB79     		ldrb	r3, [r7, #7]	@ zero_extendqisi2
 2577 000c 07EE903A 		vmov	s15, r3	@ int
 2578 0010 F8EEE77A 		vcvt.f32.s32	s15, s15
 2579 0014 9FED057A 		vldr.32	s14, .L164
 2580 0018 67EE877A 		vmul.f32	s15, s15, s14
 702:Drivers/BSP/Components/L6470/L6470.c **** //  else
 703:Drivers/BSP/Components/L6470/L6470.c **** //    return 0;   // Warning
 704:Drivers/BSP/Components/L6470/L6470.c **** }
 2581              		.loc 1 704 1
 2582 001c B0EE670A 		vmov.f32	s0, s15
 2583 0020 0C37     		adds	r7, r7, #12
 2584              	.LCFI133:
 2585              		.cfi_def_cfa_offset 4
 2586 0022 BD46     		mov	sp, r7
 2587              	.LCFI134:
 2588              		.cfi_def_cfa_register 13
 2589              		@ sp needed
 2590 0024 5DF8047B 		ldr	r7, [sp], #4
 2591              	.LCFI135:
 2592              		.cfi_restore 7
 2593              		.cfi_def_cfa_offset 0
 2594 0028 7047     		bx	lr
 2595              	.L165:
 2596 002a 00BF     		.align	2
 2597              	.L164:
 2598 002c 6E958337 		.word	931370350
 2599              		.cfi_endproc
 2600              	.LFE150:
 2602              		.section	.text.s_Step_2_FnSlpAcc,"ax",%progbits
 2603              		.align	1
 2604              		.global	s_Step_2_FnSlpAcc
 2605              		.syntax unified
 2606              		.thumb
 2607              		.thumb_func
 2609              	s_Step_2_FnSlpAcc:
 2610              	.LFB151:
 705:Drivers/BSP/Components/L6470/L6470.c **** 
 706:Drivers/BSP/Components/L6470/L6470.c **** /**
 707:Drivers/BSP/Components/L6470/L6470.c ****   * @brief  Convert the intersect speed as step/s into a right value for INT_SPEED register.
 708:Drivers/BSP/Components/L6470/L6470.c ****   * 
 709:Drivers/BSP/Components/L6470/L6470.c ****   * @param  step/s      The full-step speed as step/s.
 710:Drivers/BSP/Components/L6470/L6470.c ****   * @retval FsSpd       The FS_SPD register value.
 711:Drivers/BSP/Components/L6470/L6470.c ****   */
 712:Drivers/BSP/Components/L6470/L6470.c **** uint8_t s_Step_2_FnSlpAcc(float s_Step)
 713:Drivers/BSP/Components/L6470/L6470.c **** {
 2611              		.loc 1 713 1
 2612              		.cfi_startproc
 2613              		@ args = 0, pretend = 0, frame = 8
 2614              		@ frame_needed = 1, uses_anonymous_args = 0
 2615              		@ link register save eliminated.
ARM GAS  C:\Users\ep_ygh\AppData\Local\Temp\ccsX1uNj.s 			page 60


 2616 0000 80B4     		push	{r7}
 2617              	.LCFI136:
 2618              		.cfi_def_cfa_offset 4
 2619              		.cfi_offset 7, -4
 2620 0002 83B0     		sub	sp, sp, #12
 2621              	.LCFI137:
 2622              		.cfi_def_cfa_offset 16
 2623 0004 00AF     		add	r7, sp, #0
 2624              	.LCFI138:
 2625              		.cfi_def_cfa_register 7
 2626 0006 87ED010A 		vstr.32	s0, [r7, #4]
 714:Drivers/BSP/Components/L6470/L6470.c ****   if (s_Step <= (L6470_MAX_FN_SLP_ACC * ((float)1.5686e-5)))
 2627              		.loc 1 714 6
 2628 000a D7ED017A 		vldr.32	s15, [r7, #4]
 2629 000e 9FED0D7A 		vldr.32	s14, .L172
 2630 0012 F4EEC77A 		vcmpe.f32	s15, s14
 2631 0016 F1EE10FA 		vmrs	APSR_nzcv, FPSCR
 2632 001a 0CD8     		bhi	.L171
 715:Drivers/BSP/Components/L6470/L6470.c ****     return (uint8_t)(s_Step / ((float)1.5686e-5));
 2633              		.loc 1 715 29
 2634 001c 97ED017A 		vldr.32	s14, [r7, #4]
 2635 0020 DFED096A 		vldr.32	s13, .L172+4
 2636 0024 C7EE267A 		vdiv.f32	s15, s14, s13
 2637              		.loc 1 715 12
 2638 0028 FCEEE77A 		vcvt.u32.f32	s15, s15
 2639 002c C7ED007A 		vstr.32	s15, [r7]	@ int
 2640 0030 3B78     		ldrb	r3, [r7]
 2641 0032 DBB2     		uxtb	r3, r3
 2642 0034 00E0     		b	.L169
 2643              	.L171:
 716:Drivers/BSP/Components/L6470/L6470.c ****   else
 717:Drivers/BSP/Components/L6470/L6470.c ****     return 0;   // Warning
 2644              		.loc 1 717 12
 2645 0036 0023     		movs	r3, #0
 2646              	.L169:
 718:Drivers/BSP/Components/L6470/L6470.c **** }
 2647              		.loc 1 718 1
 2648 0038 1846     		mov	r0, r3
 2649 003a 0C37     		adds	r7, r7, #12
 2650              	.LCFI139:
 2651              		.cfi_def_cfa_offset 4
 2652 003c BD46     		mov	sp, r7
 2653              	.LCFI140:
 2654              		.cfi_def_cfa_register 13
 2655              		@ sp needed
 2656 003e 5DF8047B 		ldr	r7, [sp], #4
 2657              	.LCFI141:
 2658              		.cfi_restore 7
 2659              		.cfi_def_cfa_offset 0
 2660 0042 7047     		bx	lr
 2661              	.L173:
 2662              		.align	2
 2663              	.L172:
 2664 0044 D911833B 		.word	998445529
 2665 0048 6E958337 		.word	931370350
 2666              		.cfi_endproc
 2667              	.LFE151:
ARM GAS  C:\Users\ep_ygh\AppData\Local\Temp\ccsX1uNj.s 			page 61


 2669              		.section	.text.FnSlpDec_2_s_Step,"ax",%progbits
 2670              		.align	1
 2671              		.global	FnSlpDec_2_s_Step
 2672              		.syntax unified
 2673              		.thumb
 2674              		.thumb_func
 2676              	FnSlpDec_2_s_Step:
 2677              	.LFB152:
 719:Drivers/BSP/Components/L6470/L6470.c **** 
 720:Drivers/BSP/Components/L6470/L6470.c **** /**
 721:Drivers/BSP/Components/L6470/L6470.c ****   * @brief  Convert the INT_SPEED register value into step/s.
 722:Drivers/BSP/Components/L6470/L6470.c ****   * 
 723:Drivers/BSP/Components/L6470/L6470.c ****   * @param  IntSpeed    The INT_SPEED register value.
 724:Drivers/BSP/Components/L6470/L6470.c ****   * @retval step/s      The intersect speed as step/s.
 725:Drivers/BSP/Components/L6470/L6470.c ****   */
 726:Drivers/BSP/Components/L6470/L6470.c **** float FnSlpDec_2_s_Step(uint8_t FnSlpDec)
 727:Drivers/BSP/Components/L6470/L6470.c **** {
 2678              		.loc 1 727 1
 2679              		.cfi_startproc
 2680              		@ args = 0, pretend = 0, frame = 8
 2681              		@ frame_needed = 1, uses_anonymous_args = 0
 2682              		@ link register save eliminated.
 2683 0000 80B4     		push	{r7}
 2684              	.LCFI142:
 2685              		.cfi_def_cfa_offset 4
 2686              		.cfi_offset 7, -4
 2687 0002 83B0     		sub	sp, sp, #12
 2688              	.LCFI143:
 2689              		.cfi_def_cfa_offset 16
 2690 0004 00AF     		add	r7, sp, #0
 2691              	.LCFI144:
 2692              		.cfi_def_cfa_register 7
 2693 0006 0346     		mov	r3, r0
 2694 0008 FB71     		strb	r3, [r7, #7]
 728:Drivers/BSP/Components/L6470/L6470.c **** //  if (FnSlpDec <= L6470_MAX_FN_SLP_DEC)
 729:Drivers/BSP/Components/L6470/L6470.c ****     return (FnSlpDec * ((float)1.5686e-5));
 2695              		.loc 1 729 22
 2696 000a FB79     		ldrb	r3, [r7, #7]	@ zero_extendqisi2
 2697 000c 07EE903A 		vmov	s15, r3	@ int
 2698 0010 F8EEE77A 		vcvt.f32.s32	s15, s15
 2699 0014 9FED057A 		vldr.32	s14, .L176
 2700 0018 67EE877A 		vmul.f32	s15, s15, s14
 730:Drivers/BSP/Components/L6470/L6470.c **** //  else
 731:Drivers/BSP/Components/L6470/L6470.c **** //    return 0;   // Warning
 732:Drivers/BSP/Components/L6470/L6470.c **** }
 2701              		.loc 1 732 1
 2702 001c B0EE670A 		vmov.f32	s0, s15
 2703 0020 0C37     		adds	r7, r7, #12
 2704              	.LCFI145:
 2705              		.cfi_def_cfa_offset 4
 2706 0022 BD46     		mov	sp, r7
 2707              	.LCFI146:
 2708              		.cfi_def_cfa_register 13
 2709              		@ sp needed
 2710 0024 5DF8047B 		ldr	r7, [sp], #4
 2711              	.LCFI147:
 2712              		.cfi_restore 7
ARM GAS  C:\Users\ep_ygh\AppData\Local\Temp\ccsX1uNj.s 			page 62


 2713              		.cfi_def_cfa_offset 0
 2714 0028 7047     		bx	lr
 2715              	.L177:
 2716 002a 00BF     		.align	2
 2717              	.L176:
 2718 002c 6E958337 		.word	931370350
 2719              		.cfi_endproc
 2720              	.LFE152:
 2722              		.section	.text.s_Step_2_FnSlpDec,"ax",%progbits
 2723              		.align	1
 2724              		.global	s_Step_2_FnSlpDec
 2725              		.syntax unified
 2726              		.thumb
 2727              		.thumb_func
 2729              	s_Step_2_FnSlpDec:
 2730              	.LFB153:
 733:Drivers/BSP/Components/L6470/L6470.c **** 
 734:Drivers/BSP/Components/L6470/L6470.c **** /**
 735:Drivers/BSP/Components/L6470/L6470.c ****   * @brief  Convert the intersect speed as step/s into a right value for INT_SPEED register.
 736:Drivers/BSP/Components/L6470/L6470.c ****   * 
 737:Drivers/BSP/Components/L6470/L6470.c ****   * @param  step/s      The full-step speed as step/s.
 738:Drivers/BSP/Components/L6470/L6470.c ****   * @retval FsSpd       The FS_SPD register value.
 739:Drivers/BSP/Components/L6470/L6470.c ****   */
 740:Drivers/BSP/Components/L6470/L6470.c **** uint8_t s_Step_2_FnSlpDec(float s_Step)
 741:Drivers/BSP/Components/L6470/L6470.c **** {
 2731              		.loc 1 741 1
 2732              		.cfi_startproc
 2733              		@ args = 0, pretend = 0, frame = 8
 2734              		@ frame_needed = 1, uses_anonymous_args = 0
 2735              		@ link register save eliminated.
 2736 0000 80B4     		push	{r7}
 2737              	.LCFI148:
 2738              		.cfi_def_cfa_offset 4
 2739              		.cfi_offset 7, -4
 2740 0002 83B0     		sub	sp, sp, #12
 2741              	.LCFI149:
 2742              		.cfi_def_cfa_offset 16
 2743 0004 00AF     		add	r7, sp, #0
 2744              	.LCFI150:
 2745              		.cfi_def_cfa_register 7
 2746 0006 87ED010A 		vstr.32	s0, [r7, #4]
 742:Drivers/BSP/Components/L6470/L6470.c ****   if (s_Step <= (L6470_MAX_FN_SLP_DEC * ((float)1.5686e-5)))
 2747              		.loc 1 742 6
 2748 000a D7ED017A 		vldr.32	s15, [r7, #4]
 2749 000e 9FED0D7A 		vldr.32	s14, .L184
 2750 0012 F4EEC77A 		vcmpe.f32	s15, s14
 2751 0016 F1EE10FA 		vmrs	APSR_nzcv, FPSCR
 2752 001a 0CD8     		bhi	.L183
 743:Drivers/BSP/Components/L6470/L6470.c ****     return (uint8_t)(s_Step / ((float)1.5686e-5));
 2753              		.loc 1 743 29
 2754 001c 97ED017A 		vldr.32	s14, [r7, #4]
 2755 0020 DFED096A 		vldr.32	s13, .L184+4
 2756 0024 C7EE267A 		vdiv.f32	s15, s14, s13
 2757              		.loc 1 743 12
 2758 0028 FCEEE77A 		vcvt.u32.f32	s15, s15
 2759 002c C7ED007A 		vstr.32	s15, [r7]	@ int
 2760 0030 3B78     		ldrb	r3, [r7]
ARM GAS  C:\Users\ep_ygh\AppData\Local\Temp\ccsX1uNj.s 			page 63


 2761 0032 DBB2     		uxtb	r3, r3
 2762 0034 00E0     		b	.L181
 2763              	.L183:
 744:Drivers/BSP/Components/L6470/L6470.c ****   else
 745:Drivers/BSP/Components/L6470/L6470.c ****     return 0;   // Warning
 2764              		.loc 1 745 12
 2765 0036 0023     		movs	r3, #0
 2766              	.L181:
 746:Drivers/BSP/Components/L6470/L6470.c **** }
 2767              		.loc 1 746 1
 2768 0038 1846     		mov	r0, r3
 2769 003a 0C37     		adds	r7, r7, #12
 2770              	.LCFI151:
 2771              		.cfi_def_cfa_offset 4
 2772 003c BD46     		mov	sp, r7
 2773              	.LCFI152:
 2774              		.cfi_def_cfa_register 13
 2775              		@ sp needed
 2776 003e 5DF8047B 		ldr	r7, [sp], #4
 2777              	.LCFI153:
 2778              		.cfi_restore 7
 2779              		.cfi_def_cfa_offset 0
 2780 0042 7047     		bx	lr
 2781              	.L185:
 2782              		.align	2
 2783              	.L184:
 2784 0044 D911833B 		.word	998445529
 2785 0048 6E958337 		.word	931370350
 2786              		.cfi_endproc
 2787              	.LFE153:
 2789              		.section	.text.OcdTh_2_mA,"ax",%progbits
 2790              		.align	1
 2791              		.global	OcdTh_2_mA
 2792              		.syntax unified
 2793              		.thumb
 2794              		.thumb_func
 2796              	OcdTh_2_mA:
 2797              	.LFB154:
 747:Drivers/BSP/Components/L6470/L6470.c **** 
 748:Drivers/BSP/Components/L6470/L6470.c **** /**
 749:Drivers/BSP/Components/L6470/L6470.c ****   * @brief  Convert the OCD_TH register value into mA.
 750:Drivers/BSP/Components/L6470/L6470.c ****   * 
 751:Drivers/BSP/Components/L6470/L6470.c ****   * @param  OcdTh       The OCD_TH register value.
 752:Drivers/BSP/Components/L6470/L6470.c ****   * @retval mA          The overcurrent threshold as mA.
 753:Drivers/BSP/Components/L6470/L6470.c ****   */
 754:Drivers/BSP/Components/L6470/L6470.c **** float OcdTh_2_mA(uint8_t OcdTh)
 755:Drivers/BSP/Components/L6470/L6470.c **** {
 2798              		.loc 1 755 1
 2799              		.cfi_startproc
 2800              		@ args = 0, pretend = 0, frame = 8
 2801              		@ frame_needed = 1, uses_anonymous_args = 0
 2802              		@ link register save eliminated.
 2803 0000 80B4     		push	{r7}
 2804              	.LCFI154:
 2805              		.cfi_def_cfa_offset 4
 2806              		.cfi_offset 7, -4
 2807 0002 83B0     		sub	sp, sp, #12
ARM GAS  C:\Users\ep_ygh\AppData\Local\Temp\ccsX1uNj.s 			page 64


 2808              	.LCFI155:
 2809              		.cfi_def_cfa_offset 16
 2810 0004 00AF     		add	r7, sp, #0
 2811              	.LCFI156:
 2812              		.cfi_def_cfa_register 7
 2813 0006 0346     		mov	r3, r0
 2814 0008 FB71     		strb	r3, [r7, #7]
 756:Drivers/BSP/Components/L6470/L6470.c ****   if (OcdTh <= L6470_MAX_OCD_TH)
 2815              		.loc 1 756 6
 2816 000a FB79     		ldrb	r3, [r7, #7]	@ zero_extendqisi2
 2817 000c 0F2B     		cmp	r3, #15
 2818 000e 0AD8     		bhi	.L187
 757:Drivers/BSP/Components/L6470/L6470.c ****     return ((OcdTh+1) * ((float)375));
 2819              		.loc 1 757 19
 2820 0010 FB79     		ldrb	r3, [r7, #7]	@ zero_extendqisi2
 2821 0012 0133     		adds	r3, r3, #1
 2822              		.loc 1 757 23
 2823 0014 07EE903A 		vmov	s15, r3	@ int
 2824 0018 F8EEE77A 		vcvt.f32.s32	s15, s15
 2825 001c 9FED067A 		vldr.32	s14, .L189
 2826 0020 67EE877A 		vmul.f32	s15, s15, s14
 2827 0024 01E0     		b	.L188
 2828              	.L187:
 758:Drivers/BSP/Components/L6470/L6470.c ****   else
 759:Drivers/BSP/Components/L6470/L6470.c ****     return 0;   // Warning
 2829              		.loc 1 759 12
 2830 0026 DFED057A 		vldr.32	s15, .L189+4
 2831              	.L188:
 760:Drivers/BSP/Components/L6470/L6470.c **** }
 2832              		.loc 1 760 1
 2833 002a B0EE670A 		vmov.f32	s0, s15
 2834 002e 0C37     		adds	r7, r7, #12
 2835              	.LCFI157:
 2836              		.cfi_def_cfa_offset 4
 2837 0030 BD46     		mov	sp, r7
 2838              	.LCFI158:
 2839              		.cfi_def_cfa_register 13
 2840              		@ sp needed
 2841 0032 5DF8047B 		ldr	r7, [sp], #4
 2842              	.LCFI159:
 2843              		.cfi_restore 7
 2844              		.cfi_def_cfa_offset 0
 2845 0036 7047     		bx	lr
 2846              	.L190:
 2847              		.align	2
 2848              	.L189:
 2849 0038 0080BB43 		.word	1136361472
 2850 003c 00000000 		.word	0
 2851              		.cfi_endproc
 2852              	.LFE154:
 2854              		.section	.text.mA_2_OcdTh,"ax",%progbits
 2855              		.align	1
 2856              		.global	mA_2_OcdTh
 2857              		.syntax unified
 2858              		.thumb
 2859              		.thumb_func
 2861              	mA_2_OcdTh:
ARM GAS  C:\Users\ep_ygh\AppData\Local\Temp\ccsX1uNj.s 			page 65


 2862              	.LFB155:
 761:Drivers/BSP/Components/L6470/L6470.c **** 
 762:Drivers/BSP/Components/L6470/L6470.c **** /**
 763:Drivers/BSP/Components/L6470/L6470.c ****   * @brief  Convert the overcurrent threshold as mA into a right value for OCD_TH register.
 764:Drivers/BSP/Components/L6470/L6470.c ****   * 
 765:Drivers/BSP/Components/L6470/L6470.c ****   * @param  mA          The overcurrent threshold as mA.
 766:Drivers/BSP/Components/L6470/L6470.c ****   * @retval OcdTh       The OCD_TH register value.
 767:Drivers/BSP/Components/L6470/L6470.c ****   */
 768:Drivers/BSP/Components/L6470/L6470.c **** uint8_t mA_2_OcdTh(float mA)
 769:Drivers/BSP/Components/L6470/L6470.c **** {
 2863              		.loc 1 769 1
 2864              		.cfi_startproc
 2865              		@ args = 0, pretend = 0, frame = 16
 2866              		@ frame_needed = 1, uses_anonymous_args = 0
 2867              		@ link register save eliminated.
 2868 0000 80B4     		push	{r7}
 2869              	.LCFI160:
 2870              		.cfi_def_cfa_offset 4
 2871              		.cfi_offset 7, -4
 2872 0002 85B0     		sub	sp, sp, #20
 2873              	.LCFI161:
 2874              		.cfi_def_cfa_offset 24
 2875 0004 00AF     		add	r7, sp, #0
 2876              	.LCFI162:
 2877              		.cfi_def_cfa_register 7
 2878 0006 87ED010A 		vstr.32	s0, [r7, #4]
 770:Drivers/BSP/Components/L6470/L6470.c ****   float result, decimal;
 771:Drivers/BSP/Components/L6470/L6470.c ****   
 772:Drivers/BSP/Components/L6470/L6470.c ****   if (mA <= ((L6470_MAX_OCD_TH+1) * ((float)375)))
 2879              		.loc 1 772 6
 2880 000a D7ED017A 		vldr.32	s15, [r7, #4]
 2881 000e 9FED227A 		vldr.32	s14, .L201
 2882 0012 F4EEC77A 		vcmpe.f32	s15, s14
 2883 0016 F1EE10FA 		vmrs	APSR_nzcv, FPSCR
 2884 001a 36D8     		bhi	.L199
 773:Drivers/BSP/Components/L6470/L6470.c ****   {
 774:Drivers/BSP/Components/L6470/L6470.c ****     result = (mA / ((float)375));
 2885              		.loc 1 774 12
 2886 001c 97ED017A 		vldr.32	s14, [r7, #4]
 2887 0020 DFED1E6A 		vldr.32	s13, .L201+4
 2888 0024 C7EE267A 		vdiv.f32	s15, s14, s13
 2889 0028 C7ED037A 		vstr.32	s15, [r7, #12]
 775:Drivers/BSP/Components/L6470/L6470.c ****     decimal = result - (uint8_t)result;
 2890              		.loc 1 775 24
 2891 002c D7ED037A 		vldr.32	s15, [r7, #12]
 2892 0030 FCEEE77A 		vcvt.u32.f32	s15, s15
 2893 0034 C7ED007A 		vstr.32	s15, [r7]	@ int
 2894 0038 3B78     		ldrb	r3, [r7]
 2895 003a DBB2     		uxtb	r3, r3
 2896 003c 07EE903A 		vmov	s15, r3	@ int
 2897              		.loc 1 775 22
 2898 0040 F8EEE77A 		vcvt.f32.s32	s15, s15
 2899              		.loc 1 775 13
 2900 0044 97ED037A 		vldr.32	s14, [r7, #12]
 2901 0048 77EE677A 		vsub.f32	s15, s14, s15
 2902 004c C7ED027A 		vstr.32	s15, [r7, #8]
 776:Drivers/BSP/Components/L6470/L6470.c ****     
ARM GAS  C:\Users\ep_ygh\AppData\Local\Temp\ccsX1uNj.s 			page 66


 777:Drivers/BSP/Components/L6470/L6470.c ****     if (decimal < (float)0.5)
 2903              		.loc 1 777 8
 2904 0050 D7ED027A 		vldr.32	s15, [r7, #8]
 2905 0054 B6EE007A 		vmov.f32	s14, #5.0e-1
 2906 0058 F4EEC77A 		vcmpe.f32	s15, s14
 2907 005c F1EE10FA 		vmrs	APSR_nzcv, FPSCR
 2908 0060 0AD5     		bpl	.L200
 778:Drivers/BSP/Components/L6470/L6470.c ****       return ((uint8_t)result - 1);
 2909              		.loc 1 778 15
 2910 0062 D7ED037A 		vldr.32	s15, [r7, #12]
 2911 0066 FCEEE77A 		vcvt.u32.f32	s15, s15
 2912 006a C7ED007A 		vstr.32	s15, [r7]	@ int
 2913 006e 3B78     		ldrb	r3, [r7]
 2914 0070 DBB2     		uxtb	r3, r3
 2915              		.loc 1 778 31
 2916 0072 013B     		subs	r3, r3, #1
 2917 0074 DBB2     		uxtb	r3, r3
 2918 0076 09E0     		b	.L196
 2919              	.L200:
 779:Drivers/BSP/Components/L6470/L6470.c ****     else
 780:Drivers/BSP/Components/L6470/L6470.c ****       return ((uint8_t)result);    
 2920              		.loc 1 780 15
 2921 0078 D7ED037A 		vldr.32	s15, [r7, #12]
 2922 007c FCEEE77A 		vcvt.u32.f32	s15, s15
 2923 0080 C7ED007A 		vstr.32	s15, [r7]	@ int
 2924 0084 3B78     		ldrb	r3, [r7]
 2925 0086 DBB2     		uxtb	r3, r3
 2926 0088 00E0     		b	.L196
 2927              	.L199:
 781:Drivers/BSP/Components/L6470/L6470.c ****   }
 782:Drivers/BSP/Components/L6470/L6470.c ****   else
 783:Drivers/BSP/Components/L6470/L6470.c ****     return 0;   // Warning
 2928              		.loc 1 783 12
 2929 008a 0023     		movs	r3, #0
 2930              	.L196:
 784:Drivers/BSP/Components/L6470/L6470.c **** }
 2931              		.loc 1 784 1
 2932 008c 1846     		mov	r0, r3
 2933 008e 1437     		adds	r7, r7, #20
 2934              	.LCFI163:
 2935              		.cfi_def_cfa_offset 4
 2936 0090 BD46     		mov	sp, r7
 2937              	.LCFI164:
 2938              		.cfi_def_cfa_register 13
 2939              		@ sp needed
 2940 0092 5DF8047B 		ldr	r7, [sp], #4
 2941              	.LCFI165:
 2942              		.cfi_restore 7
 2943              		.cfi_def_cfa_offset 0
 2944 0096 7047     		bx	lr
 2945              	.L202:
 2946              		.align	2
 2947              	.L201:
 2948 0098 0080BB45 		.word	1169915904
 2949 009c 0080BB43 		.word	1136361472
 2950              		.cfi_endproc
 2951              	.LFE155:
ARM GAS  C:\Users\ep_ygh\AppData\Local\Temp\ccsX1uNj.s 			page 67


 2953              		.section	.text.StallTh_2_mA,"ax",%progbits
 2954              		.align	1
 2955              		.global	StallTh_2_mA
 2956              		.syntax unified
 2957              		.thumb
 2958              		.thumb_func
 2960              	StallTh_2_mA:
 2961              	.LFB156:
 785:Drivers/BSP/Components/L6470/L6470.c **** 
 786:Drivers/BSP/Components/L6470/L6470.c **** /**
 787:Drivers/BSP/Components/L6470/L6470.c ****   * @brief  Convert the STALL_TH register value into mA.
 788:Drivers/BSP/Components/L6470/L6470.c ****   * 
 789:Drivers/BSP/Components/L6470/L6470.c ****   * @param  StallTh     The STALL_TH register value.
 790:Drivers/BSP/Components/L6470/L6470.c ****   * @retval mA          The stall detection threshold as mA.
 791:Drivers/BSP/Components/L6470/L6470.c ****   */
 792:Drivers/BSP/Components/L6470/L6470.c **** float StallTh_2_mA(uint8_t StallTh)
 793:Drivers/BSP/Components/L6470/L6470.c **** {
 2962              		.loc 1 793 1
 2963              		.cfi_startproc
 2964              		@ args = 0, pretend = 0, frame = 8
 2965              		@ frame_needed = 1, uses_anonymous_args = 0
 2966              		@ link register save eliminated.
 2967 0000 80B4     		push	{r7}
 2968              	.LCFI166:
 2969              		.cfi_def_cfa_offset 4
 2970              		.cfi_offset 7, -4
 2971 0002 83B0     		sub	sp, sp, #12
 2972              	.LCFI167:
 2973              		.cfi_def_cfa_offset 16
 2974 0004 00AF     		add	r7, sp, #0
 2975              	.LCFI168:
 2976              		.cfi_def_cfa_register 7
 2977 0006 0346     		mov	r3, r0
 2978 0008 FB71     		strb	r3, [r7, #7]
 794:Drivers/BSP/Components/L6470/L6470.c ****   if (StallTh <= L6470_MAX_STALL_TH)
 2979              		.loc 1 794 15
 2980 000a 97F90730 		ldrsb	r3, [r7, #7]
 2981              		.loc 1 794 6
 2982 000e 002B     		cmp	r3, #0
 2983 0010 0ADB     		blt	.L204
 795:Drivers/BSP/Components/L6470/L6470.c ****     return ((StallTh+1) * ((float)31.25));
 2984              		.loc 1 795 21
 2985 0012 FB79     		ldrb	r3, [r7, #7]	@ zero_extendqisi2
 2986 0014 0133     		adds	r3, r3, #1
 2987              		.loc 1 795 25
 2988 0016 07EE903A 		vmov	s15, r3	@ int
 2989 001a F8EEE77A 		vcvt.f32.s32	s15, s15
 2990 001e 9FED077A 		vldr.32	s14, .L206
 2991 0022 67EE877A 		vmul.f32	s15, s15, s14
 2992 0026 01E0     		b	.L205
 2993              	.L204:
 796:Drivers/BSP/Components/L6470/L6470.c ****   else
 797:Drivers/BSP/Components/L6470/L6470.c ****     return 0;   // Warning
 2994              		.loc 1 797 12
 2995 0028 DFED057A 		vldr.32	s15, .L206+4
 2996              	.L205:
 798:Drivers/BSP/Components/L6470/L6470.c **** }
ARM GAS  C:\Users\ep_ygh\AppData\Local\Temp\ccsX1uNj.s 			page 68


 2997              		.loc 1 798 1
 2998 002c B0EE670A 		vmov.f32	s0, s15
 2999 0030 0C37     		adds	r7, r7, #12
 3000              	.LCFI169:
 3001              		.cfi_def_cfa_offset 4
 3002 0032 BD46     		mov	sp, r7
 3003              	.LCFI170:
 3004              		.cfi_def_cfa_register 13
 3005              		@ sp needed
 3006 0034 5DF8047B 		ldr	r7, [sp], #4
 3007              	.LCFI171:
 3008              		.cfi_restore 7
 3009              		.cfi_def_cfa_offset 0
 3010 0038 7047     		bx	lr
 3011              	.L207:
 3012 003a 00BF     		.align	2
 3013              	.L206:
 3014 003c 0000FA41 		.word	1106903040
 3015 0040 00000000 		.word	0
 3016              		.cfi_endproc
 3017              	.LFE156:
 3019              		.section	.text.mA_2_StallTh,"ax",%progbits
 3020              		.align	1
 3021              		.global	mA_2_StallTh
 3022              		.syntax unified
 3023              		.thumb
 3024              		.thumb_func
 3026              	mA_2_StallTh:
 3027              	.LFB157:
 799:Drivers/BSP/Components/L6470/L6470.c **** 
 800:Drivers/BSP/Components/L6470/L6470.c **** /**
 801:Drivers/BSP/Components/L6470/L6470.c ****   * @brief  Convert the stall detection threshold as mA into a right value for STALL_TH register.
 802:Drivers/BSP/Components/L6470/L6470.c ****   * 
 803:Drivers/BSP/Components/L6470/L6470.c ****   * @param  mA          The stall detection threshold as mA.
 804:Drivers/BSP/Components/L6470/L6470.c ****   * @retval StallTh     The STALL_TH register value.
 805:Drivers/BSP/Components/L6470/L6470.c ****   */
 806:Drivers/BSP/Components/L6470/L6470.c **** uint8_t mA_2_StallTh(float mA)
 807:Drivers/BSP/Components/L6470/L6470.c **** {
 3028              		.loc 1 807 1
 3029              		.cfi_startproc
 3030              		@ args = 0, pretend = 0, frame = 16
 3031              		@ frame_needed = 1, uses_anonymous_args = 0
 3032              		@ link register save eliminated.
 3033 0000 80B4     		push	{r7}
 3034              	.LCFI172:
 3035              		.cfi_def_cfa_offset 4
 3036              		.cfi_offset 7, -4
 3037 0002 85B0     		sub	sp, sp, #20
 3038              	.LCFI173:
 3039              		.cfi_def_cfa_offset 24
 3040 0004 00AF     		add	r7, sp, #0
 3041              	.LCFI174:
 3042              		.cfi_def_cfa_register 7
 3043 0006 87ED010A 		vstr.32	s0, [r7, #4]
 808:Drivers/BSP/Components/L6470/L6470.c ****   float result, decimal;
 809:Drivers/BSP/Components/L6470/L6470.c ****   
 810:Drivers/BSP/Components/L6470/L6470.c ****   if (mA <= ((L6470_MAX_STALL_TH+1) * ((float)31.25)))
ARM GAS  C:\Users\ep_ygh\AppData\Local\Temp\ccsX1uNj.s 			page 69


 3044              		.loc 1 810 6
 3045 000a D7ED017A 		vldr.32	s15, [r7, #4]
 3046 000e 9FED227A 		vldr.32	s14, .L218
 3047 0012 F4EEC77A 		vcmpe.f32	s15, s14
 3048 0016 F1EE10FA 		vmrs	APSR_nzcv, FPSCR
 3049 001a 36D8     		bhi	.L216
 811:Drivers/BSP/Components/L6470/L6470.c ****   {
 812:Drivers/BSP/Components/L6470/L6470.c ****     result = (mA / ((float)31.25));
 3050              		.loc 1 812 12
 3051 001c 97ED017A 		vldr.32	s14, [r7, #4]
 3052 0020 DFED1E6A 		vldr.32	s13, .L218+4
 3053 0024 C7EE267A 		vdiv.f32	s15, s14, s13
 3054 0028 C7ED037A 		vstr.32	s15, [r7, #12]
 813:Drivers/BSP/Components/L6470/L6470.c ****     decimal = result - (uint8_t)result;
 3055              		.loc 1 813 24
 3056 002c D7ED037A 		vldr.32	s15, [r7, #12]
 3057 0030 FCEEE77A 		vcvt.u32.f32	s15, s15
 3058 0034 C7ED007A 		vstr.32	s15, [r7]	@ int
 3059 0038 3B78     		ldrb	r3, [r7]
 3060 003a DBB2     		uxtb	r3, r3
 3061 003c 07EE903A 		vmov	s15, r3	@ int
 3062              		.loc 1 813 22
 3063 0040 F8EEE77A 		vcvt.f32.s32	s15, s15
 3064              		.loc 1 813 13
 3065 0044 97ED037A 		vldr.32	s14, [r7, #12]
 3066 0048 77EE677A 		vsub.f32	s15, s14, s15
 3067 004c C7ED027A 		vstr.32	s15, [r7, #8]
 814:Drivers/BSP/Components/L6470/L6470.c ****     
 815:Drivers/BSP/Components/L6470/L6470.c ****     if (decimal < (float)0.5)
 3068              		.loc 1 815 8
 3069 0050 D7ED027A 		vldr.32	s15, [r7, #8]
 3070 0054 B6EE007A 		vmov.f32	s14, #5.0e-1
 3071 0058 F4EEC77A 		vcmpe.f32	s15, s14
 3072 005c F1EE10FA 		vmrs	APSR_nzcv, FPSCR
 3073 0060 0AD5     		bpl	.L217
 816:Drivers/BSP/Components/L6470/L6470.c ****       return ((uint8_t)result - 1);
 3074              		.loc 1 816 15
 3075 0062 D7ED037A 		vldr.32	s15, [r7, #12]
 3076 0066 FCEEE77A 		vcvt.u32.f32	s15, s15
 3077 006a C7ED007A 		vstr.32	s15, [r7]	@ int
 3078 006e 3B78     		ldrb	r3, [r7]
 3079 0070 DBB2     		uxtb	r3, r3
 3080              		.loc 1 816 31
 3081 0072 013B     		subs	r3, r3, #1
 3082 0074 DBB2     		uxtb	r3, r3
 3083 0076 09E0     		b	.L213
 3084              	.L217:
 817:Drivers/BSP/Components/L6470/L6470.c ****     else
 818:Drivers/BSP/Components/L6470/L6470.c ****       return ((uint8_t)result);    
 3085              		.loc 1 818 15
 3086 0078 D7ED037A 		vldr.32	s15, [r7, #12]
 3087 007c FCEEE77A 		vcvt.u32.f32	s15, s15
 3088 0080 C7ED007A 		vstr.32	s15, [r7]	@ int
 3089 0084 3B78     		ldrb	r3, [r7]
 3090 0086 DBB2     		uxtb	r3, r3
 3091 0088 00E0     		b	.L213
 3092              	.L216:
ARM GAS  C:\Users\ep_ygh\AppData\Local\Temp\ccsX1uNj.s 			page 70


 819:Drivers/BSP/Components/L6470/L6470.c ****   }
 820:Drivers/BSP/Components/L6470/L6470.c ****   else
 821:Drivers/BSP/Components/L6470/L6470.c ****     return 0;   // Warning
 3093              		.loc 1 821 12
 3094 008a 0023     		movs	r3, #0
 3095              	.L213:
 822:Drivers/BSP/Components/L6470/L6470.c **** }
 3096              		.loc 1 822 1
 3097 008c 1846     		mov	r0, r3
 3098 008e 1437     		adds	r7, r7, #20
 3099              	.LCFI175:
 3100              		.cfi_def_cfa_offset 4
 3101 0090 BD46     		mov	sp, r7
 3102              	.LCFI176:
 3103              		.cfi_def_cfa_register 13
 3104              		@ sp needed
 3105 0092 5DF8047B 		ldr	r7, [sp], #4
 3106              	.LCFI177:
 3107              		.cfi_restore 7
 3108              		.cfi_def_cfa_offset 0
 3109 0096 7047     		bx	lr
 3110              	.L219:
 3111              		.align	2
 3112              	.L218:
 3113 0098 00007A45 		.word	1165623296
 3114 009c 0000FA41 		.word	1106903040
 3115              		.cfi_endproc
 3116              	.LFE157:
 3118              		.section	.text.L6470_SetParam,"ax",%progbits
 3119              		.align	1
 3120              		.global	L6470_SetParam
 3121              		.syntax unified
 3122              		.thumb
 3123              		.thumb_func
 3125              	L6470_SetParam:
 3126              	.LFB158:
 823:Drivers/BSP/Components/L6470/L6470.c **** 
 824:Drivers/BSP/Components/L6470/L6470.c **** /**
 825:Drivers/BSP/Components/L6470/L6470.c ****   * @}
 826:Drivers/BSP/Components/L6470/L6470.c ****   */ /* End of L6470_Conversion_Functions */
 827:Drivers/BSP/Components/L6470/L6470.c **** 
 828:Drivers/BSP/Components/L6470/L6470.c **** /**
 829:Drivers/BSP/Components/L6470/L6470.c ****   * @addtogroup L6470_AppCMDs
 830:Drivers/BSP/Components/L6470/L6470.c ****   * @{
 831:Drivers/BSP/Components/L6470/L6470.c ****   */
 832:Drivers/BSP/Components/L6470/L6470.c **** 
 833:Drivers/BSP/Components/L6470/L6470.c **** /**
 834:Drivers/BSP/Components/L6470/L6470.c ****   * @brief  SetParam command sets the register value equal to a new value.
 835:Drivers/BSP/Components/L6470/L6470.c ****   * 
 836:Drivers/BSP/Components/L6470/L6470.c ****   * @param  L6470_Id      The identifier of the L6470 target inside the daisy chain.
 837:Drivers/BSP/Components/L6470/L6470.c ****   * @param  L6470_RegId   The identifier of the L6470 register to be addressed.
 838:Drivers/BSP/Components/L6470/L6470.c ****   * @param  Value         The new value.
 839:Drivers/BSP/Components/L6470/L6470.c ****   */
 840:Drivers/BSP/Components/L6470/L6470.c **** void L6470_SetParam(uint8_t L6470_Id, eL6470_RegId_t L6470_RegId, uint32_t Value)
 841:Drivers/BSP/Components/L6470/L6470.c **** {
 3127              		.loc 1 841 1
 3128              		.cfi_startproc
ARM GAS  C:\Users\ep_ygh\AppData\Local\Temp\ccsX1uNj.s 			page 71


 3129              		@ args = 0, pretend = 0, frame = 8
 3130              		@ frame_needed = 1, uses_anonymous_args = 0
 3131 0000 80B5     		push	{r7, lr}
 3132              	.LCFI178:
 3133              		.cfi_def_cfa_offset 8
 3134              		.cfi_offset 7, -8
 3135              		.cfi_offset 14, -4
 3136 0002 84B0     		sub	sp, sp, #16
 3137              	.LCFI179:
 3138              		.cfi_def_cfa_offset 24
 3139 0004 02AF     		add	r7, sp, #8
 3140              	.LCFI180:
 3141              		.cfi_def_cfa 7, 16
 3142 0006 0346     		mov	r3, r0
 3143 0008 3A60     		str	r2, [r7]
 3144 000a FB71     		strb	r3, [r7, #7]
 3145 000c 0B46     		mov	r3, r1
 3146 000e BB71     		strb	r3, [r7, #6]
 842:Drivers/BSP/Components/L6470/L6470.c ****   L6470_PrepareAppCmdPkg(L6470_Id, L6470_AppCmdPkg, L6470_SETPARAM_ID, L6470_RegId, Value, 0);
 3147              		.loc 1 842 3
 3148 0010 BA79     		ldrb	r2, [r7, #6]	@ zero_extendqisi2
 3149 0012 F879     		ldrb	r0, [r7, #7]	@ zero_extendqisi2
 3150 0014 0023     		movs	r3, #0
 3151 0016 0193     		str	r3, [sp, #4]
 3152 0018 3B68     		ldr	r3, [r7]
 3153 001a 0093     		str	r3, [sp]
 3154 001c 1346     		mov	r3, r2
 3155 001e 0122     		movs	r2, #1
 3156 0020 0749     		ldr	r1, .L221
 3157 0022 FFF7FEFF 		bl	L6470_PrepareAppCmdPkg
 843:Drivers/BSP/Components/L6470/L6470.c ****   L6470_PrepareDaisyChainCommand(L6470_AppCmdPkg, (uint8_t*)L6470_DaisyChainSpiTxStruct);
 3158              		.loc 1 843 3
 3159 0026 0749     		ldr	r1, .L221+4
 3160 0028 0548     		ldr	r0, .L221
 3161 002a FFF7FEFF 		bl	L6470_PrepareDaisyChainCommand
 844:Drivers/BSP/Components/L6470/L6470.c ****   L6470_DaisyChainCommand((uint8_t*)L6470_DaisyChainSpiTxStruct, (uint8_t*)L6470_DaisyChainSpiRxStr
 3162              		.loc 1 844 3
 3163 002e 0649     		ldr	r1, .L221+8
 3164 0030 0448     		ldr	r0, .L221+4
 3165 0032 FFF7FEFF 		bl	L6470_DaisyChainCommand
 845:Drivers/BSP/Components/L6470/L6470.c **** }
 3166              		.loc 1 845 1
 3167 0036 00BF     		nop
 3168 0038 0837     		adds	r7, r7, #8
 3169              	.LCFI181:
 3170              		.cfi_def_cfa_offset 8
 3171 003a BD46     		mov	sp, r7
 3172              	.LCFI182:
 3173              		.cfi_def_cfa_register 13
 3174              		@ sp needed
 3175 003c 80BD     		pop	{r7, pc}
 3176              	.L222:
 3177 003e 00BF     		.align	2
 3178              	.L221:
 3179 0040 00000000 		.word	L6470_AppCmdPkg
 3180 0044 00000000 		.word	L6470_DaisyChainSpiTxStruct
 3181 0048 00000000 		.word	L6470_DaisyChainSpiRxStruct
ARM GAS  C:\Users\ep_ygh\AppData\Local\Temp\ccsX1uNj.s 			page 72


 3182              		.cfi_endproc
 3183              	.LFE158:
 3185              		.section	.text.L6470_GetParam,"ax",%progbits
 3186              		.align	1
 3187              		.global	L6470_GetParam
 3188              		.syntax unified
 3189              		.thumb
 3190              		.thumb_func
 3192              	L6470_GetParam:
 3193              	.LFB159:
 846:Drivers/BSP/Components/L6470/L6470.c **** 
 847:Drivers/BSP/Components/L6470/L6470.c **** /**
 848:Drivers/BSP/Components/L6470/L6470.c ****   * @brief  GetParam command reads the register value.
 849:Drivers/BSP/Components/L6470/L6470.c ****   * 
 850:Drivers/BSP/Components/L6470/L6470.c ****   * @param  L6470_Id      The identifier of the L6470 target inside the daisy chain.
 851:Drivers/BSP/Components/L6470/L6470.c ****   * @param  L6470_RegId   The identifier of the L6470 register to be addressed.
 852:Drivers/BSP/Components/L6470/L6470.c ****   * 
 853:Drivers/BSP/Components/L6470/L6470.c ****   * @retval ReceivedValue The register value.
 854:Drivers/BSP/Components/L6470/L6470.c ****   */
 855:Drivers/BSP/Components/L6470/L6470.c **** uint32_t L6470_GetParam(uint8_t L6470_Id, eL6470_RegId_t L6470_RegId)
 856:Drivers/BSP/Components/L6470/L6470.c **** {
 3194              		.loc 1 856 1
 3195              		.cfi_startproc
 3196              		@ args = 0, pretend = 0, frame = 16
 3197              		@ frame_needed = 1, uses_anonymous_args = 0
 3198 0000 80B5     		push	{r7, lr}
 3199              	.LCFI183:
 3200              		.cfi_def_cfa_offset 8
 3201              		.cfi_offset 7, -8
 3202              		.cfi_offset 14, -4
 3203 0002 86B0     		sub	sp, sp, #24
 3204              	.LCFI184:
 3205              		.cfi_def_cfa_offset 32
 3206 0004 02AF     		add	r7, sp, #8
 3207              	.LCFI185:
 3208              		.cfi_def_cfa 7, 24
 3209 0006 0346     		mov	r3, r0
 3210 0008 0A46     		mov	r2, r1
 3211 000a FB71     		strb	r3, [r7, #7]
 3212 000c 1346     		mov	r3, r2
 3213 000e BB71     		strb	r3, [r7, #6]
 857:Drivers/BSP/Components/L6470/L6470.c ****   uint8_t ValueLengthByte;
 858:Drivers/BSP/Components/L6470/L6470.c ****   uint32_t ReceivedValue;
 859:Drivers/BSP/Components/L6470/L6470.c **** 
 860:Drivers/BSP/Components/L6470/L6470.c ****   L6470_PrepareAppCmdPkg(L6470_Id, L6470_AppCmdPkg, L6470_GETPARAM_ID, L6470_RegId, 0, 0);
 3214              		.loc 1 860 3
 3215 0010 BB79     		ldrb	r3, [r7, #6]	@ zero_extendqisi2
 3216 0012 F879     		ldrb	r0, [r7, #7]	@ zero_extendqisi2
 3217 0014 0022     		movs	r2, #0
 3218 0016 0192     		str	r2, [sp, #4]
 3219 0018 0022     		movs	r2, #0
 3220 001a 0092     		str	r2, [sp]
 3221 001c 0222     		movs	r2, #2
 3222 001e 1049     		ldr	r1, .L225
 3223 0020 FFF7FEFF 		bl	L6470_PrepareAppCmdPkg
 861:Drivers/BSP/Components/L6470/L6470.c ****   L6470_PrepareDaisyChainCommand(L6470_AppCmdPkg, (uint8_t*)L6470_DaisyChainSpiTxStruct);
 3224              		.loc 1 861 3
ARM GAS  C:\Users\ep_ygh\AppData\Local\Temp\ccsX1uNj.s 			page 73


 3225 0024 0F49     		ldr	r1, .L225+4
 3226 0026 0E48     		ldr	r0, .L225
 3227 0028 FFF7FEFF 		bl	L6470_PrepareDaisyChainCommand
 862:Drivers/BSP/Components/L6470/L6470.c ****   L6470_DaisyChainCommand((uint8_t*)L6470_DaisyChainSpiTxStruct, (uint8_t*)L6470_DaisyChainSpiRxStr
 3228              		.loc 1 862 3
 3229 002c 0E49     		ldr	r1, .L225+8
 3230 002e 0D48     		ldr	r0, .L225+4
 3231 0030 FFF7FEFF 		bl	L6470_DaisyChainCommand
 863:Drivers/BSP/Components/L6470/L6470.c ****   
 864:Drivers/BSP/Components/L6470/L6470.c ****   ValueLengthByte = L6470_Register[L6470_RegId].LengthByte;
 3232              		.loc 1 864 48
 3233 0034 BA79     		ldrb	r2, [r7, #6]	@ zero_extendqisi2
 3234              		.loc 1 864 19
 3235 0036 0D49     		ldr	r1, .L225+12
 3236 0038 1346     		mov	r3, r2
 3237 003a 9B00     		lsls	r3, r3, #2
 3238 003c 1344     		add	r3, r3, r2
 3239 003e 9B00     		lsls	r3, r3, #2
 3240 0040 0B44     		add	r3, r3, r1
 3241 0042 0E33     		adds	r3, r3, #14
 3242 0044 1B78     		ldrb	r3, [r3]
 3243 0046 FB73     		strb	r3, [r7, #15]
 865:Drivers/BSP/Components/L6470/L6470.c ****   
 866:Drivers/BSP/Components/L6470/L6470.c ****   ReceivedValue = L6470_ExtractReturnedData(L6470_Id, (uint8_t*)L6470_DaisyChainSpiRxStruct, ValueL
 3244              		.loc 1 866 19
 3245 0048 FA7B     		ldrb	r2, [r7, #15]	@ zero_extendqisi2
 3246 004a FB79     		ldrb	r3, [r7, #7]	@ zero_extendqisi2
 3247 004c 0649     		ldr	r1, .L225+8
 3248 004e 1846     		mov	r0, r3
 3249 0050 FFF7FEFF 		bl	L6470_ExtractReturnedData
 3250 0054 B860     		str	r0, [r7, #8]
 867:Drivers/BSP/Components/L6470/L6470.c ****   
 868:Drivers/BSP/Components/L6470/L6470.c ****   return ReceivedValue;
 3251              		.loc 1 868 10
 3252 0056 BB68     		ldr	r3, [r7, #8]
 869:Drivers/BSP/Components/L6470/L6470.c **** }
 3253              		.loc 1 869 1
 3254 0058 1846     		mov	r0, r3
 3255 005a 1037     		adds	r7, r7, #16
 3256              	.LCFI186:
 3257              		.cfi_def_cfa_offset 8
 3258 005c BD46     		mov	sp, r7
 3259              	.LCFI187:
 3260              		.cfi_def_cfa_register 13
 3261              		@ sp needed
 3262 005e 80BD     		pop	{r7, pc}
 3263              	.L226:
 3264              		.align	2
 3265              	.L225:
 3266 0060 00000000 		.word	L6470_AppCmdPkg
 3267 0064 00000000 		.word	L6470_DaisyChainSpiTxStruct
 3268 0068 00000000 		.word	L6470_DaisyChainSpiRxStruct
 3269 006c 00000000 		.word	L6470_Register
 3270              		.cfi_endproc
 3271              	.LFE159:
 3273              		.section	.text.L6470_Run,"ax",%progbits
 3274              		.align	1
ARM GAS  C:\Users\ep_ygh\AppData\Local\Temp\ccsX1uNj.s 			page 74


 3275              		.global	L6470_Run
 3276              		.syntax unified
 3277              		.thumb
 3278              		.thumb_func
 3280              	L6470_Run:
 3281              	.LFB160:
 870:Drivers/BSP/Components/L6470/L6470.c **** 
 871:Drivers/BSP/Components/L6470/L6470.c **** /**
 872:Drivers/BSP/Components/L6470/L6470.c ****   * @brief  Run command produces a motion at fixed speed.
 873:Drivers/BSP/Components/L6470/L6470.c ****   * 
 874:Drivers/BSP/Components/L6470/L6470.c ****   * @param  L6470_Id      The identifier of the L6470 target inside the daisy chain.
 875:Drivers/BSP/Components/L6470/L6470.c ****   * @param  L6470_DirId   The identifier of the L6470 motion direction.
 876:Drivers/BSP/Components/L6470/L6470.c ****   * @param  Speed         The speed value as (([step/s] * 250e-9) / 2^-28)
 877:Drivers/BSP/Components/L6470/L6470.c ****   */
 878:Drivers/BSP/Components/L6470/L6470.c **** void L6470_Run(uint8_t L6470_Id, eL6470_DirId_t L6470_DirId, uint32_t Speed)
 879:Drivers/BSP/Components/L6470/L6470.c **** {
 3282              		.loc 1 879 1
 3283              		.cfi_startproc
 3284              		@ args = 0, pretend = 0, frame = 8
 3285              		@ frame_needed = 1, uses_anonymous_args = 0
 3286 0000 80B5     		push	{r7, lr}
 3287              	.LCFI188:
 3288              		.cfi_def_cfa_offset 8
 3289              		.cfi_offset 7, -8
 3290              		.cfi_offset 14, -4
 3291 0002 84B0     		sub	sp, sp, #16
 3292              	.LCFI189:
 3293              		.cfi_def_cfa_offset 24
 3294 0004 02AF     		add	r7, sp, #8
 3295              	.LCFI190:
 3296              		.cfi_def_cfa 7, 16
 3297 0006 0346     		mov	r3, r0
 3298 0008 3A60     		str	r2, [r7]
 3299 000a FB71     		strb	r3, [r7, #7]
 3300 000c 0B46     		mov	r3, r1
 3301 000e BB71     		strb	r3, [r7, #6]
 880:Drivers/BSP/Components/L6470/L6470.c ****   L6470_PrepareAppCmdPkg(L6470_Id, L6470_AppCmdPkg, L6470_RUN_ID, L6470_DirId, Speed, 0);
 3302              		.loc 1 880 3
 3303 0010 BA79     		ldrb	r2, [r7, #6]	@ zero_extendqisi2
 3304 0012 F879     		ldrb	r0, [r7, #7]	@ zero_extendqisi2
 3305 0014 0023     		movs	r3, #0
 3306 0016 0193     		str	r3, [sp, #4]
 3307 0018 3B68     		ldr	r3, [r7]
 3308 001a 0093     		str	r3, [sp]
 3309 001c 1346     		mov	r3, r2
 3310 001e 0322     		movs	r2, #3
 3311 0020 0749     		ldr	r1, .L228
 3312 0022 FFF7FEFF 		bl	L6470_PrepareAppCmdPkg
 881:Drivers/BSP/Components/L6470/L6470.c ****   L6470_PrepareDaisyChainCommand(L6470_AppCmdPkg, (uint8_t*)L6470_DaisyChainSpiTxStruct);
 3313              		.loc 1 881 3
 3314 0026 0749     		ldr	r1, .L228+4
 3315 0028 0548     		ldr	r0, .L228
 3316 002a FFF7FEFF 		bl	L6470_PrepareDaisyChainCommand
 882:Drivers/BSP/Components/L6470/L6470.c ****   L6470_DaisyChainCommand((uint8_t*)L6470_DaisyChainSpiTxStruct, (uint8_t*)L6470_DaisyChainSpiRxStr
 3317              		.loc 1 882 3
 3318 002e 0649     		ldr	r1, .L228+8
 3319 0030 0448     		ldr	r0, .L228+4
ARM GAS  C:\Users\ep_ygh\AppData\Local\Temp\ccsX1uNj.s 			page 75


 3320 0032 FFF7FEFF 		bl	L6470_DaisyChainCommand
 883:Drivers/BSP/Components/L6470/L6470.c **** }
 3321              		.loc 1 883 1
 3322 0036 00BF     		nop
 3323 0038 0837     		adds	r7, r7, #8
 3324              	.LCFI191:
 3325              		.cfi_def_cfa_offset 8
 3326 003a BD46     		mov	sp, r7
 3327              	.LCFI192:
 3328              		.cfi_def_cfa_register 13
 3329              		@ sp needed
 3330 003c 80BD     		pop	{r7, pc}
 3331              	.L229:
 3332 003e 00BF     		.align	2
 3333              	.L228:
 3334 0040 00000000 		.word	L6470_AppCmdPkg
 3335 0044 00000000 		.word	L6470_DaisyChainSpiTxStruct
 3336 0048 00000000 		.word	L6470_DaisyChainSpiRxStruct
 3337              		.cfi_endproc
 3338              	.LFE160:
 3340              		.section	.text.L6470_StepClock,"ax",%progbits
 3341              		.align	1
 3342              		.global	L6470_StepClock
 3343              		.syntax unified
 3344              		.thumb
 3345              		.thumb_func
 3347              	L6470_StepClock:
 3348              	.LFB161:
 884:Drivers/BSP/Components/L6470/L6470.c **** 
 885:Drivers/BSP/Components/L6470/L6470.c **** /**
 886:Drivers/BSP/Components/L6470/L6470.c ****   * @brief  StepClock command switches the device in Step-clock mode.
 887:Drivers/BSP/Components/L6470/L6470.c ****   * 
 888:Drivers/BSP/Components/L6470/L6470.c ****   * @param  L6470_Id      The identifier of the L6470 target inside the daisy chain.
 889:Drivers/BSP/Components/L6470/L6470.c ****   * @param  L6470_DirId   The identifier of the L6470 motion direction.
 890:Drivers/BSP/Components/L6470/L6470.c ****   */
 891:Drivers/BSP/Components/L6470/L6470.c **** void L6470_StepClock(uint8_t L6470_Id, eL6470_DirId_t L6470_DirId)
 892:Drivers/BSP/Components/L6470/L6470.c **** {
 3349              		.loc 1 892 1
 3350              		.cfi_startproc
 3351              		@ args = 0, pretend = 0, frame = 8
 3352              		@ frame_needed = 1, uses_anonymous_args = 0
 3353 0000 80B5     		push	{r7, lr}
 3354              	.LCFI193:
 3355              		.cfi_def_cfa_offset 8
 3356              		.cfi_offset 7, -8
 3357              		.cfi_offset 14, -4
 3358 0002 84B0     		sub	sp, sp, #16
 3359              	.LCFI194:
 3360              		.cfi_def_cfa_offset 24
 3361 0004 02AF     		add	r7, sp, #8
 3362              	.LCFI195:
 3363              		.cfi_def_cfa 7, 16
 3364 0006 0346     		mov	r3, r0
 3365 0008 0A46     		mov	r2, r1
 3366 000a FB71     		strb	r3, [r7, #7]
 3367 000c 1346     		mov	r3, r2
 3368 000e BB71     		strb	r3, [r7, #6]
ARM GAS  C:\Users\ep_ygh\AppData\Local\Temp\ccsX1uNj.s 			page 76


 893:Drivers/BSP/Components/L6470/L6470.c ****   L6470_PrepareAppCmdPkg(L6470_Id, L6470_AppCmdPkg, L6470_STEPCLOCK_ID, L6470_DirId, 0, 0);
 3369              		.loc 1 893 3
 3370 0010 BB79     		ldrb	r3, [r7, #6]	@ zero_extendqisi2
 3371 0012 F879     		ldrb	r0, [r7, #7]	@ zero_extendqisi2
 3372 0014 0022     		movs	r2, #0
 3373 0016 0192     		str	r2, [sp, #4]
 3374 0018 0022     		movs	r2, #0
 3375 001a 0092     		str	r2, [sp]
 3376 001c 0422     		movs	r2, #4
 3377 001e 0749     		ldr	r1, .L231
 3378 0020 FFF7FEFF 		bl	L6470_PrepareAppCmdPkg
 894:Drivers/BSP/Components/L6470/L6470.c ****   L6470_PrepareDaisyChainCommand(L6470_AppCmdPkg, (uint8_t*)L6470_DaisyChainSpiTxStruct);
 3379              		.loc 1 894 3
 3380 0024 0649     		ldr	r1, .L231+4
 3381 0026 0548     		ldr	r0, .L231
 3382 0028 FFF7FEFF 		bl	L6470_PrepareDaisyChainCommand
 895:Drivers/BSP/Components/L6470/L6470.c ****   L6470_DaisyChainCommand((uint8_t*)L6470_DaisyChainSpiTxStruct, (uint8_t*)L6470_DaisyChainSpiRxStr
 3383              		.loc 1 895 3
 3384 002c 0549     		ldr	r1, .L231+8
 3385 002e 0448     		ldr	r0, .L231+4
 3386 0030 FFF7FEFF 		bl	L6470_DaisyChainCommand
 896:Drivers/BSP/Components/L6470/L6470.c **** }
 3387              		.loc 1 896 1
 3388 0034 00BF     		nop
 3389 0036 0837     		adds	r7, r7, #8
 3390              	.LCFI196:
 3391              		.cfi_def_cfa_offset 8
 3392 0038 BD46     		mov	sp, r7
 3393              	.LCFI197:
 3394              		.cfi_def_cfa_register 13
 3395              		@ sp needed
 3396 003a 80BD     		pop	{r7, pc}
 3397              	.L232:
 3398              		.align	2
 3399              	.L231:
 3400 003c 00000000 		.word	L6470_AppCmdPkg
 3401 0040 00000000 		.word	L6470_DaisyChainSpiTxStruct
 3402 0044 00000000 		.word	L6470_DaisyChainSpiRxStruct
 3403              		.cfi_endproc
 3404              	.LFE161:
 3406              		.section	.text.L6470_Move,"ax",%progbits
 3407              		.align	1
 3408              		.global	L6470_Move
 3409              		.syntax unified
 3410              		.thumb
 3411              		.thumb_func
 3413              	L6470_Move:
 3414              	.LFB162:
 897:Drivers/BSP/Components/L6470/L6470.c **** 
 898:Drivers/BSP/Components/L6470/L6470.c **** /**
 899:Drivers/BSP/Components/L6470/L6470.c ****   * @brief  Move command produces a motion of N_STEP microsteps.
 900:Drivers/BSP/Components/L6470/L6470.c ****   * 
 901:Drivers/BSP/Components/L6470/L6470.c ****   * @param  L6470_Id      The identifier of the L6470 target inside the daisy chain.
 902:Drivers/BSP/Components/L6470/L6470.c ****   * @param  L6470_DirId   The identifier of the L6470 motion direction.
 903:Drivers/BSP/Components/L6470/L6470.c ****   * @param  N_Step        The number of microsteps.
 904:Drivers/BSP/Components/L6470/L6470.c ****   */
 905:Drivers/BSP/Components/L6470/L6470.c **** void L6470_Move(uint8_t L6470_Id, eL6470_DirId_t L6470_DirId, uint32_t N_Step)
ARM GAS  C:\Users\ep_ygh\AppData\Local\Temp\ccsX1uNj.s 			page 77


 906:Drivers/BSP/Components/L6470/L6470.c **** {
 3415              		.loc 1 906 1
 3416              		.cfi_startproc
 3417              		@ args = 0, pretend = 0, frame = 8
 3418              		@ frame_needed = 1, uses_anonymous_args = 0
 3419 0000 80B5     		push	{r7, lr}
 3420              	.LCFI198:
 3421              		.cfi_def_cfa_offset 8
 3422              		.cfi_offset 7, -8
 3423              		.cfi_offset 14, -4
 3424 0002 84B0     		sub	sp, sp, #16
 3425              	.LCFI199:
 3426              		.cfi_def_cfa_offset 24
 3427 0004 02AF     		add	r7, sp, #8
 3428              	.LCFI200:
 3429              		.cfi_def_cfa 7, 16
 3430 0006 0346     		mov	r3, r0
 3431 0008 3A60     		str	r2, [r7]
 3432 000a FB71     		strb	r3, [r7, #7]
 3433 000c 0B46     		mov	r3, r1
 3434 000e BB71     		strb	r3, [r7, #6]
 907:Drivers/BSP/Components/L6470/L6470.c ****   L6470_PrepareAppCmdPkg(L6470_Id, L6470_AppCmdPkg, L6470_MOVE_ID, L6470_DirId, N_Step, 0);
 3435              		.loc 1 907 3
 3436 0010 BA79     		ldrb	r2, [r7, #6]	@ zero_extendqisi2
 3437 0012 F879     		ldrb	r0, [r7, #7]	@ zero_extendqisi2
 3438 0014 0023     		movs	r3, #0
 3439 0016 0193     		str	r3, [sp, #4]
 3440 0018 3B68     		ldr	r3, [r7]
 3441 001a 0093     		str	r3, [sp]
 3442 001c 1346     		mov	r3, r2
 3443 001e 0522     		movs	r2, #5
 3444 0020 0749     		ldr	r1, .L234
 3445 0022 FFF7FEFF 		bl	L6470_PrepareAppCmdPkg
 908:Drivers/BSP/Components/L6470/L6470.c ****   L6470_PrepareDaisyChainCommand(L6470_AppCmdPkg, (uint8_t*)L6470_DaisyChainSpiTxStruct);
 3446              		.loc 1 908 3
 3447 0026 0749     		ldr	r1, .L234+4
 3448 0028 0548     		ldr	r0, .L234
 3449 002a FFF7FEFF 		bl	L6470_PrepareDaisyChainCommand
 909:Drivers/BSP/Components/L6470/L6470.c ****   L6470_DaisyChainCommand((uint8_t*)L6470_DaisyChainSpiTxStruct, (uint8_t*)L6470_DaisyChainSpiRxStr
 3450              		.loc 1 909 3
 3451 002e 0649     		ldr	r1, .L234+8
 3452 0030 0448     		ldr	r0, .L234+4
 3453 0032 FFF7FEFF 		bl	L6470_DaisyChainCommand
 910:Drivers/BSP/Components/L6470/L6470.c **** }
 3454              		.loc 1 910 1
 3455 0036 00BF     		nop
 3456 0038 0837     		adds	r7, r7, #8
 3457              	.LCFI201:
 3458              		.cfi_def_cfa_offset 8
 3459 003a BD46     		mov	sp, r7
 3460              	.LCFI202:
 3461              		.cfi_def_cfa_register 13
 3462              		@ sp needed
 3463 003c 80BD     		pop	{r7, pc}
 3464              	.L235:
 3465 003e 00BF     		.align	2
 3466              	.L234:
ARM GAS  C:\Users\ep_ygh\AppData\Local\Temp\ccsX1uNj.s 			page 78


 3467 0040 00000000 		.word	L6470_AppCmdPkg
 3468 0044 00000000 		.word	L6470_DaisyChainSpiTxStruct
 3469 0048 00000000 		.word	L6470_DaisyChainSpiRxStruct
 3470              		.cfi_endproc
 3471              	.LFE162:
 3473              		.section	.text.L6470_GoTo,"ax",%progbits
 3474              		.align	1
 3475              		.global	L6470_GoTo
 3476              		.syntax unified
 3477              		.thumb
 3478              		.thumb_func
 3480              	L6470_GoTo:
 3481              	.LFB163:
 911:Drivers/BSP/Components/L6470/L6470.c **** 
 912:Drivers/BSP/Components/L6470/L6470.c **** /**
 913:Drivers/BSP/Components/L6470/L6470.c ****   * @brief  GoTo command produces a motion to ABS_POS absolute position through the shortest path.
 914:Drivers/BSP/Components/L6470/L6470.c ****   * 
 915:Drivers/BSP/Components/L6470/L6470.c ****   * @param  L6470_Id      The identifier of the L6470 target inside the daisy chain.
 916:Drivers/BSP/Components/L6470/L6470.c ****   * @param  AbsPos        The target absolute position.
 917:Drivers/BSP/Components/L6470/L6470.c ****   */
 918:Drivers/BSP/Components/L6470/L6470.c **** void L6470_GoTo(uint8_t L6470_Id, uint32_t AbsPos)
 919:Drivers/BSP/Components/L6470/L6470.c **** {
 3482              		.loc 1 919 1
 3483              		.cfi_startproc
 3484              		@ args = 0, pretend = 0, frame = 8
 3485              		@ frame_needed = 1, uses_anonymous_args = 0
 3486 0000 80B5     		push	{r7, lr}
 3487              	.LCFI203:
 3488              		.cfi_def_cfa_offset 8
 3489              		.cfi_offset 7, -8
 3490              		.cfi_offset 14, -4
 3491 0002 84B0     		sub	sp, sp, #16
 3492              	.LCFI204:
 3493              		.cfi_def_cfa_offset 24
 3494 0004 02AF     		add	r7, sp, #8
 3495              	.LCFI205:
 3496              		.cfi_def_cfa 7, 16
 3497 0006 0346     		mov	r3, r0
 3498 0008 3960     		str	r1, [r7]
 3499 000a FB71     		strb	r3, [r7, #7]
 920:Drivers/BSP/Components/L6470/L6470.c ****   if (AbsPos <= L6470_POSITION_RANGE)
 3500              		.loc 1 920 6
 3501 000c 3B68     		ldr	r3, [r7]
 3502 000e B3F5800F 		cmp	r3, #4194304
 3503 0012 11D2     		bcs	.L238
 921:Drivers/BSP/Components/L6470/L6470.c ****   {
 922:Drivers/BSP/Components/L6470/L6470.c ****     L6470_PrepareAppCmdPkg(L6470_Id, L6470_AppCmdPkg, L6470_GOTO_ID, AbsPos, 0, 0);
 3504              		.loc 1 922 5
 3505 0014 F879     		ldrb	r0, [r7, #7]	@ zero_extendqisi2
 3506 0016 0023     		movs	r3, #0
 3507 0018 0193     		str	r3, [sp, #4]
 3508 001a 0023     		movs	r3, #0
 3509 001c 0093     		str	r3, [sp]
 3510 001e 3B68     		ldr	r3, [r7]
 3511 0020 0622     		movs	r2, #6
 3512 0022 0749     		ldr	r1, .L239
 3513 0024 FFF7FEFF 		bl	L6470_PrepareAppCmdPkg
ARM GAS  C:\Users\ep_ygh\AppData\Local\Temp\ccsX1uNj.s 			page 79


 923:Drivers/BSP/Components/L6470/L6470.c ****     L6470_PrepareDaisyChainCommand(L6470_AppCmdPkg, (uint8_t*)L6470_DaisyChainSpiTxStruct);
 3514              		.loc 1 923 5
 3515 0028 0649     		ldr	r1, .L239+4
 3516 002a 0548     		ldr	r0, .L239
 3517 002c FFF7FEFF 		bl	L6470_PrepareDaisyChainCommand
 924:Drivers/BSP/Components/L6470/L6470.c ****     L6470_DaisyChainCommand((uint8_t*)L6470_DaisyChainSpiTxStruct, (uint8_t*)L6470_DaisyChainSpiRxS
 3518              		.loc 1 924 5
 3519 0030 0549     		ldr	r1, .L239+8
 3520 0032 0448     		ldr	r0, .L239+4
 3521 0034 FFF7FEFF 		bl	L6470_DaisyChainCommand
 3522              	.L238:
 925:Drivers/BSP/Components/L6470/L6470.c ****   }
 926:Drivers/BSP/Components/L6470/L6470.c **** }
 3523              		.loc 1 926 1
 3524 0038 00BF     		nop
 3525 003a 0837     		adds	r7, r7, #8
 3526              	.LCFI206:
 3527              		.cfi_def_cfa_offset 8
 3528 003c BD46     		mov	sp, r7
 3529              	.LCFI207:
 3530              		.cfi_def_cfa_register 13
 3531              		@ sp needed
 3532 003e 80BD     		pop	{r7, pc}
 3533              	.L240:
 3534              		.align	2
 3535              	.L239:
 3536 0040 00000000 		.word	L6470_AppCmdPkg
 3537 0044 00000000 		.word	L6470_DaisyChainSpiTxStruct
 3538 0048 00000000 		.word	L6470_DaisyChainSpiRxStruct
 3539              		.cfi_endproc
 3540              	.LFE163:
 3542              		.section	.text.L6470_GoToDir,"ax",%progbits
 3543              		.align	1
 3544              		.global	L6470_GoToDir
 3545              		.syntax unified
 3546              		.thumb
 3547              		.thumb_func
 3549              	L6470_GoToDir:
 3550              	.LFB164:
 927:Drivers/BSP/Components/L6470/L6470.c **** 
 928:Drivers/BSP/Components/L6470/L6470.c **** /**
 929:Drivers/BSP/Components/L6470/L6470.c ****   * @brief  GoTo_DIR command produces a motion to ABS_POS absolute position imposing a direction.
 930:Drivers/BSP/Components/L6470/L6470.c ****   * 
 931:Drivers/BSP/Components/L6470/L6470.c ****   * @param  L6470_Id      The identifier of the L6470 target inside the daisy chain.
 932:Drivers/BSP/Components/L6470/L6470.c ****   * @param  L6470_DirId   The identifier of the L6470 motion direction.
 933:Drivers/BSP/Components/L6470/L6470.c ****   * @param  AbsPos        The target absolute position.
 934:Drivers/BSP/Components/L6470/L6470.c ****   */
 935:Drivers/BSP/Components/L6470/L6470.c **** void L6470_GoToDir(uint8_t L6470_Id, eL6470_DirId_t L6470_DirId, uint32_t AbsPos)
 936:Drivers/BSP/Components/L6470/L6470.c **** {
 3551              		.loc 1 936 1
 3552              		.cfi_startproc
 3553              		@ args = 0, pretend = 0, frame = 8
 3554              		@ frame_needed = 1, uses_anonymous_args = 0
 3555 0000 80B5     		push	{r7, lr}
 3556              	.LCFI208:
 3557              		.cfi_def_cfa_offset 8
 3558              		.cfi_offset 7, -8
ARM GAS  C:\Users\ep_ygh\AppData\Local\Temp\ccsX1uNj.s 			page 80


 3559              		.cfi_offset 14, -4
 3560 0002 84B0     		sub	sp, sp, #16
 3561              	.LCFI209:
 3562              		.cfi_def_cfa_offset 24
 3563 0004 02AF     		add	r7, sp, #8
 3564              	.LCFI210:
 3565              		.cfi_def_cfa 7, 16
 3566 0006 0346     		mov	r3, r0
 3567 0008 3A60     		str	r2, [r7]
 3568 000a FB71     		strb	r3, [r7, #7]
 3569 000c 0B46     		mov	r3, r1
 3570 000e BB71     		strb	r3, [r7, #6]
 937:Drivers/BSP/Components/L6470/L6470.c ****   if (AbsPos <= L6470_POSITION_RANGE)
 3571              		.loc 1 937 6
 3572 0010 3B68     		ldr	r3, [r7]
 3573 0012 B3F5800F 		cmp	r3, #4194304
 3574 0016 12D2     		bcs	.L243
 938:Drivers/BSP/Components/L6470/L6470.c ****   {
 939:Drivers/BSP/Components/L6470/L6470.c ****     L6470_PrepareAppCmdPkg(L6470_Id, L6470_AppCmdPkg, L6470_GOTODIR_ID, L6470_DirId, AbsPos, 0);
 3575              		.loc 1 939 5
 3576 0018 BA79     		ldrb	r2, [r7, #6]	@ zero_extendqisi2
 3577 001a F879     		ldrb	r0, [r7, #7]	@ zero_extendqisi2
 3578 001c 0023     		movs	r3, #0
 3579 001e 0193     		str	r3, [sp, #4]
 3580 0020 3B68     		ldr	r3, [r7]
 3581 0022 0093     		str	r3, [sp]
 3582 0024 1346     		mov	r3, r2
 3583 0026 0722     		movs	r2, #7
 3584 0028 0749     		ldr	r1, .L244
 3585 002a FFF7FEFF 		bl	L6470_PrepareAppCmdPkg
 940:Drivers/BSP/Components/L6470/L6470.c ****     L6470_PrepareDaisyChainCommand(L6470_AppCmdPkg, (uint8_t*)L6470_DaisyChainSpiTxStruct);
 3586              		.loc 1 940 5
 3587 002e 0749     		ldr	r1, .L244+4
 3588 0030 0548     		ldr	r0, .L244
 3589 0032 FFF7FEFF 		bl	L6470_PrepareDaisyChainCommand
 941:Drivers/BSP/Components/L6470/L6470.c ****     L6470_DaisyChainCommand((uint8_t*)L6470_DaisyChainSpiTxStruct, (uint8_t*)L6470_DaisyChainSpiRxS
 3590              		.loc 1 941 5
 3591 0036 0649     		ldr	r1, .L244+8
 3592 0038 0448     		ldr	r0, .L244+4
 3593 003a FFF7FEFF 		bl	L6470_DaisyChainCommand
 3594              	.L243:
 942:Drivers/BSP/Components/L6470/L6470.c ****   }
 943:Drivers/BSP/Components/L6470/L6470.c **** }
 3595              		.loc 1 943 1
 3596 003e 00BF     		nop
 3597 0040 0837     		adds	r7, r7, #8
 3598              	.LCFI211:
 3599              		.cfi_def_cfa_offset 8
 3600 0042 BD46     		mov	sp, r7
 3601              	.LCFI212:
 3602              		.cfi_def_cfa_register 13
 3603              		@ sp needed
 3604 0044 80BD     		pop	{r7, pc}
 3605              	.L245:
 3606 0046 00BF     		.align	2
 3607              	.L244:
 3608 0048 00000000 		.word	L6470_AppCmdPkg
ARM GAS  C:\Users\ep_ygh\AppData\Local\Temp\ccsX1uNj.s 			page 81


 3609 004c 00000000 		.word	L6470_DaisyChainSpiTxStruct
 3610 0050 00000000 		.word	L6470_DaisyChainSpiRxStruct
 3611              		.cfi_endproc
 3612              	.LFE164:
 3614              		.section	.text.L6470_GoUntil,"ax",%progbits
 3615              		.align	1
 3616              		.global	L6470_GoUntil
 3617              		.syntax unified
 3618              		.thumb
 3619              		.thumb_func
 3621              	L6470_GoUntil:
 3622              	.LFB165:
 944:Drivers/BSP/Components/L6470/L6470.c **** 
 945:Drivers/BSP/Components/L6470/L6470.c **** /**
 946:Drivers/BSP/Components/L6470/L6470.c ****   * @brief  GoUntil command produces a motion at fixed speed imposing a direction
 947:Drivers/BSP/Components/L6470/L6470.c ****   *         until an external switch turn-on event occurs.
 948:Drivers/BSP/Components/L6470/L6470.c ****   * 
 949:Drivers/BSP/Components/L6470/L6470.c ****   * @param  L6470_Id      The identifier of the L6470 target inside the daisy chain.
 950:Drivers/BSP/Components/L6470/L6470.c ****   * @param  L6470_ActId   The identifier of the L6470 action about the absolute position.
 951:Drivers/BSP/Components/L6470/L6470.c ****   * @param  L6470_DirId   The identifier of the L6470 motion direction.
 952:Drivers/BSP/Components/L6470/L6470.c ****   * @param  Speed         The speed value as (([step/s] * 250e-9) / 2^-28)
 953:Drivers/BSP/Components/L6470/L6470.c ****   */
 954:Drivers/BSP/Components/L6470/L6470.c **** void L6470_GoUntil(uint8_t L6470_Id, eL6470_ActId_t L6470_ActId, eL6470_DirId_t L6470_DirId, uint32
 955:Drivers/BSP/Components/L6470/L6470.c **** {
 3623              		.loc 1 955 1
 3624              		.cfi_startproc
 3625              		@ args = 0, pretend = 0, frame = 8
 3626              		@ frame_needed = 1, uses_anonymous_args = 0
 3627 0000 80B5     		push	{r7, lr}
 3628              	.LCFI213:
 3629              		.cfi_def_cfa_offset 8
 3630              		.cfi_offset 7, -8
 3631              		.cfi_offset 14, -4
 3632 0002 84B0     		sub	sp, sp, #16
 3633              	.LCFI214:
 3634              		.cfi_def_cfa_offset 24
 3635 0004 02AF     		add	r7, sp, #8
 3636              	.LCFI215:
 3637              		.cfi_def_cfa 7, 16
 3638 0006 3B60     		str	r3, [r7]
 3639 0008 0346     		mov	r3, r0
 3640 000a FB71     		strb	r3, [r7, #7]
 3641 000c 0B46     		mov	r3, r1
 3642 000e BB71     		strb	r3, [r7, #6]
 3643 0010 1346     		mov	r3, r2
 3644 0012 7B71     		strb	r3, [r7, #5]
 956:Drivers/BSP/Components/L6470/L6470.c ****   L6470_PrepareAppCmdPkg(L6470_Id, L6470_AppCmdPkg, L6470_GOUNTIL_ID, L6470_ActId, L6470_DirId, Spe
 3645              		.loc 1 956 3
 3646 0014 B979     		ldrb	r1, [r7, #6]	@ zero_extendqisi2
 3647 0016 7B79     		ldrb	r3, [r7, #5]	@ zero_extendqisi2
 3648 0018 F879     		ldrb	r0, [r7, #7]	@ zero_extendqisi2
 3649 001a 3A68     		ldr	r2, [r7]
 3650 001c 0192     		str	r2, [sp, #4]
 3651 001e 0093     		str	r3, [sp]
 3652 0020 0B46     		mov	r3, r1
 3653 0022 0822     		movs	r2, #8
 3654 0024 0749     		ldr	r1, .L247
ARM GAS  C:\Users\ep_ygh\AppData\Local\Temp\ccsX1uNj.s 			page 82


 3655 0026 FFF7FEFF 		bl	L6470_PrepareAppCmdPkg
 957:Drivers/BSP/Components/L6470/L6470.c ****   L6470_PrepareDaisyChainCommand(L6470_AppCmdPkg, (uint8_t*)L6470_DaisyChainSpiTxStruct);
 3656              		.loc 1 957 3
 3657 002a 0749     		ldr	r1, .L247+4
 3658 002c 0548     		ldr	r0, .L247
 3659 002e FFF7FEFF 		bl	L6470_PrepareDaisyChainCommand
 958:Drivers/BSP/Components/L6470/L6470.c ****   L6470_DaisyChainCommand((uint8_t*)L6470_DaisyChainSpiTxStruct, (uint8_t*)L6470_DaisyChainSpiRxStr
 3660              		.loc 1 958 3
 3661 0032 0649     		ldr	r1, .L247+8
 3662 0034 0448     		ldr	r0, .L247+4
 3663 0036 FFF7FEFF 		bl	L6470_DaisyChainCommand
 959:Drivers/BSP/Components/L6470/L6470.c **** }
 3664              		.loc 1 959 1
 3665 003a 00BF     		nop
 3666 003c 0837     		adds	r7, r7, #8
 3667              	.LCFI216:
 3668              		.cfi_def_cfa_offset 8
 3669 003e BD46     		mov	sp, r7
 3670              	.LCFI217:
 3671              		.cfi_def_cfa_register 13
 3672              		@ sp needed
 3673 0040 80BD     		pop	{r7, pc}
 3674              	.L248:
 3675 0042 00BF     		.align	2
 3676              	.L247:
 3677 0044 00000000 		.word	L6470_AppCmdPkg
 3678 0048 00000000 		.word	L6470_DaisyChainSpiTxStruct
 3679 004c 00000000 		.word	L6470_DaisyChainSpiRxStruct
 3680              		.cfi_endproc
 3681              	.LFE165:
 3683              		.section	.text.L6470_ReleaseSW,"ax",%progbits
 3684              		.align	1
 3685              		.global	L6470_ReleaseSW
 3686              		.syntax unified
 3687              		.thumb
 3688              		.thumb_func
 3690              	L6470_ReleaseSW:
 3691              	.LFB166:
 960:Drivers/BSP/Components/L6470/L6470.c **** 
 961:Drivers/BSP/Components/L6470/L6470.c **** /**
 962:Drivers/BSP/Components/L6470/L6470.c ****   * @brief  ReleaseSW command produces a motion at minimum speed imposing a direction
 963:Drivers/BSP/Components/L6470/L6470.c ****   *         until SW is released.
 964:Drivers/BSP/Components/L6470/L6470.c ****   * 
 965:Drivers/BSP/Components/L6470/L6470.c ****   * @param  L6470_Id      The identifier of the L6470 target inside the daisy chain.
 966:Drivers/BSP/Components/L6470/L6470.c ****   * @param  L6470_ActId   The identifier of the L6470 action about the absolute position.
 967:Drivers/BSP/Components/L6470/L6470.c ****   * @param  L6470_DirId   The identifier of the L6470 motion direction.
 968:Drivers/BSP/Components/L6470/L6470.c ****   */
 969:Drivers/BSP/Components/L6470/L6470.c **** void L6470_ReleaseSW(uint8_t L6470_Id, eL6470_ActId_t L6470_ActId, eL6470_DirId_t L6470_DirId)
 970:Drivers/BSP/Components/L6470/L6470.c **** {
 3692              		.loc 1 970 1
 3693              		.cfi_startproc
 3694              		@ args = 0, pretend = 0, frame = 8
 3695              		@ frame_needed = 1, uses_anonymous_args = 0
 3696 0000 80B5     		push	{r7, lr}
 3697              	.LCFI218:
 3698              		.cfi_def_cfa_offset 8
 3699              		.cfi_offset 7, -8
ARM GAS  C:\Users\ep_ygh\AppData\Local\Temp\ccsX1uNj.s 			page 83


 3700              		.cfi_offset 14, -4
 3701 0002 84B0     		sub	sp, sp, #16
 3702              	.LCFI219:
 3703              		.cfi_def_cfa_offset 24
 3704 0004 02AF     		add	r7, sp, #8
 3705              	.LCFI220:
 3706              		.cfi_def_cfa 7, 16
 3707 0006 0346     		mov	r3, r0
 3708 0008 FB71     		strb	r3, [r7, #7]
 3709 000a 0B46     		mov	r3, r1
 3710 000c BB71     		strb	r3, [r7, #6]
 3711 000e 1346     		mov	r3, r2
 3712 0010 7B71     		strb	r3, [r7, #5]
 971:Drivers/BSP/Components/L6470/L6470.c ****   L6470_PrepareAppCmdPkg(L6470_Id, L6470_AppCmdPkg, L6470_RELEASESW_ID, L6470_ActId, L6470_DirId, 0
 3713              		.loc 1 971 3
 3714 0012 BA79     		ldrb	r2, [r7, #6]	@ zero_extendqisi2
 3715 0014 7B79     		ldrb	r3, [r7, #5]	@ zero_extendqisi2
 3716 0016 F879     		ldrb	r0, [r7, #7]	@ zero_extendqisi2
 3717 0018 0021     		movs	r1, #0
 3718 001a 0191     		str	r1, [sp, #4]
 3719 001c 0093     		str	r3, [sp]
 3720 001e 1346     		mov	r3, r2
 3721 0020 0922     		movs	r2, #9
 3722 0022 0749     		ldr	r1, .L250
 3723 0024 FFF7FEFF 		bl	L6470_PrepareAppCmdPkg
 972:Drivers/BSP/Components/L6470/L6470.c ****   L6470_PrepareDaisyChainCommand(L6470_AppCmdPkg, (uint8_t*)L6470_DaisyChainSpiTxStruct);
 3724              		.loc 1 972 3
 3725 0028 0649     		ldr	r1, .L250+4
 3726 002a 0548     		ldr	r0, .L250
 3727 002c FFF7FEFF 		bl	L6470_PrepareDaisyChainCommand
 973:Drivers/BSP/Components/L6470/L6470.c ****   L6470_DaisyChainCommand((uint8_t*)L6470_DaisyChainSpiTxStruct, (uint8_t*)L6470_DaisyChainSpiRxStr
 3728              		.loc 1 973 3
 3729 0030 0549     		ldr	r1, .L250+8
 3730 0032 0448     		ldr	r0, .L250+4
 3731 0034 FFF7FEFF 		bl	L6470_DaisyChainCommand
 974:Drivers/BSP/Components/L6470/L6470.c **** }
 3732              		.loc 1 974 1
 3733 0038 00BF     		nop
 3734 003a 0837     		adds	r7, r7, #8
 3735              	.LCFI221:
 3736              		.cfi_def_cfa_offset 8
 3737 003c BD46     		mov	sp, r7
 3738              	.LCFI222:
 3739              		.cfi_def_cfa_register 13
 3740              		@ sp needed
 3741 003e 80BD     		pop	{r7, pc}
 3742              	.L251:
 3743              		.align	2
 3744              	.L250:
 3745 0040 00000000 		.word	L6470_AppCmdPkg
 3746 0044 00000000 		.word	L6470_DaisyChainSpiTxStruct
 3747 0048 00000000 		.word	L6470_DaisyChainSpiRxStruct
 3748              		.cfi_endproc
 3749              	.LFE166:
 3751              		.section	.text.L6470_GoHome,"ax",%progbits
 3752              		.align	1
 3753              		.global	L6470_GoHome
ARM GAS  C:\Users\ep_ygh\AppData\Local\Temp\ccsX1uNj.s 			page 84


 3754              		.syntax unified
 3755              		.thumb
 3756              		.thumb_func
 3758              	L6470_GoHome:
 3759              	.LFB167:
 975:Drivers/BSP/Components/L6470/L6470.c **** 
 976:Drivers/BSP/Components/L6470/L6470.c **** /**
 977:Drivers/BSP/Components/L6470/L6470.c ****   * @brief  GoHome command produces a motion to the HOME position (zero position)
 978:Drivers/BSP/Components/L6470/L6470.c ****   *         via the shortest path.
 979:Drivers/BSP/Components/L6470/L6470.c ****   * 
 980:Drivers/BSP/Components/L6470/L6470.c ****   * @param  L6470_Id      The identifier of the L6470 target inside the daisy chain.
 981:Drivers/BSP/Components/L6470/L6470.c ****   */
 982:Drivers/BSP/Components/L6470/L6470.c **** void L6470_GoHome(uint8_t L6470_Id)
 983:Drivers/BSP/Components/L6470/L6470.c **** {
 3760              		.loc 1 983 1
 3761              		.cfi_startproc
 3762              		@ args = 0, pretend = 0, frame = 8
 3763              		@ frame_needed = 1, uses_anonymous_args = 0
 3764 0000 80B5     		push	{r7, lr}
 3765              	.LCFI223:
 3766              		.cfi_def_cfa_offset 8
 3767              		.cfi_offset 7, -8
 3768              		.cfi_offset 14, -4
 3769 0002 84B0     		sub	sp, sp, #16
 3770              	.LCFI224:
 3771              		.cfi_def_cfa_offset 24
 3772 0004 02AF     		add	r7, sp, #8
 3773              	.LCFI225:
 3774              		.cfi_def_cfa 7, 16
 3775 0006 0346     		mov	r3, r0
 3776 0008 FB71     		strb	r3, [r7, #7]
 984:Drivers/BSP/Components/L6470/L6470.c ****   L6470_PrepareAppCmdPkg(L6470_Id, L6470_AppCmdPkg, L6470_GOHOME_ID, 0, 0, 0);
 3777              		.loc 1 984 3
 3778 000a F879     		ldrb	r0, [r7, #7]	@ zero_extendqisi2
 3779 000c 0023     		movs	r3, #0
 3780 000e 0193     		str	r3, [sp, #4]
 3781 0010 0023     		movs	r3, #0
 3782 0012 0093     		str	r3, [sp]
 3783 0014 0023     		movs	r3, #0
 3784 0016 0A22     		movs	r2, #10
 3785 0018 0749     		ldr	r1, .L253
 3786 001a FFF7FEFF 		bl	L6470_PrepareAppCmdPkg
 985:Drivers/BSP/Components/L6470/L6470.c ****   L6470_PrepareDaisyChainCommand(L6470_AppCmdPkg, (uint8_t*)L6470_DaisyChainSpiTxStruct);
 3787              		.loc 1 985 3
 3788 001e 0749     		ldr	r1, .L253+4
 3789 0020 0548     		ldr	r0, .L253
 3790 0022 FFF7FEFF 		bl	L6470_PrepareDaisyChainCommand
 986:Drivers/BSP/Components/L6470/L6470.c ****   L6470_DaisyChainCommand((uint8_t*)L6470_DaisyChainSpiTxStruct, (uint8_t*)L6470_DaisyChainSpiRxStr
 3791              		.loc 1 986 3
 3792 0026 0649     		ldr	r1, .L253+8
 3793 0028 0448     		ldr	r0, .L253+4
 3794 002a FFF7FEFF 		bl	L6470_DaisyChainCommand
 987:Drivers/BSP/Components/L6470/L6470.c **** }
 3795              		.loc 1 987 1
 3796 002e 00BF     		nop
 3797 0030 0837     		adds	r7, r7, #8
 3798              	.LCFI226:
ARM GAS  C:\Users\ep_ygh\AppData\Local\Temp\ccsX1uNj.s 			page 85


 3799              		.cfi_def_cfa_offset 8
 3800 0032 BD46     		mov	sp, r7
 3801              	.LCFI227:
 3802              		.cfi_def_cfa_register 13
 3803              		@ sp needed
 3804 0034 80BD     		pop	{r7, pc}
 3805              	.L254:
 3806 0036 00BF     		.align	2
 3807              	.L253:
 3808 0038 00000000 		.word	L6470_AppCmdPkg
 3809 003c 00000000 		.word	L6470_DaisyChainSpiTxStruct
 3810 0040 00000000 		.word	L6470_DaisyChainSpiRxStruct
 3811              		.cfi_endproc
 3812              	.LFE167:
 3814              		.section	.text.L6470_GoMark,"ax",%progbits
 3815              		.align	1
 3816              		.global	L6470_GoMark
 3817              		.syntax unified
 3818              		.thumb
 3819              		.thumb_func
 3821              	L6470_GoMark:
 3822              	.LFB168:
 988:Drivers/BSP/Components/L6470/L6470.c **** 
 989:Drivers/BSP/Components/L6470/L6470.c **** /**
 990:Drivers/BSP/Components/L6470/L6470.c ****   * @brief  GoMark command produces a motion to the MARK position performing the
 991:Drivers/BSP/Components/L6470/L6470.c ****   *         minimum path.
 992:Drivers/BSP/Components/L6470/L6470.c ****   * 
 993:Drivers/BSP/Components/L6470/L6470.c ****   * @param  L6470_Id      The identifier of the L6470 target inside the daisy chain.
 994:Drivers/BSP/Components/L6470/L6470.c ****   */
 995:Drivers/BSP/Components/L6470/L6470.c **** void L6470_GoMark(uint8_t L6470_Id)
 996:Drivers/BSP/Components/L6470/L6470.c **** {
 3823              		.loc 1 996 1
 3824              		.cfi_startproc
 3825              		@ args = 0, pretend = 0, frame = 8
 3826              		@ frame_needed = 1, uses_anonymous_args = 0
 3827 0000 80B5     		push	{r7, lr}
 3828              	.LCFI228:
 3829              		.cfi_def_cfa_offset 8
 3830              		.cfi_offset 7, -8
 3831              		.cfi_offset 14, -4
 3832 0002 84B0     		sub	sp, sp, #16
 3833              	.LCFI229:
 3834              		.cfi_def_cfa_offset 24
 3835 0004 02AF     		add	r7, sp, #8
 3836              	.LCFI230:
 3837              		.cfi_def_cfa 7, 16
 3838 0006 0346     		mov	r3, r0
 3839 0008 FB71     		strb	r3, [r7, #7]
 997:Drivers/BSP/Components/L6470/L6470.c ****   L6470_PrepareAppCmdPkg(L6470_Id, L6470_AppCmdPkg, L6470_GOMARK_ID, 0, 0, 0);
 3840              		.loc 1 997 3
 3841 000a F879     		ldrb	r0, [r7, #7]	@ zero_extendqisi2
 3842 000c 0023     		movs	r3, #0
 3843 000e 0193     		str	r3, [sp, #4]
 3844 0010 0023     		movs	r3, #0
 3845 0012 0093     		str	r3, [sp]
 3846 0014 0023     		movs	r3, #0
 3847 0016 0B22     		movs	r2, #11
ARM GAS  C:\Users\ep_ygh\AppData\Local\Temp\ccsX1uNj.s 			page 86


 3848 0018 0749     		ldr	r1, .L256
 3849 001a FFF7FEFF 		bl	L6470_PrepareAppCmdPkg
 998:Drivers/BSP/Components/L6470/L6470.c ****   L6470_PrepareDaisyChainCommand(L6470_AppCmdPkg, (uint8_t*)L6470_DaisyChainSpiTxStruct);
 3850              		.loc 1 998 3
 3851 001e 0749     		ldr	r1, .L256+4
 3852 0020 0548     		ldr	r0, .L256
 3853 0022 FFF7FEFF 		bl	L6470_PrepareDaisyChainCommand
 999:Drivers/BSP/Components/L6470/L6470.c ****   L6470_DaisyChainCommand((uint8_t*)L6470_DaisyChainSpiTxStruct, (uint8_t*)L6470_DaisyChainSpiRxStr
 3854              		.loc 1 999 3
 3855 0026 0649     		ldr	r1, .L256+8
 3856 0028 0448     		ldr	r0, .L256+4
 3857 002a FFF7FEFF 		bl	L6470_DaisyChainCommand
1000:Drivers/BSP/Components/L6470/L6470.c **** }
 3858              		.loc 1 1000 1
 3859 002e 00BF     		nop
 3860 0030 0837     		adds	r7, r7, #8
 3861              	.LCFI231:
 3862              		.cfi_def_cfa_offset 8
 3863 0032 BD46     		mov	sp, r7
 3864              	.LCFI232:
 3865              		.cfi_def_cfa_register 13
 3866              		@ sp needed
 3867 0034 80BD     		pop	{r7, pc}
 3868              	.L257:
 3869 0036 00BF     		.align	2
 3870              	.L256:
 3871 0038 00000000 		.word	L6470_AppCmdPkg
 3872 003c 00000000 		.word	L6470_DaisyChainSpiTxStruct
 3873 0040 00000000 		.word	L6470_DaisyChainSpiRxStruct
 3874              		.cfi_endproc
 3875              	.LFE168:
 3877              		.section	.text.L6470_ResetPos,"ax",%progbits
 3878              		.align	1
 3879              		.global	L6470_ResetPos
 3880              		.syntax unified
 3881              		.thumb
 3882              		.thumb_func
 3884              	L6470_ResetPos:
 3885              	.LFB169:
1001:Drivers/BSP/Components/L6470/L6470.c **** 
1002:Drivers/BSP/Components/L6470/L6470.c **** /**
1003:Drivers/BSP/Components/L6470/L6470.c ****   * @brief  ResetPos command resets the ABS_POS register to zero.
1004:Drivers/BSP/Components/L6470/L6470.c ****   * 
1005:Drivers/BSP/Components/L6470/L6470.c ****   * @param  L6470_Id      The identifier of the L6470 target inside the daisy chain.
1006:Drivers/BSP/Components/L6470/L6470.c ****   */
1007:Drivers/BSP/Components/L6470/L6470.c **** void L6470_ResetPos(uint8_t L6470_Id)
1008:Drivers/BSP/Components/L6470/L6470.c **** {
 3886              		.loc 1 1008 1
 3887              		.cfi_startproc
 3888              		@ args = 0, pretend = 0, frame = 8
 3889              		@ frame_needed = 1, uses_anonymous_args = 0
 3890 0000 80B5     		push	{r7, lr}
 3891              	.LCFI233:
 3892              		.cfi_def_cfa_offset 8
 3893              		.cfi_offset 7, -8
 3894              		.cfi_offset 14, -4
 3895 0002 84B0     		sub	sp, sp, #16
ARM GAS  C:\Users\ep_ygh\AppData\Local\Temp\ccsX1uNj.s 			page 87


 3896              	.LCFI234:
 3897              		.cfi_def_cfa_offset 24
 3898 0004 02AF     		add	r7, sp, #8
 3899              	.LCFI235:
 3900              		.cfi_def_cfa 7, 16
 3901 0006 0346     		mov	r3, r0
 3902 0008 FB71     		strb	r3, [r7, #7]
1009:Drivers/BSP/Components/L6470/L6470.c ****   L6470_PrepareAppCmdPkg(L6470_Id, L6470_AppCmdPkg, L6470_RESETPOS_ID, 0, 0, 0);
 3903              		.loc 1 1009 3
 3904 000a F879     		ldrb	r0, [r7, #7]	@ zero_extendqisi2
 3905 000c 0023     		movs	r3, #0
 3906 000e 0193     		str	r3, [sp, #4]
 3907 0010 0023     		movs	r3, #0
 3908 0012 0093     		str	r3, [sp]
 3909 0014 0023     		movs	r3, #0
 3910 0016 0C22     		movs	r2, #12
 3911 0018 0749     		ldr	r1, .L259
 3912 001a FFF7FEFF 		bl	L6470_PrepareAppCmdPkg
1010:Drivers/BSP/Components/L6470/L6470.c ****   L6470_PrepareDaisyChainCommand(L6470_AppCmdPkg, (uint8_t*)L6470_DaisyChainSpiTxStruct);
 3913              		.loc 1 1010 3
 3914 001e 0749     		ldr	r1, .L259+4
 3915 0020 0548     		ldr	r0, .L259
 3916 0022 FFF7FEFF 		bl	L6470_PrepareDaisyChainCommand
1011:Drivers/BSP/Components/L6470/L6470.c ****   L6470_DaisyChainCommand((uint8_t*)L6470_DaisyChainSpiTxStruct, (uint8_t*)L6470_DaisyChainSpiRxStr
 3917              		.loc 1 1011 3
 3918 0026 0649     		ldr	r1, .L259+8
 3919 0028 0448     		ldr	r0, .L259+4
 3920 002a FFF7FEFF 		bl	L6470_DaisyChainCommand
1012:Drivers/BSP/Components/L6470/L6470.c **** }
 3921              		.loc 1 1012 1
 3922 002e 00BF     		nop
 3923 0030 0837     		adds	r7, r7, #8
 3924              	.LCFI236:
 3925              		.cfi_def_cfa_offset 8
 3926 0032 BD46     		mov	sp, r7
 3927              	.LCFI237:
 3928              		.cfi_def_cfa_register 13
 3929              		@ sp needed
 3930 0034 80BD     		pop	{r7, pc}
 3931              	.L260:
 3932 0036 00BF     		.align	2
 3933              	.L259:
 3934 0038 00000000 		.word	L6470_AppCmdPkg
 3935 003c 00000000 		.word	L6470_DaisyChainSpiTxStruct
 3936 0040 00000000 		.word	L6470_DaisyChainSpiRxStruct
 3937              		.cfi_endproc
 3938              	.LFE169:
 3940              		.section	.text.L6470_ResetDevice,"ax",%progbits
 3941              		.align	1
 3942              		.global	L6470_ResetDevice
 3943              		.syntax unified
 3944              		.thumb
 3945              		.thumb_func
 3947              	L6470_ResetDevice:
 3948              	.LFB170:
1013:Drivers/BSP/Components/L6470/L6470.c **** 
1014:Drivers/BSP/Components/L6470/L6470.c **** /**
ARM GAS  C:\Users\ep_ygh\AppData\Local\Temp\ccsX1uNj.s 			page 88


1015:Drivers/BSP/Components/L6470/L6470.c ****   * @brief  ResetDevice command resets the device to power-up conditions.
1016:Drivers/BSP/Components/L6470/L6470.c ****   * 
1017:Drivers/BSP/Components/L6470/L6470.c ****   * @param  L6470_Id      The identifier of the L6470 target inside the daisy chain.
1018:Drivers/BSP/Components/L6470/L6470.c ****   */
1019:Drivers/BSP/Components/L6470/L6470.c **** void L6470_ResetDevice(uint8_t L6470_Id)
1020:Drivers/BSP/Components/L6470/L6470.c **** {
 3949              		.loc 1 1020 1
 3950              		.cfi_startproc
 3951              		@ args = 0, pretend = 0, frame = 8
 3952              		@ frame_needed = 1, uses_anonymous_args = 0
 3953 0000 80B5     		push	{r7, lr}
 3954              	.LCFI238:
 3955              		.cfi_def_cfa_offset 8
 3956              		.cfi_offset 7, -8
 3957              		.cfi_offset 14, -4
 3958 0002 84B0     		sub	sp, sp, #16
 3959              	.LCFI239:
 3960              		.cfi_def_cfa_offset 24
 3961 0004 02AF     		add	r7, sp, #8
 3962              	.LCFI240:
 3963              		.cfi_def_cfa 7, 16
 3964 0006 0346     		mov	r3, r0
 3965 0008 FB71     		strb	r3, [r7, #7]
1021:Drivers/BSP/Components/L6470/L6470.c ****   L6470_PrepareAppCmdPkg(L6470_Id, L6470_AppCmdPkg, L6470_RESETDEVICE_ID, 0, 0, 0);
 3966              		.loc 1 1021 3
 3967 000a F879     		ldrb	r0, [r7, #7]	@ zero_extendqisi2
 3968 000c 0023     		movs	r3, #0
 3969 000e 0193     		str	r3, [sp, #4]
 3970 0010 0023     		movs	r3, #0
 3971 0012 0093     		str	r3, [sp]
 3972 0014 0023     		movs	r3, #0
 3973 0016 0D22     		movs	r2, #13
 3974 0018 0749     		ldr	r1, .L262
 3975 001a FFF7FEFF 		bl	L6470_PrepareAppCmdPkg
1022:Drivers/BSP/Components/L6470/L6470.c ****   L6470_PrepareDaisyChainCommand(L6470_AppCmdPkg, (uint8_t*)L6470_DaisyChainSpiTxStruct);
 3976              		.loc 1 1022 3
 3977 001e 0749     		ldr	r1, .L262+4
 3978 0020 0548     		ldr	r0, .L262
 3979 0022 FFF7FEFF 		bl	L6470_PrepareDaisyChainCommand
1023:Drivers/BSP/Components/L6470/L6470.c ****   L6470_DaisyChainCommand((uint8_t*)L6470_DaisyChainSpiTxStruct, (uint8_t*)L6470_DaisyChainSpiRxStr
 3980              		.loc 1 1023 3
 3981 0026 0649     		ldr	r1, .L262+8
 3982 0028 0448     		ldr	r0, .L262+4
 3983 002a FFF7FEFF 		bl	L6470_DaisyChainCommand
1024:Drivers/BSP/Components/L6470/L6470.c **** }
 3984              		.loc 1 1024 1
 3985 002e 00BF     		nop
 3986 0030 0837     		adds	r7, r7, #8
 3987              	.LCFI241:
 3988              		.cfi_def_cfa_offset 8
 3989 0032 BD46     		mov	sp, r7
 3990              	.LCFI242:
 3991              		.cfi_def_cfa_register 13
 3992              		@ sp needed
 3993 0034 80BD     		pop	{r7, pc}
 3994              	.L263:
 3995 0036 00BF     		.align	2
ARM GAS  C:\Users\ep_ygh\AppData\Local\Temp\ccsX1uNj.s 			page 89


 3996              	.L262:
 3997 0038 00000000 		.word	L6470_AppCmdPkg
 3998 003c 00000000 		.word	L6470_DaisyChainSpiTxStruct
 3999 0040 00000000 		.word	L6470_DaisyChainSpiRxStruct
 4000              		.cfi_endproc
 4001              	.LFE170:
 4003              		.section	.text.L6470_SoftStop,"ax",%progbits
 4004              		.align	1
 4005              		.global	L6470_SoftStop
 4006              		.syntax unified
 4007              		.thumb
 4008              		.thumb_func
 4010              	L6470_SoftStop:
 4011              	.LFB171:
1025:Drivers/BSP/Components/L6470/L6470.c **** 
1026:Drivers/BSP/Components/L6470/L6470.c **** /**
1027:Drivers/BSP/Components/L6470/L6470.c ****   * @brief  SoftStop command causes an immediate deceleration to zero speed and
1028:Drivers/BSP/Components/L6470/L6470.c ****   *         a consequent motor stop; the deceleration value used is the one stored
1029:Drivers/BSP/Components/L6470/L6470.c ****   *         in the DEC register.
1030:Drivers/BSP/Components/L6470/L6470.c ****   * 
1031:Drivers/BSP/Components/L6470/L6470.c ****   * @param  L6470_Id      The identifier of the L6470 target inside the daisy chain.
1032:Drivers/BSP/Components/L6470/L6470.c ****   */
1033:Drivers/BSP/Components/L6470/L6470.c **** void L6470_SoftStop(uint8_t L6470_Id)
1034:Drivers/BSP/Components/L6470/L6470.c **** {
 4012              		.loc 1 1034 1
 4013              		.cfi_startproc
 4014              		@ args = 0, pretend = 0, frame = 8
 4015              		@ frame_needed = 1, uses_anonymous_args = 0
 4016 0000 80B5     		push	{r7, lr}
 4017              	.LCFI243:
 4018              		.cfi_def_cfa_offset 8
 4019              		.cfi_offset 7, -8
 4020              		.cfi_offset 14, -4
 4021 0002 84B0     		sub	sp, sp, #16
 4022              	.LCFI244:
 4023              		.cfi_def_cfa_offset 24
 4024 0004 02AF     		add	r7, sp, #8
 4025              	.LCFI245:
 4026              		.cfi_def_cfa 7, 16
 4027 0006 0346     		mov	r3, r0
 4028 0008 FB71     		strb	r3, [r7, #7]
1035:Drivers/BSP/Components/L6470/L6470.c ****   L6470_PrepareAppCmdPkg(L6470_Id, L6470_AppCmdPkg, L6470_SOFTSTOP_ID, 0, 0, 0);
 4029              		.loc 1 1035 3
 4030 000a F879     		ldrb	r0, [r7, #7]	@ zero_extendqisi2
 4031 000c 0023     		movs	r3, #0
 4032 000e 0193     		str	r3, [sp, #4]
 4033 0010 0023     		movs	r3, #0
 4034 0012 0093     		str	r3, [sp]
 4035 0014 0023     		movs	r3, #0
 4036 0016 0E22     		movs	r2, #14
 4037 0018 0749     		ldr	r1, .L265
 4038 001a FFF7FEFF 		bl	L6470_PrepareAppCmdPkg
1036:Drivers/BSP/Components/L6470/L6470.c ****   L6470_PrepareDaisyChainCommand(L6470_AppCmdPkg, (uint8_t*)L6470_DaisyChainSpiTxStruct);
 4039              		.loc 1 1036 3
 4040 001e 0749     		ldr	r1, .L265+4
 4041 0020 0548     		ldr	r0, .L265
 4042 0022 FFF7FEFF 		bl	L6470_PrepareDaisyChainCommand
ARM GAS  C:\Users\ep_ygh\AppData\Local\Temp\ccsX1uNj.s 			page 90


1037:Drivers/BSP/Components/L6470/L6470.c ****   L6470_DaisyChainCommand((uint8_t*)L6470_DaisyChainSpiTxStruct, (uint8_t*)L6470_DaisyChainSpiRxStr
 4043              		.loc 1 1037 3
 4044 0026 0649     		ldr	r1, .L265+8
 4045 0028 0448     		ldr	r0, .L265+4
 4046 002a FFF7FEFF 		bl	L6470_DaisyChainCommand
1038:Drivers/BSP/Components/L6470/L6470.c **** }
 4047              		.loc 1 1038 1
 4048 002e 00BF     		nop
 4049 0030 0837     		adds	r7, r7, #8
 4050              	.LCFI246:
 4051              		.cfi_def_cfa_offset 8
 4052 0032 BD46     		mov	sp, r7
 4053              	.LCFI247:
 4054              		.cfi_def_cfa_register 13
 4055              		@ sp needed
 4056 0034 80BD     		pop	{r7, pc}
 4057              	.L266:
 4058 0036 00BF     		.align	2
 4059              	.L265:
 4060 0038 00000000 		.word	L6470_AppCmdPkg
 4061 003c 00000000 		.word	L6470_DaisyChainSpiTxStruct
 4062 0040 00000000 		.word	L6470_DaisyChainSpiRxStruct
 4063              		.cfi_endproc
 4064              	.LFE171:
 4066              		.section	.text.L6470_HardStop,"ax",%progbits
 4067              		.align	1
 4068              		.global	L6470_HardStop
 4069              		.syntax unified
 4070              		.thumb
 4071              		.thumb_func
 4073              	L6470_HardStop:
 4074              	.LFB172:
1039:Drivers/BSP/Components/L6470/L6470.c **** 
1040:Drivers/BSP/Components/L6470/L6470.c **** /**
1041:Drivers/BSP/Components/L6470/L6470.c ****   * @brief  HardStop command causes an immediate motor stop with infinite deceleration.
1042:Drivers/BSP/Components/L6470/L6470.c ****   * 
1043:Drivers/BSP/Components/L6470/L6470.c ****   * @param  L6470_Id      The identifier of the L6470 target inside the daisy chain.
1044:Drivers/BSP/Components/L6470/L6470.c ****   */
1045:Drivers/BSP/Components/L6470/L6470.c **** void L6470_HardStop(uint8_t L6470_Id)
1046:Drivers/BSP/Components/L6470/L6470.c **** {
 4075              		.loc 1 1046 1
 4076              		.cfi_startproc
 4077              		@ args = 0, pretend = 0, frame = 8
 4078              		@ frame_needed = 1, uses_anonymous_args = 0
 4079 0000 80B5     		push	{r7, lr}
 4080              	.LCFI248:
 4081              		.cfi_def_cfa_offset 8
 4082              		.cfi_offset 7, -8
 4083              		.cfi_offset 14, -4
 4084 0002 84B0     		sub	sp, sp, #16
 4085              	.LCFI249:
 4086              		.cfi_def_cfa_offset 24
 4087 0004 02AF     		add	r7, sp, #8
 4088              	.LCFI250:
 4089              		.cfi_def_cfa 7, 16
 4090 0006 0346     		mov	r3, r0
 4091 0008 FB71     		strb	r3, [r7, #7]
ARM GAS  C:\Users\ep_ygh\AppData\Local\Temp\ccsX1uNj.s 			page 91


1047:Drivers/BSP/Components/L6470/L6470.c ****   L6470_PrepareAppCmdPkg(L6470_Id, L6470_AppCmdPkg, L6470_HARDSTOP_ID, 0, 0, 0);
 4092              		.loc 1 1047 3
 4093 000a F879     		ldrb	r0, [r7, #7]	@ zero_extendqisi2
 4094 000c 0023     		movs	r3, #0
 4095 000e 0193     		str	r3, [sp, #4]
 4096 0010 0023     		movs	r3, #0
 4097 0012 0093     		str	r3, [sp]
 4098 0014 0023     		movs	r3, #0
 4099 0016 0F22     		movs	r2, #15
 4100 0018 0749     		ldr	r1, .L268
 4101 001a FFF7FEFF 		bl	L6470_PrepareAppCmdPkg
1048:Drivers/BSP/Components/L6470/L6470.c ****   L6470_PrepareDaisyChainCommand(L6470_AppCmdPkg, (uint8_t*)L6470_DaisyChainSpiTxStruct);
 4102              		.loc 1 1048 3
 4103 001e 0749     		ldr	r1, .L268+4
 4104 0020 0548     		ldr	r0, .L268
 4105 0022 FFF7FEFF 		bl	L6470_PrepareDaisyChainCommand
1049:Drivers/BSP/Components/L6470/L6470.c ****   L6470_DaisyChainCommand((uint8_t*)L6470_DaisyChainSpiTxStruct, (uint8_t*)L6470_DaisyChainSpiRxStr
 4106              		.loc 1 1049 3
 4107 0026 0649     		ldr	r1, .L268+8
 4108 0028 0448     		ldr	r0, .L268+4
 4109 002a FFF7FEFF 		bl	L6470_DaisyChainCommand
1050:Drivers/BSP/Components/L6470/L6470.c **** }
 4110              		.loc 1 1050 1
 4111 002e 00BF     		nop
 4112 0030 0837     		adds	r7, r7, #8
 4113              	.LCFI251:
 4114              		.cfi_def_cfa_offset 8
 4115 0032 BD46     		mov	sp, r7
 4116              	.LCFI252:
 4117              		.cfi_def_cfa_register 13
 4118              		@ sp needed
 4119 0034 80BD     		pop	{r7, pc}
 4120              	.L269:
 4121 0036 00BF     		.align	2
 4122              	.L268:
 4123 0038 00000000 		.word	L6470_AppCmdPkg
 4124 003c 00000000 		.word	L6470_DaisyChainSpiTxStruct
 4125 0040 00000000 		.word	L6470_DaisyChainSpiRxStruct
 4126              		.cfi_endproc
 4127              	.LFE172:
 4129              		.section	.text.L6470_SoftHiZ,"ax",%progbits
 4130              		.align	1
 4131              		.global	L6470_SoftHiZ
 4132              		.syntax unified
 4133              		.thumb
 4134              		.thumb_func
 4136              	L6470_SoftHiZ:
 4137              	.LFB173:
1051:Drivers/BSP/Components/L6470/L6470.c **** 
1052:Drivers/BSP/Components/L6470/L6470.c **** /**
1053:Drivers/BSP/Components/L6470/L6470.c ****   * @brief  SoftHiZ command disables the power bridges (high impedance state)
1054:Drivers/BSP/Components/L6470/L6470.c ****   *         after a deceleration to zero; the deceleration value used is the one
1055:Drivers/BSP/Components/L6470/L6470.c ****   *         stored in the DEC register.
1056:Drivers/BSP/Components/L6470/L6470.c ****   * 
1057:Drivers/BSP/Components/L6470/L6470.c ****   * @param  L6470_Id      The identifier of the L6470 target inside the daisy chain.
1058:Drivers/BSP/Components/L6470/L6470.c ****   */
1059:Drivers/BSP/Components/L6470/L6470.c **** void L6470_SoftHiZ(uint8_t L6470_Id)
ARM GAS  C:\Users\ep_ygh\AppData\Local\Temp\ccsX1uNj.s 			page 92


1060:Drivers/BSP/Components/L6470/L6470.c **** {
 4138              		.loc 1 1060 1
 4139              		.cfi_startproc
 4140              		@ args = 0, pretend = 0, frame = 8
 4141              		@ frame_needed = 1, uses_anonymous_args = 0
 4142 0000 80B5     		push	{r7, lr}
 4143              	.LCFI253:
 4144              		.cfi_def_cfa_offset 8
 4145              		.cfi_offset 7, -8
 4146              		.cfi_offset 14, -4
 4147 0002 84B0     		sub	sp, sp, #16
 4148              	.LCFI254:
 4149              		.cfi_def_cfa_offset 24
 4150 0004 02AF     		add	r7, sp, #8
 4151              	.LCFI255:
 4152              		.cfi_def_cfa 7, 16
 4153 0006 0346     		mov	r3, r0
 4154 0008 FB71     		strb	r3, [r7, #7]
1061:Drivers/BSP/Components/L6470/L6470.c ****   L6470_PrepareAppCmdPkg(L6470_Id, L6470_AppCmdPkg, L6470_SOFTHIZ_ID, 0, 0, 0);
 4155              		.loc 1 1061 3
 4156 000a F879     		ldrb	r0, [r7, #7]	@ zero_extendqisi2
 4157 000c 0023     		movs	r3, #0
 4158 000e 0193     		str	r3, [sp, #4]
 4159 0010 0023     		movs	r3, #0
 4160 0012 0093     		str	r3, [sp]
 4161 0014 0023     		movs	r3, #0
 4162 0016 1022     		movs	r2, #16
 4163 0018 0749     		ldr	r1, .L271
 4164 001a FFF7FEFF 		bl	L6470_PrepareAppCmdPkg
1062:Drivers/BSP/Components/L6470/L6470.c ****   L6470_PrepareDaisyChainCommand(L6470_AppCmdPkg, (uint8_t*)L6470_DaisyChainSpiTxStruct);
 4165              		.loc 1 1062 3
 4166 001e 0749     		ldr	r1, .L271+4
 4167 0020 0548     		ldr	r0, .L271
 4168 0022 FFF7FEFF 		bl	L6470_PrepareDaisyChainCommand
1063:Drivers/BSP/Components/L6470/L6470.c ****   L6470_DaisyChainCommand((uint8_t*)L6470_DaisyChainSpiTxStruct, (uint8_t*)L6470_DaisyChainSpiRxStr
 4169              		.loc 1 1063 3
 4170 0026 0649     		ldr	r1, .L271+8
 4171 0028 0448     		ldr	r0, .L271+4
 4172 002a FFF7FEFF 		bl	L6470_DaisyChainCommand
1064:Drivers/BSP/Components/L6470/L6470.c **** }
 4173              		.loc 1 1064 1
 4174 002e 00BF     		nop
 4175 0030 0837     		adds	r7, r7, #8
 4176              	.LCFI256:
 4177              		.cfi_def_cfa_offset 8
 4178 0032 BD46     		mov	sp, r7
 4179              	.LCFI257:
 4180              		.cfi_def_cfa_register 13
 4181              		@ sp needed
 4182 0034 80BD     		pop	{r7, pc}
 4183              	.L272:
 4184 0036 00BF     		.align	2
 4185              	.L271:
 4186 0038 00000000 		.word	L6470_AppCmdPkg
 4187 003c 00000000 		.word	L6470_DaisyChainSpiTxStruct
 4188 0040 00000000 		.word	L6470_DaisyChainSpiRxStruct
 4189              		.cfi_endproc
ARM GAS  C:\Users\ep_ygh\AppData\Local\Temp\ccsX1uNj.s 			page 93


 4190              	.LFE173:
 4192              		.section	.text.L6470_HardHiZ,"ax",%progbits
 4193              		.align	1
 4194              		.global	L6470_HardHiZ
 4195              		.syntax unified
 4196              		.thumb
 4197              		.thumb_func
 4199              	L6470_HardHiZ:
 4200              	.LFB174:
1065:Drivers/BSP/Components/L6470/L6470.c **** 
1066:Drivers/BSP/Components/L6470/L6470.c **** /**
1067:Drivers/BSP/Components/L6470/L6470.c ****   * @brief  HardHiZ command immediately disables the power bridges (high impedance state).
1068:Drivers/BSP/Components/L6470/L6470.c ****   * 
1069:Drivers/BSP/Components/L6470/L6470.c ****   * @param  L6470_Id      The identifier of the L6470 target inside the daisy chain.
1070:Drivers/BSP/Components/L6470/L6470.c ****   */
1071:Drivers/BSP/Components/L6470/L6470.c **** void L6470_HardHiZ(uint8_t L6470_Id)
1072:Drivers/BSP/Components/L6470/L6470.c **** {
 4201              		.loc 1 1072 1
 4202              		.cfi_startproc
 4203              		@ args = 0, pretend = 0, frame = 8
 4204              		@ frame_needed = 1, uses_anonymous_args = 0
 4205 0000 80B5     		push	{r7, lr}
 4206              	.LCFI258:
 4207              		.cfi_def_cfa_offset 8
 4208              		.cfi_offset 7, -8
 4209              		.cfi_offset 14, -4
 4210 0002 84B0     		sub	sp, sp, #16
 4211              	.LCFI259:
 4212              		.cfi_def_cfa_offset 24
 4213 0004 02AF     		add	r7, sp, #8
 4214              	.LCFI260:
 4215              		.cfi_def_cfa 7, 16
 4216 0006 0346     		mov	r3, r0
 4217 0008 FB71     		strb	r3, [r7, #7]
1073:Drivers/BSP/Components/L6470/L6470.c ****   L6470_PrepareAppCmdPkg(L6470_Id, L6470_AppCmdPkg, L6470_HARDHIZ_ID, 0, 0, 0);
 4218              		.loc 1 1073 3
 4219 000a F879     		ldrb	r0, [r7, #7]	@ zero_extendqisi2
 4220 000c 0023     		movs	r3, #0
 4221 000e 0193     		str	r3, [sp, #4]
 4222 0010 0023     		movs	r3, #0
 4223 0012 0093     		str	r3, [sp]
 4224 0014 0023     		movs	r3, #0
 4225 0016 1122     		movs	r2, #17
 4226 0018 0749     		ldr	r1, .L274
 4227 001a FFF7FEFF 		bl	L6470_PrepareAppCmdPkg
1074:Drivers/BSP/Components/L6470/L6470.c ****   L6470_PrepareDaisyChainCommand(L6470_AppCmdPkg, (uint8_t*)L6470_DaisyChainSpiTxStruct);
 4228              		.loc 1 1074 3
 4229 001e 0749     		ldr	r1, .L274+4
 4230 0020 0548     		ldr	r0, .L274
 4231 0022 FFF7FEFF 		bl	L6470_PrepareDaisyChainCommand
1075:Drivers/BSP/Components/L6470/L6470.c ****   L6470_DaisyChainCommand((uint8_t*)L6470_DaisyChainSpiTxStruct, (uint8_t*)L6470_DaisyChainSpiRxStr
 4232              		.loc 1 1075 3
 4233 0026 0649     		ldr	r1, .L274+8
 4234 0028 0448     		ldr	r0, .L274+4
 4235 002a FFF7FEFF 		bl	L6470_DaisyChainCommand
1076:Drivers/BSP/Components/L6470/L6470.c **** }
 4236              		.loc 1 1076 1
ARM GAS  C:\Users\ep_ygh\AppData\Local\Temp\ccsX1uNj.s 			page 94


 4237 002e 00BF     		nop
 4238 0030 0837     		adds	r7, r7, #8
 4239              	.LCFI261:
 4240              		.cfi_def_cfa_offset 8
 4241 0032 BD46     		mov	sp, r7
 4242              	.LCFI262:
 4243              		.cfi_def_cfa_register 13
 4244              		@ sp needed
 4245 0034 80BD     		pop	{r7, pc}
 4246              	.L275:
 4247 0036 00BF     		.align	2
 4248              	.L274:
 4249 0038 00000000 		.word	L6470_AppCmdPkg
 4250 003c 00000000 		.word	L6470_DaisyChainSpiTxStruct
 4251 0040 00000000 		.word	L6470_DaisyChainSpiRxStruct
 4252              		.cfi_endproc
 4253              	.LFE174:
 4255              		.section	.text.L6470_GetStatus,"ax",%progbits
 4256              		.align	1
 4257              		.global	L6470_GetStatus
 4258              		.syntax unified
 4259              		.thumb
 4260              		.thumb_func
 4262              	L6470_GetStatus:
 4263              	.LFB175:
1077:Drivers/BSP/Components/L6470/L6470.c **** 
1078:Drivers/BSP/Components/L6470/L6470.c **** /**
1079:Drivers/BSP/Components/L6470/L6470.c ****   * @brief  GetStatus command returns the STATUS register value.
1080:Drivers/BSP/Components/L6470/L6470.c ****   * 
1081:Drivers/BSP/Components/L6470/L6470.c ****   * @param  L6470_Id      The identifier of the L6470 target inside the daisy chain.
1082:Drivers/BSP/Components/L6470/L6470.c ****   * 
1083:Drivers/BSP/Components/L6470/L6470.c ****   * @retval ReceivedValue The register value.
1084:Drivers/BSP/Components/L6470/L6470.c ****   */
1085:Drivers/BSP/Components/L6470/L6470.c **** uint16_t L6470_GetStatus(uint8_t L6470_Id)
1086:Drivers/BSP/Components/L6470/L6470.c **** {
 4264              		.loc 1 1086 1
 4265              		.cfi_startproc
 4266              		@ args = 0, pretend = 0, frame = 16
 4267              		@ frame_needed = 1, uses_anonymous_args = 0
 4268 0000 80B5     		push	{r7, lr}
 4269              	.LCFI263:
 4270              		.cfi_def_cfa_offset 8
 4271              		.cfi_offset 7, -8
 4272              		.cfi_offset 14, -4
 4273 0002 86B0     		sub	sp, sp, #24
 4274              	.LCFI264:
 4275              		.cfi_def_cfa_offset 32
 4276 0004 02AF     		add	r7, sp, #8
 4277              	.LCFI265:
 4278              		.cfi_def_cfa 7, 24
 4279 0006 0346     		mov	r3, r0
 4280 0008 FB71     		strb	r3, [r7, #7]
1087:Drivers/BSP/Components/L6470/L6470.c ****   uint16_t ReceivedValue;
1088:Drivers/BSP/Components/L6470/L6470.c **** 
1089:Drivers/BSP/Components/L6470/L6470.c ****   L6470_PrepareAppCmdPkg(L6470_Id, L6470_AppCmdPkg, L6470_GETSTATUS_ID, 0, 0, 0);
 4281              		.loc 1 1089 3
 4282 000a F879     		ldrb	r0, [r7, #7]	@ zero_extendqisi2
ARM GAS  C:\Users\ep_ygh\AppData\Local\Temp\ccsX1uNj.s 			page 95


 4283 000c 0023     		movs	r3, #0
 4284 000e 0193     		str	r3, [sp, #4]
 4285 0010 0023     		movs	r3, #0
 4286 0012 0093     		str	r3, [sp]
 4287 0014 0023     		movs	r3, #0
 4288 0016 1222     		movs	r2, #18
 4289 0018 0B49     		ldr	r1, .L278
 4290 001a FFF7FEFF 		bl	L6470_PrepareAppCmdPkg
1090:Drivers/BSP/Components/L6470/L6470.c ****   L6470_PrepareDaisyChainCommand(L6470_AppCmdPkg, (uint8_t*)L6470_DaisyChainSpiTxStruct);
 4291              		.loc 1 1090 3
 4292 001e 0B49     		ldr	r1, .L278+4
 4293 0020 0948     		ldr	r0, .L278
 4294 0022 FFF7FEFF 		bl	L6470_PrepareDaisyChainCommand
1091:Drivers/BSP/Components/L6470/L6470.c ****   L6470_DaisyChainCommand((uint8_t*)L6470_DaisyChainSpiTxStruct, (uint8_t*)L6470_DaisyChainSpiRxStr
 4295              		.loc 1 1091 3
 4296 0026 0A49     		ldr	r1, .L278+8
 4297 0028 0848     		ldr	r0, .L278+4
 4298 002a FFF7FEFF 		bl	L6470_DaisyChainCommand
1092:Drivers/BSP/Components/L6470/L6470.c ****   
1093:Drivers/BSP/Components/L6470/L6470.c ****   ReceivedValue = (uint16_t)L6470_ExtractReturnedData(L6470_Id, (uint8_t*)L6470_DaisyChainSpiRxStru
 4299              		.loc 1 1093 29
 4300 002e FB79     		ldrb	r3, [r7, #7]	@ zero_extendqisi2
 4301 0030 0222     		movs	r2, #2
 4302 0032 0749     		ldr	r1, .L278+8
 4303 0034 1846     		mov	r0, r3
 4304 0036 FFF7FEFF 		bl	L6470_ExtractReturnedData
 4305 003a 0346     		mov	r3, r0
 4306              		.loc 1 1093 17
 4307 003c FB81     		strh	r3, [r7, #14]	@ movhi
1094:Drivers/BSP/Components/L6470/L6470.c ****   
1095:Drivers/BSP/Components/L6470/L6470.c ****   return ReceivedValue;
 4308              		.loc 1 1095 10
 4309 003e FB89     		ldrh	r3, [r7, #14]
1096:Drivers/BSP/Components/L6470/L6470.c **** }
 4310              		.loc 1 1096 1
 4311 0040 1846     		mov	r0, r3
 4312 0042 1037     		adds	r7, r7, #16
 4313              	.LCFI266:
 4314              		.cfi_def_cfa_offset 8
 4315 0044 BD46     		mov	sp, r7
 4316              	.LCFI267:
 4317              		.cfi_def_cfa_register 13
 4318              		@ sp needed
 4319 0046 80BD     		pop	{r7, pc}
 4320              	.L279:
 4321              		.align	2
 4322              	.L278:
 4323 0048 00000000 		.word	L6470_AppCmdPkg
 4324 004c 00000000 		.word	L6470_DaisyChainSpiTxStruct
 4325 0050 00000000 		.word	L6470_DaisyChainSpiRxStruct
 4326              		.cfi_endproc
 4327              	.LFE175:
 4329              		.section	.text.L6470_PrepareSetParam,"ax",%progbits
 4330              		.align	1
 4331              		.global	L6470_PrepareSetParam
 4332              		.syntax unified
 4333              		.thumb
ARM GAS  C:\Users\ep_ygh\AppData\Local\Temp\ccsX1uNj.s 			page 96


 4334              		.thumb_func
 4336              	L6470_PrepareSetParam:
 4337              	.LFB176:
1097:Drivers/BSP/Components/L6470/L6470.c **** 
1098:Drivers/BSP/Components/L6470/L6470.c **** /**
1099:Drivers/BSP/Components/L6470/L6470.c ****   * @}
1100:Drivers/BSP/Components/L6470/L6470.c ****   */ /* End of L6470_AppCMDs */
1101:Drivers/BSP/Components/L6470/L6470.c **** 
1102:Drivers/BSP/Components/L6470/L6470.c **** /**
1103:Drivers/BSP/Components/L6470/L6470.c ****   * @addtogroup L6470_AppCMDs_ToBePrepared
1104:Drivers/BSP/Components/L6470/L6470.c ****   * @{
1105:Drivers/BSP/Components/L6470/L6470.c ****   */
1106:Drivers/BSP/Components/L6470/L6470.c **** 
1107:Drivers/BSP/Components/L6470/L6470.c **** /**
1108:Drivers/BSP/Components/L6470/L6470.c ****   * @brief  Prepare to send @ref L6470_SetParam command.
1109:Drivers/BSP/Components/L6470/L6470.c ****   *
1110:Drivers/BSP/Components/L6470/L6470.c ****   * @param  L6470_Id      The identifier of the L6470 target inside the daisy chain.
1111:Drivers/BSP/Components/L6470/L6470.c ****   * @param  L6470_RegId   The identifier of the L6470 register to be addressed.
1112:Drivers/BSP/Components/L6470/L6470.c ****   * @param  Value         The new value.
1113:Drivers/BSP/Components/L6470/L6470.c ****   *
1114:Drivers/BSP/Components/L6470/L6470.c ****   * @note   This function will properly fill the right column of the L6470_AppCmdPkg.
1115:Drivers/BSP/Components/L6470/L6470.c ****   * @note   The commad will be sent by @ref L6470_PerformPreparedApplicationCommand.
1116:Drivers/BSP/Components/L6470/L6470.c ****   */
1117:Drivers/BSP/Components/L6470/L6470.c **** void L6470_PrepareSetParam(uint8_t L6470_Id, eL6470_RegId_t L6470_RegId, uint32_t Value)
1118:Drivers/BSP/Components/L6470/L6470.c **** {
 4338              		.loc 1 1118 1
 4339              		.cfi_startproc
 4340              		@ args = 0, pretend = 0, frame = 8
 4341              		@ frame_needed = 1, uses_anonymous_args = 0
 4342 0000 80B5     		push	{r7, lr}
 4343              	.LCFI268:
 4344              		.cfi_def_cfa_offset 8
 4345              		.cfi_offset 7, -8
 4346              		.cfi_offset 14, -4
 4347 0002 84B0     		sub	sp, sp, #16
 4348              	.LCFI269:
 4349              		.cfi_def_cfa_offset 24
 4350 0004 02AF     		add	r7, sp, #8
 4351              	.LCFI270:
 4352              		.cfi_def_cfa 7, 16
 4353 0006 0346     		mov	r3, r0
 4354 0008 3A60     		str	r2, [r7]
 4355 000a FB71     		strb	r3, [r7, #7]
 4356 000c 0B46     		mov	r3, r1
 4357 000e BB71     		strb	r3, [r7, #6]
1119:Drivers/BSP/Components/L6470/L6470.c ****     L6470_PrepareAppCmdPkg(L6470_Id, L6470_AppCmdPkg, L6470_SETPARAM_ID, L6470_RegId, Value, 0);
 4358              		.loc 1 1119 5
 4359 0010 BA79     		ldrb	r2, [r7, #6]	@ zero_extendqisi2
 4360 0012 F879     		ldrb	r0, [r7, #7]	@ zero_extendqisi2
 4361 0014 0023     		movs	r3, #0
 4362 0016 0193     		str	r3, [sp, #4]
 4363 0018 3B68     		ldr	r3, [r7]
 4364 001a 0093     		str	r3, [sp]
 4365 001c 1346     		mov	r3, r2
 4366 001e 0122     		movs	r2, #1
 4367 0020 0349     		ldr	r1, .L281
 4368 0022 FFF7FEFF 		bl	L6470_PrepareAppCmdPkg
ARM GAS  C:\Users\ep_ygh\AppData\Local\Temp\ccsX1uNj.s 			page 97


1120:Drivers/BSP/Components/L6470/L6470.c **** }
 4369              		.loc 1 1120 1
 4370 0026 00BF     		nop
 4371 0028 0837     		adds	r7, r7, #8
 4372              	.LCFI271:
 4373              		.cfi_def_cfa_offset 8
 4374 002a BD46     		mov	sp, r7
 4375              	.LCFI272:
 4376              		.cfi_def_cfa_register 13
 4377              		@ sp needed
 4378 002c 80BD     		pop	{r7, pc}
 4379              	.L282:
 4380 002e 00BF     		.align	2
 4381              	.L281:
 4382 0030 00000000 		.word	L6470_AppCmdPkg
 4383              		.cfi_endproc
 4384              	.LFE176:
 4386              		.section	.text.L6470_PrepareGetParam,"ax",%progbits
 4387              		.align	1
 4388              		.global	L6470_PrepareGetParam
 4389              		.syntax unified
 4390              		.thumb
 4391              		.thumb_func
 4393              	L6470_PrepareGetParam:
 4394              	.LFB177:
1121:Drivers/BSP/Components/L6470/L6470.c **** 
1122:Drivers/BSP/Components/L6470/L6470.c **** /**
1123:Drivers/BSP/Components/L6470/L6470.c ****   * @brief  Prepare to send @ref L6470_GetParam command.
1124:Drivers/BSP/Components/L6470/L6470.c ****   *
1125:Drivers/BSP/Components/L6470/L6470.c ****   * @param  L6470_Id      The L6470 identifier inside the daisy chain.
1126:Drivers/BSP/Components/L6470/L6470.c ****   * @param  L6470_RegId   The identifier of the L6470 register to be addressed.
1127:Drivers/BSP/Components/L6470/L6470.c ****   *
1128:Drivers/BSP/Components/L6470/L6470.c ****   * @retval ReceivedValue The register value.
1129:Drivers/BSP/Components/L6470/L6470.c ****   *
1130:Drivers/BSP/Components/L6470/L6470.c ****   * @note   This function will properly fill the right column of the L6470_AppCmdPkg.
1131:Drivers/BSP/Components/L6470/L6470.c ****   * @note   The commad will be sent by @ref L6470_PerformPreparedApplicationCommand.
1132:Drivers/BSP/Components/L6470/L6470.c ****   */
1133:Drivers/BSP/Components/L6470/L6470.c **** void L6470_PrepareGetParam(uint8_t L6470_Id, eL6470_RegId_t L6470_RegId)
1134:Drivers/BSP/Components/L6470/L6470.c **** {
 4395              		.loc 1 1134 1
 4396              		.cfi_startproc
 4397              		@ args = 0, pretend = 0, frame = 8
 4398              		@ frame_needed = 1, uses_anonymous_args = 0
 4399 0000 80B5     		push	{r7, lr}
 4400              	.LCFI273:
 4401              		.cfi_def_cfa_offset 8
 4402              		.cfi_offset 7, -8
 4403              		.cfi_offset 14, -4
 4404 0002 84B0     		sub	sp, sp, #16
 4405              	.LCFI274:
 4406              		.cfi_def_cfa_offset 24
 4407 0004 02AF     		add	r7, sp, #8
 4408              	.LCFI275:
 4409              		.cfi_def_cfa 7, 16
 4410 0006 0346     		mov	r3, r0
 4411 0008 0A46     		mov	r2, r1
 4412 000a FB71     		strb	r3, [r7, #7]
ARM GAS  C:\Users\ep_ygh\AppData\Local\Temp\ccsX1uNj.s 			page 98


 4413 000c 1346     		mov	r3, r2
 4414 000e BB71     		strb	r3, [r7, #6]
1135:Drivers/BSP/Components/L6470/L6470.c ****   L6470_PrepareAppCmdPkg(L6470_Id, L6470_AppCmdPkg, L6470_GETPARAM_ID, L6470_RegId, 0, 0);
 4415              		.loc 1 1135 3
 4416 0010 BB79     		ldrb	r3, [r7, #6]	@ zero_extendqisi2
 4417 0012 F879     		ldrb	r0, [r7, #7]	@ zero_extendqisi2
 4418 0014 0022     		movs	r2, #0
 4419 0016 0192     		str	r2, [sp, #4]
 4420 0018 0022     		movs	r2, #0
 4421 001a 0092     		str	r2, [sp]
 4422 001c 0222     		movs	r2, #2
 4423 001e 0349     		ldr	r1, .L284
 4424 0020 FFF7FEFF 		bl	L6470_PrepareAppCmdPkg
1136:Drivers/BSP/Components/L6470/L6470.c **** }
 4425              		.loc 1 1136 1
 4426 0024 00BF     		nop
 4427 0026 0837     		adds	r7, r7, #8
 4428              	.LCFI276:
 4429              		.cfi_def_cfa_offset 8
 4430 0028 BD46     		mov	sp, r7
 4431              	.LCFI277:
 4432              		.cfi_def_cfa_register 13
 4433              		@ sp needed
 4434 002a 80BD     		pop	{r7, pc}
 4435              	.L285:
 4436              		.align	2
 4437              	.L284:
 4438 002c 00000000 		.word	L6470_AppCmdPkg
 4439              		.cfi_endproc
 4440              	.LFE177:
 4442              		.section	.text.L6470_PrepareRun,"ax",%progbits
 4443              		.align	1
 4444              		.global	L6470_PrepareRun
 4445              		.syntax unified
 4446              		.thumb
 4447              		.thumb_func
 4449              	L6470_PrepareRun:
 4450              	.LFB178:
1137:Drivers/BSP/Components/L6470/L6470.c **** 
1138:Drivers/BSP/Components/L6470/L6470.c **** /**
1139:Drivers/BSP/Components/L6470/L6470.c ****   * @brief  Prepare to send @ref L6470_Run command.
1140:Drivers/BSP/Components/L6470/L6470.c ****   * 
1141:Drivers/BSP/Components/L6470/L6470.c ****   * @param  L6470_Id      The identifier of the L6470 target inside the daisy chain.
1142:Drivers/BSP/Components/L6470/L6470.c ****   * @param  L6470_DirId   The identifier of the L6470 motion direction.
1143:Drivers/BSP/Components/L6470/L6470.c ****   * @param  Speed         The speed value as (([step/s] * 250e-9) / 2^-28)
1144:Drivers/BSP/Components/L6470/L6470.c ****   *
1145:Drivers/BSP/Components/L6470/L6470.c ****   * @note   This function will properly fill the right column of the L6470_AppCmdPkg.
1146:Drivers/BSP/Components/L6470/L6470.c ****   * @note   The commad will be sent by @ref L6470_PerformPreparedApplicationCommand.
1147:Drivers/BSP/Components/L6470/L6470.c ****   */
1148:Drivers/BSP/Components/L6470/L6470.c **** void L6470_PrepareRun(uint8_t L6470_Id, eL6470_DirId_t L6470_DirId, uint32_t Speed)
1149:Drivers/BSP/Components/L6470/L6470.c **** {
 4451              		.loc 1 1149 1
 4452              		.cfi_startproc
 4453              		@ args = 0, pretend = 0, frame = 8
 4454              		@ frame_needed = 1, uses_anonymous_args = 0
 4455 0000 80B5     		push	{r7, lr}
 4456              	.LCFI278:
ARM GAS  C:\Users\ep_ygh\AppData\Local\Temp\ccsX1uNj.s 			page 99


 4457              		.cfi_def_cfa_offset 8
 4458              		.cfi_offset 7, -8
 4459              		.cfi_offset 14, -4
 4460 0002 84B0     		sub	sp, sp, #16
 4461              	.LCFI279:
 4462              		.cfi_def_cfa_offset 24
 4463 0004 02AF     		add	r7, sp, #8
 4464              	.LCFI280:
 4465              		.cfi_def_cfa 7, 16
 4466 0006 0346     		mov	r3, r0
 4467 0008 3A60     		str	r2, [r7]
 4468 000a FB71     		strb	r3, [r7, #7]
 4469 000c 0B46     		mov	r3, r1
 4470 000e BB71     		strb	r3, [r7, #6]
1150:Drivers/BSP/Components/L6470/L6470.c ****   L6470_PrepareAppCmdPkg(L6470_Id, L6470_AppCmdPkg, L6470_RUN_ID, L6470_DirId, Speed, 0);
 4471              		.loc 1 1150 3
 4472 0010 BA79     		ldrb	r2, [r7, #6]	@ zero_extendqisi2
 4473 0012 F879     		ldrb	r0, [r7, #7]	@ zero_extendqisi2
 4474 0014 0023     		movs	r3, #0
 4475 0016 0193     		str	r3, [sp, #4]
 4476 0018 3B68     		ldr	r3, [r7]
 4477 001a 0093     		str	r3, [sp]
 4478 001c 1346     		mov	r3, r2
 4479 001e 0322     		movs	r2, #3
 4480 0020 0349     		ldr	r1, .L287
 4481 0022 FFF7FEFF 		bl	L6470_PrepareAppCmdPkg
1151:Drivers/BSP/Components/L6470/L6470.c **** }
 4482              		.loc 1 1151 1
 4483 0026 00BF     		nop
 4484 0028 0837     		adds	r7, r7, #8
 4485              	.LCFI281:
 4486              		.cfi_def_cfa_offset 8
 4487 002a BD46     		mov	sp, r7
 4488              	.LCFI282:
 4489              		.cfi_def_cfa_register 13
 4490              		@ sp needed
 4491 002c 80BD     		pop	{r7, pc}
 4492              	.L288:
 4493 002e 00BF     		.align	2
 4494              	.L287:
 4495 0030 00000000 		.word	L6470_AppCmdPkg
 4496              		.cfi_endproc
 4497              	.LFE178:
 4499              		.section	.text.L6470_PrepareStepClock,"ax",%progbits
 4500              		.align	1
 4501              		.global	L6470_PrepareStepClock
 4502              		.syntax unified
 4503              		.thumb
 4504              		.thumb_func
 4506              	L6470_PrepareStepClock:
 4507              	.LFB179:
1152:Drivers/BSP/Components/L6470/L6470.c **** 
1153:Drivers/BSP/Components/L6470/L6470.c **** /**
1154:Drivers/BSP/Components/L6470/L6470.c ****   * @brief  Prepare to send @ref L6470_StepClock command.
1155:Drivers/BSP/Components/L6470/L6470.c ****   * 
1156:Drivers/BSP/Components/L6470/L6470.c ****   * @param  L6470_Id      The identifier of the L6470 target inside the daisy chain.
1157:Drivers/BSP/Components/L6470/L6470.c ****   * @param  L6470_DirId   The identifier of the L6470 motion direction.
ARM GAS  C:\Users\ep_ygh\AppData\Local\Temp\ccsX1uNj.s 			page 100


1158:Drivers/BSP/Components/L6470/L6470.c ****   *
1159:Drivers/BSP/Components/L6470/L6470.c ****   * @note   This function will properly fill the right column of the L6470_AppCmdPkg.
1160:Drivers/BSP/Components/L6470/L6470.c ****   * @note   The commad will be sent by @ref L6470_PerformPreparedApplicationCommand.
1161:Drivers/BSP/Components/L6470/L6470.c ****   */
1162:Drivers/BSP/Components/L6470/L6470.c **** void L6470_PrepareStepClock(uint8_t L6470_Id, eL6470_DirId_t L6470_DirId)
1163:Drivers/BSP/Components/L6470/L6470.c **** {
 4508              		.loc 1 1163 1
 4509              		.cfi_startproc
 4510              		@ args = 0, pretend = 0, frame = 8
 4511              		@ frame_needed = 1, uses_anonymous_args = 0
 4512 0000 80B5     		push	{r7, lr}
 4513              	.LCFI283:
 4514              		.cfi_def_cfa_offset 8
 4515              		.cfi_offset 7, -8
 4516              		.cfi_offset 14, -4
 4517 0002 84B0     		sub	sp, sp, #16
 4518              	.LCFI284:
 4519              		.cfi_def_cfa_offset 24
 4520 0004 02AF     		add	r7, sp, #8
 4521              	.LCFI285:
 4522              		.cfi_def_cfa 7, 16
 4523 0006 0346     		mov	r3, r0
 4524 0008 0A46     		mov	r2, r1
 4525 000a FB71     		strb	r3, [r7, #7]
 4526 000c 1346     		mov	r3, r2
 4527 000e BB71     		strb	r3, [r7, #6]
1164:Drivers/BSP/Components/L6470/L6470.c ****   L6470_PrepareAppCmdPkg(L6470_Id, L6470_AppCmdPkg, L6470_STEPCLOCK_ID, L6470_DirId, 0, 0);
 4528              		.loc 1 1164 3
 4529 0010 BB79     		ldrb	r3, [r7, #6]	@ zero_extendqisi2
 4530 0012 F879     		ldrb	r0, [r7, #7]	@ zero_extendqisi2
 4531 0014 0022     		movs	r2, #0
 4532 0016 0192     		str	r2, [sp, #4]
 4533 0018 0022     		movs	r2, #0
 4534 001a 0092     		str	r2, [sp]
 4535 001c 0422     		movs	r2, #4
 4536 001e 0349     		ldr	r1, .L290
 4537 0020 FFF7FEFF 		bl	L6470_PrepareAppCmdPkg
1165:Drivers/BSP/Components/L6470/L6470.c **** }
 4538              		.loc 1 1165 1
 4539 0024 00BF     		nop
 4540 0026 0837     		adds	r7, r7, #8
 4541              	.LCFI286:
 4542              		.cfi_def_cfa_offset 8
 4543 0028 BD46     		mov	sp, r7
 4544              	.LCFI287:
 4545              		.cfi_def_cfa_register 13
 4546              		@ sp needed
 4547 002a 80BD     		pop	{r7, pc}
 4548              	.L291:
 4549              		.align	2
 4550              	.L290:
 4551 002c 00000000 		.word	L6470_AppCmdPkg
 4552              		.cfi_endproc
 4553              	.LFE179:
 4555              		.section	.text.L6470_PrepareMove,"ax",%progbits
 4556              		.align	1
 4557              		.global	L6470_PrepareMove
ARM GAS  C:\Users\ep_ygh\AppData\Local\Temp\ccsX1uNj.s 			page 101


 4558              		.syntax unified
 4559              		.thumb
 4560              		.thumb_func
 4562              	L6470_PrepareMove:
 4563              	.LFB180:
1166:Drivers/BSP/Components/L6470/L6470.c **** 
1167:Drivers/BSP/Components/L6470/L6470.c **** /**
1168:Drivers/BSP/Components/L6470/L6470.c ****   * @brief  Prepare to send @ref L6470_Move command.
1169:Drivers/BSP/Components/L6470/L6470.c ****   * 
1170:Drivers/BSP/Components/L6470/L6470.c ****   * @param  L6470_Id      The identifier of the L6470 target inside the daisy chain.
1171:Drivers/BSP/Components/L6470/L6470.c ****   * @param  L6470_DirId   The identifier of the L6470 motion direction.
1172:Drivers/BSP/Components/L6470/L6470.c ****   * @param  N_Step        The number of microsteps.
1173:Drivers/BSP/Components/L6470/L6470.c ****   *
1174:Drivers/BSP/Components/L6470/L6470.c ****   * @note   This function will properly fill the right column of the L6470_AppCmdPkg.
1175:Drivers/BSP/Components/L6470/L6470.c ****   * @note   The commad will be sent by @ref L6470_PerformPreparedApplicationCommand.
1176:Drivers/BSP/Components/L6470/L6470.c ****   */
1177:Drivers/BSP/Components/L6470/L6470.c **** void L6470_PrepareMove(uint8_t L6470_Id, eL6470_DirId_t L6470_DirId, uint32_t N_Step)
1178:Drivers/BSP/Components/L6470/L6470.c **** {
 4564              		.loc 1 1178 1
 4565              		.cfi_startproc
 4566              		@ args = 0, pretend = 0, frame = 8
 4567              		@ frame_needed = 1, uses_anonymous_args = 0
 4568 0000 80B5     		push	{r7, lr}
 4569              	.LCFI288:
 4570              		.cfi_def_cfa_offset 8
 4571              		.cfi_offset 7, -8
 4572              		.cfi_offset 14, -4
 4573 0002 84B0     		sub	sp, sp, #16
 4574              	.LCFI289:
 4575              		.cfi_def_cfa_offset 24
 4576 0004 02AF     		add	r7, sp, #8
 4577              	.LCFI290:
 4578              		.cfi_def_cfa 7, 16
 4579 0006 0346     		mov	r3, r0
 4580 0008 3A60     		str	r2, [r7]
 4581 000a FB71     		strb	r3, [r7, #7]
 4582 000c 0B46     		mov	r3, r1
 4583 000e BB71     		strb	r3, [r7, #6]
1179:Drivers/BSP/Components/L6470/L6470.c ****   L6470_PrepareAppCmdPkg(L6470_Id, L6470_AppCmdPkg, L6470_MOVE_ID, L6470_DirId, N_Step, 0);
 4584              		.loc 1 1179 3
 4585 0010 BA79     		ldrb	r2, [r7, #6]	@ zero_extendqisi2
 4586 0012 F879     		ldrb	r0, [r7, #7]	@ zero_extendqisi2
 4587 0014 0023     		movs	r3, #0
 4588 0016 0193     		str	r3, [sp, #4]
 4589 0018 3B68     		ldr	r3, [r7]
 4590 001a 0093     		str	r3, [sp]
 4591 001c 1346     		mov	r3, r2
 4592 001e 0522     		movs	r2, #5
 4593 0020 0349     		ldr	r1, .L293
 4594 0022 FFF7FEFF 		bl	L6470_PrepareAppCmdPkg
1180:Drivers/BSP/Components/L6470/L6470.c **** }
 4595              		.loc 1 1180 1
 4596 0026 00BF     		nop
 4597 0028 0837     		adds	r7, r7, #8
 4598              	.LCFI291:
 4599              		.cfi_def_cfa_offset 8
 4600 002a BD46     		mov	sp, r7
ARM GAS  C:\Users\ep_ygh\AppData\Local\Temp\ccsX1uNj.s 			page 102


 4601              	.LCFI292:
 4602              		.cfi_def_cfa_register 13
 4603              		@ sp needed
 4604 002c 80BD     		pop	{r7, pc}
 4605              	.L294:
 4606 002e 00BF     		.align	2
 4607              	.L293:
 4608 0030 00000000 		.word	L6470_AppCmdPkg
 4609              		.cfi_endproc
 4610              	.LFE180:
 4612              		.section	.text.L6470_PrepareGoTo,"ax",%progbits
 4613              		.align	1
 4614              		.global	L6470_PrepareGoTo
 4615              		.syntax unified
 4616              		.thumb
 4617              		.thumb_func
 4619              	L6470_PrepareGoTo:
 4620              	.LFB181:
1181:Drivers/BSP/Components/L6470/L6470.c **** 
1182:Drivers/BSP/Components/L6470/L6470.c **** /**
1183:Drivers/BSP/Components/L6470/L6470.c ****   * @brief  Prepare to send @ref L6470_GoTo command.
1184:Drivers/BSP/Components/L6470/L6470.c ****   * 
1185:Drivers/BSP/Components/L6470/L6470.c ****   * @param  L6470_Id      The identifier of the L6470 target inside the daisy chain.
1186:Drivers/BSP/Components/L6470/L6470.c ****   * @param  AbsPos        The target absolute position.
1187:Drivers/BSP/Components/L6470/L6470.c ****   *
1188:Drivers/BSP/Components/L6470/L6470.c ****   * @note   This function will properly fill the right column of the L6470_AppCmdPkg.
1189:Drivers/BSP/Components/L6470/L6470.c ****   * @note   The commad will be sent by @ref L6470_PerformPreparedApplicationCommand.
1190:Drivers/BSP/Components/L6470/L6470.c ****   */
1191:Drivers/BSP/Components/L6470/L6470.c **** void L6470_PrepareGoTo(uint8_t L6470_Id, uint32_t AbsPos)
1192:Drivers/BSP/Components/L6470/L6470.c **** {
 4621              		.loc 1 1192 1
 4622              		.cfi_startproc
 4623              		@ args = 0, pretend = 0, frame = 8
 4624              		@ frame_needed = 1, uses_anonymous_args = 0
 4625 0000 80B5     		push	{r7, lr}
 4626              	.LCFI293:
 4627              		.cfi_def_cfa_offset 8
 4628              		.cfi_offset 7, -8
 4629              		.cfi_offset 14, -4
 4630 0002 84B0     		sub	sp, sp, #16
 4631              	.LCFI294:
 4632              		.cfi_def_cfa_offset 24
 4633 0004 02AF     		add	r7, sp, #8
 4634              	.LCFI295:
 4635              		.cfi_def_cfa 7, 16
 4636 0006 0346     		mov	r3, r0
 4637 0008 3960     		str	r1, [r7]
 4638 000a FB71     		strb	r3, [r7, #7]
1193:Drivers/BSP/Components/L6470/L6470.c ****   L6470_PrepareAppCmdPkg(L6470_Id, L6470_AppCmdPkg, L6470_GOTO_ID, AbsPos, 0, 0);
 4639              		.loc 1 1193 3
 4640 000c F879     		ldrb	r0, [r7, #7]	@ zero_extendqisi2
 4641 000e 0023     		movs	r3, #0
 4642 0010 0193     		str	r3, [sp, #4]
 4643 0012 0023     		movs	r3, #0
 4644 0014 0093     		str	r3, [sp]
 4645 0016 3B68     		ldr	r3, [r7]
 4646 0018 0622     		movs	r2, #6
ARM GAS  C:\Users\ep_ygh\AppData\Local\Temp\ccsX1uNj.s 			page 103


 4647 001a 0349     		ldr	r1, .L296
 4648 001c FFF7FEFF 		bl	L6470_PrepareAppCmdPkg
1194:Drivers/BSP/Components/L6470/L6470.c **** }
 4649              		.loc 1 1194 1
 4650 0020 00BF     		nop
 4651 0022 0837     		adds	r7, r7, #8
 4652              	.LCFI296:
 4653              		.cfi_def_cfa_offset 8
 4654 0024 BD46     		mov	sp, r7
 4655              	.LCFI297:
 4656              		.cfi_def_cfa_register 13
 4657              		@ sp needed
 4658 0026 80BD     		pop	{r7, pc}
 4659              	.L297:
 4660              		.align	2
 4661              	.L296:
 4662 0028 00000000 		.word	L6470_AppCmdPkg
 4663              		.cfi_endproc
 4664              	.LFE181:
 4666              		.section	.text.L6470_PrepareGoToDir,"ax",%progbits
 4667              		.align	1
 4668              		.global	L6470_PrepareGoToDir
 4669              		.syntax unified
 4670              		.thumb
 4671              		.thumb_func
 4673              	L6470_PrepareGoToDir:
 4674              	.LFB182:
1195:Drivers/BSP/Components/L6470/L6470.c **** 
1196:Drivers/BSP/Components/L6470/L6470.c **** /**
1197:Drivers/BSP/Components/L6470/L6470.c ****   * @brief  Prepare to send @ref L6470_GoToDIR command.
1198:Drivers/BSP/Components/L6470/L6470.c ****   * 
1199:Drivers/BSP/Components/L6470/L6470.c ****   * @param  L6470_Id      The identifier of the L6470 target inside the daisy chain.
1200:Drivers/BSP/Components/L6470/L6470.c ****   * @param  L6470_DirId   The identifier of the L6470 motion direction.
1201:Drivers/BSP/Components/L6470/L6470.c ****   * @param  AbsPos        The target absolute position.
1202:Drivers/BSP/Components/L6470/L6470.c ****   *
1203:Drivers/BSP/Components/L6470/L6470.c ****   * @note   This function will properly fill the right column of the L6470_AppCmdPkg.
1204:Drivers/BSP/Components/L6470/L6470.c ****   * @note   The commad will be sent by @ref L6470_PerformPreparedApplicationCommand.
1205:Drivers/BSP/Components/L6470/L6470.c ****   */
1206:Drivers/BSP/Components/L6470/L6470.c **** void L6470_PrepareGoToDir(uint8_t L6470_Id, eL6470_DirId_t L6470_DirId, uint32_t AbsPos)
1207:Drivers/BSP/Components/L6470/L6470.c **** {
 4675              		.loc 1 1207 1
 4676              		.cfi_startproc
 4677              		@ args = 0, pretend = 0, frame = 8
 4678              		@ frame_needed = 1, uses_anonymous_args = 0
 4679 0000 80B5     		push	{r7, lr}
 4680              	.LCFI298:
 4681              		.cfi_def_cfa_offset 8
 4682              		.cfi_offset 7, -8
 4683              		.cfi_offset 14, -4
 4684 0002 84B0     		sub	sp, sp, #16
 4685              	.LCFI299:
 4686              		.cfi_def_cfa_offset 24
 4687 0004 02AF     		add	r7, sp, #8
 4688              	.LCFI300:
 4689              		.cfi_def_cfa 7, 16
 4690 0006 0346     		mov	r3, r0
 4691 0008 3A60     		str	r2, [r7]
ARM GAS  C:\Users\ep_ygh\AppData\Local\Temp\ccsX1uNj.s 			page 104


 4692 000a FB71     		strb	r3, [r7, #7]
 4693 000c 0B46     		mov	r3, r1
 4694 000e BB71     		strb	r3, [r7, #6]
1208:Drivers/BSP/Components/L6470/L6470.c ****   L6470_PrepareAppCmdPkg(L6470_Id, L6470_AppCmdPkg, L6470_GOTODIR_ID, L6470_DirId, AbsPos, 0);
 4695              		.loc 1 1208 3
 4696 0010 BA79     		ldrb	r2, [r7, #6]	@ zero_extendqisi2
 4697 0012 F879     		ldrb	r0, [r7, #7]	@ zero_extendqisi2
 4698 0014 0023     		movs	r3, #0
 4699 0016 0193     		str	r3, [sp, #4]
 4700 0018 3B68     		ldr	r3, [r7]
 4701 001a 0093     		str	r3, [sp]
 4702 001c 1346     		mov	r3, r2
 4703 001e 0722     		movs	r2, #7
 4704 0020 0349     		ldr	r1, .L299
 4705 0022 FFF7FEFF 		bl	L6470_PrepareAppCmdPkg
1209:Drivers/BSP/Components/L6470/L6470.c **** }
 4706              		.loc 1 1209 1
 4707 0026 00BF     		nop
 4708 0028 0837     		adds	r7, r7, #8
 4709              	.LCFI301:
 4710              		.cfi_def_cfa_offset 8
 4711 002a BD46     		mov	sp, r7
 4712              	.LCFI302:
 4713              		.cfi_def_cfa_register 13
 4714              		@ sp needed
 4715 002c 80BD     		pop	{r7, pc}
 4716              	.L300:
 4717 002e 00BF     		.align	2
 4718              	.L299:
 4719 0030 00000000 		.word	L6470_AppCmdPkg
 4720              		.cfi_endproc
 4721              	.LFE182:
 4723              		.section	.text.L6470_PrepareGoUntil,"ax",%progbits
 4724              		.align	1
 4725              		.global	L6470_PrepareGoUntil
 4726              		.syntax unified
 4727              		.thumb
 4728              		.thumb_func
 4730              	L6470_PrepareGoUntil:
 4731              	.LFB183:
1210:Drivers/BSP/Components/L6470/L6470.c **** 
1211:Drivers/BSP/Components/L6470/L6470.c **** /**
1212:Drivers/BSP/Components/L6470/L6470.c ****   * @brief  Prepare to send @ref L6470_GoUntil command.
1213:Drivers/BSP/Components/L6470/L6470.c ****   * 
1214:Drivers/BSP/Components/L6470/L6470.c ****   * @param  L6470_Id      The identifier of the L6470 target inside the daisy chain.
1215:Drivers/BSP/Components/L6470/L6470.c ****   * @param  L6470_ActId   The identifier of the L6470 action about the absolute position.
1216:Drivers/BSP/Components/L6470/L6470.c ****   * @param  L6470_DirId   The identifier of the L6470 motion direction.
1217:Drivers/BSP/Components/L6470/L6470.c ****   * @param  Speed         The speed value as (([step/s] * 250e-9) / 2^-28)
1218:Drivers/BSP/Components/L6470/L6470.c ****   *
1219:Drivers/BSP/Components/L6470/L6470.c ****   * @note   This function will properly fill the right column of the L6470_AppCmdPkg.
1220:Drivers/BSP/Components/L6470/L6470.c ****   * @note   The commad will be sent by @ref L6470_PerformPreparedApplicationCommand.
1221:Drivers/BSP/Components/L6470/L6470.c ****   */
1222:Drivers/BSP/Components/L6470/L6470.c **** void L6470_PrepareGoUntil(uint8_t L6470_Id, eL6470_ActId_t L6470_ActId, eL6470_DirId_t L6470_DirId,
1223:Drivers/BSP/Components/L6470/L6470.c **** {
 4732              		.loc 1 1223 1
 4733              		.cfi_startproc
 4734              		@ args = 0, pretend = 0, frame = 8
ARM GAS  C:\Users\ep_ygh\AppData\Local\Temp\ccsX1uNj.s 			page 105


 4735              		@ frame_needed = 1, uses_anonymous_args = 0
 4736 0000 80B5     		push	{r7, lr}
 4737              	.LCFI303:
 4738              		.cfi_def_cfa_offset 8
 4739              		.cfi_offset 7, -8
 4740              		.cfi_offset 14, -4
 4741 0002 84B0     		sub	sp, sp, #16
 4742              	.LCFI304:
 4743              		.cfi_def_cfa_offset 24
 4744 0004 02AF     		add	r7, sp, #8
 4745              	.LCFI305:
 4746              		.cfi_def_cfa 7, 16
 4747 0006 3B60     		str	r3, [r7]
 4748 0008 0346     		mov	r3, r0
 4749 000a FB71     		strb	r3, [r7, #7]
 4750 000c 0B46     		mov	r3, r1
 4751 000e BB71     		strb	r3, [r7, #6]
 4752 0010 1346     		mov	r3, r2
 4753 0012 7B71     		strb	r3, [r7, #5]
1224:Drivers/BSP/Components/L6470/L6470.c ****   L6470_PrepareAppCmdPkg(L6470_Id, L6470_AppCmdPkg, L6470_GOUNTIL_ID, L6470_ActId, L6470_DirId, Spe
 4754              		.loc 1 1224 3
 4755 0014 B979     		ldrb	r1, [r7, #6]	@ zero_extendqisi2
 4756 0016 7B79     		ldrb	r3, [r7, #5]	@ zero_extendqisi2
 4757 0018 F879     		ldrb	r0, [r7, #7]	@ zero_extendqisi2
 4758 001a 3A68     		ldr	r2, [r7]
 4759 001c 0192     		str	r2, [sp, #4]
 4760 001e 0093     		str	r3, [sp]
 4761 0020 0B46     		mov	r3, r1
 4762 0022 0822     		movs	r2, #8
 4763 0024 0349     		ldr	r1, .L302
 4764 0026 FFF7FEFF 		bl	L6470_PrepareAppCmdPkg
1225:Drivers/BSP/Components/L6470/L6470.c **** }
 4765              		.loc 1 1225 1
 4766 002a 00BF     		nop
 4767 002c 0837     		adds	r7, r7, #8
 4768              	.LCFI306:
 4769              		.cfi_def_cfa_offset 8
 4770 002e BD46     		mov	sp, r7
 4771              	.LCFI307:
 4772              		.cfi_def_cfa_register 13
 4773              		@ sp needed
 4774 0030 80BD     		pop	{r7, pc}
 4775              	.L303:
 4776 0032 00BF     		.align	2
 4777              	.L302:
 4778 0034 00000000 		.word	L6470_AppCmdPkg
 4779              		.cfi_endproc
 4780              	.LFE183:
 4782              		.section	.text.L6470_PrepareReleaseSW,"ax",%progbits
 4783              		.align	1
 4784              		.global	L6470_PrepareReleaseSW
 4785              		.syntax unified
 4786              		.thumb
 4787              		.thumb_func
 4789              	L6470_PrepareReleaseSW:
 4790              	.LFB184:
1226:Drivers/BSP/Components/L6470/L6470.c **** 
ARM GAS  C:\Users\ep_ygh\AppData\Local\Temp\ccsX1uNj.s 			page 106


1227:Drivers/BSP/Components/L6470/L6470.c **** /**
1228:Drivers/BSP/Components/L6470/L6470.c ****   * @brief  Prepare to send @ref L6470_ReleaseSW.
1229:Drivers/BSP/Components/L6470/L6470.c ****   * 
1230:Drivers/BSP/Components/L6470/L6470.c ****   * @param  L6470_Id      The identifier of the L6470 target inside the daisy chain.
1231:Drivers/BSP/Components/L6470/L6470.c ****   * @param  L6470_ActId   The identifier of the L6470 action about the absolute position.
1232:Drivers/BSP/Components/L6470/L6470.c ****   * @param  L6470_DirId   The identifier of the L6470 motion direction.
1233:Drivers/BSP/Components/L6470/L6470.c ****   *
1234:Drivers/BSP/Components/L6470/L6470.c ****   * @note   This function will properly fill the right column of the L6470_AppCmdPkg.
1235:Drivers/BSP/Components/L6470/L6470.c ****   * @note   The commad will be sent by @ref L6470_PerformPreparedApplicationCommand.
1236:Drivers/BSP/Components/L6470/L6470.c ****   */
1237:Drivers/BSP/Components/L6470/L6470.c **** void L6470_PrepareReleaseSW(uint8_t L6470_Id, eL6470_ActId_t L6470_ActId, eL6470_DirId_t L6470_DirI
1238:Drivers/BSP/Components/L6470/L6470.c **** {
 4791              		.loc 1 1238 1
 4792              		.cfi_startproc
 4793              		@ args = 0, pretend = 0, frame = 8
 4794              		@ frame_needed = 1, uses_anonymous_args = 0
 4795 0000 80B5     		push	{r7, lr}
 4796              	.LCFI308:
 4797              		.cfi_def_cfa_offset 8
 4798              		.cfi_offset 7, -8
 4799              		.cfi_offset 14, -4
 4800 0002 84B0     		sub	sp, sp, #16
 4801              	.LCFI309:
 4802              		.cfi_def_cfa_offset 24
 4803 0004 02AF     		add	r7, sp, #8
 4804              	.LCFI310:
 4805              		.cfi_def_cfa 7, 16
 4806 0006 0346     		mov	r3, r0
 4807 0008 FB71     		strb	r3, [r7, #7]
 4808 000a 0B46     		mov	r3, r1
 4809 000c BB71     		strb	r3, [r7, #6]
 4810 000e 1346     		mov	r3, r2
 4811 0010 7B71     		strb	r3, [r7, #5]
1239:Drivers/BSP/Components/L6470/L6470.c ****   L6470_PrepareAppCmdPkg(L6470_Id, L6470_AppCmdPkg, L6470_RELEASESW_ID, L6470_ActId, L6470_DirId, 0
 4812              		.loc 1 1239 3
 4813 0012 BA79     		ldrb	r2, [r7, #6]	@ zero_extendqisi2
 4814 0014 7B79     		ldrb	r3, [r7, #5]	@ zero_extendqisi2
 4815 0016 F879     		ldrb	r0, [r7, #7]	@ zero_extendqisi2
 4816 0018 0021     		movs	r1, #0
 4817 001a 0191     		str	r1, [sp, #4]
 4818 001c 0093     		str	r3, [sp]
 4819 001e 1346     		mov	r3, r2
 4820 0020 0922     		movs	r2, #9
 4821 0022 0349     		ldr	r1, .L305
 4822 0024 FFF7FEFF 		bl	L6470_PrepareAppCmdPkg
1240:Drivers/BSP/Components/L6470/L6470.c **** }
 4823              		.loc 1 1240 1
 4824 0028 00BF     		nop
 4825 002a 0837     		adds	r7, r7, #8
 4826              	.LCFI311:
 4827              		.cfi_def_cfa_offset 8
 4828 002c BD46     		mov	sp, r7
 4829              	.LCFI312:
 4830              		.cfi_def_cfa_register 13
 4831              		@ sp needed
 4832 002e 80BD     		pop	{r7, pc}
 4833              	.L306:
ARM GAS  C:\Users\ep_ygh\AppData\Local\Temp\ccsX1uNj.s 			page 107


 4834              		.align	2
 4835              	.L305:
 4836 0030 00000000 		.word	L6470_AppCmdPkg
 4837              		.cfi_endproc
 4838              	.LFE184:
 4840              		.section	.text.L6470_PrepareGoHome,"ax",%progbits
 4841              		.align	1
 4842              		.global	L6470_PrepareGoHome
 4843              		.syntax unified
 4844              		.thumb
 4845              		.thumb_func
 4847              	L6470_PrepareGoHome:
 4848              	.LFB185:
1241:Drivers/BSP/Components/L6470/L6470.c **** 
1242:Drivers/BSP/Components/L6470/L6470.c **** /**
1243:Drivers/BSP/Components/L6470/L6470.c ****   * @brief  Prepare to send @ref L6470_GoHome command.
1244:Drivers/BSP/Components/L6470/L6470.c ****   * 
1245:Drivers/BSP/Components/L6470/L6470.c ****   * @param  L6470_Id      The identifier of the L6470 target inside the daisy chain.
1246:Drivers/BSP/Components/L6470/L6470.c ****   *
1247:Drivers/BSP/Components/L6470/L6470.c ****   * @note   This function will properly fill the right column of the L6470_AppCmdPkg.
1248:Drivers/BSP/Components/L6470/L6470.c ****   * @note   The commad will be sent by @ref L6470_PerformPreparedApplicationCommand.
1249:Drivers/BSP/Components/L6470/L6470.c ****   */
1250:Drivers/BSP/Components/L6470/L6470.c **** void L6470_PrepareGoHome(uint8_t L6470_Id)
1251:Drivers/BSP/Components/L6470/L6470.c **** {
 4849              		.loc 1 1251 1
 4850              		.cfi_startproc
 4851              		@ args = 0, pretend = 0, frame = 8
 4852              		@ frame_needed = 1, uses_anonymous_args = 0
 4853 0000 80B5     		push	{r7, lr}
 4854              	.LCFI313:
 4855              		.cfi_def_cfa_offset 8
 4856              		.cfi_offset 7, -8
 4857              		.cfi_offset 14, -4
 4858 0002 84B0     		sub	sp, sp, #16
 4859              	.LCFI314:
 4860              		.cfi_def_cfa_offset 24
 4861 0004 02AF     		add	r7, sp, #8
 4862              	.LCFI315:
 4863              		.cfi_def_cfa 7, 16
 4864 0006 0346     		mov	r3, r0
 4865 0008 FB71     		strb	r3, [r7, #7]
1252:Drivers/BSP/Components/L6470/L6470.c ****   L6470_PrepareAppCmdPkg(L6470_Id, L6470_AppCmdPkg, L6470_GOHOME_ID, 0, 0, 0);
 4866              		.loc 1 1252 3
 4867 000a F879     		ldrb	r0, [r7, #7]	@ zero_extendqisi2
 4868 000c 0023     		movs	r3, #0
 4869 000e 0193     		str	r3, [sp, #4]
 4870 0010 0023     		movs	r3, #0
 4871 0012 0093     		str	r3, [sp]
 4872 0014 0023     		movs	r3, #0
 4873 0016 0A22     		movs	r2, #10
 4874 0018 0349     		ldr	r1, .L308
 4875 001a FFF7FEFF 		bl	L6470_PrepareAppCmdPkg
1253:Drivers/BSP/Components/L6470/L6470.c **** }
 4876              		.loc 1 1253 1
 4877 001e 00BF     		nop
 4878 0020 0837     		adds	r7, r7, #8
 4879              	.LCFI316:
ARM GAS  C:\Users\ep_ygh\AppData\Local\Temp\ccsX1uNj.s 			page 108


 4880              		.cfi_def_cfa_offset 8
 4881 0022 BD46     		mov	sp, r7
 4882              	.LCFI317:
 4883              		.cfi_def_cfa_register 13
 4884              		@ sp needed
 4885 0024 80BD     		pop	{r7, pc}
 4886              	.L309:
 4887 0026 00BF     		.align	2
 4888              	.L308:
 4889 0028 00000000 		.word	L6470_AppCmdPkg
 4890              		.cfi_endproc
 4891              	.LFE185:
 4893              		.section	.text.L6470_PrepareGoMark,"ax",%progbits
 4894              		.align	1
 4895              		.global	L6470_PrepareGoMark
 4896              		.syntax unified
 4897              		.thumb
 4898              		.thumb_func
 4900              	L6470_PrepareGoMark:
 4901              	.LFB186:
1254:Drivers/BSP/Components/L6470/L6470.c **** 
1255:Drivers/BSP/Components/L6470/L6470.c **** /**
1256:Drivers/BSP/Components/L6470/L6470.c ****   * @brief  Prepare to send @ref L6470_GoMark command.
1257:Drivers/BSP/Components/L6470/L6470.c ****   * 
1258:Drivers/BSP/Components/L6470/L6470.c ****   * @param  L6470_Id      The identifier of the L6470 target inside the daisy chain.
1259:Drivers/BSP/Components/L6470/L6470.c ****   *
1260:Drivers/BSP/Components/L6470/L6470.c ****   * @note   This function will properly fill the right column of the L6470_AppCmdPkg.
1261:Drivers/BSP/Components/L6470/L6470.c ****   * @note   The commad will be sent by @ref L6470_PerformPreparedApplicationCommand.
1262:Drivers/BSP/Components/L6470/L6470.c ****   */
1263:Drivers/BSP/Components/L6470/L6470.c **** void L6470_PrepareGoMark(uint8_t L6470_Id)
1264:Drivers/BSP/Components/L6470/L6470.c **** {
 4902              		.loc 1 1264 1
 4903              		.cfi_startproc
 4904              		@ args = 0, pretend = 0, frame = 8
 4905              		@ frame_needed = 1, uses_anonymous_args = 0
 4906 0000 80B5     		push	{r7, lr}
 4907              	.LCFI318:
 4908              		.cfi_def_cfa_offset 8
 4909              		.cfi_offset 7, -8
 4910              		.cfi_offset 14, -4
 4911 0002 84B0     		sub	sp, sp, #16
 4912              	.LCFI319:
 4913              		.cfi_def_cfa_offset 24
 4914 0004 02AF     		add	r7, sp, #8
 4915              	.LCFI320:
 4916              		.cfi_def_cfa 7, 16
 4917 0006 0346     		mov	r3, r0
 4918 0008 FB71     		strb	r3, [r7, #7]
1265:Drivers/BSP/Components/L6470/L6470.c ****   L6470_PrepareAppCmdPkg(L6470_Id, L6470_AppCmdPkg, L6470_GOMARK_ID, 0, 0, 0);
 4919              		.loc 1 1265 3
 4920 000a F879     		ldrb	r0, [r7, #7]	@ zero_extendqisi2
 4921 000c 0023     		movs	r3, #0
 4922 000e 0193     		str	r3, [sp, #4]
 4923 0010 0023     		movs	r3, #0
 4924 0012 0093     		str	r3, [sp]
 4925 0014 0023     		movs	r3, #0
 4926 0016 0B22     		movs	r2, #11
ARM GAS  C:\Users\ep_ygh\AppData\Local\Temp\ccsX1uNj.s 			page 109


 4927 0018 0349     		ldr	r1, .L311
 4928 001a FFF7FEFF 		bl	L6470_PrepareAppCmdPkg
1266:Drivers/BSP/Components/L6470/L6470.c **** }
 4929              		.loc 1 1266 1
 4930 001e 00BF     		nop
 4931 0020 0837     		adds	r7, r7, #8
 4932              	.LCFI321:
 4933              		.cfi_def_cfa_offset 8
 4934 0022 BD46     		mov	sp, r7
 4935              	.LCFI322:
 4936              		.cfi_def_cfa_register 13
 4937              		@ sp needed
 4938 0024 80BD     		pop	{r7, pc}
 4939              	.L312:
 4940 0026 00BF     		.align	2
 4941              	.L311:
 4942 0028 00000000 		.word	L6470_AppCmdPkg
 4943              		.cfi_endproc
 4944              	.LFE186:
 4946              		.section	.text.L6470_PrepareResetPos,"ax",%progbits
 4947              		.align	1
 4948              		.global	L6470_PrepareResetPos
 4949              		.syntax unified
 4950              		.thumb
 4951              		.thumb_func
 4953              	L6470_PrepareResetPos:
 4954              	.LFB187:
1267:Drivers/BSP/Components/L6470/L6470.c **** 
1268:Drivers/BSP/Components/L6470/L6470.c **** /**
1269:Drivers/BSP/Components/L6470/L6470.c ****   * @brief  Prepare to send @ref L6470_ResetPos command.
1270:Drivers/BSP/Components/L6470/L6470.c ****   * 
1271:Drivers/BSP/Components/L6470/L6470.c ****   * @param  L6470_Id      The identifier of the L6470 target inside the daisy chain.
1272:Drivers/BSP/Components/L6470/L6470.c ****   *
1273:Drivers/BSP/Components/L6470/L6470.c ****   * @note   This function will properly fill the right column of the L6470_AppCmdPkg.
1274:Drivers/BSP/Components/L6470/L6470.c ****   * @note   The commad will be sent by @ref L6470_PerformPreparedApplicationCommand.
1275:Drivers/BSP/Components/L6470/L6470.c ****   */
1276:Drivers/BSP/Components/L6470/L6470.c **** void L6470_PrepareResetPos(uint8_t L6470_Id)
1277:Drivers/BSP/Components/L6470/L6470.c **** {
 4955              		.loc 1 1277 1
 4956              		.cfi_startproc
 4957              		@ args = 0, pretend = 0, frame = 8
 4958              		@ frame_needed = 1, uses_anonymous_args = 0
 4959 0000 80B5     		push	{r7, lr}
 4960              	.LCFI323:
 4961              		.cfi_def_cfa_offset 8
 4962              		.cfi_offset 7, -8
 4963              		.cfi_offset 14, -4
 4964 0002 84B0     		sub	sp, sp, #16
 4965              	.LCFI324:
 4966              		.cfi_def_cfa_offset 24
 4967 0004 02AF     		add	r7, sp, #8
 4968              	.LCFI325:
 4969              		.cfi_def_cfa 7, 16
 4970 0006 0346     		mov	r3, r0
 4971 0008 FB71     		strb	r3, [r7, #7]
1278:Drivers/BSP/Components/L6470/L6470.c ****   L6470_PrepareAppCmdPkg(L6470_Id, L6470_AppCmdPkg, L6470_RESETPOS_ID, 0, 0, 0);
 4972              		.loc 1 1278 3
ARM GAS  C:\Users\ep_ygh\AppData\Local\Temp\ccsX1uNj.s 			page 110


 4973 000a F879     		ldrb	r0, [r7, #7]	@ zero_extendqisi2
 4974 000c 0023     		movs	r3, #0
 4975 000e 0193     		str	r3, [sp, #4]
 4976 0010 0023     		movs	r3, #0
 4977 0012 0093     		str	r3, [sp]
 4978 0014 0023     		movs	r3, #0
 4979 0016 0C22     		movs	r2, #12
 4980 0018 0349     		ldr	r1, .L314
 4981 001a FFF7FEFF 		bl	L6470_PrepareAppCmdPkg
1279:Drivers/BSP/Components/L6470/L6470.c **** }
 4982              		.loc 1 1279 1
 4983 001e 00BF     		nop
 4984 0020 0837     		adds	r7, r7, #8
 4985              	.LCFI326:
 4986              		.cfi_def_cfa_offset 8
 4987 0022 BD46     		mov	sp, r7
 4988              	.LCFI327:
 4989              		.cfi_def_cfa_register 13
 4990              		@ sp needed
 4991 0024 80BD     		pop	{r7, pc}
 4992              	.L315:
 4993 0026 00BF     		.align	2
 4994              	.L314:
 4995 0028 00000000 		.word	L6470_AppCmdPkg
 4996              		.cfi_endproc
 4997              	.LFE187:
 4999              		.section	.text.L6470_PrepareResetDevice,"ax",%progbits
 5000              		.align	1
 5001              		.global	L6470_PrepareResetDevice
 5002              		.syntax unified
 5003              		.thumb
 5004              		.thumb_func
 5006              	L6470_PrepareResetDevice:
 5007              	.LFB188:
1280:Drivers/BSP/Components/L6470/L6470.c **** 
1281:Drivers/BSP/Components/L6470/L6470.c **** /**
1282:Drivers/BSP/Components/L6470/L6470.c ****   * @brief  Prepare to send @ref L6470_ResetDevice command.
1283:Drivers/BSP/Components/L6470/L6470.c ****   * 
1284:Drivers/BSP/Components/L6470/L6470.c ****   * @param  L6470_Id      The identifier of the L6470 target inside the daisy chain.
1285:Drivers/BSP/Components/L6470/L6470.c ****   *
1286:Drivers/BSP/Components/L6470/L6470.c ****   * @note   This function will properly fill the right column of the L6470_AppCmdPkg.
1287:Drivers/BSP/Components/L6470/L6470.c ****   * @note   The commad will be sent by @ref L6470_PerformPreparedApplicationCommand.
1288:Drivers/BSP/Components/L6470/L6470.c ****   */
1289:Drivers/BSP/Components/L6470/L6470.c **** void L6470_PrepareResetDevice(uint8_t L6470_Id)
1290:Drivers/BSP/Components/L6470/L6470.c **** {
 5008              		.loc 1 1290 1
 5009              		.cfi_startproc
 5010              		@ args = 0, pretend = 0, frame = 8
 5011              		@ frame_needed = 1, uses_anonymous_args = 0
 5012 0000 80B5     		push	{r7, lr}
 5013              	.LCFI328:
 5014              		.cfi_def_cfa_offset 8
 5015              		.cfi_offset 7, -8
 5016              		.cfi_offset 14, -4
 5017 0002 84B0     		sub	sp, sp, #16
 5018              	.LCFI329:
 5019              		.cfi_def_cfa_offset 24
ARM GAS  C:\Users\ep_ygh\AppData\Local\Temp\ccsX1uNj.s 			page 111


 5020 0004 02AF     		add	r7, sp, #8
 5021              	.LCFI330:
 5022              		.cfi_def_cfa 7, 16
 5023 0006 0346     		mov	r3, r0
 5024 0008 FB71     		strb	r3, [r7, #7]
1291:Drivers/BSP/Components/L6470/L6470.c ****   L6470_PrepareAppCmdPkg(L6470_Id, L6470_AppCmdPkg, L6470_RESETDEVICE_ID, 0, 0, 0);
 5025              		.loc 1 1291 3
 5026 000a F879     		ldrb	r0, [r7, #7]	@ zero_extendqisi2
 5027 000c 0023     		movs	r3, #0
 5028 000e 0193     		str	r3, [sp, #4]
 5029 0010 0023     		movs	r3, #0
 5030 0012 0093     		str	r3, [sp]
 5031 0014 0023     		movs	r3, #0
 5032 0016 0D22     		movs	r2, #13
 5033 0018 0349     		ldr	r1, .L317
 5034 001a FFF7FEFF 		bl	L6470_PrepareAppCmdPkg
1292:Drivers/BSP/Components/L6470/L6470.c **** }
 5035              		.loc 1 1292 1
 5036 001e 00BF     		nop
 5037 0020 0837     		adds	r7, r7, #8
 5038              	.LCFI331:
 5039              		.cfi_def_cfa_offset 8
 5040 0022 BD46     		mov	sp, r7
 5041              	.LCFI332:
 5042              		.cfi_def_cfa_register 13
 5043              		@ sp needed
 5044 0024 80BD     		pop	{r7, pc}
 5045              	.L318:
 5046 0026 00BF     		.align	2
 5047              	.L317:
 5048 0028 00000000 		.word	L6470_AppCmdPkg
 5049              		.cfi_endproc
 5050              	.LFE188:
 5052              		.section	.text.L6470_PrepareSoftStop,"ax",%progbits
 5053              		.align	1
 5054              		.global	L6470_PrepareSoftStop
 5055              		.syntax unified
 5056              		.thumb
 5057              		.thumb_func
 5059              	L6470_PrepareSoftStop:
 5060              	.LFB189:
1293:Drivers/BSP/Components/L6470/L6470.c **** 
1294:Drivers/BSP/Components/L6470/L6470.c **** /**
1295:Drivers/BSP/Components/L6470/L6470.c ****   * @brief  Prepare to send @ref L6470_SoftStop command.
1296:Drivers/BSP/Components/L6470/L6470.c ****   * 
1297:Drivers/BSP/Components/L6470/L6470.c ****   * @param  L6470_Id      The identifier of the L6470 target inside the daisy chain.
1298:Drivers/BSP/Components/L6470/L6470.c ****   *
1299:Drivers/BSP/Components/L6470/L6470.c ****   * @note   This function will properly fill the right column of the L6470_AppCmdPkg.
1300:Drivers/BSP/Components/L6470/L6470.c ****   * @note   The commad will be sent by @ref L6470_PerformPreparedApplicationCommand.
1301:Drivers/BSP/Components/L6470/L6470.c ****   */
1302:Drivers/BSP/Components/L6470/L6470.c **** void L6470_PrepareSoftStop(uint8_t L6470_Id)
1303:Drivers/BSP/Components/L6470/L6470.c **** {
 5061              		.loc 1 1303 1
 5062              		.cfi_startproc
 5063              		@ args = 0, pretend = 0, frame = 8
 5064              		@ frame_needed = 1, uses_anonymous_args = 0
 5065 0000 80B5     		push	{r7, lr}
ARM GAS  C:\Users\ep_ygh\AppData\Local\Temp\ccsX1uNj.s 			page 112


 5066              	.LCFI333:
 5067              		.cfi_def_cfa_offset 8
 5068              		.cfi_offset 7, -8
 5069              		.cfi_offset 14, -4
 5070 0002 84B0     		sub	sp, sp, #16
 5071              	.LCFI334:
 5072              		.cfi_def_cfa_offset 24
 5073 0004 02AF     		add	r7, sp, #8
 5074              	.LCFI335:
 5075              		.cfi_def_cfa 7, 16
 5076 0006 0346     		mov	r3, r0
 5077 0008 FB71     		strb	r3, [r7, #7]
1304:Drivers/BSP/Components/L6470/L6470.c ****   L6470_PrepareAppCmdPkg(L6470_Id, L6470_AppCmdPkg, L6470_SOFTSTOP_ID, 0, 0, 0);
 5078              		.loc 1 1304 3
 5079 000a F879     		ldrb	r0, [r7, #7]	@ zero_extendqisi2
 5080 000c 0023     		movs	r3, #0
 5081 000e 0193     		str	r3, [sp, #4]
 5082 0010 0023     		movs	r3, #0
 5083 0012 0093     		str	r3, [sp]
 5084 0014 0023     		movs	r3, #0
 5085 0016 0E22     		movs	r2, #14
 5086 0018 0349     		ldr	r1, .L320
 5087 001a FFF7FEFF 		bl	L6470_PrepareAppCmdPkg
1305:Drivers/BSP/Components/L6470/L6470.c **** }
 5088              		.loc 1 1305 1
 5089 001e 00BF     		nop
 5090 0020 0837     		adds	r7, r7, #8
 5091              	.LCFI336:
 5092              		.cfi_def_cfa_offset 8
 5093 0022 BD46     		mov	sp, r7
 5094              	.LCFI337:
 5095              		.cfi_def_cfa_register 13
 5096              		@ sp needed
 5097 0024 80BD     		pop	{r7, pc}
 5098              	.L321:
 5099 0026 00BF     		.align	2
 5100              	.L320:
 5101 0028 00000000 		.word	L6470_AppCmdPkg
 5102              		.cfi_endproc
 5103              	.LFE189:
 5105              		.section	.text.L6470_PrepareHardStop,"ax",%progbits
 5106              		.align	1
 5107              		.global	L6470_PrepareHardStop
 5108              		.syntax unified
 5109              		.thumb
 5110              		.thumb_func
 5112              	L6470_PrepareHardStop:
 5113              	.LFB190:
1306:Drivers/BSP/Components/L6470/L6470.c **** 
1307:Drivers/BSP/Components/L6470/L6470.c **** /**
1308:Drivers/BSP/Components/L6470/L6470.c ****   * @brief  Prepare to send @ref L6470_HardStop command.
1309:Drivers/BSP/Components/L6470/L6470.c ****   * 
1310:Drivers/BSP/Components/L6470/L6470.c ****   * @param  L6470_Id      The identifier of the L6470 target inside the daisy chain.
1311:Drivers/BSP/Components/L6470/L6470.c ****   *
1312:Drivers/BSP/Components/L6470/L6470.c ****   * @note   This function will properly fill the right column of the L6470_AppCmdPkg.
1313:Drivers/BSP/Components/L6470/L6470.c ****   * @note   The commad will be sent by @ref L6470_PerformPreparedApplicationCommand.
1314:Drivers/BSP/Components/L6470/L6470.c ****   */
ARM GAS  C:\Users\ep_ygh\AppData\Local\Temp\ccsX1uNj.s 			page 113


1315:Drivers/BSP/Components/L6470/L6470.c **** void L6470_PrepareHardStop(uint8_t L6470_Id)
1316:Drivers/BSP/Components/L6470/L6470.c **** {
 5114              		.loc 1 1316 1
 5115              		.cfi_startproc
 5116              		@ args = 0, pretend = 0, frame = 8
 5117              		@ frame_needed = 1, uses_anonymous_args = 0
 5118 0000 80B5     		push	{r7, lr}
 5119              	.LCFI338:
 5120              		.cfi_def_cfa_offset 8
 5121              		.cfi_offset 7, -8
 5122              		.cfi_offset 14, -4
 5123 0002 84B0     		sub	sp, sp, #16
 5124              	.LCFI339:
 5125              		.cfi_def_cfa_offset 24
 5126 0004 02AF     		add	r7, sp, #8
 5127              	.LCFI340:
 5128              		.cfi_def_cfa 7, 16
 5129 0006 0346     		mov	r3, r0
 5130 0008 FB71     		strb	r3, [r7, #7]
1317:Drivers/BSP/Components/L6470/L6470.c ****   L6470_PrepareAppCmdPkg(L6470_Id, L6470_AppCmdPkg, L6470_HARDSTOP_ID, 0, 0, 0);
 5131              		.loc 1 1317 3
 5132 000a F879     		ldrb	r0, [r7, #7]	@ zero_extendqisi2
 5133 000c 0023     		movs	r3, #0
 5134 000e 0193     		str	r3, [sp, #4]
 5135 0010 0023     		movs	r3, #0
 5136 0012 0093     		str	r3, [sp]
 5137 0014 0023     		movs	r3, #0
 5138 0016 0F22     		movs	r2, #15
 5139 0018 0349     		ldr	r1, .L323
 5140 001a FFF7FEFF 		bl	L6470_PrepareAppCmdPkg
1318:Drivers/BSP/Components/L6470/L6470.c **** }
 5141              		.loc 1 1318 1
 5142 001e 00BF     		nop
 5143 0020 0837     		adds	r7, r7, #8
 5144              	.LCFI341:
 5145              		.cfi_def_cfa_offset 8
 5146 0022 BD46     		mov	sp, r7
 5147              	.LCFI342:
 5148              		.cfi_def_cfa_register 13
 5149              		@ sp needed
 5150 0024 80BD     		pop	{r7, pc}
 5151              	.L324:
 5152 0026 00BF     		.align	2
 5153              	.L323:
 5154 0028 00000000 		.word	L6470_AppCmdPkg
 5155              		.cfi_endproc
 5156              	.LFE190:
 5158              		.section	.text.L6470_PrepareSoftHiZ,"ax",%progbits
 5159              		.align	1
 5160              		.global	L6470_PrepareSoftHiZ
 5161              		.syntax unified
 5162              		.thumb
 5163              		.thumb_func
 5165              	L6470_PrepareSoftHiZ:
 5166              	.LFB191:
1319:Drivers/BSP/Components/L6470/L6470.c **** 
1320:Drivers/BSP/Components/L6470/L6470.c **** /**
ARM GAS  C:\Users\ep_ygh\AppData\Local\Temp\ccsX1uNj.s 			page 114


1321:Drivers/BSP/Components/L6470/L6470.c ****   * @brief  Prepare to send @ref L6470_SoftHiZ command.
1322:Drivers/BSP/Components/L6470/L6470.c ****   * 
1323:Drivers/BSP/Components/L6470/L6470.c ****   * @param  L6470_Id      The identifier of the L6470 target inside the daisy chain.
1324:Drivers/BSP/Components/L6470/L6470.c ****   *
1325:Drivers/BSP/Components/L6470/L6470.c ****   * @note   This function will properly fill the right column of the L6470_AppCmdPkg.
1326:Drivers/BSP/Components/L6470/L6470.c ****   * @note   The commad will be sent by @ref L6470_PerformPreparedApplicationCommand.
1327:Drivers/BSP/Components/L6470/L6470.c ****   */
1328:Drivers/BSP/Components/L6470/L6470.c **** void L6470_PrepareSoftHiZ(uint8_t L6470_Id)
1329:Drivers/BSP/Components/L6470/L6470.c **** {
 5167              		.loc 1 1329 1
 5168              		.cfi_startproc
 5169              		@ args = 0, pretend = 0, frame = 8
 5170              		@ frame_needed = 1, uses_anonymous_args = 0
 5171 0000 80B5     		push	{r7, lr}
 5172              	.LCFI343:
 5173              		.cfi_def_cfa_offset 8
 5174              		.cfi_offset 7, -8
 5175              		.cfi_offset 14, -4
 5176 0002 84B0     		sub	sp, sp, #16
 5177              	.LCFI344:
 5178              		.cfi_def_cfa_offset 24
 5179 0004 02AF     		add	r7, sp, #8
 5180              	.LCFI345:
 5181              		.cfi_def_cfa 7, 16
 5182 0006 0346     		mov	r3, r0
 5183 0008 FB71     		strb	r3, [r7, #7]
1330:Drivers/BSP/Components/L6470/L6470.c ****   L6470_PrepareAppCmdPkg(L6470_Id, L6470_AppCmdPkg, L6470_SOFTHIZ_ID, 0, 0, 0);
 5184              		.loc 1 1330 3
 5185 000a F879     		ldrb	r0, [r7, #7]	@ zero_extendqisi2
 5186 000c 0023     		movs	r3, #0
 5187 000e 0193     		str	r3, [sp, #4]
 5188 0010 0023     		movs	r3, #0
 5189 0012 0093     		str	r3, [sp]
 5190 0014 0023     		movs	r3, #0
 5191 0016 1022     		movs	r2, #16
 5192 0018 0349     		ldr	r1, .L326
 5193 001a FFF7FEFF 		bl	L6470_PrepareAppCmdPkg
1331:Drivers/BSP/Components/L6470/L6470.c **** }
 5194              		.loc 1 1331 1
 5195 001e 00BF     		nop
 5196 0020 0837     		adds	r7, r7, #8
 5197              	.LCFI346:
 5198              		.cfi_def_cfa_offset 8
 5199 0022 BD46     		mov	sp, r7
 5200              	.LCFI347:
 5201              		.cfi_def_cfa_register 13
 5202              		@ sp needed
 5203 0024 80BD     		pop	{r7, pc}
 5204              	.L327:
 5205 0026 00BF     		.align	2
 5206              	.L326:
 5207 0028 00000000 		.word	L6470_AppCmdPkg
 5208              		.cfi_endproc
 5209              	.LFE191:
 5211              		.section	.text.L6470_PrepareHardHiZ,"ax",%progbits
 5212              		.align	1
 5213              		.global	L6470_PrepareHardHiZ
ARM GAS  C:\Users\ep_ygh\AppData\Local\Temp\ccsX1uNj.s 			page 115


 5214              		.syntax unified
 5215              		.thumb
 5216              		.thumb_func
 5218              	L6470_PrepareHardHiZ:
 5219              	.LFB192:
1332:Drivers/BSP/Components/L6470/L6470.c **** 
1333:Drivers/BSP/Components/L6470/L6470.c **** /**
1334:Drivers/BSP/Components/L6470/L6470.c ****   * @brief  Prepare to send @ref L6470_HardHiZ command.
1335:Drivers/BSP/Components/L6470/L6470.c ****   * 
1336:Drivers/BSP/Components/L6470/L6470.c ****   * @param  L6470_Id      The identifier of the L6470 target inside the daisy chain.
1337:Drivers/BSP/Components/L6470/L6470.c ****   *
1338:Drivers/BSP/Components/L6470/L6470.c ****   * @note   This function will properly fill the right column of the L6470_AppCmdPkg.
1339:Drivers/BSP/Components/L6470/L6470.c ****   * @note   The commad will be sent by @ref L6470_PerformPreparedApplicationCommand.
1340:Drivers/BSP/Components/L6470/L6470.c ****   */
1341:Drivers/BSP/Components/L6470/L6470.c **** void L6470_PrepareHardHiZ(uint8_t L6470_Id)
1342:Drivers/BSP/Components/L6470/L6470.c **** {
 5220              		.loc 1 1342 1
 5221              		.cfi_startproc
 5222              		@ args = 0, pretend = 0, frame = 8
 5223              		@ frame_needed = 1, uses_anonymous_args = 0
 5224 0000 80B5     		push	{r7, lr}
 5225              	.LCFI348:
 5226              		.cfi_def_cfa_offset 8
 5227              		.cfi_offset 7, -8
 5228              		.cfi_offset 14, -4
 5229 0002 84B0     		sub	sp, sp, #16
 5230              	.LCFI349:
 5231              		.cfi_def_cfa_offset 24
 5232 0004 02AF     		add	r7, sp, #8
 5233              	.LCFI350:
 5234              		.cfi_def_cfa 7, 16
 5235 0006 0346     		mov	r3, r0
 5236 0008 FB71     		strb	r3, [r7, #7]
1343:Drivers/BSP/Components/L6470/L6470.c ****   L6470_PrepareAppCmdPkg(L6470_Id, L6470_AppCmdPkg, L6470_HARDHIZ_ID, 0, 0, 0);
 5237              		.loc 1 1343 3
 5238 000a F879     		ldrb	r0, [r7, #7]	@ zero_extendqisi2
 5239 000c 0023     		movs	r3, #0
 5240 000e 0193     		str	r3, [sp, #4]
 5241 0010 0023     		movs	r3, #0
 5242 0012 0093     		str	r3, [sp]
 5243 0014 0023     		movs	r3, #0
 5244 0016 1122     		movs	r2, #17
 5245 0018 0349     		ldr	r1, .L329
 5246 001a FFF7FEFF 		bl	L6470_PrepareAppCmdPkg
1344:Drivers/BSP/Components/L6470/L6470.c **** }
 5247              		.loc 1 1344 1
 5248 001e 00BF     		nop
 5249 0020 0837     		adds	r7, r7, #8
 5250              	.LCFI351:
 5251              		.cfi_def_cfa_offset 8
 5252 0022 BD46     		mov	sp, r7
 5253              	.LCFI352:
 5254              		.cfi_def_cfa_register 13
 5255              		@ sp needed
 5256 0024 80BD     		pop	{r7, pc}
 5257              	.L330:
 5258 0026 00BF     		.align	2
ARM GAS  C:\Users\ep_ygh\AppData\Local\Temp\ccsX1uNj.s 			page 116


 5259              	.L329:
 5260 0028 00000000 		.word	L6470_AppCmdPkg
 5261              		.cfi_endproc
 5262              	.LFE192:
 5264              		.section	.text.L6470_PrepareGetStatus,"ax",%progbits
 5265              		.align	1
 5266              		.global	L6470_PrepareGetStatus
 5267              		.syntax unified
 5268              		.thumb
 5269              		.thumb_func
 5271              	L6470_PrepareGetStatus:
 5272              	.LFB193:
1345:Drivers/BSP/Components/L6470/L6470.c **** 
1346:Drivers/BSP/Components/L6470/L6470.c **** /**
1347:Drivers/BSP/Components/L6470/L6470.c ****   * @brief  Prepare to send @ref L6470_GetStatus command.
1348:Drivers/BSP/Components/L6470/L6470.c ****   * 
1349:Drivers/BSP/Components/L6470/L6470.c ****   * @param  L6470_Id      The identifier of the L6470 target inside the daisy chain.
1350:Drivers/BSP/Components/L6470/L6470.c ****   *
1351:Drivers/BSP/Components/L6470/L6470.c ****   * @note   This function will properly fill the right column of the L6470_AppCmdPkg.
1352:Drivers/BSP/Components/L6470/L6470.c ****   * @note   The commad will be sent by @ref L6470_PerformPreparedApplicationCommand.
1353:Drivers/BSP/Components/L6470/L6470.c ****   */
1354:Drivers/BSP/Components/L6470/L6470.c **** void L6470_PrepareGetStatus(uint8_t L6470_Id)
1355:Drivers/BSP/Components/L6470/L6470.c **** {
 5273              		.loc 1 1355 1
 5274              		.cfi_startproc
 5275              		@ args = 0, pretend = 0, frame = 8
 5276              		@ frame_needed = 1, uses_anonymous_args = 0
 5277 0000 80B5     		push	{r7, lr}
 5278              	.LCFI353:
 5279              		.cfi_def_cfa_offset 8
 5280              		.cfi_offset 7, -8
 5281              		.cfi_offset 14, -4
 5282 0002 84B0     		sub	sp, sp, #16
 5283              	.LCFI354:
 5284              		.cfi_def_cfa_offset 24
 5285 0004 02AF     		add	r7, sp, #8
 5286              	.LCFI355:
 5287              		.cfi_def_cfa 7, 16
 5288 0006 0346     		mov	r3, r0
 5289 0008 FB71     		strb	r3, [r7, #7]
1356:Drivers/BSP/Components/L6470/L6470.c ****   L6470_PrepareAppCmdPkg(L6470_Id, L6470_AppCmdPkg, L6470_GETSTATUS_ID, 0, 0, 0);
 5290              		.loc 1 1356 3
 5291 000a F879     		ldrb	r0, [r7, #7]	@ zero_extendqisi2
 5292 000c 0023     		movs	r3, #0
 5293 000e 0193     		str	r3, [sp, #4]
 5294 0010 0023     		movs	r3, #0
 5295 0012 0093     		str	r3, [sp]
 5296 0014 0023     		movs	r3, #0
 5297 0016 1222     		movs	r2, #18
 5298 0018 0349     		ldr	r1, .L332
 5299 001a FFF7FEFF 		bl	L6470_PrepareAppCmdPkg
1357:Drivers/BSP/Components/L6470/L6470.c **** }
 5300              		.loc 1 1357 1
 5301 001e 00BF     		nop
 5302 0020 0837     		adds	r7, r7, #8
 5303              	.LCFI356:
 5304              		.cfi_def_cfa_offset 8
ARM GAS  C:\Users\ep_ygh\AppData\Local\Temp\ccsX1uNj.s 			page 117


 5305 0022 BD46     		mov	sp, r7
 5306              	.LCFI357:
 5307              		.cfi_def_cfa_register 13
 5308              		@ sp needed
 5309 0024 80BD     		pop	{r7, pc}
 5310              	.L333:
 5311 0026 00BF     		.align	2
 5312              	.L332:
 5313 0028 00000000 		.word	L6470_AppCmdPkg
 5314              		.cfi_endproc
 5315              	.LFE193:
 5317              		.section	.text.L6470_PerformPreparedApplicationCommand,"ax",%progbits
 5318              		.align	1
 5319              		.global	L6470_PerformPreparedApplicationCommand
 5320              		.syntax unified
 5321              		.thumb
 5322              		.thumb_func
 5324              	L6470_PerformPreparedApplicationCommand:
 5325              	.LFB194:
1358:Drivers/BSP/Components/L6470/L6470.c **** 
1359:Drivers/BSP/Components/L6470/L6470.c **** /**
1360:Drivers/BSP/Components/L6470/L6470.c ****   * @}
1361:Drivers/BSP/Components/L6470/L6470.c ****   */ /* End of L6470_AppCMDs_ToBePrepared */
1362:Drivers/BSP/Components/L6470/L6470.c **** 
1363:Drivers/BSP/Components/L6470/L6470.c **** /**
1364:Drivers/BSP/Components/L6470/L6470.c ****   * @brief  Send via SPI the command stored inside the L6470_AppCmdPkg to the
1365:Drivers/BSP/Components/L6470/L6470.c ****   *         L6470 daisy chain.
1366:Drivers/BSP/Components/L6470/L6470.c ****   * 
1367:Drivers/BSP/Components/L6470/L6470.c ****   * @retval (uint8_t*)L6470_DaisyChainSpiRxStruct  The pointer to the structure
1368:Drivers/BSP/Components/L6470/L6470.c ****   *         containing returned values from each L6470 of the daisy chain for each
1369:Drivers/BSP/Components/L6470/L6470.c ****   *         sent SPI data.
1370:Drivers/BSP/Components/L6470/L6470.c ****   */
1371:Drivers/BSP/Components/L6470/L6470.c **** uint8_t* L6470_PerformPreparedApplicationCommand(void)
1372:Drivers/BSP/Components/L6470/L6470.c **** {
 5326              		.loc 1 1372 1
 5327              		.cfi_startproc
 5328              		@ args = 0, pretend = 0, frame = 0
 5329              		@ frame_needed = 1, uses_anonymous_args = 0
 5330 0000 80B5     		push	{r7, lr}
 5331              	.LCFI358:
 5332              		.cfi_def_cfa_offset 8
 5333              		.cfi_offset 7, -8
 5334              		.cfi_offset 14, -4
 5335 0002 00AF     		add	r7, sp, #0
 5336              	.LCFI359:
 5337              		.cfi_def_cfa_register 7
1373:Drivers/BSP/Components/L6470/L6470.c ****   L6470_PrepareDaisyChainCommand(L6470_AppCmdPkg, (uint8_t*)L6470_DaisyChainSpiTxStruct);
 5338              		.loc 1 1373 3
 5339 0004 0549     		ldr	r1, .L336
 5340 0006 0648     		ldr	r0, .L336+4
 5341 0008 FFF7FEFF 		bl	L6470_PrepareDaisyChainCommand
1374:Drivers/BSP/Components/L6470/L6470.c ****   L6470_DaisyChainCommand((uint8_t*)L6470_DaisyChainSpiTxStruct, (uint8_t*)L6470_DaisyChainSpiRxStr
 5342              		.loc 1 1374 3
 5343 000c 0549     		ldr	r1, .L336+8
 5344 000e 0348     		ldr	r0, .L336
 5345 0010 FFF7FEFF 		bl	L6470_DaisyChainCommand
1375:Drivers/BSP/Components/L6470/L6470.c ****   
ARM GAS  C:\Users\ep_ygh\AppData\Local\Temp\ccsX1uNj.s 			page 118


1376:Drivers/BSP/Components/L6470/L6470.c ****   return (uint8_t*)(L6470_DaisyChainSpiRxStruct);
 5346              		.loc 1 1376 10
 5347 0014 034B     		ldr	r3, .L336+8
1377:Drivers/BSP/Components/L6470/L6470.c **** }
 5348              		.loc 1 1377 1
 5349 0016 1846     		mov	r0, r3
 5350 0018 80BD     		pop	{r7, pc}
 5351              	.L337:
 5352 001a 00BF     		.align	2
 5353              	.L336:
 5354 001c 00000000 		.word	L6470_DaisyChainSpiTxStruct
 5355 0020 00000000 		.word	L6470_AppCmdPkg
 5356 0024 00000000 		.word	L6470_DaisyChainSpiRxStruct
 5357              		.cfi_endproc
 5358              	.LFE194:
 5360              		.section	.text.L6470_ID,"ax",%progbits
 5361              		.align	1
 5362              		.global	L6470_ID
 5363              		.syntax unified
 5364              		.thumb
 5365              		.thumb_func
 5367              	L6470_ID:
 5368              	.LFB195:
1378:Drivers/BSP/Components/L6470/L6470.c **** 
1379:Drivers/BSP/Components/L6470/L6470.c **** /**
1380:Drivers/BSP/Components/L6470/L6470.c ****   * @brief  Address the L6470 inside the daisy chain starting from '0'.
1381:Drivers/BSP/Components/L6470/L6470.c ****   * 
1382:Drivers/BSP/Components/L6470/L6470.c ****   * @param  position  The position of the L6470 inside the daisy chain starting from '1'. 
1383:Drivers/BSP/Components/L6470/L6470.c ****   * 
1384:Drivers/BSP/Components/L6470/L6470.c ****   * @retval id        The column to address inside the L6470_DaisyChainSpiTxStruct.
1385:Drivers/BSP/Components/L6470/L6470.c ****   *
1386:Drivers/BSP/Components/L6470/L6470.c ****   * @note   The position '1' is close the uC MISO.
1387:Drivers/BSP/Components/L6470/L6470.c ****   * @note   If the position is not allowable the returned value is 0xFF.
1388:Drivers/BSP/Components/L6470/L6470.c ****   */
1389:Drivers/BSP/Components/L6470/L6470.c **** uint8_t L6470_ID(uint8_t position)
1390:Drivers/BSP/Components/L6470/L6470.c **** {
 5369              		.loc 1 1390 1
 5370              		.cfi_startproc
 5371              		@ args = 0, pretend = 0, frame = 8
 5372              		@ frame_needed = 1, uses_anonymous_args = 0
 5373              		@ link register save eliminated.
 5374 0000 80B4     		push	{r7}
 5375              	.LCFI360:
 5376              		.cfi_def_cfa_offset 4
 5377              		.cfi_offset 7, -4
 5378 0002 83B0     		sub	sp, sp, #12
 5379              	.LCFI361:
 5380              		.cfi_def_cfa_offset 16
 5381 0004 00AF     		add	r7, sp, #0
 5382              	.LCFI362:
 5383              		.cfi_def_cfa_register 7
 5384 0006 0346     		mov	r3, r0
 5385 0008 FB71     		strb	r3, [r7, #7]
1391:Drivers/BSP/Components/L6470/L6470.c ****    if ((position == 0) || ((position > 0) && (position < L6470DAISYCHAINSIZE)))
 5386              		.loc 1 1391 7
 5387 000a FB79     		ldrb	r3, [r7, #7]	@ zero_extendqisi2
 5388 000c 002B     		cmp	r3, #0
ARM GAS  C:\Users\ep_ygh\AppData\Local\Temp\ccsX1uNj.s 			page 119


 5389 000e 05D0     		beq	.L339
 5390              		.loc 1 1391 24 discriminator 1
 5391 0010 FB79     		ldrb	r3, [r7, #7]	@ zero_extendqisi2
 5392 0012 002B     		cmp	r3, #0
 5393 0014 04D0     		beq	.L340
 5394              		.loc 1 1391 43 discriminator 2
 5395 0016 FB79     		ldrb	r3, [r7, #7]	@ zero_extendqisi2
 5396 0018 012B     		cmp	r3, #1
 5397 001a 01D8     		bhi	.L340
 5398              	.L339:
1392:Drivers/BSP/Components/L6470/L6470.c ****   {
1393:Drivers/BSP/Components/L6470/L6470.c ****     return (position);
 5399              		.loc 1 1393 12
 5400 001c FB79     		ldrb	r3, [r7, #7]	@ zero_extendqisi2
 5401 001e 00E0     		b	.L341
 5402              	.L340:
1394:Drivers/BSP/Components/L6470/L6470.c ****   }
1395:Drivers/BSP/Components/L6470/L6470.c ****   else
1396:Drivers/BSP/Components/L6470/L6470.c ****   {
1397:Drivers/BSP/Components/L6470/L6470.c ****     return 0xFF;
 5403              		.loc 1 1397 12
 5404 0020 FF23     		movs	r3, #255
 5405              	.L341:
1398:Drivers/BSP/Components/L6470/L6470.c ****   }
1399:Drivers/BSP/Components/L6470/L6470.c **** }
 5406              		.loc 1 1399 1
 5407 0022 1846     		mov	r0, r3
 5408 0024 0C37     		adds	r7, r7, #12
 5409              	.LCFI363:
 5410              		.cfi_def_cfa_offset 4
 5411 0026 BD46     		mov	sp, r7
 5412              	.LCFI364:
 5413              		.cfi_def_cfa_register 13
 5414              		@ sp needed
 5415 0028 5DF8047B 		ldr	r7, [sp], #4
 5416              	.LCFI365:
 5417              		.cfi_restore 7
 5418              		.cfi_def_cfa_offset 0
 5419 002c 7047     		bx	lr
 5420              		.cfi_endproc
 5421              	.LFE195:
 5423              		.section	.text.L6470_DaisyChainCommand,"ax",%progbits
 5424              		.align	1
 5425              		.global	L6470_DaisyChainCommand
 5426              		.syntax unified
 5427              		.thumb
 5428              		.thumb_func
 5430              	L6470_DaisyChainCommand:
 5431              	.LFB196:
1400:Drivers/BSP/Components/L6470/L6470.c **** 
1401:Drivers/BSP/Components/L6470/L6470.c **** /**
1402:Drivers/BSP/Components/L6470/L6470.c ****   * @brief  Send command to the L6470 daisy chain via SPI
1403:Drivers/BSP/Components/L6470/L6470.c ****   * @param  pL6470_DaisyChainSpiTxStruct  Pointer to the matrix array of bytes to be sent to the da
1404:Drivers/BSP/Components/L6470/L6470.c ****   * @param  pL6470_DaisyChainSpiRxStruct  Pointer to the matrix array of bytes to be received from 
1405:Drivers/BSP/Components/L6470/L6470.c ****   */
1406:Drivers/BSP/Components/L6470/L6470.c **** void L6470_DaisyChainCommand(uint8_t* pL6470_DaisyChainSpiTxStruct, uint8_t* pL6470_DaisyChainSpiRx
1407:Drivers/BSP/Components/L6470/L6470.c **** {
ARM GAS  C:\Users\ep_ygh\AppData\Local\Temp\ccsX1uNj.s 			page 120


 5432              		.loc 1 1407 1
 5433              		.cfi_startproc
 5434              		@ args = 0, pretend = 0, frame = 16
 5435              		@ frame_needed = 1, uses_anonymous_args = 0
 5436 0000 80B5     		push	{r7, lr}
 5437              	.LCFI366:
 5438              		.cfi_def_cfa_offset 8
 5439              		.cfi_offset 7, -8
 5440              		.cfi_offset 14, -4
 5441 0002 86B0     		sub	sp, sp, #24
 5442              	.LCFI367:
 5443              		.cfi_def_cfa_offset 32
 5444 0004 02AF     		add	r7, sp, #8
 5445              	.LCFI368:
 5446              		.cfi_def_cfa 7, 24
 5447 0006 7860     		str	r0, [r7, #4]
 5448 0008 3960     		str	r1, [r7]
1408:Drivers/BSP/Components/L6470/L6470.c ****   uint8_t spibyte;
1409:Drivers/BSP/Components/L6470/L6470.c ****   
1410:Drivers/BSP/Components/L6470/L6470.c ****   L6470_DaisyChain_HalfPrepared = ZERO_F;
 5449              		.loc 1 1410 33
 5450 000a 204B     		ldr	r3, .L347
 5451 000c 0022     		movs	r2, #0
 5452 000e 1A70     		strb	r2, [r3]
1411:Drivers/BSP/Components/L6470/L6470.c ****   
1412:Drivers/BSP/Components/L6470/L6470.c ****   /* Send all command bytes via SPI */
1413:Drivers/BSP/Components/L6470/L6470.c ****   for(spibyte=0; spibyte < L6470MAXSPICMDBYTESIZE; spibyte++)
 5453              		.loc 1 1413 14
 5454 0010 0023     		movs	r3, #0
 5455 0012 FB73     		strb	r3, [r7, #15]
 5456              		.loc 1 1413 3
 5457 0014 32E0     		b	.L343
 5458              	.L346:
1414:Drivers/BSP/Components/L6470/L6470.c ****   {
1415:Drivers/BSP/Components/L6470/L6470.c ****     /* Enable SPI communication for L6470 */
1416:Drivers/BSP/Components/L6470/L6470.c ****     L6470_nCS_LOW();
 5459              		.loc 1 1416 5
 5460 0016 1E4B     		ldr	r3, .L347+4
 5461 0018 5B68     		ldr	r3, [r3, #4]
 5462 001a 1D4A     		ldr	r2, .L347+4
 5463 001c 1189     		ldrh	r1, [r2, #8]
 5464 001e 0022     		movs	r2, #0
 5465 0020 1846     		mov	r0, r3
 5466 0022 FFF7FEFF 		bl	HAL_GPIO_WritePin
1417:Drivers/BSP/Components/L6470/L6470.c ****     
1418:Drivers/BSP/Components/L6470/L6470.c ****     /* Send the command via SPI */
1419:Drivers/BSP/Components/L6470/L6470.c ****     L6470_SPI_Communication(&HSPI, (pL6470_DaisyChainSpiTxStruct+(spibyte * L6470DAISYCHAINSIZE)), 
 5467              		.loc 1 1419 75
 5468 0026 FB7B     		ldrb	r3, [r7, #15]	@ zero_extendqisi2
 5469 0028 5B00     		lsls	r3, r3, #1
 5470 002a 1A46     		mov	r2, r3
 5471              		.loc 1 1419 5
 5472 002c 7B68     		ldr	r3, [r7, #4]
 5473 002e 9918     		adds	r1, r3, r2
 5474              		.loc 1 1419 139
 5475 0030 FB7B     		ldrb	r3, [r7, #15]	@ zero_extendqisi2
 5476 0032 5B00     		lsls	r3, r3, #1
ARM GAS  C:\Users\ep_ygh\AppData\Local\Temp\ccsX1uNj.s 			page 121


 5477 0034 1A46     		mov	r2, r3
 5478              		.loc 1 1419 5
 5479 0036 3B68     		ldr	r3, [r7]
 5480 0038 1A44     		add	r2, r2, r3
 5481 003a 0A23     		movs	r3, #10
 5482 003c 0093     		str	r3, [sp]
 5483 003e 0223     		movs	r3, #2
 5484 0040 1448     		ldr	r0, .L347+8
 5485 0042 FFF7FEFF 		bl	HAL_SPI_TransmitReceive
1420:Drivers/BSP/Components/L6470/L6470.c ****     
1421:Drivers/BSP/Components/L6470/L6470.c ****     /* Allow the device to decode the received command */
1422:Drivers/BSP/Components/L6470/L6470.c ****     L6470_nCS_HIGH();
 5486              		.loc 1 1422 5
 5487 0046 124B     		ldr	r3, .L347+4
 5488 0048 5B68     		ldr	r3, [r3, #4]
 5489 004a 114A     		ldr	r2, .L347+4
 5490 004c 1189     		ldrh	r1, [r2, #8]
 5491 004e 0122     		movs	r2, #1
 5492 0050 1846     		mov	r0, r3
 5493 0052 FFF7FEFF 		bl	HAL_GPIO_WritePin
1423:Drivers/BSP/Components/L6470/L6470.c ****     
1424:Drivers/BSP/Components/L6470/L6470.c ****     _DELAY(TDISCS);
 5494              		.loc 1 1424 5
 5495 0056 104B     		ldr	r3, .L347+12
 5496 0058 0022     		movs	r2, #0
 5497 005a 1A70     		strb	r2, [r3]
 5498 005c 07E0     		b	.L344
 5499              	.L345:
 5500              	.LBB4:
 5501              	.LBB5:
 5502              		.file 2 "Drivers/CMSIS/Include/core_cmInstr.h"
   1:Drivers/CMSIS/Include/core_cmInstr.h **** /**************************************************************************//**
   2:Drivers/CMSIS/Include/core_cmInstr.h ****  * @file     core_cmInstr.h
   3:Drivers/CMSIS/Include/core_cmInstr.h ****  * @brief    CMSIS Cortex-M Core Instruction Access Header File
   4:Drivers/CMSIS/Include/core_cmInstr.h ****  * @version  V4.10
   5:Drivers/CMSIS/Include/core_cmInstr.h ****  * @date     18. March 2015
   6:Drivers/CMSIS/Include/core_cmInstr.h ****  *
   7:Drivers/CMSIS/Include/core_cmInstr.h ****  * @note
   8:Drivers/CMSIS/Include/core_cmInstr.h ****  *
   9:Drivers/CMSIS/Include/core_cmInstr.h ****  ******************************************************************************/
  10:Drivers/CMSIS/Include/core_cmInstr.h **** /* Copyright (c) 2009 - 2014 ARM LIMITED
  11:Drivers/CMSIS/Include/core_cmInstr.h **** 
  12:Drivers/CMSIS/Include/core_cmInstr.h ****    All rights reserved.
  13:Drivers/CMSIS/Include/core_cmInstr.h ****    Redistribution and use in source and binary forms, with or without
  14:Drivers/CMSIS/Include/core_cmInstr.h ****    modification, are permitted provided that the following conditions are met:
  15:Drivers/CMSIS/Include/core_cmInstr.h ****    - Redistributions of source code must retain the above copyright
  16:Drivers/CMSIS/Include/core_cmInstr.h ****      notice, this list of conditions and the following disclaimer.
  17:Drivers/CMSIS/Include/core_cmInstr.h ****    - Redistributions in binary form must reproduce the above copyright
  18:Drivers/CMSIS/Include/core_cmInstr.h ****      notice, this list of conditions and the following disclaimer in the
  19:Drivers/CMSIS/Include/core_cmInstr.h ****      documentation and/or other materials provided with the distribution.
  20:Drivers/CMSIS/Include/core_cmInstr.h ****    - Neither the name of ARM nor the names of its contributors may be used
  21:Drivers/CMSIS/Include/core_cmInstr.h ****      to endorse or promote products derived from this software without
  22:Drivers/CMSIS/Include/core_cmInstr.h ****      specific prior written permission.
  23:Drivers/CMSIS/Include/core_cmInstr.h ****    *
  24:Drivers/CMSIS/Include/core_cmInstr.h ****    THIS SOFTWARE IS PROVIDED BY THE COPYRIGHT HOLDERS AND CONTRIBUTORS "AS IS"
  25:Drivers/CMSIS/Include/core_cmInstr.h ****    AND ANY EXPRESS OR IMPLIED WARRANTIES, INCLUDING, BUT NOT LIMITED TO, THE
  26:Drivers/CMSIS/Include/core_cmInstr.h ****    IMPLIED WARRANTIES OF MERCHANTABILITY AND FITNESS FOR A PARTICULAR PURPOSE
ARM GAS  C:\Users\ep_ygh\AppData\Local\Temp\ccsX1uNj.s 			page 122


  27:Drivers/CMSIS/Include/core_cmInstr.h ****    ARE DISCLAIMED. IN NO EVENT SHALL COPYRIGHT HOLDERS AND CONTRIBUTORS BE
  28:Drivers/CMSIS/Include/core_cmInstr.h ****    LIABLE FOR ANY DIRECT, INDIRECT, INCIDENTAL, SPECIAL, EXEMPLARY, OR
  29:Drivers/CMSIS/Include/core_cmInstr.h ****    CONSEQUENTIAL DAMAGES (INCLUDING, BUT NOT LIMITED TO, PROCUREMENT OF
  30:Drivers/CMSIS/Include/core_cmInstr.h ****    SUBSTITUTE GOODS OR SERVICES; LOSS OF USE, DATA, OR PROFITS; OR BUSINESS
  31:Drivers/CMSIS/Include/core_cmInstr.h ****    INTERRUPTION) HOWEVER CAUSED AND ON ANY THEORY OF LIABILITY, WHETHER IN
  32:Drivers/CMSIS/Include/core_cmInstr.h ****    CONTRACT, STRICT LIABILITY, OR TORT (INCLUDING NEGLIGENCE OR OTHERWISE)
  33:Drivers/CMSIS/Include/core_cmInstr.h ****    ARISING IN ANY WAY OUT OF THE USE OF THIS SOFTWARE, EVEN IF ADVISED OF THE
  34:Drivers/CMSIS/Include/core_cmInstr.h ****    POSSIBILITY OF SUCH DAMAGE.
  35:Drivers/CMSIS/Include/core_cmInstr.h ****    ---------------------------------------------------------------------------*/
  36:Drivers/CMSIS/Include/core_cmInstr.h **** 
  37:Drivers/CMSIS/Include/core_cmInstr.h **** 
  38:Drivers/CMSIS/Include/core_cmInstr.h **** #ifndef __CORE_CMINSTR_H
  39:Drivers/CMSIS/Include/core_cmInstr.h **** #define __CORE_CMINSTR_H
  40:Drivers/CMSIS/Include/core_cmInstr.h **** 
  41:Drivers/CMSIS/Include/core_cmInstr.h **** 
  42:Drivers/CMSIS/Include/core_cmInstr.h **** /* ##########################  Core Instruction Access  ######################### */
  43:Drivers/CMSIS/Include/core_cmInstr.h **** /** \defgroup CMSIS_Core_InstructionInterface CMSIS Core Instruction Interface
  44:Drivers/CMSIS/Include/core_cmInstr.h ****   Access to dedicated instructions
  45:Drivers/CMSIS/Include/core_cmInstr.h ****   @{
  46:Drivers/CMSIS/Include/core_cmInstr.h **** */
  47:Drivers/CMSIS/Include/core_cmInstr.h **** 
  48:Drivers/CMSIS/Include/core_cmInstr.h **** #if   defined ( __CC_ARM ) /*------------------RealView Compiler -----------------*/
  49:Drivers/CMSIS/Include/core_cmInstr.h **** /* ARM armcc specific functions */
  50:Drivers/CMSIS/Include/core_cmInstr.h **** 
  51:Drivers/CMSIS/Include/core_cmInstr.h **** #if (__ARMCC_VERSION < 400677)
  52:Drivers/CMSIS/Include/core_cmInstr.h ****   #error "Please use ARM Compiler Toolchain V4.0.677 or later!"
  53:Drivers/CMSIS/Include/core_cmInstr.h **** #endif
  54:Drivers/CMSIS/Include/core_cmInstr.h **** 
  55:Drivers/CMSIS/Include/core_cmInstr.h **** 
  56:Drivers/CMSIS/Include/core_cmInstr.h **** /** \brief  No Operation
  57:Drivers/CMSIS/Include/core_cmInstr.h **** 
  58:Drivers/CMSIS/Include/core_cmInstr.h ****     No Operation does nothing. This instruction can be used for code alignment purposes.
  59:Drivers/CMSIS/Include/core_cmInstr.h ****  */
  60:Drivers/CMSIS/Include/core_cmInstr.h **** #define __NOP                             __nop
  61:Drivers/CMSIS/Include/core_cmInstr.h **** 
  62:Drivers/CMSIS/Include/core_cmInstr.h **** 
  63:Drivers/CMSIS/Include/core_cmInstr.h **** /** \brief  Wait For Interrupt
  64:Drivers/CMSIS/Include/core_cmInstr.h **** 
  65:Drivers/CMSIS/Include/core_cmInstr.h ****     Wait For Interrupt is a hint instruction that suspends execution
  66:Drivers/CMSIS/Include/core_cmInstr.h ****     until one of a number of events occurs.
  67:Drivers/CMSIS/Include/core_cmInstr.h ****  */
  68:Drivers/CMSIS/Include/core_cmInstr.h **** #define __WFI                             __wfi
  69:Drivers/CMSIS/Include/core_cmInstr.h **** 
  70:Drivers/CMSIS/Include/core_cmInstr.h **** 
  71:Drivers/CMSIS/Include/core_cmInstr.h **** /** \brief  Wait For Event
  72:Drivers/CMSIS/Include/core_cmInstr.h **** 
  73:Drivers/CMSIS/Include/core_cmInstr.h ****     Wait For Event is a hint instruction that permits the processor to enter
  74:Drivers/CMSIS/Include/core_cmInstr.h ****     a low-power state until one of a number of events occurs.
  75:Drivers/CMSIS/Include/core_cmInstr.h ****  */
  76:Drivers/CMSIS/Include/core_cmInstr.h **** #define __WFE                             __wfe
  77:Drivers/CMSIS/Include/core_cmInstr.h **** 
  78:Drivers/CMSIS/Include/core_cmInstr.h **** 
  79:Drivers/CMSIS/Include/core_cmInstr.h **** /** \brief  Send Event
  80:Drivers/CMSIS/Include/core_cmInstr.h **** 
  81:Drivers/CMSIS/Include/core_cmInstr.h ****     Send Event is a hint instruction. It causes an event to be signaled to the CPU.
  82:Drivers/CMSIS/Include/core_cmInstr.h ****  */
  83:Drivers/CMSIS/Include/core_cmInstr.h **** #define __SEV                             __sev
ARM GAS  C:\Users\ep_ygh\AppData\Local\Temp\ccsX1uNj.s 			page 123


  84:Drivers/CMSIS/Include/core_cmInstr.h **** 
  85:Drivers/CMSIS/Include/core_cmInstr.h **** 
  86:Drivers/CMSIS/Include/core_cmInstr.h **** /** \brief  Instruction Synchronization Barrier
  87:Drivers/CMSIS/Include/core_cmInstr.h **** 
  88:Drivers/CMSIS/Include/core_cmInstr.h ****     Instruction Synchronization Barrier flushes the pipeline in the processor,
  89:Drivers/CMSIS/Include/core_cmInstr.h ****     so that all instructions following the ISB are fetched from cache or
  90:Drivers/CMSIS/Include/core_cmInstr.h ****     memory, after the instruction has been completed.
  91:Drivers/CMSIS/Include/core_cmInstr.h ****  */
  92:Drivers/CMSIS/Include/core_cmInstr.h **** #define __ISB() do {\
  93:Drivers/CMSIS/Include/core_cmInstr.h ****                    __schedule_barrier();\
  94:Drivers/CMSIS/Include/core_cmInstr.h ****                    __isb(0xF);\
  95:Drivers/CMSIS/Include/core_cmInstr.h ****                    __schedule_barrier();\
  96:Drivers/CMSIS/Include/core_cmInstr.h ****                 } while (0)
  97:Drivers/CMSIS/Include/core_cmInstr.h **** 
  98:Drivers/CMSIS/Include/core_cmInstr.h **** /** \brief  Data Synchronization Barrier
  99:Drivers/CMSIS/Include/core_cmInstr.h **** 
 100:Drivers/CMSIS/Include/core_cmInstr.h ****     This function acts as a special kind of Data Memory Barrier.
 101:Drivers/CMSIS/Include/core_cmInstr.h ****     It completes when all explicit memory accesses before this instruction complete.
 102:Drivers/CMSIS/Include/core_cmInstr.h ****  */
 103:Drivers/CMSIS/Include/core_cmInstr.h **** #define __DSB() do {\
 104:Drivers/CMSIS/Include/core_cmInstr.h ****                    __schedule_barrier();\
 105:Drivers/CMSIS/Include/core_cmInstr.h ****                    __dsb(0xF);\
 106:Drivers/CMSIS/Include/core_cmInstr.h ****                    __schedule_barrier();\
 107:Drivers/CMSIS/Include/core_cmInstr.h ****                 } while (0)
 108:Drivers/CMSIS/Include/core_cmInstr.h **** 
 109:Drivers/CMSIS/Include/core_cmInstr.h **** /** \brief  Data Memory Barrier
 110:Drivers/CMSIS/Include/core_cmInstr.h **** 
 111:Drivers/CMSIS/Include/core_cmInstr.h ****     This function ensures the apparent order of the explicit memory operations before
 112:Drivers/CMSIS/Include/core_cmInstr.h ****     and after the instruction, without ensuring their completion.
 113:Drivers/CMSIS/Include/core_cmInstr.h ****  */
 114:Drivers/CMSIS/Include/core_cmInstr.h **** #define __DMB() do {\
 115:Drivers/CMSIS/Include/core_cmInstr.h ****                    __schedule_barrier();\
 116:Drivers/CMSIS/Include/core_cmInstr.h ****                    __dmb(0xF);\
 117:Drivers/CMSIS/Include/core_cmInstr.h ****                    __schedule_barrier();\
 118:Drivers/CMSIS/Include/core_cmInstr.h ****                 } while (0)
 119:Drivers/CMSIS/Include/core_cmInstr.h **** 
 120:Drivers/CMSIS/Include/core_cmInstr.h **** /** \brief  Reverse byte order (32 bit)
 121:Drivers/CMSIS/Include/core_cmInstr.h **** 
 122:Drivers/CMSIS/Include/core_cmInstr.h ****     This function reverses the byte order in integer value.
 123:Drivers/CMSIS/Include/core_cmInstr.h **** 
 124:Drivers/CMSIS/Include/core_cmInstr.h ****     \param [in]    value  Value to reverse
 125:Drivers/CMSIS/Include/core_cmInstr.h ****     \return               Reversed value
 126:Drivers/CMSIS/Include/core_cmInstr.h ****  */
 127:Drivers/CMSIS/Include/core_cmInstr.h **** #define __REV                             __rev
 128:Drivers/CMSIS/Include/core_cmInstr.h **** 
 129:Drivers/CMSIS/Include/core_cmInstr.h **** 
 130:Drivers/CMSIS/Include/core_cmInstr.h **** /** \brief  Reverse byte order (16 bit)
 131:Drivers/CMSIS/Include/core_cmInstr.h **** 
 132:Drivers/CMSIS/Include/core_cmInstr.h ****     This function reverses the byte order in two unsigned short values.
 133:Drivers/CMSIS/Include/core_cmInstr.h **** 
 134:Drivers/CMSIS/Include/core_cmInstr.h ****     \param [in]    value  Value to reverse
 135:Drivers/CMSIS/Include/core_cmInstr.h ****     \return               Reversed value
 136:Drivers/CMSIS/Include/core_cmInstr.h ****  */
 137:Drivers/CMSIS/Include/core_cmInstr.h **** #ifndef __NO_EMBEDDED_ASM
 138:Drivers/CMSIS/Include/core_cmInstr.h **** __attribute__((section(".rev16_text"))) __STATIC_INLINE __ASM uint32_t __REV16(uint32_t value)
 139:Drivers/CMSIS/Include/core_cmInstr.h **** {
 140:Drivers/CMSIS/Include/core_cmInstr.h ****   rev16 r0, r0
ARM GAS  C:\Users\ep_ygh\AppData\Local\Temp\ccsX1uNj.s 			page 124


 141:Drivers/CMSIS/Include/core_cmInstr.h ****   bx lr
 142:Drivers/CMSIS/Include/core_cmInstr.h **** }
 143:Drivers/CMSIS/Include/core_cmInstr.h **** #endif
 144:Drivers/CMSIS/Include/core_cmInstr.h **** 
 145:Drivers/CMSIS/Include/core_cmInstr.h **** /** \brief  Reverse byte order in signed short value
 146:Drivers/CMSIS/Include/core_cmInstr.h **** 
 147:Drivers/CMSIS/Include/core_cmInstr.h ****     This function reverses the byte order in a signed short value with sign extension to integer.
 148:Drivers/CMSIS/Include/core_cmInstr.h **** 
 149:Drivers/CMSIS/Include/core_cmInstr.h ****     \param [in]    value  Value to reverse
 150:Drivers/CMSIS/Include/core_cmInstr.h ****     \return               Reversed value
 151:Drivers/CMSIS/Include/core_cmInstr.h ****  */
 152:Drivers/CMSIS/Include/core_cmInstr.h **** #ifndef __NO_EMBEDDED_ASM
 153:Drivers/CMSIS/Include/core_cmInstr.h **** __attribute__((section(".revsh_text"))) __STATIC_INLINE __ASM int32_t __REVSH(int32_t value)
 154:Drivers/CMSIS/Include/core_cmInstr.h **** {
 155:Drivers/CMSIS/Include/core_cmInstr.h ****   revsh r0, r0
 156:Drivers/CMSIS/Include/core_cmInstr.h ****   bx lr
 157:Drivers/CMSIS/Include/core_cmInstr.h **** }
 158:Drivers/CMSIS/Include/core_cmInstr.h **** #endif
 159:Drivers/CMSIS/Include/core_cmInstr.h **** 
 160:Drivers/CMSIS/Include/core_cmInstr.h **** 
 161:Drivers/CMSIS/Include/core_cmInstr.h **** /** \brief  Rotate Right in unsigned value (32 bit)
 162:Drivers/CMSIS/Include/core_cmInstr.h **** 
 163:Drivers/CMSIS/Include/core_cmInstr.h ****     This function Rotate Right (immediate) provides the value of the contents of a register rotated
 164:Drivers/CMSIS/Include/core_cmInstr.h **** 
 165:Drivers/CMSIS/Include/core_cmInstr.h ****     \param [in]    value  Value to rotate
 166:Drivers/CMSIS/Include/core_cmInstr.h ****     \param [in]    value  Number of Bits to rotate
 167:Drivers/CMSIS/Include/core_cmInstr.h ****     \return               Rotated value
 168:Drivers/CMSIS/Include/core_cmInstr.h ****  */
 169:Drivers/CMSIS/Include/core_cmInstr.h **** #define __ROR                             __ror
 170:Drivers/CMSIS/Include/core_cmInstr.h **** 
 171:Drivers/CMSIS/Include/core_cmInstr.h **** 
 172:Drivers/CMSIS/Include/core_cmInstr.h **** /** \brief  Breakpoint
 173:Drivers/CMSIS/Include/core_cmInstr.h **** 
 174:Drivers/CMSIS/Include/core_cmInstr.h ****     This function causes the processor to enter Debug state.
 175:Drivers/CMSIS/Include/core_cmInstr.h ****     Debug tools can use this to investigate system state when the instruction at a particular addre
 176:Drivers/CMSIS/Include/core_cmInstr.h **** 
 177:Drivers/CMSIS/Include/core_cmInstr.h ****     \param [in]    value  is ignored by the processor.
 178:Drivers/CMSIS/Include/core_cmInstr.h ****                    If required, a debugger can use it to store additional information about the bre
 179:Drivers/CMSIS/Include/core_cmInstr.h ****  */
 180:Drivers/CMSIS/Include/core_cmInstr.h **** #define __BKPT(value)                       __breakpoint(value)
 181:Drivers/CMSIS/Include/core_cmInstr.h **** 
 182:Drivers/CMSIS/Include/core_cmInstr.h **** 
 183:Drivers/CMSIS/Include/core_cmInstr.h **** /** \brief  Reverse bit order of value
 184:Drivers/CMSIS/Include/core_cmInstr.h **** 
 185:Drivers/CMSIS/Include/core_cmInstr.h ****     This function reverses the bit order of the given value.
 186:Drivers/CMSIS/Include/core_cmInstr.h **** 
 187:Drivers/CMSIS/Include/core_cmInstr.h ****     \param [in]    value  Value to reverse
 188:Drivers/CMSIS/Include/core_cmInstr.h ****     \return               Reversed value
 189:Drivers/CMSIS/Include/core_cmInstr.h ****  */
 190:Drivers/CMSIS/Include/core_cmInstr.h **** #if       (__CORTEX_M >= 0x03) || (__CORTEX_SC >= 300)
 191:Drivers/CMSIS/Include/core_cmInstr.h ****   #define __RBIT                          __rbit
 192:Drivers/CMSIS/Include/core_cmInstr.h **** #else
 193:Drivers/CMSIS/Include/core_cmInstr.h **** __attribute__((always_inline)) __STATIC_INLINE uint32_t __RBIT(uint32_t value)
 194:Drivers/CMSIS/Include/core_cmInstr.h **** {
 195:Drivers/CMSIS/Include/core_cmInstr.h ****   uint32_t result;
 196:Drivers/CMSIS/Include/core_cmInstr.h ****   int32_t s = 4 /*sizeof(v)*/ * 8 - 1; // extra shift needed at end
 197:Drivers/CMSIS/Include/core_cmInstr.h **** 
ARM GAS  C:\Users\ep_ygh\AppData\Local\Temp\ccsX1uNj.s 			page 125


 198:Drivers/CMSIS/Include/core_cmInstr.h ****   result = value;                      // r will be reversed bits of v; first get LSB of v
 199:Drivers/CMSIS/Include/core_cmInstr.h ****   for (value >>= 1; value; value >>= 1)
 200:Drivers/CMSIS/Include/core_cmInstr.h ****   {
 201:Drivers/CMSIS/Include/core_cmInstr.h ****     result <<= 1;
 202:Drivers/CMSIS/Include/core_cmInstr.h ****     result |= value & 1;
 203:Drivers/CMSIS/Include/core_cmInstr.h ****     s--;
 204:Drivers/CMSIS/Include/core_cmInstr.h ****   }
 205:Drivers/CMSIS/Include/core_cmInstr.h ****   result <<= s;                       // shift when v's highest bits are zero
 206:Drivers/CMSIS/Include/core_cmInstr.h ****   return(result);
 207:Drivers/CMSIS/Include/core_cmInstr.h **** }
 208:Drivers/CMSIS/Include/core_cmInstr.h **** #endif
 209:Drivers/CMSIS/Include/core_cmInstr.h **** 
 210:Drivers/CMSIS/Include/core_cmInstr.h **** 
 211:Drivers/CMSIS/Include/core_cmInstr.h **** /** \brief  Count leading zeros
 212:Drivers/CMSIS/Include/core_cmInstr.h **** 
 213:Drivers/CMSIS/Include/core_cmInstr.h ****     This function counts the number of leading zeros of a data value.
 214:Drivers/CMSIS/Include/core_cmInstr.h **** 
 215:Drivers/CMSIS/Include/core_cmInstr.h ****     \param [in]  value  Value to count the leading zeros
 216:Drivers/CMSIS/Include/core_cmInstr.h ****     \return             number of leading zeros in value
 217:Drivers/CMSIS/Include/core_cmInstr.h ****  */
 218:Drivers/CMSIS/Include/core_cmInstr.h **** #define __CLZ                             __clz
 219:Drivers/CMSIS/Include/core_cmInstr.h **** 
 220:Drivers/CMSIS/Include/core_cmInstr.h **** 
 221:Drivers/CMSIS/Include/core_cmInstr.h **** #if       (__CORTEX_M >= 0x03) || (__CORTEX_SC >= 300)
 222:Drivers/CMSIS/Include/core_cmInstr.h **** 
 223:Drivers/CMSIS/Include/core_cmInstr.h **** /** \brief  LDR Exclusive (8 bit)
 224:Drivers/CMSIS/Include/core_cmInstr.h **** 
 225:Drivers/CMSIS/Include/core_cmInstr.h ****     This function executes a exclusive LDR instruction for 8 bit value.
 226:Drivers/CMSIS/Include/core_cmInstr.h **** 
 227:Drivers/CMSIS/Include/core_cmInstr.h ****     \param [in]    ptr  Pointer to data
 228:Drivers/CMSIS/Include/core_cmInstr.h ****     \return             value of type uint8_t at (*ptr)
 229:Drivers/CMSIS/Include/core_cmInstr.h ****  */
 230:Drivers/CMSIS/Include/core_cmInstr.h **** #define __LDREXB(ptr)                     ((uint8_t ) __ldrex(ptr))
 231:Drivers/CMSIS/Include/core_cmInstr.h **** 
 232:Drivers/CMSIS/Include/core_cmInstr.h **** 
 233:Drivers/CMSIS/Include/core_cmInstr.h **** /** \brief  LDR Exclusive (16 bit)
 234:Drivers/CMSIS/Include/core_cmInstr.h **** 
 235:Drivers/CMSIS/Include/core_cmInstr.h ****     This function executes a exclusive LDR instruction for 16 bit values.
 236:Drivers/CMSIS/Include/core_cmInstr.h **** 
 237:Drivers/CMSIS/Include/core_cmInstr.h ****     \param [in]    ptr  Pointer to data
 238:Drivers/CMSIS/Include/core_cmInstr.h ****     \return        value of type uint16_t at (*ptr)
 239:Drivers/CMSIS/Include/core_cmInstr.h ****  */
 240:Drivers/CMSIS/Include/core_cmInstr.h **** #define __LDREXH(ptr)                     ((uint16_t) __ldrex(ptr))
 241:Drivers/CMSIS/Include/core_cmInstr.h **** 
 242:Drivers/CMSIS/Include/core_cmInstr.h **** 
 243:Drivers/CMSIS/Include/core_cmInstr.h **** /** \brief  LDR Exclusive (32 bit)
 244:Drivers/CMSIS/Include/core_cmInstr.h **** 
 245:Drivers/CMSIS/Include/core_cmInstr.h ****     This function executes a exclusive LDR instruction for 32 bit values.
 246:Drivers/CMSIS/Include/core_cmInstr.h **** 
 247:Drivers/CMSIS/Include/core_cmInstr.h ****     \param [in]    ptr  Pointer to data
 248:Drivers/CMSIS/Include/core_cmInstr.h ****     \return        value of type uint32_t at (*ptr)
 249:Drivers/CMSIS/Include/core_cmInstr.h ****  */
 250:Drivers/CMSIS/Include/core_cmInstr.h **** #define __LDREXW(ptr)                     ((uint32_t ) __ldrex(ptr))
 251:Drivers/CMSIS/Include/core_cmInstr.h **** 
 252:Drivers/CMSIS/Include/core_cmInstr.h **** 
 253:Drivers/CMSIS/Include/core_cmInstr.h **** /** \brief  STR Exclusive (8 bit)
 254:Drivers/CMSIS/Include/core_cmInstr.h **** 
ARM GAS  C:\Users\ep_ygh\AppData\Local\Temp\ccsX1uNj.s 			page 126


 255:Drivers/CMSIS/Include/core_cmInstr.h ****     This function executes a exclusive STR instruction for 8 bit values.
 256:Drivers/CMSIS/Include/core_cmInstr.h **** 
 257:Drivers/CMSIS/Include/core_cmInstr.h ****     \param [in]  value  Value to store
 258:Drivers/CMSIS/Include/core_cmInstr.h ****     \param [in]    ptr  Pointer to location
 259:Drivers/CMSIS/Include/core_cmInstr.h ****     \return          0  Function succeeded
 260:Drivers/CMSIS/Include/core_cmInstr.h ****     \return          1  Function failed
 261:Drivers/CMSIS/Include/core_cmInstr.h ****  */
 262:Drivers/CMSIS/Include/core_cmInstr.h **** #define __STREXB(value, ptr)              __strex(value, ptr)
 263:Drivers/CMSIS/Include/core_cmInstr.h **** 
 264:Drivers/CMSIS/Include/core_cmInstr.h **** 
 265:Drivers/CMSIS/Include/core_cmInstr.h **** /** \brief  STR Exclusive (16 bit)
 266:Drivers/CMSIS/Include/core_cmInstr.h **** 
 267:Drivers/CMSIS/Include/core_cmInstr.h ****     This function executes a exclusive STR instruction for 16 bit values.
 268:Drivers/CMSIS/Include/core_cmInstr.h **** 
 269:Drivers/CMSIS/Include/core_cmInstr.h ****     \param [in]  value  Value to store
 270:Drivers/CMSIS/Include/core_cmInstr.h ****     \param [in]    ptr  Pointer to location
 271:Drivers/CMSIS/Include/core_cmInstr.h ****     \return          0  Function succeeded
 272:Drivers/CMSIS/Include/core_cmInstr.h ****     \return          1  Function failed
 273:Drivers/CMSIS/Include/core_cmInstr.h ****  */
 274:Drivers/CMSIS/Include/core_cmInstr.h **** #define __STREXH(value, ptr)              __strex(value, ptr)
 275:Drivers/CMSIS/Include/core_cmInstr.h **** 
 276:Drivers/CMSIS/Include/core_cmInstr.h **** 
 277:Drivers/CMSIS/Include/core_cmInstr.h **** /** \brief  STR Exclusive (32 bit)
 278:Drivers/CMSIS/Include/core_cmInstr.h **** 
 279:Drivers/CMSIS/Include/core_cmInstr.h ****     This function executes a exclusive STR instruction for 32 bit values.
 280:Drivers/CMSIS/Include/core_cmInstr.h **** 
 281:Drivers/CMSIS/Include/core_cmInstr.h ****     \param [in]  value  Value to store
 282:Drivers/CMSIS/Include/core_cmInstr.h ****     \param [in]    ptr  Pointer to location
 283:Drivers/CMSIS/Include/core_cmInstr.h ****     \return          0  Function succeeded
 284:Drivers/CMSIS/Include/core_cmInstr.h ****     \return          1  Function failed
 285:Drivers/CMSIS/Include/core_cmInstr.h ****  */
 286:Drivers/CMSIS/Include/core_cmInstr.h **** #define __STREXW(value, ptr)              __strex(value, ptr)
 287:Drivers/CMSIS/Include/core_cmInstr.h **** 
 288:Drivers/CMSIS/Include/core_cmInstr.h **** 
 289:Drivers/CMSIS/Include/core_cmInstr.h **** /** \brief  Remove the exclusive lock
 290:Drivers/CMSIS/Include/core_cmInstr.h **** 
 291:Drivers/CMSIS/Include/core_cmInstr.h ****     This function removes the exclusive lock which is created by LDREX.
 292:Drivers/CMSIS/Include/core_cmInstr.h **** 
 293:Drivers/CMSIS/Include/core_cmInstr.h ****  */
 294:Drivers/CMSIS/Include/core_cmInstr.h **** #define __CLREX                           __clrex
 295:Drivers/CMSIS/Include/core_cmInstr.h **** 
 296:Drivers/CMSIS/Include/core_cmInstr.h **** 
 297:Drivers/CMSIS/Include/core_cmInstr.h **** /** \brief  Signed Saturate
 298:Drivers/CMSIS/Include/core_cmInstr.h **** 
 299:Drivers/CMSIS/Include/core_cmInstr.h ****     This function saturates a signed value.
 300:Drivers/CMSIS/Include/core_cmInstr.h **** 
 301:Drivers/CMSIS/Include/core_cmInstr.h ****     \param [in]  value  Value to be saturated
 302:Drivers/CMSIS/Include/core_cmInstr.h ****     \param [in]    sat  Bit position to saturate to (1..32)
 303:Drivers/CMSIS/Include/core_cmInstr.h ****     \return             Saturated value
 304:Drivers/CMSIS/Include/core_cmInstr.h ****  */
 305:Drivers/CMSIS/Include/core_cmInstr.h **** #define __SSAT                            __ssat
 306:Drivers/CMSIS/Include/core_cmInstr.h **** 
 307:Drivers/CMSIS/Include/core_cmInstr.h **** 
 308:Drivers/CMSIS/Include/core_cmInstr.h **** /** \brief  Unsigned Saturate
 309:Drivers/CMSIS/Include/core_cmInstr.h **** 
 310:Drivers/CMSIS/Include/core_cmInstr.h ****     This function saturates an unsigned value.
 311:Drivers/CMSIS/Include/core_cmInstr.h **** 
ARM GAS  C:\Users\ep_ygh\AppData\Local\Temp\ccsX1uNj.s 			page 127


 312:Drivers/CMSIS/Include/core_cmInstr.h ****     \param [in]  value  Value to be saturated
 313:Drivers/CMSIS/Include/core_cmInstr.h ****     \param [in]    sat  Bit position to saturate to (0..31)
 314:Drivers/CMSIS/Include/core_cmInstr.h ****     \return             Saturated value
 315:Drivers/CMSIS/Include/core_cmInstr.h ****  */
 316:Drivers/CMSIS/Include/core_cmInstr.h **** #define __USAT                            __usat
 317:Drivers/CMSIS/Include/core_cmInstr.h **** 
 318:Drivers/CMSIS/Include/core_cmInstr.h **** 
 319:Drivers/CMSIS/Include/core_cmInstr.h **** /** \brief  Rotate Right with Extend (32 bit)
 320:Drivers/CMSIS/Include/core_cmInstr.h **** 
 321:Drivers/CMSIS/Include/core_cmInstr.h ****     This function moves each bit of a bitstring right by one bit.
 322:Drivers/CMSIS/Include/core_cmInstr.h ****     The carry input is shifted in at the left end of the bitstring.
 323:Drivers/CMSIS/Include/core_cmInstr.h **** 
 324:Drivers/CMSIS/Include/core_cmInstr.h ****     \param [in]    value  Value to rotate
 325:Drivers/CMSIS/Include/core_cmInstr.h ****     \return               Rotated value
 326:Drivers/CMSIS/Include/core_cmInstr.h ****  */
 327:Drivers/CMSIS/Include/core_cmInstr.h **** #ifndef __NO_EMBEDDED_ASM
 328:Drivers/CMSIS/Include/core_cmInstr.h **** __attribute__((section(".rrx_text"))) __STATIC_INLINE __ASM uint32_t __RRX(uint32_t value)
 329:Drivers/CMSIS/Include/core_cmInstr.h **** {
 330:Drivers/CMSIS/Include/core_cmInstr.h ****   rrx r0, r0
 331:Drivers/CMSIS/Include/core_cmInstr.h ****   bx lr
 332:Drivers/CMSIS/Include/core_cmInstr.h **** }
 333:Drivers/CMSIS/Include/core_cmInstr.h **** #endif
 334:Drivers/CMSIS/Include/core_cmInstr.h **** 
 335:Drivers/CMSIS/Include/core_cmInstr.h **** 
 336:Drivers/CMSIS/Include/core_cmInstr.h **** /** \brief  LDRT Unprivileged (8 bit)
 337:Drivers/CMSIS/Include/core_cmInstr.h **** 
 338:Drivers/CMSIS/Include/core_cmInstr.h ****     This function executes a Unprivileged LDRT instruction for 8 bit value.
 339:Drivers/CMSIS/Include/core_cmInstr.h **** 
 340:Drivers/CMSIS/Include/core_cmInstr.h ****     \param [in]    ptr  Pointer to data
 341:Drivers/CMSIS/Include/core_cmInstr.h ****     \return             value of type uint8_t at (*ptr)
 342:Drivers/CMSIS/Include/core_cmInstr.h ****  */
 343:Drivers/CMSIS/Include/core_cmInstr.h **** #define __LDRBT(ptr)                      ((uint8_t )  __ldrt(ptr))
 344:Drivers/CMSIS/Include/core_cmInstr.h **** 
 345:Drivers/CMSIS/Include/core_cmInstr.h **** 
 346:Drivers/CMSIS/Include/core_cmInstr.h **** /** \brief  LDRT Unprivileged (16 bit)
 347:Drivers/CMSIS/Include/core_cmInstr.h **** 
 348:Drivers/CMSIS/Include/core_cmInstr.h ****     This function executes a Unprivileged LDRT instruction for 16 bit values.
 349:Drivers/CMSIS/Include/core_cmInstr.h **** 
 350:Drivers/CMSIS/Include/core_cmInstr.h ****     \param [in]    ptr  Pointer to data
 351:Drivers/CMSIS/Include/core_cmInstr.h ****     \return        value of type uint16_t at (*ptr)
 352:Drivers/CMSIS/Include/core_cmInstr.h ****  */
 353:Drivers/CMSIS/Include/core_cmInstr.h **** #define __LDRHT(ptr)                      ((uint16_t)  __ldrt(ptr))
 354:Drivers/CMSIS/Include/core_cmInstr.h **** 
 355:Drivers/CMSIS/Include/core_cmInstr.h **** 
 356:Drivers/CMSIS/Include/core_cmInstr.h **** /** \brief  LDRT Unprivileged (32 bit)
 357:Drivers/CMSIS/Include/core_cmInstr.h **** 
 358:Drivers/CMSIS/Include/core_cmInstr.h ****     This function executes a Unprivileged LDRT instruction for 32 bit values.
 359:Drivers/CMSIS/Include/core_cmInstr.h **** 
 360:Drivers/CMSIS/Include/core_cmInstr.h ****     \param [in]    ptr  Pointer to data
 361:Drivers/CMSIS/Include/core_cmInstr.h ****     \return        value of type uint32_t at (*ptr)
 362:Drivers/CMSIS/Include/core_cmInstr.h ****  */
 363:Drivers/CMSIS/Include/core_cmInstr.h **** #define __LDRT(ptr)                       ((uint32_t ) __ldrt(ptr))
 364:Drivers/CMSIS/Include/core_cmInstr.h **** 
 365:Drivers/CMSIS/Include/core_cmInstr.h **** 
 366:Drivers/CMSIS/Include/core_cmInstr.h **** /** \brief  STRT Unprivileged (8 bit)
 367:Drivers/CMSIS/Include/core_cmInstr.h **** 
 368:Drivers/CMSIS/Include/core_cmInstr.h ****     This function executes a Unprivileged STRT instruction for 8 bit values.
ARM GAS  C:\Users\ep_ygh\AppData\Local\Temp\ccsX1uNj.s 			page 128


 369:Drivers/CMSIS/Include/core_cmInstr.h **** 
 370:Drivers/CMSIS/Include/core_cmInstr.h ****     \param [in]  value  Value to store
 371:Drivers/CMSIS/Include/core_cmInstr.h ****     \param [in]    ptr  Pointer to location
 372:Drivers/CMSIS/Include/core_cmInstr.h ****  */
 373:Drivers/CMSIS/Include/core_cmInstr.h **** #define __STRBT(value, ptr)               __strt(value, ptr)
 374:Drivers/CMSIS/Include/core_cmInstr.h **** 
 375:Drivers/CMSIS/Include/core_cmInstr.h **** 
 376:Drivers/CMSIS/Include/core_cmInstr.h **** /** \brief  STRT Unprivileged (16 bit)
 377:Drivers/CMSIS/Include/core_cmInstr.h **** 
 378:Drivers/CMSIS/Include/core_cmInstr.h ****     This function executes a Unprivileged STRT instruction for 16 bit values.
 379:Drivers/CMSIS/Include/core_cmInstr.h **** 
 380:Drivers/CMSIS/Include/core_cmInstr.h ****     \param [in]  value  Value to store
 381:Drivers/CMSIS/Include/core_cmInstr.h ****     \param [in]    ptr  Pointer to location
 382:Drivers/CMSIS/Include/core_cmInstr.h ****  */
 383:Drivers/CMSIS/Include/core_cmInstr.h **** #define __STRHT(value, ptr)               __strt(value, ptr)
 384:Drivers/CMSIS/Include/core_cmInstr.h **** 
 385:Drivers/CMSIS/Include/core_cmInstr.h **** 
 386:Drivers/CMSIS/Include/core_cmInstr.h **** /** \brief  STRT Unprivileged (32 bit)
 387:Drivers/CMSIS/Include/core_cmInstr.h **** 
 388:Drivers/CMSIS/Include/core_cmInstr.h ****     This function executes a Unprivileged STRT instruction for 32 bit values.
 389:Drivers/CMSIS/Include/core_cmInstr.h **** 
 390:Drivers/CMSIS/Include/core_cmInstr.h ****     \param [in]  value  Value to store
 391:Drivers/CMSIS/Include/core_cmInstr.h ****     \param [in]    ptr  Pointer to location
 392:Drivers/CMSIS/Include/core_cmInstr.h ****  */
 393:Drivers/CMSIS/Include/core_cmInstr.h **** #define __STRT(value, ptr)                __strt(value, ptr)
 394:Drivers/CMSIS/Include/core_cmInstr.h **** 
 395:Drivers/CMSIS/Include/core_cmInstr.h **** #endif /* (__CORTEX_M >= 0x03) || (__CORTEX_SC >= 300) */
 396:Drivers/CMSIS/Include/core_cmInstr.h **** 
 397:Drivers/CMSIS/Include/core_cmInstr.h **** 
 398:Drivers/CMSIS/Include/core_cmInstr.h **** #elif defined ( __GNUC__ ) /*------------------ GNU Compiler ---------------------*/
 399:Drivers/CMSIS/Include/core_cmInstr.h **** /* GNU gcc specific functions */
 400:Drivers/CMSIS/Include/core_cmInstr.h **** 
 401:Drivers/CMSIS/Include/core_cmInstr.h **** /* Define macros for porting to both thumb1 and thumb2.
 402:Drivers/CMSIS/Include/core_cmInstr.h ****  * For thumb1, use low register (r0-r7), specified by constrant "l"
 403:Drivers/CMSIS/Include/core_cmInstr.h ****  * Otherwise, use general registers, specified by constrant "r" */
 404:Drivers/CMSIS/Include/core_cmInstr.h **** #if defined (__thumb__) && !defined (__thumb2__)
 405:Drivers/CMSIS/Include/core_cmInstr.h **** #define __CMSIS_GCC_OUT_REG(r) "=l" (r)
 406:Drivers/CMSIS/Include/core_cmInstr.h **** #define __CMSIS_GCC_USE_REG(r) "l" (r)
 407:Drivers/CMSIS/Include/core_cmInstr.h **** #else
 408:Drivers/CMSIS/Include/core_cmInstr.h **** #define __CMSIS_GCC_OUT_REG(r) "=r" (r)
 409:Drivers/CMSIS/Include/core_cmInstr.h **** #define __CMSIS_GCC_USE_REG(r) "r" (r)
 410:Drivers/CMSIS/Include/core_cmInstr.h **** #endif
 411:Drivers/CMSIS/Include/core_cmInstr.h **** 
 412:Drivers/CMSIS/Include/core_cmInstr.h **** /** \brief  No Operation
 413:Drivers/CMSIS/Include/core_cmInstr.h **** 
 414:Drivers/CMSIS/Include/core_cmInstr.h ****     No Operation does nothing. This instruction can be used for code alignment purposes.
 415:Drivers/CMSIS/Include/core_cmInstr.h ****  */
 416:Drivers/CMSIS/Include/core_cmInstr.h **** __attribute__((always_inline)) __STATIC_INLINE void __NOP(void)
 417:Drivers/CMSIS/Include/core_cmInstr.h **** {
 418:Drivers/CMSIS/Include/core_cmInstr.h ****   __ASM volatile ("nop");
 5503              		.loc 2 418 3
 5504              		.syntax unified
 5505              	@ 418 "Drivers/CMSIS/Include/core_cmInstr.h" 1
 5506 005e 00BF     		nop
 5507              	@ 0 "" 2
 419:Drivers/CMSIS/Include/core_cmInstr.h **** }
 5508              		.loc 2 419 1
ARM GAS  C:\Users\ep_ygh\AppData\Local\Temp\ccsX1uNj.s 			page 129


 5509              		.thumb
 5510              		.syntax unified
 5511 0060 00BF     		nop
 5512              	.LBE5:
 5513              	.LBE4:
 5514              		.loc 1 1424 5
 5515 0062 0D4B     		ldr	r3, .L347+12
 5516 0064 1B78     		ldrb	r3, [r3]	@ zero_extendqisi2
 5517 0066 0133     		adds	r3, r3, #1
 5518 0068 DAB2     		uxtb	r2, r3
 5519 006a 0B4B     		ldr	r3, .L347+12
 5520 006c 1A70     		strb	r2, [r3]
 5521              	.L344:
 5522              		.loc 1 1424 5 is_stmt 0 discriminator 1
 5523 006e 0A4B     		ldr	r3, .L347+12
 5524 0070 1B78     		ldrb	r3, [r3]	@ zero_extendqisi2
 5525 0072 132B     		cmp	r3, #19
 5526 0074 F3D9     		bls	.L345
1413:Drivers/BSP/Components/L6470/L6470.c ****   {
 5527              		.loc 1 1413 59 is_stmt 1 discriminator 2
 5528 0076 FB7B     		ldrb	r3, [r7, #15]	@ zero_extendqisi2
 5529 0078 0133     		adds	r3, r3, #1
 5530 007a FB73     		strb	r3, [r7, #15]
 5531              	.L343:
1413:Drivers/BSP/Components/L6470/L6470.c ****   {
 5532              		.loc 1 1413 3 discriminator 1
 5533 007c FB7B     		ldrb	r3, [r7, #15]	@ zero_extendqisi2
 5534 007e 032B     		cmp	r3, #3
 5535 0080 C9D9     		bls	.L346
1425:Drivers/BSP/Components/L6470/L6470.c ****   }
1426:Drivers/BSP/Components/L6470/L6470.c **** }
 5536              		.loc 1 1426 1
 5537 0082 00BF     		nop
 5538 0084 00BF     		nop
 5539 0086 1037     		adds	r7, r7, #16
 5540              	.LCFI369:
 5541              		.cfi_def_cfa_offset 8
 5542 0088 BD46     		mov	sp, r7
 5543              	.LCFI370:
 5544              		.cfi_def_cfa_register 13
 5545              		@ sp needed
 5546 008a 80BD     		pop	{r7, pc}
 5547              	.L348:
 5548              		.align	2
 5549              	.L347:
 5550 008c 00000000 		.word	L6470_DaisyChain_HalfPrepared
 5551 0090 00000000 		.word	L6470_nCS_GPIO
 5552 0094 00000000 		.word	hspi1
 5553 0098 00000000 		.word	delay_cnt
 5554              		.cfi_endproc
 5555              	.LFE196:
 5557              		.section	.text.L6470_ExtractReturnedData,"ax",%progbits
 5558              		.align	1
 5559              		.global	L6470_ExtractReturnedData
 5560              		.syntax unified
 5561              		.thumb
 5562              		.thumb_func
ARM GAS  C:\Users\ep_ygh\AppData\Local\Temp\ccsX1uNj.s 			page 130


 5564              	L6470_ExtractReturnedData:
 5565              	.LFB197:
1427:Drivers/BSP/Components/L6470/L6470.c **** 
1428:Drivers/BSP/Components/L6470/L6470.c **** /**
1429:Drivers/BSP/Components/L6470/L6470.c ****   * @brief    Extracts the data returned by the L6470 from the matrix that
1430:Drivers/BSP/Components/L6470/L6470.c ****   *           contains the received SPI data.
1431:Drivers/BSP/Components/L6470/L6470.c ****   * @param    L6470_Id  The identifier of the L6470 target inside the daisy chain.
1432:Drivers/BSP/Components/L6470/L6470.c ****   * @param    pL6470_DaisyChainSpiRxStruct  uint8_t-pointer to the matrix that
1433:Drivers/BSP/Components/L6470/L6470.c ****   *           contains the received data by SPI from the L6470 daisy chain.
1434:Drivers/BSP/Components/L6470/L6470.c ****   * @param    LengthByte  The number of bytes about the received value.
1435:Drivers/BSP/Components/L6470/L6470.c ****   */
1436:Drivers/BSP/Components/L6470/L6470.c **** uint32_t L6470_ExtractReturnedData(uint8_t L6470_Id, uint8_t* pL6470_DaisyChainSpiRxStruct, uint8_t
1437:Drivers/BSP/Components/L6470/L6470.c **** {
 5566              		.loc 1 1437 1
 5567              		.cfi_startproc
 5568              		@ args = 0, pretend = 0, frame = 16
 5569              		@ frame_needed = 1, uses_anonymous_args = 0
 5570              		@ link register save eliminated.
 5571 0000 80B4     		push	{r7}
 5572              	.LCFI371:
 5573              		.cfi_def_cfa_offset 4
 5574              		.cfi_offset 7, -4
 5575 0002 85B0     		sub	sp, sp, #20
 5576              	.LCFI372:
 5577              		.cfi_def_cfa_offset 24
 5578 0004 00AF     		add	r7, sp, #0
 5579              	.LCFI373:
 5580              		.cfi_def_cfa_register 7
 5581 0006 0346     		mov	r3, r0
 5582 0008 3960     		str	r1, [r7]
 5583 000a FB71     		strb	r3, [r7, #7]
 5584 000c 1346     		mov	r3, r2
 5585 000e BB71     		strb	r3, [r7, #6]
1438:Drivers/BSP/Components/L6470/L6470.c ****   uint32_t value;
1439:Drivers/BSP/Components/L6470/L6470.c ****   uint8_t i;
1440:Drivers/BSP/Components/L6470/L6470.c ****   
1441:Drivers/BSP/Components/L6470/L6470.c ****   value = 0x000000;
 5586              		.loc 1 1441 9
 5587 0010 0023     		movs	r3, #0
 5588 0012 FB60     		str	r3, [r7, #12]
1442:Drivers/BSP/Components/L6470/L6470.c ****   for (i=1; i<=(L6470MAXSPICMDBYTESIZE-1); i++)
 5589              		.loc 1 1442 9
 5590 0014 0123     		movs	r3, #1
 5591 0016 FB72     		strb	r3, [r7, #11]
 5592              		.loc 1 1442 3
 5593 0018 15E0     		b	.L350
 5594              	.L351:
1443:Drivers/BSP/Components/L6470/L6470.c ****   {
1444:Drivers/BSP/Components/L6470/L6470.c ****     value |= (*(pL6470_DaisyChainSpiRxStruct+(i*L6470DAISYCHAINSIZE)+L6470_Id))<<((LengthByte-i)*8)
 5595              		.loc 1 1444 48 discriminator 3
 5596 001a FB7A     		ldrb	r3, [r7, #11]	@ zero_extendqisi2
 5597 001c 5B00     		lsls	r3, r3, #1
 5598 001e 1A46     		mov	r2, r3
 5599              		.loc 1 1444 69 discriminator 3
 5600 0020 FB79     		ldrb	r3, [r7, #7]	@ zero_extendqisi2
 5601 0022 1344     		add	r3, r3, r2
 5602 0024 3A68     		ldr	r2, [r7]
ARM GAS  C:\Users\ep_ygh\AppData\Local\Temp\ccsX1uNj.s 			page 131


 5603 0026 1344     		add	r3, r3, r2
 5604              		.loc 1 1444 15 discriminator 3
 5605 0028 1B78     		ldrb	r3, [r3]	@ zero_extendqisi2
 5606 002a 1946     		mov	r1, r3
 5607              		.loc 1 1444 94 discriminator 3
 5608 002c BA79     		ldrb	r2, [r7, #6]	@ zero_extendqisi2
 5609 002e FB7A     		ldrb	r3, [r7, #11]	@ zero_extendqisi2
 5610 0030 D31A     		subs	r3, r2, r3
 5611              		.loc 1 1444 97 discriminator 3
 5612 0032 DB00     		lsls	r3, r3, #3
 5613              		.loc 1 1444 80 discriminator 3
 5614 0034 01FA03F3 		lsl	r3, r1, r3
 5615 0038 1A46     		mov	r2, r3
 5616              		.loc 1 1444 11 discriminator 3
 5617 003a FB68     		ldr	r3, [r7, #12]
 5618 003c 1343     		orrs	r3, r3, r2
 5619 003e FB60     		str	r3, [r7, #12]
1442:Drivers/BSP/Components/L6470/L6470.c ****   for (i=1; i<=(L6470MAXSPICMDBYTESIZE-1); i++)
 5620              		.loc 1 1442 45 discriminator 3
 5621 0040 FB7A     		ldrb	r3, [r7, #11]	@ zero_extendqisi2
 5622 0042 0133     		adds	r3, r3, #1
 5623 0044 FB72     		strb	r3, [r7, #11]
 5624              	.L350:
1442:Drivers/BSP/Components/L6470/L6470.c ****   for (i=1; i<=(L6470MAXSPICMDBYTESIZE-1); i++)
 5625              		.loc 1 1442 3 discriminator 1
 5626 0046 FB7A     		ldrb	r3, [r7, #11]	@ zero_extendqisi2
 5627 0048 032B     		cmp	r3, #3
 5628 004a E6D9     		bls	.L351
1445:Drivers/BSP/Components/L6470/L6470.c ****   }
1446:Drivers/BSP/Components/L6470/L6470.c ****   
1447:Drivers/BSP/Components/L6470/L6470.c ****   return value;
 5629              		.loc 1 1447 10
 5630 004c FB68     		ldr	r3, [r7, #12]
1448:Drivers/BSP/Components/L6470/L6470.c **** }
 5631              		.loc 1 1448 1
 5632 004e 1846     		mov	r0, r3
 5633 0050 1437     		adds	r7, r7, #20
 5634              	.LCFI374:
 5635              		.cfi_def_cfa_offset 4
 5636 0052 BD46     		mov	sp, r7
 5637              	.LCFI375:
 5638              		.cfi_def_cfa_register 13
 5639              		@ sp needed
 5640 0054 5DF8047B 		ldr	r7, [sp], #4
 5641              	.LCFI376:
 5642              		.cfi_restore 7
 5643              		.cfi_def_cfa_offset 0
 5644 0058 7047     		bx	lr
 5645              		.cfi_endproc
 5646              	.LFE197:
 5648              		.section	.text.L6470_CheckStatusRegisterFlag,"ax",%progbits
 5649              		.align	1
 5650              		.global	L6470_CheckStatusRegisterFlag
 5651              		.syntax unified
 5652              		.thumb
 5653              		.thumb_func
 5655              	L6470_CheckStatusRegisterFlag:
ARM GAS  C:\Users\ep_ygh\AppData\Local\Temp\ccsX1uNj.s 			page 132


 5656              	.LFB198:
1449:Drivers/BSP/Components/L6470/L6470.c **** 
1450:Drivers/BSP/Components/L6470/L6470.c **** /**
1451:Drivers/BSP/Components/L6470/L6470.c ****   * @brief  Check the state of a flag inside the L6470 STATUS register.
1452:Drivers/BSP/Components/L6470/L6470.c ****   *
1453:Drivers/BSP/Components/L6470/L6470.c ****   * @param  L6470_Id  The identifier of the L6470 target inside the daisy chain.
1454:Drivers/BSP/Components/L6470/L6470.c ****   * @param  L6470_StatusRegisterFlagId  The identifier of the L6470 STATUS flag to be checked.
1455:Drivers/BSP/Components/L6470/L6470.c ****   *
1456:Drivers/BSP/Components/L6470/L6470.c ****   * @retval state The flag state.
1457:Drivers/BSP/Components/L6470/L6470.c ****   */
1458:Drivers/BSP/Components/L6470/L6470.c **** 
1459:Drivers/BSP/Components/L6470/L6470.c **** uint8_t L6470_CheckStatusRegisterFlag(uint8_t L6470_Id, uint8_t L6470_StatusRegisterFlagId)
1460:Drivers/BSP/Components/L6470/L6470.c **** {
 5657              		.loc 1 1460 1
 5658              		.cfi_startproc
 5659              		@ args = 0, pretend = 0, frame = 16
 5660              		@ frame_needed = 1, uses_anonymous_args = 0
 5661 0000 80B5     		push	{r7, lr}
 5662              	.LCFI377:
 5663              		.cfi_def_cfa_offset 8
 5664              		.cfi_offset 7, -8
 5665              		.cfi_offset 14, -4
 5666 0002 84B0     		sub	sp, sp, #16
 5667              	.LCFI378:
 5668              		.cfi_def_cfa_offset 24
 5669 0004 00AF     		add	r7, sp, #0
 5670              	.LCFI379:
 5671              		.cfi_def_cfa_register 7
 5672 0006 0346     		mov	r3, r0
 5673 0008 0A46     		mov	r2, r1
 5674 000a FB71     		strb	r3, [r7, #7]
 5675 000c 1346     		mov	r3, r2
 5676 000e BB71     		strb	r3, [r7, #6]
1461:Drivers/BSP/Components/L6470/L6470.c ****   uint8_t state = 0;
 5677              		.loc 1 1461 11
 5678 0010 0023     		movs	r3, #0
 5679 0012 FB73     		strb	r3, [r7, #15]
1462:Drivers/BSP/Components/L6470/L6470.c ****   
1463:Drivers/BSP/Components/L6470/L6470.c ****   *((uint16_t*)pL6470_StatusRegister) = L6470_GetParam(L6470_Id, L6470_STATUS_ID);
 5680              		.loc 1 1463 41
 5681 0014 FB79     		ldrb	r3, [r7, #7]	@ zero_extendqisi2
 5682 0016 1821     		movs	r1, #24
 5683 0018 1846     		mov	r0, r3
 5684 001a FFF7FEFF 		bl	L6470_GetParam
 5685 001e 0246     		mov	r2, r0
 5686              		.loc 1 1463 5
 5687 0020 534B     		ldr	r3, .L372
 5688 0022 1B68     		ldr	r3, [r3]
 5689              		.loc 1 1463 39
 5690 0024 92B2     		uxth	r2, r2
 5691 0026 1A80     		strh	r2, [r3]	@ movhi
1464:Drivers/BSP/Components/L6470/L6470.c ****   
1465:Drivers/BSP/Components/L6470/L6470.c ****   switch(L6470_StatusRegisterFlagId)
 5692              		.loc 1 1465 3
 5693 0028 BB79     		ldrb	r3, [r7, #6]	@ zero_extendqisi2
 5694 002a 0E2B     		cmp	r3, #14
 5695 002c 00F29A80 		bhi	.L354
ARM GAS  C:\Users\ep_ygh\AppData\Local\Temp\ccsX1uNj.s 			page 133


 5696 0030 01A2     		adr	r2, .L356
 5697 0032 52F823F0 		ldr	pc, [r2, r3, lsl #2]
 5698 0036 00BF     		.p2align 2
 5699              	.L356:
 5700 0038 75000000 		.word	.L370+1
 5701 003c 85000000 		.word	.L369+1
 5702 0040 95000000 		.word	.L368+1
 5703 0044 A5000000 		.word	.L367+1
 5704 0048 B5000000 		.word	.L366+1
 5705 004c C5000000 		.word	.L365+1
 5706 0050 D5000000 		.word	.L364+1
 5707 0054 E5000000 		.word	.L363+1
 5708 0058 F5000000 		.word	.L362+1
 5709 005c 05010000 		.word	.L361+1
 5710 0060 15010000 		.word	.L360+1
 5711 0064 25010000 		.word	.L359+1
 5712 0068 35010000 		.word	.L358+1
 5713 006c 45010000 		.word	.L357+1
 5714 0070 55010000 		.word	.L355+1
 5715              		.p2align 1
 5716              	.L370:
1466:Drivers/BSP/Components/L6470/L6470.c ****   {
1467:Drivers/BSP/Components/L6470/L6470.c ****   case HiZ_ID:
1468:Drivers/BSP/Components/L6470/L6470.c ****     state = pL6470_StatusRegister->HiZ;
 5717              		.loc 1 1468 34
 5718 0074 3E4B     		ldr	r3, .L372
 5719 0076 1B68     		ldr	r3, [r3]
 5720 0078 1B78     		ldrb	r3, [r3]
 5721 007a C3F30003 		ubfx	r3, r3, #0, #1
 5722 007e DBB2     		uxtb	r3, r3
 5723              		.loc 1 1468 11
 5724 0080 FB73     		strb	r3, [r7, #15]
1469:Drivers/BSP/Components/L6470/L6470.c ****     break;
 5725              		.loc 1 1469 5
 5726 0082 6FE0     		b	.L354
 5727              	.L369:
1470:Drivers/BSP/Components/L6470/L6470.c ****   case BUSY_ID:
1471:Drivers/BSP/Components/L6470/L6470.c ****     state = pL6470_StatusRegister->BUSY;
 5728              		.loc 1 1471 34
 5729 0084 3A4B     		ldr	r3, .L372
 5730 0086 1B68     		ldr	r3, [r3]
 5731 0088 1B78     		ldrb	r3, [r3]
 5732 008a C3F34003 		ubfx	r3, r3, #1, #1
 5733 008e DBB2     		uxtb	r3, r3
 5734              		.loc 1 1471 11
 5735 0090 FB73     		strb	r3, [r7, #15]
1472:Drivers/BSP/Components/L6470/L6470.c ****     break;
 5736              		.loc 1 1472 5
 5737 0092 67E0     		b	.L354
 5738              	.L368:
1473:Drivers/BSP/Components/L6470/L6470.c ****   case SW_F_ID:
1474:Drivers/BSP/Components/L6470/L6470.c ****     state = pL6470_StatusRegister->SW_F;
 5739              		.loc 1 1474 34
 5740 0094 364B     		ldr	r3, .L372
 5741 0096 1B68     		ldr	r3, [r3]
 5742 0098 1B78     		ldrb	r3, [r3]
 5743 009a C3F38003 		ubfx	r3, r3, #2, #1
ARM GAS  C:\Users\ep_ygh\AppData\Local\Temp\ccsX1uNj.s 			page 134


 5744 009e DBB2     		uxtb	r3, r3
 5745              		.loc 1 1474 11
 5746 00a0 FB73     		strb	r3, [r7, #15]
1475:Drivers/BSP/Components/L6470/L6470.c ****     break;
 5747              		.loc 1 1475 5
 5748 00a2 5FE0     		b	.L354
 5749              	.L367:
1476:Drivers/BSP/Components/L6470/L6470.c ****   case SW_EVN_ID:
1477:Drivers/BSP/Components/L6470/L6470.c ****     state = pL6470_StatusRegister->SW_EVN;
 5750              		.loc 1 1477 34
 5751 00a4 324B     		ldr	r3, .L372
 5752 00a6 1B68     		ldr	r3, [r3]
 5753 00a8 1B78     		ldrb	r3, [r3]
 5754 00aa C3F3C003 		ubfx	r3, r3, #3, #1
 5755 00ae DBB2     		uxtb	r3, r3
 5756              		.loc 1 1477 11
 5757 00b0 FB73     		strb	r3, [r7, #15]
1478:Drivers/BSP/Components/L6470/L6470.c ****     break;
 5758              		.loc 1 1478 5
 5759 00b2 57E0     		b	.L354
 5760              	.L366:
1479:Drivers/BSP/Components/L6470/L6470.c ****   case DIR_ID:
1480:Drivers/BSP/Components/L6470/L6470.c ****     state = pL6470_StatusRegister->DIR;
 5761              		.loc 1 1480 34
 5762 00b4 2E4B     		ldr	r3, .L372
 5763 00b6 1B68     		ldr	r3, [r3]
 5764 00b8 1B78     		ldrb	r3, [r3]
 5765 00ba C3F30013 		ubfx	r3, r3, #4, #1
 5766 00be DBB2     		uxtb	r3, r3
 5767              		.loc 1 1480 11
 5768 00c0 FB73     		strb	r3, [r7, #15]
1481:Drivers/BSP/Components/L6470/L6470.c ****     break;
 5769              		.loc 1 1481 5
 5770 00c2 4FE0     		b	.L354
 5771              	.L365:
1482:Drivers/BSP/Components/L6470/L6470.c ****   case MOT_STATUS_ID:
1483:Drivers/BSP/Components/L6470/L6470.c ****     state = pL6470_StatusRegister->MOT_STATUS;
 5772              		.loc 1 1483 34
 5773 00c4 2A4B     		ldr	r3, .L372
 5774 00c6 1B68     		ldr	r3, [r3]
 5775 00c8 1B78     		ldrb	r3, [r3]
 5776 00ca C3F34113 		ubfx	r3, r3, #5, #2
 5777 00ce DBB2     		uxtb	r3, r3
 5778              		.loc 1 1483 11
 5779 00d0 FB73     		strb	r3, [r7, #15]
1484:Drivers/BSP/Components/L6470/L6470.c ****     break;
 5780              		.loc 1 1484 5
 5781 00d2 47E0     		b	.L354
 5782              	.L364:
1485:Drivers/BSP/Components/L6470/L6470.c ****   case NOTPERF_CMD_ID:
1486:Drivers/BSP/Components/L6470/L6470.c ****     state = pL6470_StatusRegister->NOTPERF_CMD;
 5783              		.loc 1 1486 34
 5784 00d4 264B     		ldr	r3, .L372
 5785 00d6 1B68     		ldr	r3, [r3]
 5786 00d8 1B78     		ldrb	r3, [r3]
 5787 00da C3F3C013 		ubfx	r3, r3, #7, #1
 5788 00de DBB2     		uxtb	r3, r3
ARM GAS  C:\Users\ep_ygh\AppData\Local\Temp\ccsX1uNj.s 			page 135


 5789              		.loc 1 1486 11
 5790 00e0 FB73     		strb	r3, [r7, #15]
1487:Drivers/BSP/Components/L6470/L6470.c ****     break;
 5791              		.loc 1 1487 5
 5792 00e2 3FE0     		b	.L354
 5793              	.L363:
1488:Drivers/BSP/Components/L6470/L6470.c ****   case WRONG_CMD_ID:
1489:Drivers/BSP/Components/L6470/L6470.c ****     state = pL6470_StatusRegister->WRONG_CMD;
 5794              		.loc 1 1489 34
 5795 00e4 224B     		ldr	r3, .L372
 5796 00e6 1B68     		ldr	r3, [r3]
 5797 00e8 5B78     		ldrb	r3, [r3, #1]
 5798 00ea C3F30003 		ubfx	r3, r3, #0, #1
 5799 00ee DBB2     		uxtb	r3, r3
 5800              		.loc 1 1489 11
 5801 00f0 FB73     		strb	r3, [r7, #15]
1490:Drivers/BSP/Components/L6470/L6470.c ****     break;
 5802              		.loc 1 1490 5
 5803 00f2 37E0     		b	.L354
 5804              	.L362:
1491:Drivers/BSP/Components/L6470/L6470.c ****   case UVLO_ID:
1492:Drivers/BSP/Components/L6470/L6470.c ****     state = pL6470_StatusRegister->UVLO;
 5805              		.loc 1 1492 34
 5806 00f4 1E4B     		ldr	r3, .L372
 5807 00f6 1B68     		ldr	r3, [r3]
 5808 00f8 5B78     		ldrb	r3, [r3, #1]
 5809 00fa C3F34003 		ubfx	r3, r3, #1, #1
 5810 00fe DBB2     		uxtb	r3, r3
 5811              		.loc 1 1492 11
 5812 0100 FB73     		strb	r3, [r7, #15]
1493:Drivers/BSP/Components/L6470/L6470.c ****     break;
 5813              		.loc 1 1493 5
 5814 0102 2FE0     		b	.L354
 5815              	.L361:
1494:Drivers/BSP/Components/L6470/L6470.c ****   case TH_WRN_ID:
1495:Drivers/BSP/Components/L6470/L6470.c ****     state = pL6470_StatusRegister->TH_WRN;
 5816              		.loc 1 1495 34
 5817 0104 1A4B     		ldr	r3, .L372
 5818 0106 1B68     		ldr	r3, [r3]
 5819 0108 5B78     		ldrb	r3, [r3, #1]
 5820 010a C3F38003 		ubfx	r3, r3, #2, #1
 5821 010e DBB2     		uxtb	r3, r3
 5822              		.loc 1 1495 11
 5823 0110 FB73     		strb	r3, [r7, #15]
1496:Drivers/BSP/Components/L6470/L6470.c ****     break;
 5824              		.loc 1 1496 5
 5825 0112 27E0     		b	.L354
 5826              	.L360:
1497:Drivers/BSP/Components/L6470/L6470.c ****   case TH_SD_ID:
1498:Drivers/BSP/Components/L6470/L6470.c ****     state = pL6470_StatusRegister->TH_SD;
 5827              		.loc 1 1498 34
 5828 0114 164B     		ldr	r3, .L372
 5829 0116 1B68     		ldr	r3, [r3]
 5830 0118 5B78     		ldrb	r3, [r3, #1]
 5831 011a C3F3C003 		ubfx	r3, r3, #3, #1
 5832 011e DBB2     		uxtb	r3, r3
 5833              		.loc 1 1498 11
ARM GAS  C:\Users\ep_ygh\AppData\Local\Temp\ccsX1uNj.s 			page 136


 5834 0120 FB73     		strb	r3, [r7, #15]
1499:Drivers/BSP/Components/L6470/L6470.c ****     break;
 5835              		.loc 1 1499 5
 5836 0122 1FE0     		b	.L354
 5837              	.L359:
1500:Drivers/BSP/Components/L6470/L6470.c ****   case OCD_ID:
1501:Drivers/BSP/Components/L6470/L6470.c ****     state = pL6470_StatusRegister->OCD;
 5838              		.loc 1 1501 34
 5839 0124 124B     		ldr	r3, .L372
 5840 0126 1B68     		ldr	r3, [r3]
 5841 0128 5B78     		ldrb	r3, [r3, #1]
 5842 012a C3F30013 		ubfx	r3, r3, #4, #1
 5843 012e DBB2     		uxtb	r3, r3
 5844              		.loc 1 1501 11
 5845 0130 FB73     		strb	r3, [r7, #15]
1502:Drivers/BSP/Components/L6470/L6470.c ****     break;
 5846              		.loc 1 1502 5
 5847 0132 17E0     		b	.L354
 5848              	.L358:
1503:Drivers/BSP/Components/L6470/L6470.c ****   case STEP_LOSS_A_ID:
1504:Drivers/BSP/Components/L6470/L6470.c ****     state = pL6470_StatusRegister->STEP_LOSS_A;
 5849              		.loc 1 1504 34
 5850 0134 0E4B     		ldr	r3, .L372
 5851 0136 1B68     		ldr	r3, [r3]
 5852 0138 5B78     		ldrb	r3, [r3, #1]
 5853 013a C3F34013 		ubfx	r3, r3, #5, #1
 5854 013e DBB2     		uxtb	r3, r3
 5855              		.loc 1 1504 11
 5856 0140 FB73     		strb	r3, [r7, #15]
1505:Drivers/BSP/Components/L6470/L6470.c ****     break;
 5857              		.loc 1 1505 5
 5858 0142 0FE0     		b	.L354
 5859              	.L357:
1506:Drivers/BSP/Components/L6470/L6470.c ****   case STEP_LOSS_B_ID:
1507:Drivers/BSP/Components/L6470/L6470.c ****     state = pL6470_StatusRegister->STEP_LOSS_B;
 5860              		.loc 1 1507 34
 5861 0144 0A4B     		ldr	r3, .L372
 5862 0146 1B68     		ldr	r3, [r3]
 5863 0148 5B78     		ldrb	r3, [r3, #1]
 5864 014a C3F38013 		ubfx	r3, r3, #6, #1
 5865 014e DBB2     		uxtb	r3, r3
 5866              		.loc 1 1507 11
 5867 0150 FB73     		strb	r3, [r7, #15]
1508:Drivers/BSP/Components/L6470/L6470.c ****     break;
 5868              		.loc 1 1508 5
 5869 0152 07E0     		b	.L354
 5870              	.L355:
1509:Drivers/BSP/Components/L6470/L6470.c ****   case SCK_MOD_ID:
1510:Drivers/BSP/Components/L6470/L6470.c ****     state = pL6470_StatusRegister->SCK_MOD;
 5871              		.loc 1 1510 34
 5872 0154 064B     		ldr	r3, .L372
 5873 0156 1B68     		ldr	r3, [r3]
 5874 0158 5B78     		ldrb	r3, [r3, #1]
 5875 015a C3F3C013 		ubfx	r3, r3, #7, #1
 5876 015e DBB2     		uxtb	r3, r3
 5877              		.loc 1 1510 11
 5878 0160 FB73     		strb	r3, [r7, #15]
ARM GAS  C:\Users\ep_ygh\AppData\Local\Temp\ccsX1uNj.s 			page 137


1511:Drivers/BSP/Components/L6470/L6470.c ****     break;
 5879              		.loc 1 1511 5
 5880 0162 00BF     		nop
 5881              	.L354:
1512:Drivers/BSP/Components/L6470/L6470.c ****   }
1513:Drivers/BSP/Components/L6470/L6470.c ****   
1514:Drivers/BSP/Components/L6470/L6470.c ****   return state;
 5882              		.loc 1 1514 10
 5883 0164 FB7B     		ldrb	r3, [r7, #15]	@ zero_extendqisi2
1515:Drivers/BSP/Components/L6470/L6470.c **** }
 5884              		.loc 1 1515 1
 5885 0166 1846     		mov	r0, r3
 5886 0168 1037     		adds	r7, r7, #16
 5887              	.LCFI380:
 5888              		.cfi_def_cfa_offset 8
 5889 016a BD46     		mov	sp, r7
 5890              	.LCFI381:
 5891              		.cfi_def_cfa_register 13
 5892              		@ sp needed
 5893 016c 80BD     		pop	{r7, pc}
 5894              	.L373:
 5895 016e 00BF     		.align	2
 5896              	.L372:
 5897 0170 00000000 		.word	pL6470_StatusRegister
 5898              		.cfi_endproc
 5899              	.LFE198:
 5901              		.section	.rodata
 5902              		.align	2
 5903              	.LC0:
 5904 0000 00       		.ascii	"\000"
 5905              		.section	.text.L6470_GetRegisterName,"ax",%progbits
 5906              		.align	1
 5907              		.global	L6470_GetRegisterName
 5908              		.syntax unified
 5909              		.thumb
 5910              		.thumb_func
 5912              	L6470_GetRegisterName:
 5913              	.LFB199:
1516:Drivers/BSP/Components/L6470/L6470.c **** 
1517:Drivers/BSP/Components/L6470/L6470.c **** /**
1518:Drivers/BSP/Components/L6470/L6470.c ****   * @brief  Return the mnemonic name for the L6470 register.
1519:Drivers/BSP/Components/L6470/L6470.c ****   * @param  id  The identifier of the L6470 register.
1520:Drivers/BSP/Components/L6470/L6470.c ****   */
1521:Drivers/BSP/Components/L6470/L6470.c **** uint8_t *L6470_GetRegisterName(uint8_t id)
1522:Drivers/BSP/Components/L6470/L6470.c **** {
 5914              		.loc 1 1522 1
 5915              		.cfi_startproc
 5916              		@ args = 0, pretend = 0, frame = 8
 5917              		@ frame_needed = 1, uses_anonymous_args = 0
 5918              		@ link register save eliminated.
 5919 0000 80B4     		push	{r7}
 5920              	.LCFI382:
 5921              		.cfi_def_cfa_offset 4
 5922              		.cfi_offset 7, -4
 5923 0002 83B0     		sub	sp, sp, #12
 5924              	.LCFI383:
 5925              		.cfi_def_cfa_offset 16
ARM GAS  C:\Users\ep_ygh\AppData\Local\Temp\ccsX1uNj.s 			page 138


 5926 0004 00AF     		add	r7, sp, #0
 5927              	.LCFI384:
 5928              		.cfi_def_cfa_register 7
 5929 0006 0346     		mov	r3, r0
 5930 0008 FB71     		strb	r3, [r7, #7]
1523:Drivers/BSP/Components/L6470/L6470.c ****   if (id < L6470REGIDSIZE)
 5931              		.loc 1 1523 6
 5932 000a FB79     		ldrb	r3, [r7, #7]	@ zero_extendqisi2
 5933 000c 182B     		cmp	r3, #24
 5934 000e 08D8     		bhi	.L375
1524:Drivers/BSP/Components/L6470/L6470.c ****   {
1525:Drivers/BSP/Components/L6470/L6470.c ****     return (uint8_t*)L6470_Register[id].Name;
 5935              		.loc 1 1525 40
 5936 0010 FA79     		ldrb	r2, [r7, #7]	@ zero_extendqisi2
 5937              		.loc 1 1525 12
 5938 0012 1346     		mov	r3, r2
 5939 0014 9B00     		lsls	r3, r3, #2
 5940 0016 1344     		add	r3, r3, r2
 5941 0018 9B00     		lsls	r3, r3, #2
 5942 001a 054A     		ldr	r2, .L377
 5943 001c 1344     		add	r3, r3, r2
 5944 001e 0133     		adds	r3, r3, #1
 5945 0020 00E0     		b	.L376
 5946              	.L375:
1526:Drivers/BSP/Components/L6470/L6470.c ****   }
1527:Drivers/BSP/Components/L6470/L6470.c ****   else
1528:Drivers/BSP/Components/L6470/L6470.c ****   {
1529:Drivers/BSP/Components/L6470/L6470.c ****     return (uint8_t*)"";
 5947              		.loc 1 1529 12
 5948 0022 044B     		ldr	r3, .L377+4
 5949              	.L376:
1530:Drivers/BSP/Components/L6470/L6470.c ****   }
1531:Drivers/BSP/Components/L6470/L6470.c **** }
 5950              		.loc 1 1531 1
 5951 0024 1846     		mov	r0, r3
 5952 0026 0C37     		adds	r7, r7, #12
 5953              	.LCFI385:
 5954              		.cfi_def_cfa_offset 4
 5955 0028 BD46     		mov	sp, r7
 5956              	.LCFI386:
 5957              		.cfi_def_cfa_register 13
 5958              		@ sp needed
 5959 002a 5DF8047B 		ldr	r7, [sp], #4
 5960              	.LCFI387:
 5961              		.cfi_restore 7
 5962              		.cfi_def_cfa_offset 0
 5963 002e 7047     		bx	lr
 5964              	.L378:
 5965              		.align	2
 5966              	.L377:
 5967 0030 00000000 		.word	L6470_Register
 5968 0034 00000000 		.word	.LC0
 5969              		.cfi_endproc
 5970              	.LFE199:
 5972              		.section	.text.L6470_Config,"ax",%progbits
 5973              		.align	1
 5974              		.global	L6470_Config
ARM GAS  C:\Users\ep_ygh\AppData\Local\Temp\ccsX1uNj.s 			page 139


 5975              		.syntax unified
 5976              		.thumb
 5977              		.thumb_func
 5979              	L6470_Config:
 5980              	.LFB200:
1532:Drivers/BSP/Components/L6470/L6470.c **** 
1533:Drivers/BSP/Components/L6470/L6470.c **** /**
1534:Drivers/BSP/Components/L6470/L6470.c ****   * @brief  Configures the L6470 registers.
1535:Drivers/BSP/Components/L6470/L6470.c ****   * @param  StepperMotorDriverHandle_t* The pointer to the stepper motor driver handle structure.
1536:Drivers/BSP/Components/L6470/L6470.c ****   * @param  MotorParameterData_t* The pointer to the related parameter data structure.
1537:Drivers/BSP/Components/L6470/L6470.c ****   */
1538:Drivers/BSP/Components/L6470/L6470.c **** void L6470_Config(StepperMotorDriverHandle_t *StepperMotorDriverHandle, MotorParameterData_t *Motor
1539:Drivers/BSP/Components/L6470/L6470.c **** {
 5981              		.loc 1 1539 1
 5982              		.cfi_startproc
 5983              		@ args = 0, pretend = 0, frame = 16
 5984              		@ frame_needed = 1, uses_anonymous_args = 0
 5985 0000 80B5     		push	{r7, lr}
 5986              	.LCFI388:
 5987              		.cfi_def_cfa_offset 8
 5988              		.cfi_offset 7, -8
 5989              		.cfi_offset 14, -4
 5990 0002 84B0     		sub	sp, sp, #16
 5991              	.LCFI389:
 5992              		.cfi_def_cfa_offset 24
 5993 0004 00AF     		add	r7, sp, #0
 5994              	.LCFI390:
 5995              		.cfi_def_cfa_register 7
 5996 0006 F860     		str	r0, [r7, #12]
 5997 0008 B960     		str	r1, [r7, #8]
1540:Drivers/BSP/Components/L6470/L6470.c ****   /* Prepare the 'Register' field of StepperMotorDriverHandle */
1541:Drivers/BSP/Components/L6470/L6470.c ****   StepperMotorDriverHandle->Register.ACC = Step_s2_2_Acc(MotorParameterData->acc);
 5998              		.loc 1 1541 44
 5999 000a BB68     		ldr	r3, [r7, #8]
 6000 000c D3ED057A 		vldr.32	s15, [r3, #20]
 6001 0010 B0EE670A 		vmov.f32	s0, s15
 6002 0014 FFF7FEFF 		bl	Step_s2_2_Acc
 6003 0018 0346     		mov	r3, r0
 6004 001a 1A46     		mov	r2, r3
 6005              		.loc 1 1541 42
 6006 001c FB68     		ldr	r3, [r7, #12]
 6007 001e 9A83     		strh	r2, [r3, #28]	@ movhi
1542:Drivers/BSP/Components/L6470/L6470.c ****   StepperMotorDriverHandle->Register.DEC = Step_s2_2_Dec(MotorParameterData->dec);
 6008              		.loc 1 1542 44
 6009 0020 BB68     		ldr	r3, [r7, #8]
 6010 0022 D3ED067A 		vldr.32	s15, [r3, #24]
 6011 0026 B0EE670A 		vmov.f32	s0, s15
 6012 002a FFF7FEFF 		bl	Step_s2_2_Dec
 6013 002e 0346     		mov	r3, r0
 6014 0030 1A46     		mov	r2, r3
 6015              		.loc 1 1542 42
 6016 0032 FB68     		ldr	r3, [r7, #12]
 6017 0034 DA83     		strh	r2, [r3, #30]	@ movhi
1543:Drivers/BSP/Components/L6470/L6470.c ****   StepperMotorDriverHandle->Register.MAX_SPEED = Step_s_2_MaxSpeed(MotorParameterData->maxspeed);
 6018              		.loc 1 1543 50
 6019 0036 BB68     		ldr	r3, [r7, #8]
 6020 0038 D3ED077A 		vldr.32	s15, [r3, #28]
ARM GAS  C:\Users\ep_ygh\AppData\Local\Temp\ccsX1uNj.s 			page 140


 6021 003c B0EE670A 		vmov.f32	s0, s15
 6022 0040 FFF7FEFF 		bl	Step_s_2_MaxSpeed
 6023 0044 0346     		mov	r3, r0
 6024 0046 1A46     		mov	r2, r3
 6025              		.loc 1 1543 48
 6026 0048 FB68     		ldr	r3, [r7, #12]
 6027 004a 1A84     		strh	r2, [r3, #32]	@ movhi
1544:Drivers/BSP/Components/L6470/L6470.c ****   StepperMotorDriverHandle->Register.MIN_SPEED = Step_s_2_MinSpeed(MotorParameterData->minspeed);
 6028              		.loc 1 1544 50
 6029 004c BB68     		ldr	r3, [r7, #8]
 6030 004e D3ED087A 		vldr.32	s15, [r3, #32]
 6031 0052 B0EE670A 		vmov.f32	s0, s15
 6032 0056 FFF7FEFF 		bl	Step_s_2_MinSpeed
 6033 005a 0346     		mov	r3, r0
 6034 005c 1A46     		mov	r2, r3
 6035              		.loc 1 1544 48
 6036 005e FB68     		ldr	r3, [r7, #12]
 6037 0060 5A84     		strh	r2, [r3, #34]	@ movhi
1545:Drivers/BSP/Components/L6470/L6470.c ****   StepperMotorDriverHandle->Register.FS_SPD = Step_s_2_FsSpd(MotorParameterData->fsspd);
 6038              		.loc 1 1545 47
 6039 0062 BB68     		ldr	r3, [r7, #8]
 6040 0064 D3ED097A 		vldr.32	s15, [r3, #36]
 6041 0068 B0EE670A 		vmov.f32	s0, s15
 6042 006c FFF7FEFF 		bl	Step_s_2_FsSpd
 6043 0070 0346     		mov	r3, r0
 6044 0072 1A46     		mov	r2, r3
 6045              		.loc 1 1545 45
 6046 0074 FB68     		ldr	r3, [r7, #12]
 6047 0076 9A84     		strh	r2, [r3, #36]	@ movhi
1546:Drivers/BSP/Components/L6470/L6470.c ****   StepperMotorDriverHandle->Register.KVAL_HOLD = (uint8_t)((float)((float)(MotorParameterData->kval
 6048              		.loc 1 1546 94
 6049 0078 BB68     		ldr	r3, [r7, #8]
 6050 007a D3ED0A7A 		vldr.32	s15, [r3, #40]
 6051              		.loc 1 1546 68
 6052 007e 9FEDAB7A 		vldr.32	s14, .L380
 6053 0082 67EE876A 		vmul.f32	s13, s15, s14
 6054              		.loc 1 1546 133
 6055 0086 BB68     		ldr	r3, [r7, #8]
 6056 0088 93ED007A 		vldr.32	s14, [r3]
 6057              		.loc 1 1546 60
 6058 008c C6EE877A 		vdiv.f32	s15, s13, s14
 6059              		.loc 1 1546 50
 6060 0090 FCEEE77A 		vcvt.u32.f32	s15, s15
 6061 0094 C7ED017A 		vstr.32	s15, [r7, #4]	@ int
 6062 0098 3B79     		ldrb	r3, [r7, #4]
 6063 009a DAB2     		uxtb	r2, r3
 6064              		.loc 1 1546 48
 6065 009c FB68     		ldr	r3, [r7, #12]
 6066 009e 83F82620 		strb	r2, [r3, #38]
1547:Drivers/BSP/Components/L6470/L6470.c ****   StepperMotorDriverHandle->Register.KVAL_RUN = (uint8_t)((float)((float)(MotorParameterData->kvalr
 6067              		.loc 1 1547 93
 6068 00a2 BB68     		ldr	r3, [r7, #8]
 6069 00a4 D3ED0B7A 		vldr.32	s15, [r3, #44]
 6070              		.loc 1 1547 67
 6071 00a8 9FEDA07A 		vldr.32	s14, .L380
 6072 00ac 67EE876A 		vmul.f32	s13, s15, s14
 6073              		.loc 1 1547 131
ARM GAS  C:\Users\ep_ygh\AppData\Local\Temp\ccsX1uNj.s 			page 141


 6074 00b0 BB68     		ldr	r3, [r7, #8]
 6075 00b2 93ED007A 		vldr.32	s14, [r3]
 6076              		.loc 1 1547 59
 6077 00b6 C6EE877A 		vdiv.f32	s15, s13, s14
 6078              		.loc 1 1547 49
 6079 00ba FCEEE77A 		vcvt.u32.f32	s15, s15
 6080 00be C7ED017A 		vstr.32	s15, [r7, #4]	@ int
 6081 00c2 3B79     		ldrb	r3, [r7, #4]
 6082 00c4 DAB2     		uxtb	r2, r3
 6083              		.loc 1 1547 47
 6084 00c6 FB68     		ldr	r3, [r7, #12]
 6085 00c8 83F82720 		strb	r2, [r3, #39]
1548:Drivers/BSP/Components/L6470/L6470.c ****   StepperMotorDriverHandle->Register.KVAL_ACC = (uint8_t)((float)((float)(MotorParameterData->kvala
 6086              		.loc 1 1548 93
 6087 00cc BB68     		ldr	r3, [r7, #8]
 6088 00ce D3ED0C7A 		vldr.32	s15, [r3, #48]
 6089              		.loc 1 1548 67
 6090 00d2 9FED967A 		vldr.32	s14, .L380
 6091 00d6 67EE876A 		vmul.f32	s13, s15, s14
 6092              		.loc 1 1548 131
 6093 00da BB68     		ldr	r3, [r7, #8]
 6094 00dc 93ED007A 		vldr.32	s14, [r3]
 6095              		.loc 1 1548 59
 6096 00e0 C6EE877A 		vdiv.f32	s15, s13, s14
 6097              		.loc 1 1548 49
 6098 00e4 FCEEE77A 		vcvt.u32.f32	s15, s15
 6099 00e8 C7ED017A 		vstr.32	s15, [r7, #4]	@ int
 6100 00ec 3B79     		ldrb	r3, [r7, #4]
 6101 00ee DAB2     		uxtb	r2, r3
 6102              		.loc 1 1548 47
 6103 00f0 FB68     		ldr	r3, [r7, #12]
 6104 00f2 83F82820 		strb	r2, [r3, #40]
1549:Drivers/BSP/Components/L6470/L6470.c ****   StepperMotorDriverHandle->Register.KVAL_DEC = (uint8_t)((float)((float)(MotorParameterData->kvald
 6105              		.loc 1 1549 93
 6106 00f6 BB68     		ldr	r3, [r7, #8]
 6107 00f8 D3ED0D7A 		vldr.32	s15, [r3, #52]
 6108              		.loc 1 1549 67
 6109 00fc 9FED8B7A 		vldr.32	s14, .L380
 6110 0100 67EE876A 		vmul.f32	s13, s15, s14
 6111              		.loc 1 1549 131
 6112 0104 BB68     		ldr	r3, [r7, #8]
 6113 0106 93ED007A 		vldr.32	s14, [r3]
 6114              		.loc 1 1549 59
 6115 010a C6EE877A 		vdiv.f32	s15, s13, s14
 6116              		.loc 1 1549 49
 6117 010e FCEEE77A 		vcvt.u32.f32	s15, s15
 6118 0112 C7ED017A 		vstr.32	s15, [r7, #4]	@ int
 6119 0116 3B79     		ldrb	r3, [r7, #4]
 6120 0118 DAB2     		uxtb	r2, r3
 6121              		.loc 1 1549 47
 6122 011a FB68     		ldr	r3, [r7, #12]
 6123 011c 83F82920 		strb	r2, [r3, #41]
1550:Drivers/BSP/Components/L6470/L6470.c ****   StepperMotorDriverHandle->Register.INT_SPEED = Step_s_2_IntSpeed(MotorParameterData->intspeed);
 6124              		.loc 1 1550 50
 6125 0120 BB68     		ldr	r3, [r7, #8]
 6126 0122 D3ED0E7A 		vldr.32	s15, [r3, #56]
 6127 0126 B0EE670A 		vmov.f32	s0, s15
ARM GAS  C:\Users\ep_ygh\AppData\Local\Temp\ccsX1uNj.s 			page 142


 6128 012a FFF7FEFF 		bl	Step_s_2_IntSpeed
 6129 012e 0346     		mov	r3, r0
 6130 0130 1A46     		mov	r2, r3
 6131              		.loc 1 1550 48
 6132 0132 FB68     		ldr	r3, [r7, #12]
 6133 0134 5A85     		strh	r2, [r3, #42]	@ movhi
1551:Drivers/BSP/Components/L6470/L6470.c ****   StepperMotorDriverHandle->Register.ST_SLP = s_Step_2_StSlp(MotorParameterData->stslp);
 6134              		.loc 1 1551 47
 6135 0136 BB68     		ldr	r3, [r7, #8]
 6136 0138 D3ED0F7A 		vldr.32	s15, [r3, #60]
 6137 013c B0EE670A 		vmov.f32	s0, s15
 6138 0140 FFF7FEFF 		bl	s_Step_2_StSlp
 6139 0144 0346     		mov	r3, r0
 6140 0146 1A46     		mov	r2, r3
 6141              		.loc 1 1551 45
 6142 0148 FB68     		ldr	r3, [r7, #12]
 6143 014a 83F82C20 		strb	r2, [r3, #44]
1552:Drivers/BSP/Components/L6470/L6470.c ****   StepperMotorDriverHandle->Register.FN_SLP_ACC = s_Step_2_FnSlpAcc(MotorParameterData->fnslpacc);
 6144              		.loc 1 1552 51
 6145 014e BB68     		ldr	r3, [r7, #8]
 6146 0150 D3ED107A 		vldr.32	s15, [r3, #64]
 6147 0154 B0EE670A 		vmov.f32	s0, s15
 6148 0158 FFF7FEFF 		bl	s_Step_2_FnSlpAcc
 6149 015c 0346     		mov	r3, r0
 6150 015e 1A46     		mov	r2, r3
 6151              		.loc 1 1552 49
 6152 0160 FB68     		ldr	r3, [r7, #12]
 6153 0162 83F82D20 		strb	r2, [r3, #45]
1553:Drivers/BSP/Components/L6470/L6470.c ****   StepperMotorDriverHandle->Register.FN_SLP_DEC = s_Step_2_FnSlpDec(MotorParameterData->fnslpdec);
 6154              		.loc 1 1553 51
 6155 0166 BB68     		ldr	r3, [r7, #8]
 6156 0168 D3ED117A 		vldr.32	s15, [r3, #68]
 6157 016c B0EE670A 		vmov.f32	s0, s15
 6158 0170 FFF7FEFF 		bl	s_Step_2_FnSlpDec
 6159 0174 0346     		mov	r3, r0
 6160 0176 1A46     		mov	r2, r3
 6161              		.loc 1 1553 49
 6162 0178 FB68     		ldr	r3, [r7, #12]
 6163 017a 83F82E20 		strb	r2, [r3, #46]
1554:Drivers/BSP/Components/L6470/L6470.c ****   StepperMotorDriverHandle->Register.K_THERM = MotorParameterData->kterm;
 6164              		.loc 1 1554 66
 6165 017e BB68     		ldr	r3, [r7, #8]
 6166 0180 93F84820 		ldrb	r2, [r3, #72]	@ zero_extendqisi2
 6167              		.loc 1 1554 46
 6168 0184 FB68     		ldr	r3, [r7, #12]
 6169 0186 83F82F20 		strb	r2, [r3, #47]
1555:Drivers/BSP/Components/L6470/L6470.c ****   StepperMotorDriverHandle->Register.OCD_TH = mA_2_OcdTh(MotorParameterData->ocdth);
 6170              		.loc 1 1555 47
 6171 018a BB68     		ldr	r3, [r7, #8]
 6172 018c D3ED137A 		vldr.32	s15, [r3, #76]
 6173 0190 B0EE670A 		vmov.f32	s0, s15
 6174 0194 FFF7FEFF 		bl	mA_2_OcdTh
 6175 0198 0346     		mov	r3, r0
 6176 019a 1A46     		mov	r2, r3
 6177              		.loc 1 1555 45
 6178 019c FB68     		ldr	r3, [r7, #12]
 6179 019e 83F83120 		strb	r2, [r3, #49]
ARM GAS  C:\Users\ep_ygh\AppData\Local\Temp\ccsX1uNj.s 			page 143


1556:Drivers/BSP/Components/L6470/L6470.c ****   StepperMotorDriverHandle->Register.STALL_TH = mA_2_StallTh(MotorParameterData->stallth);
 6180              		.loc 1 1556 49
 6181 01a2 BB68     		ldr	r3, [r7, #8]
 6182 01a4 D3ED147A 		vldr.32	s15, [r3, #80]
 6183 01a8 B0EE670A 		vmov.f32	s0, s15
 6184 01ac FFF7FEFF 		bl	mA_2_StallTh
 6185 01b0 0346     		mov	r3, r0
 6186 01b2 1A46     		mov	r2, r3
 6187              		.loc 1 1556 47
 6188 01b4 FB68     		ldr	r3, [r7, #12]
 6189 01b6 83F83220 		strb	r2, [r3, #50]
1557:Drivers/BSP/Components/L6470/L6470.c ****   StepperMotorDriverHandle->Register.STEP_MODE = MotorParameterData->step_sel;
 6190              		.loc 1 1557 68
 6191 01ba BB68     		ldr	r3, [r7, #8]
 6192 01bc 93F85420 		ldrb	r2, [r3, #84]	@ zero_extendqisi2
 6193              		.loc 1 1557 48
 6194 01c0 FB68     		ldr	r3, [r7, #12]
 6195 01c2 83F83320 		strb	r2, [r3, #51]
1558:Drivers/BSP/Components/L6470/L6470.c ****   StepperMotorDriverHandle->Register.ALARM_EN = MotorParameterData->alarmen;
 6196              		.loc 1 1558 67
 6197 01c6 BB68     		ldr	r3, [r7, #8]
 6198 01c8 93F85520 		ldrb	r2, [r3, #85]	@ zero_extendqisi2
 6199              		.loc 1 1558 47
 6200 01cc FB68     		ldr	r3, [r7, #12]
 6201 01ce 83F83420 		strb	r2, [r3, #52]
1559:Drivers/BSP/Components/L6470/L6470.c ****   StepperMotorDriverHandle->Register.CONFIG = MotorParameterData->config;
 6202              		.loc 1 1559 65
 6203 01d2 BB68     		ldr	r3, [r7, #8]
 6204 01d4 B3F85620 		ldrh	r2, [r3, #86]
 6205              		.loc 1 1559 45
 6206 01d8 FB68     		ldr	r3, [r7, #12]
 6207 01da DA86     		strh	r2, [r3, #54]	@ movhi
1560:Drivers/BSP/Components/L6470/L6470.c ****   
1561:Drivers/BSP/Components/L6470/L6470.c ****   /* Write the L6470 registers with the prepared data */
1562:Drivers/BSP/Components/L6470/L6470.c ****   StepperMotorDriverHandle->Command->SetParam(StepperMotorDriverHandle->DaisyChainPosition, L6470_A
 6208              		.loc 1 1562 27
 6209 01dc FB68     		ldr	r3, [r7, #12]
 6210 01de 9B68     		ldr	r3, [r3, #8]
 6211              		.loc 1 1562 36
 6212 01e0 1B68     		ldr	r3, [r3]
 6213              		.loc 1 1562 3
 6214 01e2 FA68     		ldr	r2, [r7, #12]
 6215 01e4 1078     		ldrb	r0, [r2]	@ zero_extendqisi2
 6216              		.loc 1 1562 141
 6217 01e6 FA68     		ldr	r2, [r7, #12]
 6218 01e8 928B     		ldrh	r2, [r2, #28]
 6219              		.loc 1 1562 3
 6220 01ea 0421     		movs	r1, #4
 6221 01ec 9847     		blx	r3
 6222              	.LVL0:
1563:Drivers/BSP/Components/L6470/L6470.c ****   StepperMotorDriverHandle->Command->SetParam(StepperMotorDriverHandle->DaisyChainPosition, L6470_D
 6223              		.loc 1 1563 27
 6224 01ee FB68     		ldr	r3, [r7, #12]
 6225 01f0 9B68     		ldr	r3, [r3, #8]
 6226              		.loc 1 1563 36
 6227 01f2 1B68     		ldr	r3, [r3]
 6228              		.loc 1 1563 3
ARM GAS  C:\Users\ep_ygh\AppData\Local\Temp\ccsX1uNj.s 			page 144


 6229 01f4 FA68     		ldr	r2, [r7, #12]
 6230 01f6 1078     		ldrb	r0, [r2]	@ zero_extendqisi2
 6231              		.loc 1 1563 141
 6232 01f8 FA68     		ldr	r2, [r7, #12]
 6233 01fa D28B     		ldrh	r2, [r2, #30]
 6234              		.loc 1 1563 3
 6235 01fc 0521     		movs	r1, #5
 6236 01fe 9847     		blx	r3
 6237              	.LVL1:
1564:Drivers/BSP/Components/L6470/L6470.c ****   StepperMotorDriverHandle->Command->SetParam(StepperMotorDriverHandle->DaisyChainPosition, L6470_M
 6238              		.loc 1 1564 27
 6239 0200 FB68     		ldr	r3, [r7, #12]
 6240 0202 9B68     		ldr	r3, [r3, #8]
 6241              		.loc 1 1564 36
 6242 0204 1B68     		ldr	r3, [r3]
 6243              		.loc 1 1564 3
 6244 0206 FA68     		ldr	r2, [r7, #12]
 6245 0208 1078     		ldrb	r0, [r2]	@ zero_extendqisi2
 6246              		.loc 1 1564 147
 6247 020a FA68     		ldr	r2, [r7, #12]
 6248 020c 128C     		ldrh	r2, [r2, #32]
 6249              		.loc 1 1564 3
 6250 020e 0621     		movs	r1, #6
 6251 0210 9847     		blx	r3
 6252              	.LVL2:
1565:Drivers/BSP/Components/L6470/L6470.c ****   StepperMotorDriverHandle->Command->SetParam(StepperMotorDriverHandle->DaisyChainPosition, L6470_M
 6253              		.loc 1 1565 27
 6254 0212 FB68     		ldr	r3, [r7, #12]
 6255 0214 9B68     		ldr	r3, [r3, #8]
 6256              		.loc 1 1565 36
 6257 0216 1B68     		ldr	r3, [r3]
 6258              		.loc 1 1565 3
 6259 0218 FA68     		ldr	r2, [r7, #12]
 6260 021a 1078     		ldrb	r0, [r2]	@ zero_extendqisi2
 6261              		.loc 1 1565 147
 6262 021c FA68     		ldr	r2, [r7, #12]
 6263 021e 528C     		ldrh	r2, [r2, #34]
 6264              		.loc 1 1565 3
 6265 0220 0721     		movs	r1, #7
 6266 0222 9847     		blx	r3
 6267              	.LVL3:
1566:Drivers/BSP/Components/L6470/L6470.c ****   StepperMotorDriverHandle->Command->SetParam(StepperMotorDriverHandle->DaisyChainPosition, L6470_F
 6268              		.loc 1 1566 27
 6269 0224 FB68     		ldr	r3, [r7, #12]
 6270 0226 9B68     		ldr	r3, [r3, #8]
 6271              		.loc 1 1566 36
 6272 0228 1B68     		ldr	r3, [r3]
 6273              		.loc 1 1566 3
 6274 022a FA68     		ldr	r2, [r7, #12]
 6275 022c 1078     		ldrb	r0, [r2]	@ zero_extendqisi2
 6276              		.loc 1 1566 144
 6277 022e FA68     		ldr	r2, [r7, #12]
 6278 0230 928C     		ldrh	r2, [r2, #36]
 6279              		.loc 1 1566 3
 6280 0232 0821     		movs	r1, #8
 6281 0234 9847     		blx	r3
 6282              	.LVL4:
ARM GAS  C:\Users\ep_ygh\AppData\Local\Temp\ccsX1uNj.s 			page 145


1567:Drivers/BSP/Components/L6470/L6470.c ****   StepperMotorDriverHandle->Command->SetParam(StepperMotorDriverHandle->DaisyChainPosition, L6470_K
 6283              		.loc 1 1567 27
 6284 0236 FB68     		ldr	r3, [r7, #12]
 6285 0238 9B68     		ldr	r3, [r3, #8]
 6286              		.loc 1 1567 36
 6287 023a 1B68     		ldr	r3, [r3]
 6288              		.loc 1 1567 3
 6289 023c FA68     		ldr	r2, [r7, #12]
 6290 023e 1078     		ldrb	r0, [r2]	@ zero_extendqisi2
 6291              		.loc 1 1567 147
 6292 0240 FA68     		ldr	r2, [r7, #12]
 6293 0242 92F82620 		ldrb	r2, [r2, #38]	@ zero_extendqisi2
 6294              		.loc 1 1567 3
 6295 0246 0921     		movs	r1, #9
 6296 0248 9847     		blx	r3
 6297              	.LVL5:
1568:Drivers/BSP/Components/L6470/L6470.c ****   StepperMotorDriverHandle->Command->SetParam(StepperMotorDriverHandle->DaisyChainPosition, L6470_K
 6298              		.loc 1 1568 27
 6299 024a FB68     		ldr	r3, [r7, #12]
 6300 024c 9B68     		ldr	r3, [r3, #8]
 6301              		.loc 1 1568 36
 6302 024e 1B68     		ldr	r3, [r3]
 6303              		.loc 1 1568 3
 6304 0250 FA68     		ldr	r2, [r7, #12]
 6305 0252 1078     		ldrb	r0, [r2]	@ zero_extendqisi2
 6306              		.loc 1 1568 146
 6307 0254 FA68     		ldr	r2, [r7, #12]
 6308 0256 92F82720 		ldrb	r2, [r2, #39]	@ zero_extendqisi2
 6309              		.loc 1 1568 3
 6310 025a 0A21     		movs	r1, #10
 6311 025c 9847     		blx	r3
 6312              	.LVL6:
1569:Drivers/BSP/Components/L6470/L6470.c ****   StepperMotorDriverHandle->Command->SetParam(StepperMotorDriverHandle->DaisyChainPosition, L6470_K
 6313              		.loc 1 1569 27
 6314 025e FB68     		ldr	r3, [r7, #12]
 6315 0260 9B68     		ldr	r3, [r3, #8]
 6316              		.loc 1 1569 36
 6317 0262 1B68     		ldr	r3, [r3]
 6318              		.loc 1 1569 3
 6319 0264 FA68     		ldr	r2, [r7, #12]
 6320 0266 1078     		ldrb	r0, [r2]	@ zero_extendqisi2
 6321              		.loc 1 1569 146
 6322 0268 FA68     		ldr	r2, [r7, #12]
 6323 026a 92F82820 		ldrb	r2, [r2, #40]	@ zero_extendqisi2
 6324              		.loc 1 1569 3
 6325 026e 0B21     		movs	r1, #11
 6326 0270 9847     		blx	r3
 6327              	.LVL7:
1570:Drivers/BSP/Components/L6470/L6470.c ****   StepperMotorDriverHandle->Command->SetParam(StepperMotorDriverHandle->DaisyChainPosition, L6470_K
 6328              		.loc 1 1570 27
 6329 0272 FB68     		ldr	r3, [r7, #12]
 6330 0274 9B68     		ldr	r3, [r3, #8]
 6331              		.loc 1 1570 36
 6332 0276 1B68     		ldr	r3, [r3]
 6333              		.loc 1 1570 3
 6334 0278 FA68     		ldr	r2, [r7, #12]
 6335 027a 1078     		ldrb	r0, [r2]	@ zero_extendqisi2
ARM GAS  C:\Users\ep_ygh\AppData\Local\Temp\ccsX1uNj.s 			page 146


 6336              		.loc 1 1570 146
 6337 027c FA68     		ldr	r2, [r7, #12]
 6338 027e 92F82920 		ldrb	r2, [r2, #41]	@ zero_extendqisi2
 6339              		.loc 1 1570 3
 6340 0282 0C21     		movs	r1, #12
 6341 0284 9847     		blx	r3
 6342              	.LVL8:
1571:Drivers/BSP/Components/L6470/L6470.c ****   StepperMotorDriverHandle->Command->SetParam(StepperMotorDriverHandle->DaisyChainPosition, L6470_I
 6343              		.loc 1 1571 27
 6344 0286 FB68     		ldr	r3, [r7, #12]
 6345 0288 9B68     		ldr	r3, [r3, #8]
 6346              		.loc 1 1571 36
 6347 028a 1B68     		ldr	r3, [r3]
 6348              		.loc 1 1571 3
 6349 028c FA68     		ldr	r2, [r7, #12]
 6350 028e 1078     		ldrb	r0, [r2]	@ zero_extendqisi2
 6351              		.loc 1 1571 147
 6352 0290 FA68     		ldr	r2, [r7, #12]
 6353 0292 528D     		ldrh	r2, [r2, #42]
 6354              		.loc 1 1571 3
 6355 0294 0D21     		movs	r1, #13
 6356 0296 9847     		blx	r3
 6357              	.LVL9:
1572:Drivers/BSP/Components/L6470/L6470.c ****   StepperMotorDriverHandle->Command->SetParam(StepperMotorDriverHandle->DaisyChainPosition, L6470_S
 6358              		.loc 1 1572 27
 6359 0298 FB68     		ldr	r3, [r7, #12]
 6360 029a 9B68     		ldr	r3, [r3, #8]
 6361              		.loc 1 1572 36
 6362 029c 1B68     		ldr	r3, [r3]
 6363              		.loc 1 1572 3
 6364 029e FA68     		ldr	r2, [r7, #12]
 6365 02a0 1078     		ldrb	r0, [r2]	@ zero_extendqisi2
 6366              		.loc 1 1572 144
 6367 02a2 FA68     		ldr	r2, [r7, #12]
 6368 02a4 92F82C20 		ldrb	r2, [r2, #44]	@ zero_extendqisi2
 6369              		.loc 1 1572 3
 6370 02a8 0E21     		movs	r1, #14
 6371 02aa 9847     		blx	r3
 6372              	.LVL10:
1573:Drivers/BSP/Components/L6470/L6470.c ****   StepperMotorDriverHandle->Command->SetParam(StepperMotorDriverHandle->DaisyChainPosition, L6470_F
 6373              		.loc 1 1573 27
 6374 02ac FB68     		ldr	r3, [r7, #12]
 6375 02ae 9B68     		ldr	r3, [r3, #8]
 6376              		.loc 1 1573 36
 6377 02b0 1B68     		ldr	r3, [r3]
 6378              		.loc 1 1573 3
 6379 02b2 FA68     		ldr	r2, [r7, #12]
 6380 02b4 1078     		ldrb	r0, [r2]	@ zero_extendqisi2
 6381              		.loc 1 1573 148
 6382 02b6 FA68     		ldr	r2, [r7, #12]
 6383 02b8 92F82D20 		ldrb	r2, [r2, #45]	@ zero_extendqisi2
 6384              		.loc 1 1573 3
 6385 02bc 0F21     		movs	r1, #15
 6386 02be 9847     		blx	r3
 6387              	.LVL11:
1574:Drivers/BSP/Components/L6470/L6470.c ****   StepperMotorDriverHandle->Command->SetParam(StepperMotorDriverHandle->DaisyChainPosition, L6470_F
 6388              		.loc 1 1574 27
ARM GAS  C:\Users\ep_ygh\AppData\Local\Temp\ccsX1uNj.s 			page 147


 6389 02c0 FB68     		ldr	r3, [r7, #12]
 6390 02c2 9B68     		ldr	r3, [r3, #8]
 6391              		.loc 1 1574 36
 6392 02c4 1B68     		ldr	r3, [r3]
 6393              		.loc 1 1574 3
 6394 02c6 FA68     		ldr	r2, [r7, #12]
 6395 02c8 1078     		ldrb	r0, [r2]	@ zero_extendqisi2
 6396              		.loc 1 1574 148
 6397 02ca FA68     		ldr	r2, [r7, #12]
 6398 02cc 92F82E20 		ldrb	r2, [r2, #46]	@ zero_extendqisi2
 6399              		.loc 1 1574 3
 6400 02d0 1021     		movs	r1, #16
 6401 02d2 9847     		blx	r3
 6402              	.LVL12:
1575:Drivers/BSP/Components/L6470/L6470.c ****   StepperMotorDriverHandle->Command->SetParam(StepperMotorDriverHandle->DaisyChainPosition, L6470_K
 6403              		.loc 1 1575 27
 6404 02d4 FB68     		ldr	r3, [r7, #12]
 6405 02d6 9B68     		ldr	r3, [r3, #8]
 6406              		.loc 1 1575 36
 6407 02d8 1B68     		ldr	r3, [r3]
 6408              		.loc 1 1575 3
 6409 02da FA68     		ldr	r2, [r7, #12]
 6410 02dc 1078     		ldrb	r0, [r2]	@ zero_extendqisi2
 6411              		.loc 1 1575 145
 6412 02de FA68     		ldr	r2, [r7, #12]
 6413 02e0 92F82F20 		ldrb	r2, [r2, #47]	@ zero_extendqisi2
 6414              		.loc 1 1575 3
 6415 02e4 1121     		movs	r1, #17
 6416 02e6 9847     		blx	r3
 6417              	.LVL13:
1576:Drivers/BSP/Components/L6470/L6470.c ****   StepperMotorDriverHandle->Command->SetParam(StepperMotorDriverHandle->DaisyChainPosition, L6470_O
 6418              		.loc 1 1576 27
 6419 02e8 FB68     		ldr	r3, [r7, #12]
 6420 02ea 9B68     		ldr	r3, [r3, #8]
 6421              		.loc 1 1576 36
 6422 02ec 1B68     		ldr	r3, [r3]
 6423              		.loc 1 1576 3
 6424 02ee FA68     		ldr	r2, [r7, #12]
 6425 02f0 1078     		ldrb	r0, [r2]	@ zero_extendqisi2
 6426              		.loc 1 1576 144
 6427 02f2 FA68     		ldr	r2, [r7, #12]
 6428 02f4 92F83120 		ldrb	r2, [r2, #49]	@ zero_extendqisi2
 6429              		.loc 1 1576 3
 6430 02f8 1321     		movs	r1, #19
 6431 02fa 9847     		blx	r3
 6432              	.LVL14:
1577:Drivers/BSP/Components/L6470/L6470.c ****   StepperMotorDriverHandle->Command->SetParam(StepperMotorDriverHandle->DaisyChainPosition, L6470_S
 6433              		.loc 1 1577 27
 6434 02fc FB68     		ldr	r3, [r7, #12]
 6435 02fe 9B68     		ldr	r3, [r3, #8]
 6436              		.loc 1 1577 36
 6437 0300 1B68     		ldr	r3, [r3]
 6438              		.loc 1 1577 3
 6439 0302 FA68     		ldr	r2, [r7, #12]
 6440 0304 1078     		ldrb	r0, [r2]	@ zero_extendqisi2
 6441              		.loc 1 1577 146
 6442 0306 FA68     		ldr	r2, [r7, #12]
ARM GAS  C:\Users\ep_ygh\AppData\Local\Temp\ccsX1uNj.s 			page 148


 6443 0308 92F83220 		ldrb	r2, [r2, #50]	@ zero_extendqisi2
 6444              		.loc 1 1577 3
 6445 030c 1421     		movs	r1, #20
 6446 030e 9847     		blx	r3
 6447              	.LVL15:
1578:Drivers/BSP/Components/L6470/L6470.c ****   StepperMotorDriverHandle->Command->SetParam(StepperMotorDriverHandle->DaisyChainPosition, L6470_S
 6448              		.loc 1 1578 27
 6449 0310 FB68     		ldr	r3, [r7, #12]
 6450 0312 9B68     		ldr	r3, [r3, #8]
 6451              		.loc 1 1578 36
 6452 0314 1B68     		ldr	r3, [r3]
 6453              		.loc 1 1578 3
 6454 0316 FA68     		ldr	r2, [r7, #12]
 6455 0318 1078     		ldrb	r0, [r2]	@ zero_extendqisi2
 6456              		.loc 1 1578 147
 6457 031a FA68     		ldr	r2, [r7, #12]
 6458 031c 92F83320 		ldrb	r2, [r2, #51]	@ zero_extendqisi2
 6459              		.loc 1 1578 3
 6460 0320 1521     		movs	r1, #21
 6461 0322 9847     		blx	r3
 6462              	.LVL16:
1579:Drivers/BSP/Components/L6470/L6470.c ****   StepperMotorDriverHandle->Command->SetParam(StepperMotorDriverHandle->DaisyChainPosition, L6470_A
 6463              		.loc 1 1579 27
 6464 0324 FB68     		ldr	r3, [r7, #12]
 6465 0326 9B68     		ldr	r3, [r3, #8]
 6466              		.loc 1 1579 36
 6467 0328 1B68     		ldr	r3, [r3]
 6468 032a 01E0     		b	.L381
 6469              	.L382:
 6470              		.align	2
 6471              	.L380:
 6472 032c 00008043 		.word	1132462080
 6473              	.L381:
 6474              		.loc 1 1579 3
 6475 0330 FA68     		ldr	r2, [r7, #12]
 6476 0332 1078     		ldrb	r0, [r2]	@ zero_extendqisi2
 6477              		.loc 1 1579 146
 6478 0334 FA68     		ldr	r2, [r7, #12]
 6479 0336 92F83420 		ldrb	r2, [r2, #52]	@ zero_extendqisi2
 6480              		.loc 1 1579 3
 6481 033a 1621     		movs	r1, #22
 6482 033c 9847     		blx	r3
 6483              	.LVL17:
1580:Drivers/BSP/Components/L6470/L6470.c ****   StepperMotorDriverHandle->Command->SetParam(StepperMotorDriverHandle->DaisyChainPosition, L6470_C
 6484              		.loc 1 1580 27
 6485 033e FB68     		ldr	r3, [r7, #12]
 6486 0340 9B68     		ldr	r3, [r3, #8]
 6487              		.loc 1 1580 36
 6488 0342 1B68     		ldr	r3, [r3]
 6489              		.loc 1 1580 3
 6490 0344 FA68     		ldr	r2, [r7, #12]
 6491 0346 1078     		ldrb	r0, [r2]	@ zero_extendqisi2
 6492              		.loc 1 1580 144
 6493 0348 FA68     		ldr	r2, [r7, #12]
 6494 034a D28E     		ldrh	r2, [r2, #54]
 6495              		.loc 1 1580 3
 6496 034c 1721     		movs	r1, #23
ARM GAS  C:\Users\ep_ygh\AppData\Local\Temp\ccsX1uNj.s 			page 149


 6497 034e 9847     		blx	r3
 6498              	.LVL18:
1581:Drivers/BSP/Components/L6470/L6470.c **** }
 6499              		.loc 1 1581 1
 6500 0350 00BF     		nop
 6501 0352 1037     		adds	r7, r7, #16
 6502              	.LCFI391:
 6503              		.cfi_def_cfa_offset 8
 6504 0354 BD46     		mov	sp, r7
 6505              	.LCFI392:
 6506              		.cfi_def_cfa_register 13
 6507              		@ sp needed
 6508 0356 80BD     		pop	{r7, pc}
 6509              		.cfi_endproc
 6510              	.LFE200:
 6512              		.text
 6513              	.Letext0:
 6514              		.file 3 "c:\\programdata\\chocolatey\\lib\\gcc-arm-embedded\\tools\\gcc-arm-none-eabi-10.3-2021.10
 6515              		.file 4 "c:\\programdata\\chocolatey\\lib\\gcc-arm-embedded\\tools\\gcc-arm-none-eabi-10.3-2021.10
 6516              		.file 5 "Drivers/BSP/Components/Common/microstepping_motor.h"
 6517              		.file 6 "Drivers/BSP/Components/L6470/L6470.h"
 6518              		.file 7 "Drivers/CMSIS/Device/ST/STM32F4xx/Include/stm32f401xe.h"
 6519              		.file 8 "Drivers/STM32F4xx_HAL_Driver/Inc/stm32f4xx_hal_def.h"
 6520              		.file 9 "Drivers/STM32F4xx_HAL_Driver/Inc/stm32f4xx_hal_gpio.h"
 6521              		.file 10 "Drivers/STM32F4xx_HAL_Driver/Inc/stm32f4xx_hal_dma.h"
 6522              		.file 11 "Drivers/STM32F4xx_HAL_Driver/Inc/stm32f4xx_hal_spi.h"
 6523              		.file 12 "Drivers/BSP/X-NUCLEO-IHM02A1/NUCLEO-F401RE/xnucleoihm02a1_interface.h"
ARM GAS  C:\Users\ep_ygh\AppData\Local\Temp\ccsX1uNj.s 			page 150


DEFINED SYMBOLS
                            *ABS*:00000000 L6470.c
C:\Users\ep_ygh\AppData\Local\Temp\ccsX1uNj.s:24     .rodata.L6470_Register:00000000 L6470_Register
C:\Users\ep_ygh\AppData\Local\Temp\ccsX1uNj.s:21     .rodata.L6470_Register:00000000 $d
C:\Users\ep_ygh\AppData\Local\Temp\ccsX1uNj.s:205    .rodata.L6470_ApplicationCommand:00000000 L6470_ApplicationCommand
C:\Users\ep_ygh\AppData\Local\Temp\ccsX1uNj.s:202    .rodata.L6470_ApplicationCommand:00000000 $d
C:\Users\ep_ygh\AppData\Local\Temp\ccsX1uNj.s:290    .rodata.L6470_Direction:00000000 L6470_Direction
C:\Users\ep_ygh\AppData\Local\Temp\ccsX1uNj.s:287    .rodata.L6470_Direction:00000000 $d
C:\Users\ep_ygh\AppData\Local\Temp\ccsX1uNj.s:302    .rodata.L6470_ACT:00000000 L6470_ACT
C:\Users\ep_ygh\AppData\Local\Temp\ccsX1uNj.s:299    .rodata.L6470_ACT:00000000 $d
C:\Users\ep_ygh\AppData\Local\Temp\ccsX1uNj.s:312    .data.L6470Command:00000000 L6470Command
C:\Users\ep_ygh\AppData\Local\Temp\ccsX1uNj.s:309    .data.L6470Command:00000000 $d
C:\Users\ep_ygh\AppData\Local\Temp\ccsX1uNj.s:3125   .text.L6470_SetParam:00000000 L6470_SetParam
C:\Users\ep_ygh\AppData\Local\Temp\ccsX1uNj.s:3192   .text.L6470_GetParam:00000000 L6470_GetParam
C:\Users\ep_ygh\AppData\Local\Temp\ccsX1uNj.s:3280   .text.L6470_Run:00000000 L6470_Run
C:\Users\ep_ygh\AppData\Local\Temp\ccsX1uNj.s:3347   .text.L6470_StepClock:00000000 L6470_StepClock
C:\Users\ep_ygh\AppData\Local\Temp\ccsX1uNj.s:3413   .text.L6470_Move:00000000 L6470_Move
C:\Users\ep_ygh\AppData\Local\Temp\ccsX1uNj.s:3480   .text.L6470_GoTo:00000000 L6470_GoTo
C:\Users\ep_ygh\AppData\Local\Temp\ccsX1uNj.s:3549   .text.L6470_GoToDir:00000000 L6470_GoToDir
C:\Users\ep_ygh\AppData\Local\Temp\ccsX1uNj.s:3621   .text.L6470_GoUntil:00000000 L6470_GoUntil
C:\Users\ep_ygh\AppData\Local\Temp\ccsX1uNj.s:3690   .text.L6470_ReleaseSW:00000000 L6470_ReleaseSW
C:\Users\ep_ygh\AppData\Local\Temp\ccsX1uNj.s:3758   .text.L6470_GoHome:00000000 L6470_GoHome
C:\Users\ep_ygh\AppData\Local\Temp\ccsX1uNj.s:3821   .text.L6470_GoMark:00000000 L6470_GoMark
C:\Users\ep_ygh\AppData\Local\Temp\ccsX1uNj.s:3884   .text.L6470_ResetPos:00000000 L6470_ResetPos
C:\Users\ep_ygh\AppData\Local\Temp\ccsX1uNj.s:3947   .text.L6470_ResetDevice:00000000 L6470_ResetDevice
C:\Users\ep_ygh\AppData\Local\Temp\ccsX1uNj.s:4010   .text.L6470_SoftStop:00000000 L6470_SoftStop
C:\Users\ep_ygh\AppData\Local\Temp\ccsX1uNj.s:4073   .text.L6470_HardStop:00000000 L6470_HardStop
C:\Users\ep_ygh\AppData\Local\Temp\ccsX1uNj.s:4136   .text.L6470_SoftHiZ:00000000 L6470_SoftHiZ
C:\Users\ep_ygh\AppData\Local\Temp\ccsX1uNj.s:4199   .text.L6470_HardHiZ:00000000 L6470_HardHiZ
C:\Users\ep_ygh\AppData\Local\Temp\ccsX1uNj.s:4262   .text.L6470_GetStatus:00000000 L6470_GetStatus
C:\Users\ep_ygh\AppData\Local\Temp\ccsX1uNj.s:4336   .text.L6470_PrepareSetParam:00000000 L6470_PrepareSetParam
C:\Users\ep_ygh\AppData\Local\Temp\ccsX1uNj.s:4393   .text.L6470_PrepareGetParam:00000000 L6470_PrepareGetParam
C:\Users\ep_ygh\AppData\Local\Temp\ccsX1uNj.s:4449   .text.L6470_PrepareRun:00000000 L6470_PrepareRun
C:\Users\ep_ygh\AppData\Local\Temp\ccsX1uNj.s:4506   .text.L6470_PrepareStepClock:00000000 L6470_PrepareStepClock
C:\Users\ep_ygh\AppData\Local\Temp\ccsX1uNj.s:4562   .text.L6470_PrepareMove:00000000 L6470_PrepareMove
C:\Users\ep_ygh\AppData\Local\Temp\ccsX1uNj.s:4619   .text.L6470_PrepareGoTo:00000000 L6470_PrepareGoTo
C:\Users\ep_ygh\AppData\Local\Temp\ccsX1uNj.s:4673   .text.L6470_PrepareGoToDir:00000000 L6470_PrepareGoToDir
C:\Users\ep_ygh\AppData\Local\Temp\ccsX1uNj.s:4730   .text.L6470_PrepareGoUntil:00000000 L6470_PrepareGoUntil
C:\Users\ep_ygh\AppData\Local\Temp\ccsX1uNj.s:4789   .text.L6470_PrepareReleaseSW:00000000 L6470_PrepareReleaseSW
C:\Users\ep_ygh\AppData\Local\Temp\ccsX1uNj.s:4847   .text.L6470_PrepareGoHome:00000000 L6470_PrepareGoHome
C:\Users\ep_ygh\AppData\Local\Temp\ccsX1uNj.s:4900   .text.L6470_PrepareGoMark:00000000 L6470_PrepareGoMark
C:\Users\ep_ygh\AppData\Local\Temp\ccsX1uNj.s:4953   .text.L6470_PrepareResetPos:00000000 L6470_PrepareResetPos
C:\Users\ep_ygh\AppData\Local\Temp\ccsX1uNj.s:5006   .text.L6470_PrepareResetDevice:00000000 L6470_PrepareResetDevice
C:\Users\ep_ygh\AppData\Local\Temp\ccsX1uNj.s:5059   .text.L6470_PrepareSoftStop:00000000 L6470_PrepareSoftStop
C:\Users\ep_ygh\AppData\Local\Temp\ccsX1uNj.s:5112   .text.L6470_PrepareHardStop:00000000 L6470_PrepareHardStop
C:\Users\ep_ygh\AppData\Local\Temp\ccsX1uNj.s:5165   .text.L6470_PrepareSoftHiZ:00000000 L6470_PrepareSoftHiZ
C:\Users\ep_ygh\AppData\Local\Temp\ccsX1uNj.s:5218   .text.L6470_PrepareHardHiZ:00000000 L6470_PrepareHardHiZ
C:\Users\ep_ygh\AppData\Local\Temp\ccsX1uNj.s:5271   .text.L6470_PrepareGetStatus:00000000 L6470_PrepareGetStatus
C:\Users\ep_ygh\AppData\Local\Temp\ccsX1uNj.s:5655   .text.L6470_CheckStatusRegisterFlag:00000000 L6470_CheckStatusRegisterFlag
C:\Users\ep_ygh\AppData\Local\Temp\ccsX1uNj.s:355    .bss.L6470_AppCmdPkg:00000000 L6470_AppCmdPkg
C:\Users\ep_ygh\AppData\Local\Temp\ccsX1uNj.s:352    .bss.L6470_AppCmdPkg:00000000 $d
C:\Users\ep_ygh\AppData\Local\Temp\ccsX1uNj.s:362    .bss.L6470_DaisyChainSpiTxStruct:00000000 L6470_DaisyChainSpiTxStruct
C:\Users\ep_ygh\AppData\Local\Temp\ccsX1uNj.s:359    .bss.L6470_DaisyChainSpiTxStruct:00000000 $d
C:\Users\ep_ygh\AppData\Local\Temp\ccsX1uNj.s:369    .bss.L6470_DaisyChainSpiRxStruct:00000000 L6470_DaisyChainSpiRxStruct
C:\Users\ep_ygh\AppData\Local\Temp\ccsX1uNj.s:366    .bss.L6470_DaisyChainSpiRxStruct:00000000 $d
C:\Users\ep_ygh\AppData\Local\Temp\ccsX1uNj.s:375    .bss.L6470_DaisyChain_HalfPrepared:00000000 L6470_DaisyChain_HalfPrepared
C:\Users\ep_ygh\AppData\Local\Temp\ccsX1uNj.s:376    .bss.L6470_DaisyChain_HalfPrepared:00000000 $d
ARM GAS  C:\Users\ep_ygh\AppData\Local\Temp\ccsX1uNj.s 			page 151


C:\Users\ep_ygh\AppData\Local\Temp\ccsX1uNj.s:382    .bss.L6470_StatusRegister:00000000 L6470_StatusRegister
C:\Users\ep_ygh\AppData\Local\Temp\ccsX1uNj.s:379    .bss.L6470_StatusRegister:00000000 $d
C:\Users\ep_ygh\AppData\Local\Temp\ccsX1uNj.s:389    .data.pL6470_StatusRegister:00000000 pL6470_StatusRegister
C:\Users\ep_ygh\AppData\Local\Temp\ccsX1uNj.s:386    .data.pL6470_StatusRegister:00000000 $d
C:\Users\ep_ygh\AppData\Local\Temp\ccsX1uNj.s:395    .bss.delay_cnt:00000000 delay_cnt
C:\Users\ep_ygh\AppData\Local\Temp\ccsX1uNj.s:396    .bss.delay_cnt:00000000 $d
C:\Users\ep_ygh\AppData\Local\Temp\ccsX1uNj.s:398    .text.L6470_ResetAppCmdPkg:00000000 $t
C:\Users\ep_ygh\AppData\Local\Temp\ccsX1uNj.s:404    .text.L6470_ResetAppCmdPkg:00000000 L6470_ResetAppCmdPkg
C:\Users\ep_ygh\AppData\Local\Temp\ccsX1uNj.s:489    .text.L6470_FillAppCmdPkg:00000000 $t
C:\Users\ep_ygh\AppData\Local\Temp\ccsX1uNj.s:495    .text.L6470_FillAppCmdPkg:00000000 L6470_FillAppCmdPkg
C:\Users\ep_ygh\AppData\Local\Temp\ccsX1uNj.s:568    .text.L6470_PrepareAppCmdPkg:00000000 $t
C:\Users\ep_ygh\AppData\Local\Temp\ccsX1uNj.s:574    .text.L6470_PrepareAppCmdPkg:00000000 L6470_PrepareAppCmdPkg
C:\Users\ep_ygh\AppData\Local\Temp\ccsX1uNj.s:634    .text.L6470_PrepareAppCmdPkg:00000044 $d
C:\Users\ep_ygh\AppData\Local\Temp\ccsX1uNj.s:639    .text.L6470_PrepareDaisyChainCommand:00000000 $t
C:\Users\ep_ygh\AppData\Local\Temp\ccsX1uNj.s:645    .text.L6470_PrepareDaisyChainCommand:00000000 L6470_PrepareDaisyChainCommand
C:\Users\ep_ygh\AppData\Local\Temp\ccsX1uNj.s:752    .text.L6470_PrepareDaisyChainCommand:00000084 $d
C:\Users\ep_ygh\AppData\Local\Temp\ccsX1uNj.s:771    .text.L6470_PrepareDaisyChainCommand:000000d0 $t
C:\Users\ep_ygh\AppData\Local\Temp\ccsX1uNj.s:1152   .text.L6470_PrepareDaisyChainCommand:000002f0 $d
C:\Users\ep_ygh\AppData\Local\Temp\ccsX1uNj.s:1157   .text.L6470_PrepareDaisyChainCommand:000002fc $t
C:\Users\ep_ygh\AppData\Local\Temp\ccsX1uNj.s:1390   .text.L6470_PrepareDaisyChainCommand:0000044c $d
C:\Users\ep_ygh\AppData\Local\Temp\ccsX1uNj.s:1396   .text.AbsPos_2_Position:00000000 $t
C:\Users\ep_ygh\AppData\Local\Temp\ccsX1uNj.s:1402   .text.AbsPos_2_Position:00000000 AbsPos_2_Position
C:\Users\ep_ygh\AppData\Local\Temp\ccsX1uNj.s:1450   .text.Position_2_AbsPos:00000000 $t
C:\Users\ep_ygh\AppData\Local\Temp\ccsX1uNj.s:1456   .text.Position_2_AbsPos:00000000 Position_2_AbsPos
C:\Users\ep_ygh\AppData\Local\Temp\ccsX1uNj.s:1520   .text.Speed_2_Step_s:00000000 $t
C:\Users\ep_ygh\AppData\Local\Temp\ccsX1uNj.s:1526   .text.Speed_2_Step_s:00000000 Speed_2_Step_s
C:\Users\ep_ygh\AppData\Local\Temp\ccsX1uNj.s:1567   .text.Speed_2_Step_s:00000028 $d
C:\Users\ep_ygh\AppData\Local\Temp\ccsX1uNj.s:1572   .text.Step_s_2_Speed:00000000 $t
C:\Users\ep_ygh\AppData\Local\Temp\ccsX1uNj.s:1578   .text.Step_s_2_Speed:00000000 Step_s_2_Speed
C:\Users\ep_ygh\AppData\Local\Temp\ccsX1uNj.s:1631   .text.Step_s_2_Speed:00000040 $d
C:\Users\ep_ygh\AppData\Local\Temp\ccsX1uNj.s:1637   .text.Acc_2_Step_s2:00000000 $t
C:\Users\ep_ygh\AppData\Local\Temp\ccsX1uNj.s:1643   .text.Acc_2_Step_s2:00000000 Acc_2_Step_s2
C:\Users\ep_ygh\AppData\Local\Temp\ccsX1uNj.s:1694   .text.Acc_2_Step_s2:00000038 $d
C:\Users\ep_ygh\AppData\Local\Temp\ccsX1uNj.s:1700   .text.Step_s2_2_Acc:00000000 $t
C:\Users\ep_ygh\AppData\Local\Temp\ccsX1uNj.s:1706   .text.Step_s2_2_Acc:00000000 Step_s2_2_Acc
C:\Users\ep_ygh\AppData\Local\Temp\ccsX1uNj.s:1760   .text.Step_s2_2_Acc:00000044 $d
C:\Users\ep_ygh\AppData\Local\Temp\ccsX1uNj.s:1766   .text.Dec_2_Step_s2:00000000 $t
C:\Users\ep_ygh\AppData\Local\Temp\ccsX1uNj.s:1772   .text.Dec_2_Step_s2:00000000 Dec_2_Step_s2
C:\Users\ep_ygh\AppData\Local\Temp\ccsX1uNj.s:1823   .text.Dec_2_Step_s2:00000038 $d
C:\Users\ep_ygh\AppData\Local\Temp\ccsX1uNj.s:1829   .text.Step_s2_2_Dec:00000000 $t
C:\Users\ep_ygh\AppData\Local\Temp\ccsX1uNj.s:1835   .text.Step_s2_2_Dec:00000000 Step_s2_2_Dec
C:\Users\ep_ygh\AppData\Local\Temp\ccsX1uNj.s:1889   .text.Step_s2_2_Dec:00000044 $d
C:\Users\ep_ygh\AppData\Local\Temp\ccsX1uNj.s:1895   .text.MaxSpeed_2_Step_s:00000000 $t
C:\Users\ep_ygh\AppData\Local\Temp\ccsX1uNj.s:1901   .text.MaxSpeed_2_Step_s:00000000 MaxSpeed_2_Step_s
C:\Users\ep_ygh\AppData\Local\Temp\ccsX1uNj.s:1952   .text.MaxSpeed_2_Step_s:00000038 $d
C:\Users\ep_ygh\AppData\Local\Temp\ccsX1uNj.s:1958   .text.Step_s_2_MaxSpeed:00000000 $t
C:\Users\ep_ygh\AppData\Local\Temp\ccsX1uNj.s:1964   .text.Step_s_2_MaxSpeed:00000000 Step_s_2_MaxSpeed
C:\Users\ep_ygh\AppData\Local\Temp\ccsX1uNj.s:2018   .text.Step_s_2_MaxSpeed:00000044 $d
C:\Users\ep_ygh\AppData\Local\Temp\ccsX1uNj.s:2024   .text.MinSpeed_2_Step_s:00000000 $t
C:\Users\ep_ygh\AppData\Local\Temp\ccsX1uNj.s:2030   .text.MinSpeed_2_Step_s:00000000 MinSpeed_2_Step_s
C:\Users\ep_ygh\AppData\Local\Temp\ccsX1uNj.s:2081   .text.MinSpeed_2_Step_s:00000038 $d
C:\Users\ep_ygh\AppData\Local\Temp\ccsX1uNj.s:2087   .text.Step_s_2_MinSpeed:00000000 $t
C:\Users\ep_ygh\AppData\Local\Temp\ccsX1uNj.s:2093   .text.Step_s_2_MinSpeed:00000000 Step_s_2_MinSpeed
C:\Users\ep_ygh\AppData\Local\Temp\ccsX1uNj.s:2147   .text.Step_s_2_MinSpeed:00000044 $d
C:\Users\ep_ygh\AppData\Local\Temp\ccsX1uNj.s:2157   .text.FsSpd_2_Step_s:00000000 $t
C:\Users\ep_ygh\AppData\Local\Temp\ccsX1uNj.s:2163   .text.FsSpd_2_Step_s:00000000 FsSpd_2_Step_s
C:\Users\ep_ygh\AppData\Local\Temp\ccsX1uNj.s:2226   .text.FsSpd_2_Step_s:00000058 $d
ARM GAS  C:\Users\ep_ygh\AppData\Local\Temp\ccsX1uNj.s 			page 152


C:\Users\ep_ygh\AppData\Local\Temp\ccsX1uNj.s:2232   .text.Step_s_2_FsSpd:00000000 $t
C:\Users\ep_ygh\AppData\Local\Temp\ccsX1uNj.s:2238   .text.Step_s_2_FsSpd:00000000 Step_s_2_FsSpd
C:\Users\ep_ygh\AppData\Local\Temp\ccsX1uNj.s:2295   .text.Step_s_2_FsSpd:0000004c $d
C:\Users\ep_ygh\AppData\Local\Temp\ccsX1uNj.s:2301   .text.IntSpeed_2_Step_s:00000000 $t
C:\Users\ep_ygh\AppData\Local\Temp\ccsX1uNj.s:2307   .text.IntSpeed_2_Step_s:00000000 IntSpeed_2_Step_s
C:\Users\ep_ygh\AppData\Local\Temp\ccsX1uNj.s:2358   .text.IntSpeed_2_Step_s:00000038 $d
C:\Users\ep_ygh\AppData\Local\Temp\ccsX1uNj.s:2364   .text.Step_s_2_IntSpeed:00000000 $t
C:\Users\ep_ygh\AppData\Local\Temp\ccsX1uNj.s:2370   .text.Step_s_2_IntSpeed:00000000 Step_s_2_IntSpeed
C:\Users\ep_ygh\AppData\Local\Temp\ccsX1uNj.s:2424   .text.Step_s_2_IntSpeed:00000044 $d
C:\Users\ep_ygh\AppData\Local\Temp\ccsX1uNj.s:2430   .text.StSlp_2_s_Step:00000000 $t
C:\Users\ep_ygh\AppData\Local\Temp\ccsX1uNj.s:2436   .text.StSlp_2_s_Step:00000000 StSlp_2_s_Step
C:\Users\ep_ygh\AppData\Local\Temp\ccsX1uNj.s:2478   .text.StSlp_2_s_Step:0000002c $d
C:\Users\ep_ygh\AppData\Local\Temp\ccsX1uNj.s:2483   .text.s_Step_2_StSlp:00000000 $t
C:\Users\ep_ygh\AppData\Local\Temp\ccsX1uNj.s:2489   .text.s_Step_2_StSlp:00000000 s_Step_2_StSlp
C:\Users\ep_ygh\AppData\Local\Temp\ccsX1uNj.s:2544   .text.s_Step_2_StSlp:00000044 $d
C:\Users\ep_ygh\AppData\Local\Temp\ccsX1uNj.s:2550   .text.FnSlpAcc_2_s_Step:00000000 $t
C:\Users\ep_ygh\AppData\Local\Temp\ccsX1uNj.s:2556   .text.FnSlpAcc_2_s_Step:00000000 FnSlpAcc_2_s_Step
C:\Users\ep_ygh\AppData\Local\Temp\ccsX1uNj.s:2598   .text.FnSlpAcc_2_s_Step:0000002c $d
C:\Users\ep_ygh\AppData\Local\Temp\ccsX1uNj.s:2603   .text.s_Step_2_FnSlpAcc:00000000 $t
C:\Users\ep_ygh\AppData\Local\Temp\ccsX1uNj.s:2609   .text.s_Step_2_FnSlpAcc:00000000 s_Step_2_FnSlpAcc
C:\Users\ep_ygh\AppData\Local\Temp\ccsX1uNj.s:2664   .text.s_Step_2_FnSlpAcc:00000044 $d
C:\Users\ep_ygh\AppData\Local\Temp\ccsX1uNj.s:2670   .text.FnSlpDec_2_s_Step:00000000 $t
C:\Users\ep_ygh\AppData\Local\Temp\ccsX1uNj.s:2676   .text.FnSlpDec_2_s_Step:00000000 FnSlpDec_2_s_Step
C:\Users\ep_ygh\AppData\Local\Temp\ccsX1uNj.s:2718   .text.FnSlpDec_2_s_Step:0000002c $d
C:\Users\ep_ygh\AppData\Local\Temp\ccsX1uNj.s:2723   .text.s_Step_2_FnSlpDec:00000000 $t
C:\Users\ep_ygh\AppData\Local\Temp\ccsX1uNj.s:2729   .text.s_Step_2_FnSlpDec:00000000 s_Step_2_FnSlpDec
C:\Users\ep_ygh\AppData\Local\Temp\ccsX1uNj.s:2784   .text.s_Step_2_FnSlpDec:00000044 $d
C:\Users\ep_ygh\AppData\Local\Temp\ccsX1uNj.s:2790   .text.OcdTh_2_mA:00000000 $t
C:\Users\ep_ygh\AppData\Local\Temp\ccsX1uNj.s:2796   .text.OcdTh_2_mA:00000000 OcdTh_2_mA
C:\Users\ep_ygh\AppData\Local\Temp\ccsX1uNj.s:2849   .text.OcdTh_2_mA:00000038 $d
C:\Users\ep_ygh\AppData\Local\Temp\ccsX1uNj.s:2855   .text.mA_2_OcdTh:00000000 $t
C:\Users\ep_ygh\AppData\Local\Temp\ccsX1uNj.s:2861   .text.mA_2_OcdTh:00000000 mA_2_OcdTh
C:\Users\ep_ygh\AppData\Local\Temp\ccsX1uNj.s:2948   .text.mA_2_OcdTh:00000098 $d
C:\Users\ep_ygh\AppData\Local\Temp\ccsX1uNj.s:2954   .text.StallTh_2_mA:00000000 $t
C:\Users\ep_ygh\AppData\Local\Temp\ccsX1uNj.s:2960   .text.StallTh_2_mA:00000000 StallTh_2_mA
C:\Users\ep_ygh\AppData\Local\Temp\ccsX1uNj.s:3014   .text.StallTh_2_mA:0000003c $d
C:\Users\ep_ygh\AppData\Local\Temp\ccsX1uNj.s:3020   .text.mA_2_StallTh:00000000 $t
C:\Users\ep_ygh\AppData\Local\Temp\ccsX1uNj.s:3026   .text.mA_2_StallTh:00000000 mA_2_StallTh
C:\Users\ep_ygh\AppData\Local\Temp\ccsX1uNj.s:3113   .text.mA_2_StallTh:00000098 $d
C:\Users\ep_ygh\AppData\Local\Temp\ccsX1uNj.s:3119   .text.L6470_SetParam:00000000 $t
C:\Users\ep_ygh\AppData\Local\Temp\ccsX1uNj.s:5430   .text.L6470_DaisyChainCommand:00000000 L6470_DaisyChainCommand
C:\Users\ep_ygh\AppData\Local\Temp\ccsX1uNj.s:3179   .text.L6470_SetParam:00000040 $d
C:\Users\ep_ygh\AppData\Local\Temp\ccsX1uNj.s:3186   .text.L6470_GetParam:00000000 $t
C:\Users\ep_ygh\AppData\Local\Temp\ccsX1uNj.s:5564   .text.L6470_ExtractReturnedData:00000000 L6470_ExtractReturnedData
C:\Users\ep_ygh\AppData\Local\Temp\ccsX1uNj.s:3266   .text.L6470_GetParam:00000060 $d
C:\Users\ep_ygh\AppData\Local\Temp\ccsX1uNj.s:3274   .text.L6470_Run:00000000 $t
C:\Users\ep_ygh\AppData\Local\Temp\ccsX1uNj.s:3334   .text.L6470_Run:00000040 $d
C:\Users\ep_ygh\AppData\Local\Temp\ccsX1uNj.s:3341   .text.L6470_StepClock:00000000 $t
C:\Users\ep_ygh\AppData\Local\Temp\ccsX1uNj.s:3400   .text.L6470_StepClock:0000003c $d
C:\Users\ep_ygh\AppData\Local\Temp\ccsX1uNj.s:3407   .text.L6470_Move:00000000 $t
C:\Users\ep_ygh\AppData\Local\Temp\ccsX1uNj.s:3467   .text.L6470_Move:00000040 $d
C:\Users\ep_ygh\AppData\Local\Temp\ccsX1uNj.s:3474   .text.L6470_GoTo:00000000 $t
C:\Users\ep_ygh\AppData\Local\Temp\ccsX1uNj.s:3536   .text.L6470_GoTo:00000040 $d
C:\Users\ep_ygh\AppData\Local\Temp\ccsX1uNj.s:3543   .text.L6470_GoToDir:00000000 $t
C:\Users\ep_ygh\AppData\Local\Temp\ccsX1uNj.s:3608   .text.L6470_GoToDir:00000048 $d
C:\Users\ep_ygh\AppData\Local\Temp\ccsX1uNj.s:3615   .text.L6470_GoUntil:00000000 $t
C:\Users\ep_ygh\AppData\Local\Temp\ccsX1uNj.s:3677   .text.L6470_GoUntil:00000044 $d
ARM GAS  C:\Users\ep_ygh\AppData\Local\Temp\ccsX1uNj.s 			page 153


C:\Users\ep_ygh\AppData\Local\Temp\ccsX1uNj.s:3684   .text.L6470_ReleaseSW:00000000 $t
C:\Users\ep_ygh\AppData\Local\Temp\ccsX1uNj.s:3745   .text.L6470_ReleaseSW:00000040 $d
C:\Users\ep_ygh\AppData\Local\Temp\ccsX1uNj.s:3752   .text.L6470_GoHome:00000000 $t
C:\Users\ep_ygh\AppData\Local\Temp\ccsX1uNj.s:3808   .text.L6470_GoHome:00000038 $d
C:\Users\ep_ygh\AppData\Local\Temp\ccsX1uNj.s:3815   .text.L6470_GoMark:00000000 $t
C:\Users\ep_ygh\AppData\Local\Temp\ccsX1uNj.s:3871   .text.L6470_GoMark:00000038 $d
C:\Users\ep_ygh\AppData\Local\Temp\ccsX1uNj.s:3878   .text.L6470_ResetPos:00000000 $t
C:\Users\ep_ygh\AppData\Local\Temp\ccsX1uNj.s:3934   .text.L6470_ResetPos:00000038 $d
C:\Users\ep_ygh\AppData\Local\Temp\ccsX1uNj.s:3941   .text.L6470_ResetDevice:00000000 $t
C:\Users\ep_ygh\AppData\Local\Temp\ccsX1uNj.s:3997   .text.L6470_ResetDevice:00000038 $d
C:\Users\ep_ygh\AppData\Local\Temp\ccsX1uNj.s:4004   .text.L6470_SoftStop:00000000 $t
C:\Users\ep_ygh\AppData\Local\Temp\ccsX1uNj.s:4060   .text.L6470_SoftStop:00000038 $d
C:\Users\ep_ygh\AppData\Local\Temp\ccsX1uNj.s:4067   .text.L6470_HardStop:00000000 $t
C:\Users\ep_ygh\AppData\Local\Temp\ccsX1uNj.s:4123   .text.L6470_HardStop:00000038 $d
C:\Users\ep_ygh\AppData\Local\Temp\ccsX1uNj.s:4130   .text.L6470_SoftHiZ:00000000 $t
C:\Users\ep_ygh\AppData\Local\Temp\ccsX1uNj.s:4186   .text.L6470_SoftHiZ:00000038 $d
C:\Users\ep_ygh\AppData\Local\Temp\ccsX1uNj.s:4193   .text.L6470_HardHiZ:00000000 $t
C:\Users\ep_ygh\AppData\Local\Temp\ccsX1uNj.s:4249   .text.L6470_HardHiZ:00000038 $d
C:\Users\ep_ygh\AppData\Local\Temp\ccsX1uNj.s:4256   .text.L6470_GetStatus:00000000 $t
C:\Users\ep_ygh\AppData\Local\Temp\ccsX1uNj.s:4323   .text.L6470_GetStatus:00000048 $d
C:\Users\ep_ygh\AppData\Local\Temp\ccsX1uNj.s:4330   .text.L6470_PrepareSetParam:00000000 $t
C:\Users\ep_ygh\AppData\Local\Temp\ccsX1uNj.s:4382   .text.L6470_PrepareSetParam:00000030 $d
C:\Users\ep_ygh\AppData\Local\Temp\ccsX1uNj.s:4387   .text.L6470_PrepareGetParam:00000000 $t
C:\Users\ep_ygh\AppData\Local\Temp\ccsX1uNj.s:4438   .text.L6470_PrepareGetParam:0000002c $d
C:\Users\ep_ygh\AppData\Local\Temp\ccsX1uNj.s:4443   .text.L6470_PrepareRun:00000000 $t
C:\Users\ep_ygh\AppData\Local\Temp\ccsX1uNj.s:4495   .text.L6470_PrepareRun:00000030 $d
C:\Users\ep_ygh\AppData\Local\Temp\ccsX1uNj.s:4500   .text.L6470_PrepareStepClock:00000000 $t
C:\Users\ep_ygh\AppData\Local\Temp\ccsX1uNj.s:4551   .text.L6470_PrepareStepClock:0000002c $d
C:\Users\ep_ygh\AppData\Local\Temp\ccsX1uNj.s:4556   .text.L6470_PrepareMove:00000000 $t
C:\Users\ep_ygh\AppData\Local\Temp\ccsX1uNj.s:4608   .text.L6470_PrepareMove:00000030 $d
C:\Users\ep_ygh\AppData\Local\Temp\ccsX1uNj.s:4613   .text.L6470_PrepareGoTo:00000000 $t
C:\Users\ep_ygh\AppData\Local\Temp\ccsX1uNj.s:4662   .text.L6470_PrepareGoTo:00000028 $d
C:\Users\ep_ygh\AppData\Local\Temp\ccsX1uNj.s:4667   .text.L6470_PrepareGoToDir:00000000 $t
C:\Users\ep_ygh\AppData\Local\Temp\ccsX1uNj.s:4719   .text.L6470_PrepareGoToDir:00000030 $d
C:\Users\ep_ygh\AppData\Local\Temp\ccsX1uNj.s:4724   .text.L6470_PrepareGoUntil:00000000 $t
C:\Users\ep_ygh\AppData\Local\Temp\ccsX1uNj.s:4778   .text.L6470_PrepareGoUntil:00000034 $d
C:\Users\ep_ygh\AppData\Local\Temp\ccsX1uNj.s:4783   .text.L6470_PrepareReleaseSW:00000000 $t
C:\Users\ep_ygh\AppData\Local\Temp\ccsX1uNj.s:4836   .text.L6470_PrepareReleaseSW:00000030 $d
C:\Users\ep_ygh\AppData\Local\Temp\ccsX1uNj.s:4841   .text.L6470_PrepareGoHome:00000000 $t
C:\Users\ep_ygh\AppData\Local\Temp\ccsX1uNj.s:4889   .text.L6470_PrepareGoHome:00000028 $d
C:\Users\ep_ygh\AppData\Local\Temp\ccsX1uNj.s:4894   .text.L6470_PrepareGoMark:00000000 $t
C:\Users\ep_ygh\AppData\Local\Temp\ccsX1uNj.s:4942   .text.L6470_PrepareGoMark:00000028 $d
C:\Users\ep_ygh\AppData\Local\Temp\ccsX1uNj.s:4947   .text.L6470_PrepareResetPos:00000000 $t
C:\Users\ep_ygh\AppData\Local\Temp\ccsX1uNj.s:4995   .text.L6470_PrepareResetPos:00000028 $d
C:\Users\ep_ygh\AppData\Local\Temp\ccsX1uNj.s:5000   .text.L6470_PrepareResetDevice:00000000 $t
C:\Users\ep_ygh\AppData\Local\Temp\ccsX1uNj.s:5048   .text.L6470_PrepareResetDevice:00000028 $d
C:\Users\ep_ygh\AppData\Local\Temp\ccsX1uNj.s:5053   .text.L6470_PrepareSoftStop:00000000 $t
C:\Users\ep_ygh\AppData\Local\Temp\ccsX1uNj.s:5101   .text.L6470_PrepareSoftStop:00000028 $d
C:\Users\ep_ygh\AppData\Local\Temp\ccsX1uNj.s:5106   .text.L6470_PrepareHardStop:00000000 $t
C:\Users\ep_ygh\AppData\Local\Temp\ccsX1uNj.s:5154   .text.L6470_PrepareHardStop:00000028 $d
C:\Users\ep_ygh\AppData\Local\Temp\ccsX1uNj.s:5159   .text.L6470_PrepareSoftHiZ:00000000 $t
C:\Users\ep_ygh\AppData\Local\Temp\ccsX1uNj.s:5207   .text.L6470_PrepareSoftHiZ:00000028 $d
C:\Users\ep_ygh\AppData\Local\Temp\ccsX1uNj.s:5212   .text.L6470_PrepareHardHiZ:00000000 $t
C:\Users\ep_ygh\AppData\Local\Temp\ccsX1uNj.s:5260   .text.L6470_PrepareHardHiZ:00000028 $d
C:\Users\ep_ygh\AppData\Local\Temp\ccsX1uNj.s:5265   .text.L6470_PrepareGetStatus:00000000 $t
C:\Users\ep_ygh\AppData\Local\Temp\ccsX1uNj.s:5313   .text.L6470_PrepareGetStatus:00000028 $d
C:\Users\ep_ygh\AppData\Local\Temp\ccsX1uNj.s:5318   .text.L6470_PerformPreparedApplicationCommand:00000000 $t
ARM GAS  C:\Users\ep_ygh\AppData\Local\Temp\ccsX1uNj.s 			page 154


C:\Users\ep_ygh\AppData\Local\Temp\ccsX1uNj.s:5324   .text.L6470_PerformPreparedApplicationCommand:00000000 L6470_PerformPreparedApplicationCommand
C:\Users\ep_ygh\AppData\Local\Temp\ccsX1uNj.s:5354   .text.L6470_PerformPreparedApplicationCommand:0000001c $d
C:\Users\ep_ygh\AppData\Local\Temp\ccsX1uNj.s:5361   .text.L6470_ID:00000000 $t
C:\Users\ep_ygh\AppData\Local\Temp\ccsX1uNj.s:5367   .text.L6470_ID:00000000 L6470_ID
C:\Users\ep_ygh\AppData\Local\Temp\ccsX1uNj.s:5424   .text.L6470_DaisyChainCommand:00000000 $t
C:\Users\ep_ygh\AppData\Local\Temp\ccsX1uNj.s:5550   .text.L6470_DaisyChainCommand:0000008c $d
C:\Users\ep_ygh\AppData\Local\Temp\ccsX1uNj.s:5558   .text.L6470_ExtractReturnedData:00000000 $t
C:\Users\ep_ygh\AppData\Local\Temp\ccsX1uNj.s:5649   .text.L6470_CheckStatusRegisterFlag:00000000 $t
C:\Users\ep_ygh\AppData\Local\Temp\ccsX1uNj.s:5700   .text.L6470_CheckStatusRegisterFlag:00000038 $d
C:\Users\ep_ygh\AppData\Local\Temp\ccsX1uNj.s:5715   .text.L6470_CheckStatusRegisterFlag:00000074 $t
C:\Users\ep_ygh\AppData\Local\Temp\ccsX1uNj.s:5897   .text.L6470_CheckStatusRegisterFlag:00000170 $d
C:\Users\ep_ygh\AppData\Local\Temp\ccsX1uNj.s:5902   .rodata:00000000 $d
C:\Users\ep_ygh\AppData\Local\Temp\ccsX1uNj.s:5906   .text.L6470_GetRegisterName:00000000 $t
C:\Users\ep_ygh\AppData\Local\Temp\ccsX1uNj.s:5912   .text.L6470_GetRegisterName:00000000 L6470_GetRegisterName
C:\Users\ep_ygh\AppData\Local\Temp\ccsX1uNj.s:5967   .text.L6470_GetRegisterName:00000030 $d
C:\Users\ep_ygh\AppData\Local\Temp\ccsX1uNj.s:5973   .text.L6470_Config:00000000 $t
C:\Users\ep_ygh\AppData\Local\Temp\ccsX1uNj.s:5979   .text.L6470_Config:00000000 L6470_Config
C:\Users\ep_ygh\AppData\Local\Temp\ccsX1uNj.s:6472   .text.L6470_Config:0000032c $d
C:\Users\ep_ygh\AppData\Local\Temp\ccsX1uNj.s:6475   .text.L6470_Config:00000330 $t

UNDEFINED SYMBOLS
__aeabi_i2d
__aeabi_dadd
__aeabi_dmul
__aeabi_d2f
HAL_GPIO_WritePin
HAL_SPI_TransmitReceive
L6470_nCS_GPIO
hspi1
