ARM GAS  C:\Users\ep_ygh\AppData\Local\Temp\cc2Mv85j.s 			page 1


   1              		.cpu cortex-m4
   2              		.arch armv7e-m
   3              		.fpu fpv4-sp-d16
   4              		.eabi_attribute 27, 1
   5              		.eabi_attribute 28, 1
   6              		.eabi_attribute 20, 1
   7              		.eabi_attribute 21, 1
   8              		.eabi_attribute 23, 3
   9              		.eabi_attribute 24, 1
  10              		.eabi_attribute 25, 1
  11              		.eabi_attribute 26, 1
  12              		.eabi_attribute 30, 6
  13              		.eabi_attribute 34, 1
  14              		.eabi_attribute 18, 4
  15              		.file	"stm32f4xx_hal_flash.c"
  16              		.text
  17              	.Ltext0:
  18              		.cfi_sections	.debug_frame
  19              		.global	pFlash
  20              		.section	.bss.pFlash,"aw",%nobits
  21              		.align	2
  24              	pFlash:
  25 0000 00000000 		.space	32
  25      00000000 
  25      00000000 
  25      00000000 
  25      00000000 
  26              		.section	.rodata
  27              		.align	2
  28              	.LC0:
  29 0000 44726976 		.ascii	"Drivers/STM32F4xx_HAL_Driver/Src/stm32f4xx_hal_flas"
  29      6572732F 
  29      53544D33 
  29      32463478 
  29      785F4841 
  30 0033 682E6300 		.ascii	"h.c\000"
  31 0037 00       		.align	2
  32              	.LC1:
  33 0038 30783030 		.ascii	"0x00\000"
  33      00
  34              		.section	.text.HAL_FLASH_Program,"ax",%progbits
  35              		.align	1
  36              		.global	HAL_FLASH_Program
  37              		.syntax unified
  38              		.thumb
  39              		.thumb_func
  41              	HAL_FLASH_Program:
  42              	.LFB128:
  43              		.file 1 "Drivers/STM32F4xx_HAL_Driver/Src/stm32f4xx_hal_flash.c"
   1:Drivers/STM32F4xx_HAL_Driver/Src/stm32f4xx_hal_flash.c **** /**
   2:Drivers/STM32F4xx_HAL_Driver/Src/stm32f4xx_hal_flash.c ****   ******************************************************************************
   3:Drivers/STM32F4xx_HAL_Driver/Src/stm32f4xx_hal_flash.c ****   * @file    stm32f4xx_hal_flash.c
   4:Drivers/STM32F4xx_HAL_Driver/Src/stm32f4xx_hal_flash.c ****   * @author  MCD Application Team
   5:Drivers/STM32F4xx_HAL_Driver/Src/stm32f4xx_hal_flash.c ****   * @version V1.4.1
   6:Drivers/STM32F4xx_HAL_Driver/Src/stm32f4xx_hal_flash.c ****   * @date    09-October-2015
   7:Drivers/STM32F4xx_HAL_Driver/Src/stm32f4xx_hal_flash.c ****   * @brief   FLASH HAL module driver.
   8:Drivers/STM32F4xx_HAL_Driver/Src/stm32f4xx_hal_flash.c ****   *          This file provides firmware functions to manage the following 
ARM GAS  C:\Users\ep_ygh\AppData\Local\Temp\cc2Mv85j.s 			page 2


   9:Drivers/STM32F4xx_HAL_Driver/Src/stm32f4xx_hal_flash.c ****   *          functionalities of the internal FLASH memory:
  10:Drivers/STM32F4xx_HAL_Driver/Src/stm32f4xx_hal_flash.c ****   *           + Program operations functions
  11:Drivers/STM32F4xx_HAL_Driver/Src/stm32f4xx_hal_flash.c ****   *           + Memory Control functions 
  12:Drivers/STM32F4xx_HAL_Driver/Src/stm32f4xx_hal_flash.c ****   *           + Peripheral Errors functions
  13:Drivers/STM32F4xx_HAL_Driver/Src/stm32f4xx_hal_flash.c ****   *         
  14:Drivers/STM32F4xx_HAL_Driver/Src/stm32f4xx_hal_flash.c ****   @verbatim
  15:Drivers/STM32F4xx_HAL_Driver/Src/stm32f4xx_hal_flash.c ****   ==============================================================================
  16:Drivers/STM32F4xx_HAL_Driver/Src/stm32f4xx_hal_flash.c ****                         ##### FLASH peripheral features #####
  17:Drivers/STM32F4xx_HAL_Driver/Src/stm32f4xx_hal_flash.c ****   ==============================================================================
  18:Drivers/STM32F4xx_HAL_Driver/Src/stm32f4xx_hal_flash.c ****            
  19:Drivers/STM32F4xx_HAL_Driver/Src/stm32f4xx_hal_flash.c ****   [..] The Flash memory interface manages CPU AHB I-Code and D-Code accesses 
  20:Drivers/STM32F4xx_HAL_Driver/Src/stm32f4xx_hal_flash.c ****        to the Flash memory. It implements the erase and program Flash memory operations 
  21:Drivers/STM32F4xx_HAL_Driver/Src/stm32f4xx_hal_flash.c ****        and the read and write protection mechanisms.
  22:Drivers/STM32F4xx_HAL_Driver/Src/stm32f4xx_hal_flash.c ****       
  23:Drivers/STM32F4xx_HAL_Driver/Src/stm32f4xx_hal_flash.c ****   [..] The Flash memory interface accelerates code execution with a system of instruction
  24:Drivers/STM32F4xx_HAL_Driver/Src/stm32f4xx_hal_flash.c ****        prefetch and cache lines. 
  25:Drivers/STM32F4xx_HAL_Driver/Src/stm32f4xx_hal_flash.c **** 
  26:Drivers/STM32F4xx_HAL_Driver/Src/stm32f4xx_hal_flash.c ****   [..] The FLASH main features are:
  27:Drivers/STM32F4xx_HAL_Driver/Src/stm32f4xx_hal_flash.c ****       (+) Flash memory read operations
  28:Drivers/STM32F4xx_HAL_Driver/Src/stm32f4xx_hal_flash.c ****       (+) Flash memory program/erase operations
  29:Drivers/STM32F4xx_HAL_Driver/Src/stm32f4xx_hal_flash.c ****       (+) Read / write protections
  30:Drivers/STM32F4xx_HAL_Driver/Src/stm32f4xx_hal_flash.c ****       (+) Prefetch on I-Code
  31:Drivers/STM32F4xx_HAL_Driver/Src/stm32f4xx_hal_flash.c ****       (+) 64 cache lines of 128 bits on I-Code
  32:Drivers/STM32F4xx_HAL_Driver/Src/stm32f4xx_hal_flash.c ****       (+) 8 cache lines of 128 bits on D-Code
  33:Drivers/STM32F4xx_HAL_Driver/Src/stm32f4xx_hal_flash.c ****       
  34:Drivers/STM32F4xx_HAL_Driver/Src/stm32f4xx_hal_flash.c ****       
  35:Drivers/STM32F4xx_HAL_Driver/Src/stm32f4xx_hal_flash.c ****                      ##### How to use this driver #####
  36:Drivers/STM32F4xx_HAL_Driver/Src/stm32f4xx_hal_flash.c ****   ==============================================================================
  37:Drivers/STM32F4xx_HAL_Driver/Src/stm32f4xx_hal_flash.c ****     [..]                             
  38:Drivers/STM32F4xx_HAL_Driver/Src/stm32f4xx_hal_flash.c ****       This driver provides functions and macros to configure and program the FLASH 
  39:Drivers/STM32F4xx_HAL_Driver/Src/stm32f4xx_hal_flash.c ****       memory of all STM32F4xx devices.
  40:Drivers/STM32F4xx_HAL_Driver/Src/stm32f4xx_hal_flash.c ****     
  41:Drivers/STM32F4xx_HAL_Driver/Src/stm32f4xx_hal_flash.c ****       (#) FLASH Memory IO Programming functions: 
  42:Drivers/STM32F4xx_HAL_Driver/Src/stm32f4xx_hal_flash.c ****            (++) Lock and Unlock the FLASH interface using HAL_FLASH_Unlock() and 
  43:Drivers/STM32F4xx_HAL_Driver/Src/stm32f4xx_hal_flash.c ****                 HAL_FLASH_Lock() functions
  44:Drivers/STM32F4xx_HAL_Driver/Src/stm32f4xx_hal_flash.c ****            (++) Program functions: byte, half word, word and double word
  45:Drivers/STM32F4xx_HAL_Driver/Src/stm32f4xx_hal_flash.c ****            (++) There Two modes of programming :
  46:Drivers/STM32F4xx_HAL_Driver/Src/stm32f4xx_hal_flash.c ****             (+++) Polling mode using HAL_FLASH_Program() function
  47:Drivers/STM32F4xx_HAL_Driver/Src/stm32f4xx_hal_flash.c ****             (+++) Interrupt mode using HAL_FLASH_Program_IT() function
  48:Drivers/STM32F4xx_HAL_Driver/Src/stm32f4xx_hal_flash.c ****     
  49:Drivers/STM32F4xx_HAL_Driver/Src/stm32f4xx_hal_flash.c ****       (#) Interrupts and flags management functions : 
  50:Drivers/STM32F4xx_HAL_Driver/Src/stm32f4xx_hal_flash.c ****            (++) Handle FLASH interrupts by calling HAL_FLASH_IRQHandler()
  51:Drivers/STM32F4xx_HAL_Driver/Src/stm32f4xx_hal_flash.c ****            (++) Wait for last FLASH operation according to its status
  52:Drivers/STM32F4xx_HAL_Driver/Src/stm32f4xx_hal_flash.c ****            (++) Get error flag status by calling HAL_SetErrorCode()          
  53:Drivers/STM32F4xx_HAL_Driver/Src/stm32f4xx_hal_flash.c **** 
  54:Drivers/STM32F4xx_HAL_Driver/Src/stm32f4xx_hal_flash.c ****     [..] 
  55:Drivers/STM32F4xx_HAL_Driver/Src/stm32f4xx_hal_flash.c ****       In addition to these functions, this driver includes a set of macros allowing
  56:Drivers/STM32F4xx_HAL_Driver/Src/stm32f4xx_hal_flash.c ****       to handle the following operations:
  57:Drivers/STM32F4xx_HAL_Driver/Src/stm32f4xx_hal_flash.c ****        (+) Set the latency
  58:Drivers/STM32F4xx_HAL_Driver/Src/stm32f4xx_hal_flash.c ****        (+) Enable/Disable the prefetch buffer
  59:Drivers/STM32F4xx_HAL_Driver/Src/stm32f4xx_hal_flash.c ****        (+) Enable/Disable the Instruction cache and the Data cache
  60:Drivers/STM32F4xx_HAL_Driver/Src/stm32f4xx_hal_flash.c ****        (+) Reset the Instruction cache and the Data cache
  61:Drivers/STM32F4xx_HAL_Driver/Src/stm32f4xx_hal_flash.c ****        (+) Enable/Disable the FLASH interrupts
  62:Drivers/STM32F4xx_HAL_Driver/Src/stm32f4xx_hal_flash.c ****        (+) Monitor the FLASH flags status
  63:Drivers/STM32F4xx_HAL_Driver/Src/stm32f4xx_hal_flash.c ****           
  64:Drivers/STM32F4xx_HAL_Driver/Src/stm32f4xx_hal_flash.c ****   @endverbatim
  65:Drivers/STM32F4xx_HAL_Driver/Src/stm32f4xx_hal_flash.c ****   ******************************************************************************
ARM GAS  C:\Users\ep_ygh\AppData\Local\Temp\cc2Mv85j.s 			page 3


  66:Drivers/STM32F4xx_HAL_Driver/Src/stm32f4xx_hal_flash.c ****   * @attention
  67:Drivers/STM32F4xx_HAL_Driver/Src/stm32f4xx_hal_flash.c ****   *
  68:Drivers/STM32F4xx_HAL_Driver/Src/stm32f4xx_hal_flash.c ****   * <h2><center>&copy; COPYRIGHT(c) 2015 STMicroelectronics</center></h2>
  69:Drivers/STM32F4xx_HAL_Driver/Src/stm32f4xx_hal_flash.c ****   *
  70:Drivers/STM32F4xx_HAL_Driver/Src/stm32f4xx_hal_flash.c ****   * Redistribution and use in source and binary forms, with or without modification,
  71:Drivers/STM32F4xx_HAL_Driver/Src/stm32f4xx_hal_flash.c ****   * are permitted provided that the following conditions are met:
  72:Drivers/STM32F4xx_HAL_Driver/Src/stm32f4xx_hal_flash.c ****   *   1. Redistributions of source code must retain the above copyright notice,
  73:Drivers/STM32F4xx_HAL_Driver/Src/stm32f4xx_hal_flash.c ****   *      this list of conditions and the following disclaimer.
  74:Drivers/STM32F4xx_HAL_Driver/Src/stm32f4xx_hal_flash.c ****   *   2. Redistributions in binary form must reproduce the above copyright notice,
  75:Drivers/STM32F4xx_HAL_Driver/Src/stm32f4xx_hal_flash.c ****   *      this list of conditions and the following disclaimer in the documentation
  76:Drivers/STM32F4xx_HAL_Driver/Src/stm32f4xx_hal_flash.c ****   *      and/or other materials provided with the distribution.
  77:Drivers/STM32F4xx_HAL_Driver/Src/stm32f4xx_hal_flash.c ****   *   3. Neither the name of STMicroelectronics nor the names of its contributors
  78:Drivers/STM32F4xx_HAL_Driver/Src/stm32f4xx_hal_flash.c ****   *      may be used to endorse or promote products derived from this software
  79:Drivers/STM32F4xx_HAL_Driver/Src/stm32f4xx_hal_flash.c ****   *      without specific prior written permission.
  80:Drivers/STM32F4xx_HAL_Driver/Src/stm32f4xx_hal_flash.c ****   *
  81:Drivers/STM32F4xx_HAL_Driver/Src/stm32f4xx_hal_flash.c ****   * THIS SOFTWARE IS PROVIDED BY THE COPYRIGHT HOLDERS AND CONTRIBUTORS "AS IS"
  82:Drivers/STM32F4xx_HAL_Driver/Src/stm32f4xx_hal_flash.c ****   * AND ANY EXPRESS OR IMPLIED WARRANTIES, INCLUDING, BUT NOT LIMITED TO, THE
  83:Drivers/STM32F4xx_HAL_Driver/Src/stm32f4xx_hal_flash.c ****   * IMPLIED WARRANTIES OF MERCHANTABILITY AND FITNESS FOR A PARTICULAR PURPOSE ARE
  84:Drivers/STM32F4xx_HAL_Driver/Src/stm32f4xx_hal_flash.c ****   * DISCLAIMED. IN NO EVENT SHALL THE COPYRIGHT HOLDER OR CONTRIBUTORS BE LIABLE
  85:Drivers/STM32F4xx_HAL_Driver/Src/stm32f4xx_hal_flash.c ****   * FOR ANY DIRECT, INDIRECT, INCIDENTAL, SPECIAL, EXEMPLARY, OR CONSEQUENTIAL
  86:Drivers/STM32F4xx_HAL_Driver/Src/stm32f4xx_hal_flash.c ****   * DAMAGES (INCLUDING, BUT NOT LIMITED TO, PROCUREMENT OF SUBSTITUTE GOODS OR
  87:Drivers/STM32F4xx_HAL_Driver/Src/stm32f4xx_hal_flash.c ****   * SERVICES; LOSS OF USE, DATA, OR PROFITS; OR BUSINESS INTERRUPTION) HOWEVER
  88:Drivers/STM32F4xx_HAL_Driver/Src/stm32f4xx_hal_flash.c ****   * CAUSED AND ON ANY THEORY OF LIABILITY, WHETHER IN CONTRACT, STRICT LIABILITY,
  89:Drivers/STM32F4xx_HAL_Driver/Src/stm32f4xx_hal_flash.c ****   * OR TORT (INCLUDING NEGLIGENCE OR OTHERWISE) ARISING IN ANY WAY OUT OF THE USE
  90:Drivers/STM32F4xx_HAL_Driver/Src/stm32f4xx_hal_flash.c ****   * OF THIS SOFTWARE, EVEN IF ADVISED OF THE POSSIBILITY OF SUCH DAMAGE.
  91:Drivers/STM32F4xx_HAL_Driver/Src/stm32f4xx_hal_flash.c ****   *
  92:Drivers/STM32F4xx_HAL_Driver/Src/stm32f4xx_hal_flash.c ****   ******************************************************************************
  93:Drivers/STM32F4xx_HAL_Driver/Src/stm32f4xx_hal_flash.c ****   */ 
  94:Drivers/STM32F4xx_HAL_Driver/Src/stm32f4xx_hal_flash.c **** 
  95:Drivers/STM32F4xx_HAL_Driver/Src/stm32f4xx_hal_flash.c **** /* Includes ------------------------------------------------------------------*/
  96:Drivers/STM32F4xx_HAL_Driver/Src/stm32f4xx_hal_flash.c **** #include "stm32f4xx_hal.h"
  97:Drivers/STM32F4xx_HAL_Driver/Src/stm32f4xx_hal_flash.c **** 
  98:Drivers/STM32F4xx_HAL_Driver/Src/stm32f4xx_hal_flash.c **** /** @addtogroup STM32F4xx_HAL_Driver
  99:Drivers/STM32F4xx_HAL_Driver/Src/stm32f4xx_hal_flash.c ****   * @{
 100:Drivers/STM32F4xx_HAL_Driver/Src/stm32f4xx_hal_flash.c ****   */
 101:Drivers/STM32F4xx_HAL_Driver/Src/stm32f4xx_hal_flash.c **** 
 102:Drivers/STM32F4xx_HAL_Driver/Src/stm32f4xx_hal_flash.c **** /** @defgroup FLASH FLASH
 103:Drivers/STM32F4xx_HAL_Driver/Src/stm32f4xx_hal_flash.c ****   * @brief FLASH HAL module driver
 104:Drivers/STM32F4xx_HAL_Driver/Src/stm32f4xx_hal_flash.c ****   * @{
 105:Drivers/STM32F4xx_HAL_Driver/Src/stm32f4xx_hal_flash.c ****   */
 106:Drivers/STM32F4xx_HAL_Driver/Src/stm32f4xx_hal_flash.c **** 
 107:Drivers/STM32F4xx_HAL_Driver/Src/stm32f4xx_hal_flash.c **** #ifdef HAL_FLASH_MODULE_ENABLED
 108:Drivers/STM32F4xx_HAL_Driver/Src/stm32f4xx_hal_flash.c **** 
 109:Drivers/STM32F4xx_HAL_Driver/Src/stm32f4xx_hal_flash.c **** /* Private typedef -----------------------------------------------------------*/
 110:Drivers/STM32F4xx_HAL_Driver/Src/stm32f4xx_hal_flash.c **** /* Private define ------------------------------------------------------------*/
 111:Drivers/STM32F4xx_HAL_Driver/Src/stm32f4xx_hal_flash.c **** /** @addtogroup FLASH_Private_Constants
 112:Drivers/STM32F4xx_HAL_Driver/Src/stm32f4xx_hal_flash.c ****   * @{
 113:Drivers/STM32F4xx_HAL_Driver/Src/stm32f4xx_hal_flash.c ****   */
 114:Drivers/STM32F4xx_HAL_Driver/Src/stm32f4xx_hal_flash.c **** #define FLASH_TIMEOUT_VALUE       ((uint32_t)50000)/* 50 s */
 115:Drivers/STM32F4xx_HAL_Driver/Src/stm32f4xx_hal_flash.c **** /**
 116:Drivers/STM32F4xx_HAL_Driver/Src/stm32f4xx_hal_flash.c ****   * @}
 117:Drivers/STM32F4xx_HAL_Driver/Src/stm32f4xx_hal_flash.c ****   */         
 118:Drivers/STM32F4xx_HAL_Driver/Src/stm32f4xx_hal_flash.c **** /* Private macro -------------------------------------------------------------*/
 119:Drivers/STM32F4xx_HAL_Driver/Src/stm32f4xx_hal_flash.c **** /* Private variables ---------------------------------------------------------*/
 120:Drivers/STM32F4xx_HAL_Driver/Src/stm32f4xx_hal_flash.c **** /** @addtogroup FLASH_Private_Variables
 121:Drivers/STM32F4xx_HAL_Driver/Src/stm32f4xx_hal_flash.c ****   * @{
 122:Drivers/STM32F4xx_HAL_Driver/Src/stm32f4xx_hal_flash.c ****   */
ARM GAS  C:\Users\ep_ygh\AppData\Local\Temp\cc2Mv85j.s 			page 4


 123:Drivers/STM32F4xx_HAL_Driver/Src/stm32f4xx_hal_flash.c **** /* Variable used for Erase sectors under interruption */
 124:Drivers/STM32F4xx_HAL_Driver/Src/stm32f4xx_hal_flash.c **** FLASH_ProcessTypeDef pFlash;
 125:Drivers/STM32F4xx_HAL_Driver/Src/stm32f4xx_hal_flash.c **** /**
 126:Drivers/STM32F4xx_HAL_Driver/Src/stm32f4xx_hal_flash.c ****   * @}
 127:Drivers/STM32F4xx_HAL_Driver/Src/stm32f4xx_hal_flash.c ****   */
 128:Drivers/STM32F4xx_HAL_Driver/Src/stm32f4xx_hal_flash.c **** 
 129:Drivers/STM32F4xx_HAL_Driver/Src/stm32f4xx_hal_flash.c **** /* Private function prototypes -----------------------------------------------*/
 130:Drivers/STM32F4xx_HAL_Driver/Src/stm32f4xx_hal_flash.c **** /** @addtogroup FLASH_Private_Functions
 131:Drivers/STM32F4xx_HAL_Driver/Src/stm32f4xx_hal_flash.c ****   * @{
 132:Drivers/STM32F4xx_HAL_Driver/Src/stm32f4xx_hal_flash.c ****   */
 133:Drivers/STM32F4xx_HAL_Driver/Src/stm32f4xx_hal_flash.c **** /* Program operations */
 134:Drivers/STM32F4xx_HAL_Driver/Src/stm32f4xx_hal_flash.c **** static void   FLASH_Program_DoubleWord(uint32_t Address, uint64_t Data);
 135:Drivers/STM32F4xx_HAL_Driver/Src/stm32f4xx_hal_flash.c **** static void   FLASH_Program_Word(uint32_t Address, uint32_t Data);
 136:Drivers/STM32F4xx_HAL_Driver/Src/stm32f4xx_hal_flash.c **** static void   FLASH_Program_HalfWord(uint32_t Address, uint16_t Data);
 137:Drivers/STM32F4xx_HAL_Driver/Src/stm32f4xx_hal_flash.c **** static void   FLASH_Program_Byte(uint32_t Address, uint8_t Data);
 138:Drivers/STM32F4xx_HAL_Driver/Src/stm32f4xx_hal_flash.c **** static void   FLASH_SetErrorCode(void);
 139:Drivers/STM32F4xx_HAL_Driver/Src/stm32f4xx_hal_flash.c **** extern void   FLASH_FlushCaches(void);
 140:Drivers/STM32F4xx_HAL_Driver/Src/stm32f4xx_hal_flash.c **** 
 141:Drivers/STM32F4xx_HAL_Driver/Src/stm32f4xx_hal_flash.c **** HAL_StatusTypeDef FLASH_WaitForLastOperation(uint32_t Timeout);
 142:Drivers/STM32F4xx_HAL_Driver/Src/stm32f4xx_hal_flash.c **** /**
 143:Drivers/STM32F4xx_HAL_Driver/Src/stm32f4xx_hal_flash.c ****   * @}
 144:Drivers/STM32F4xx_HAL_Driver/Src/stm32f4xx_hal_flash.c ****   */
 145:Drivers/STM32F4xx_HAL_Driver/Src/stm32f4xx_hal_flash.c **** 
 146:Drivers/STM32F4xx_HAL_Driver/Src/stm32f4xx_hal_flash.c **** /* Exported functions --------------------------------------------------------*/
 147:Drivers/STM32F4xx_HAL_Driver/Src/stm32f4xx_hal_flash.c **** /** @defgroup FLASH_Exported_Functions FLASH Exported Functions
 148:Drivers/STM32F4xx_HAL_Driver/Src/stm32f4xx_hal_flash.c ****   * @{
 149:Drivers/STM32F4xx_HAL_Driver/Src/stm32f4xx_hal_flash.c ****   */
 150:Drivers/STM32F4xx_HAL_Driver/Src/stm32f4xx_hal_flash.c ****   
 151:Drivers/STM32F4xx_HAL_Driver/Src/stm32f4xx_hal_flash.c **** /** @defgroup FLASH_Exported_Functions_Group1 Programming operation functions 
 152:Drivers/STM32F4xx_HAL_Driver/Src/stm32f4xx_hal_flash.c ****  *  @brief   Programming operation functions 
 153:Drivers/STM32F4xx_HAL_Driver/Src/stm32f4xx_hal_flash.c ****  *
 154:Drivers/STM32F4xx_HAL_Driver/Src/stm32f4xx_hal_flash.c **** @verbatim   
 155:Drivers/STM32F4xx_HAL_Driver/Src/stm32f4xx_hal_flash.c ****  ===============================================================================
 156:Drivers/STM32F4xx_HAL_Driver/Src/stm32f4xx_hal_flash.c ****                   ##### Programming operation functions #####
 157:Drivers/STM32F4xx_HAL_Driver/Src/stm32f4xx_hal_flash.c ****  ===============================================================================  
 158:Drivers/STM32F4xx_HAL_Driver/Src/stm32f4xx_hal_flash.c ****     [..]
 159:Drivers/STM32F4xx_HAL_Driver/Src/stm32f4xx_hal_flash.c ****     This subsection provides a set of functions allowing to manage the FLASH 
 160:Drivers/STM32F4xx_HAL_Driver/Src/stm32f4xx_hal_flash.c ****     program operations.
 161:Drivers/STM32F4xx_HAL_Driver/Src/stm32f4xx_hal_flash.c **** 
 162:Drivers/STM32F4xx_HAL_Driver/Src/stm32f4xx_hal_flash.c **** @endverbatim
 163:Drivers/STM32F4xx_HAL_Driver/Src/stm32f4xx_hal_flash.c ****   * @{
 164:Drivers/STM32F4xx_HAL_Driver/Src/stm32f4xx_hal_flash.c ****   */
 165:Drivers/STM32F4xx_HAL_Driver/Src/stm32f4xx_hal_flash.c **** 
 166:Drivers/STM32F4xx_HAL_Driver/Src/stm32f4xx_hal_flash.c **** /**
 167:Drivers/STM32F4xx_HAL_Driver/Src/stm32f4xx_hal_flash.c ****   * @brief  Program byte, halfword, word or double word at a specified address
 168:Drivers/STM32F4xx_HAL_Driver/Src/stm32f4xx_hal_flash.c ****   * @param  TypeProgram:  Indicate the way to program at a specified address.
 169:Drivers/STM32F4xx_HAL_Driver/Src/stm32f4xx_hal_flash.c ****   *                           This parameter can be a value of @ref FLASH_Type_Program
 170:Drivers/STM32F4xx_HAL_Driver/Src/stm32f4xx_hal_flash.c ****   * @param  Address:  specifies the address to be programmed.
 171:Drivers/STM32F4xx_HAL_Driver/Src/stm32f4xx_hal_flash.c ****   * @param  Data: specifies the data to be programmed
 172:Drivers/STM32F4xx_HAL_Driver/Src/stm32f4xx_hal_flash.c ****   * 
 173:Drivers/STM32F4xx_HAL_Driver/Src/stm32f4xx_hal_flash.c ****   * @retval HAL_StatusTypeDef HAL Status
 174:Drivers/STM32F4xx_HAL_Driver/Src/stm32f4xx_hal_flash.c ****   */
 175:Drivers/STM32F4xx_HAL_Driver/Src/stm32f4xx_hal_flash.c **** HAL_StatusTypeDef HAL_FLASH_Program(uint32_t TypeProgram, uint32_t Address, uint64_t Data)
 176:Drivers/STM32F4xx_HAL_Driver/Src/stm32f4xx_hal_flash.c **** {
  44              		.loc 1 176 1
  45              		.cfi_startproc
  46              		@ args = 0, pretend = 0, frame = 24
ARM GAS  C:\Users\ep_ygh\AppData\Local\Temp\cc2Mv85j.s 			page 5


  47              		@ frame_needed = 1, uses_anonymous_args = 0
  48 0000 80B5     		push	{r7, lr}
  49              	.LCFI0:
  50              		.cfi_def_cfa_offset 8
  51              		.cfi_offset 7, -8
  52              		.cfi_offset 14, -4
  53 0002 86B0     		sub	sp, sp, #24
  54              	.LCFI1:
  55              		.cfi_def_cfa_offset 32
  56 0004 00AF     		add	r7, sp, #0
  57              	.LCFI2:
  58              		.cfi_def_cfa_register 7
  59 0006 F860     		str	r0, [r7, #12]
  60 0008 B960     		str	r1, [r7, #8]
  61 000a C7E90023 		strd	r2, [r7]
 177:Drivers/STM32F4xx_HAL_Driver/Src/stm32f4xx_hal_flash.c ****   HAL_StatusTypeDef status = HAL_ERROR;
  62              		.loc 1 177 21
  63 000e 0123     		movs	r3, #1
  64 0010 FB75     		strb	r3, [r7, #23]
 178:Drivers/STM32F4xx_HAL_Driver/Src/stm32f4xx_hal_flash.c ****   
 179:Drivers/STM32F4xx_HAL_Driver/Src/stm32f4xx_hal_flash.c ****   /* Process Locked */
 180:Drivers/STM32F4xx_HAL_Driver/Src/stm32f4xx_hal_flash.c ****   __HAL_LOCK(&pFlash);
  65              		.loc 1 180 3
  66 0012 2D4B     		ldr	r3, .L11
  67 0014 1B7E     		ldrb	r3, [r3, #24]	@ zero_extendqisi2
  68 0016 012B     		cmp	r3, #1
  69 0018 01D1     		bne	.L2
  70              		.loc 1 180 3 is_stmt 0 discriminator 1
  71 001a 0223     		movs	r3, #2
  72 001c 50E0     		b	.L3
  73              	.L2:
  74              		.loc 1 180 3 discriminator 2
  75 001e 2A4B     		ldr	r3, .L11
  76 0020 0122     		movs	r2, #1
  77 0022 1A76     		strb	r2, [r3, #24]
 181:Drivers/STM32F4xx_HAL_Driver/Src/stm32f4xx_hal_flash.c ****   
 182:Drivers/STM32F4xx_HAL_Driver/Src/stm32f4xx_hal_flash.c ****   /* Check the parameters */
 183:Drivers/STM32F4xx_HAL_Driver/Src/stm32f4xx_hal_flash.c ****   assert_param(IS_FLASH_TYPEPROGRAM(TypeProgram));
  78              		.loc 1 183 3 is_stmt 1 discriminator 2
  79 0024 FB68     		ldr	r3, [r7, #12]
  80 0026 002B     		cmp	r3, #0
  81 0028 0CD0     		beq	.L4
  82              		.loc 1 183 3 is_stmt 0 discriminator 1
  83 002a FB68     		ldr	r3, [r7, #12]
  84 002c 012B     		cmp	r3, #1
  85 002e 09D0     		beq	.L4
  86              		.loc 1 183 3 discriminator 2
  87 0030 FB68     		ldr	r3, [r7, #12]
  88 0032 022B     		cmp	r3, #2
  89 0034 06D0     		beq	.L4
  90              		.loc 1 183 3 discriminator 3
  91 0036 FB68     		ldr	r3, [r7, #12]
  92 0038 032B     		cmp	r3, #3
  93 003a 03D0     		beq	.L4
  94              		.loc 1 183 3 discriminator 4
  95 003c B721     		movs	r1, #183
  96 003e 2348     		ldr	r0, .L11+4
ARM GAS  C:\Users\ep_ygh\AppData\Local\Temp\cc2Mv85j.s 			page 6


  97 0040 FFF7FEFF 		bl	assert_failed
  98              	.L4:
 184:Drivers/STM32F4xx_HAL_Driver/Src/stm32f4xx_hal_flash.c ****   
 185:Drivers/STM32F4xx_HAL_Driver/Src/stm32f4xx_hal_flash.c ****   /* Wait for last operation to be completed */
 186:Drivers/STM32F4xx_HAL_Driver/Src/stm32f4xx_hal_flash.c ****   status = FLASH_WaitForLastOperation((uint32_t)FLASH_TIMEOUT_VALUE);
  99              		.loc 1 186 12 is_stmt 1
 100 0044 4CF25030 		movw	r0, #50000
 101 0048 FFF7FEFF 		bl	FLASH_WaitForLastOperation
 102 004c 0346     		mov	r3, r0
 103 004e FB75     		strb	r3, [r7, #23]
 187:Drivers/STM32F4xx_HAL_Driver/Src/stm32f4xx_hal_flash.c ****   if (status != HAL_OK) {
 104              		.loc 1 187 6
 105 0050 FB7D     		ldrb	r3, [r7, #23]	@ zero_extendqisi2
 106 0052 002B     		cmp	r3, #0
 107 0054 01D0     		beq	.L5
 108              	.LBB2:
 188:Drivers/STM32F4xx_HAL_Driver/Src/stm32f4xx_hal_flash.c ****     // Gérer l'erreur
 189:Drivers/STM32F4xx_HAL_Driver/Src/stm32f4xx_hal_flash.c ****     uint8_t dummy = "0x00";
 109              		.loc 1 189 13
 110 0056 1E4B     		ldr	r3, .L11+8
 111 0058 BB75     		strb	r3, [r7, #22]
 112              	.L5:
 113              	.LBE2:
 190:Drivers/STM32F4xx_HAL_Driver/Src/stm32f4xx_hal_flash.c ****     }
 191:Drivers/STM32F4xx_HAL_Driver/Src/stm32f4xx_hal_flash.c ****   
 192:Drivers/STM32F4xx_HAL_Driver/Src/stm32f4xx_hal_flash.c ****   if(status == HAL_OK)
 114              		.loc 1 192 5
 115 005a FB7D     		ldrb	r3, [r7, #23]	@ zero_extendqisi2
 116 005c 002B     		cmp	r3, #0
 117 005e 2BD1     		bne	.L6
 193:Drivers/STM32F4xx_HAL_Driver/Src/stm32f4xx_hal_flash.c ****   {
 194:Drivers/STM32F4xx_HAL_Driver/Src/stm32f4xx_hal_flash.c ****     if(TypeProgram == FLASH_TYPEPROGRAM_BYTE)
 118              		.loc 1 194 7
 119 0060 FB68     		ldr	r3, [r7, #12]
 120 0062 002B     		cmp	r3, #0
 121 0064 05D1     		bne	.L7
 195:Drivers/STM32F4xx_HAL_Driver/Src/stm32f4xx_hal_flash.c ****     {
 196:Drivers/STM32F4xx_HAL_Driver/Src/stm32f4xx_hal_flash.c ****       /*Program byte (8-bit) at a specified address.*/
 197:Drivers/STM32F4xx_HAL_Driver/Src/stm32f4xx_hal_flash.c ****       FLASH_Program_Byte(Address, (uint8_t) Data);
 122              		.loc 1 197 7
 123 0066 3B78     		ldrb	r3, [r7]	@ zero_extendqisi2
 124 0068 1946     		mov	r1, r3
 125 006a B868     		ldr	r0, [r7, #8]
 126 006c FFF7FEFF 		bl	FLASH_Program_Byte
 127 0070 16E0     		b	.L8
 128              	.L7:
 198:Drivers/STM32F4xx_HAL_Driver/Src/stm32f4xx_hal_flash.c ****     }
 199:Drivers/STM32F4xx_HAL_Driver/Src/stm32f4xx_hal_flash.c ****     else if(TypeProgram == FLASH_TYPEPROGRAM_HALFWORD)
 129              		.loc 1 199 12
 130 0072 FB68     		ldr	r3, [r7, #12]
 131 0074 012B     		cmp	r3, #1
 132 0076 05D1     		bne	.L9
 200:Drivers/STM32F4xx_HAL_Driver/Src/stm32f4xx_hal_flash.c ****     {
 201:Drivers/STM32F4xx_HAL_Driver/Src/stm32f4xx_hal_flash.c ****       /*Program halfword (16-bit) at a specified address.*/
 202:Drivers/STM32F4xx_HAL_Driver/Src/stm32f4xx_hal_flash.c ****       FLASH_Program_HalfWord(Address, (uint16_t) Data);
 133              		.loc 1 202 7
 134 0078 3B88     		ldrh	r3, [r7]
ARM GAS  C:\Users\ep_ygh\AppData\Local\Temp\cc2Mv85j.s 			page 7


 135 007a 1946     		mov	r1, r3
 136 007c B868     		ldr	r0, [r7, #8]
 137 007e FFF7FEFF 		bl	FLASH_Program_HalfWord
 138 0082 0DE0     		b	.L8
 139              	.L9:
 203:Drivers/STM32F4xx_HAL_Driver/Src/stm32f4xx_hal_flash.c ****     }
 204:Drivers/STM32F4xx_HAL_Driver/Src/stm32f4xx_hal_flash.c ****     else if(TypeProgram == FLASH_TYPEPROGRAM_WORD)
 140              		.loc 1 204 12
 141 0084 FB68     		ldr	r3, [r7, #12]
 142 0086 022B     		cmp	r3, #2
 143 0088 05D1     		bne	.L10
 205:Drivers/STM32F4xx_HAL_Driver/Src/stm32f4xx_hal_flash.c ****     {
 206:Drivers/STM32F4xx_HAL_Driver/Src/stm32f4xx_hal_flash.c ****       /*Program word (32-bit) at a specified address.*/
 207:Drivers/STM32F4xx_HAL_Driver/Src/stm32f4xx_hal_flash.c ****       FLASH_Program_Word(Address, (uint32_t) Data);
 144              		.loc 1 207 7
 145 008a 3B68     		ldr	r3, [r7]
 146 008c 1946     		mov	r1, r3
 147 008e B868     		ldr	r0, [r7, #8]
 148 0090 FFF7FEFF 		bl	FLASH_Program_Word
 149 0094 04E0     		b	.L8
 150              	.L10:
 208:Drivers/STM32F4xx_HAL_Driver/Src/stm32f4xx_hal_flash.c ****     }
 209:Drivers/STM32F4xx_HAL_Driver/Src/stm32f4xx_hal_flash.c ****     else
 210:Drivers/STM32F4xx_HAL_Driver/Src/stm32f4xx_hal_flash.c ****     {
 211:Drivers/STM32F4xx_HAL_Driver/Src/stm32f4xx_hal_flash.c ****       /*Program double word (64-bit) at a specified address.*/
 212:Drivers/STM32F4xx_HAL_Driver/Src/stm32f4xx_hal_flash.c ****       FLASH_Program_DoubleWord(Address, Data);
 151              		.loc 1 212 7
 152 0096 D7E90023 		ldrd	r2, [r7]
 153 009a B868     		ldr	r0, [r7, #8]
 154 009c FFF7FEFF 		bl	FLASH_Program_DoubleWord
 155              	.L8:
 213:Drivers/STM32F4xx_HAL_Driver/Src/stm32f4xx_hal_flash.c ****     }
 214:Drivers/STM32F4xx_HAL_Driver/Src/stm32f4xx_hal_flash.c ****     
 215:Drivers/STM32F4xx_HAL_Driver/Src/stm32f4xx_hal_flash.c ****     /* Wait for last operation to be completed */
 216:Drivers/STM32F4xx_HAL_Driver/Src/stm32f4xx_hal_flash.c ****     status = FLASH_WaitForLastOperation((uint32_t)FLASH_TIMEOUT_VALUE);
 156              		.loc 1 216 14
 157 00a0 4CF25030 		movw	r0, #50000
 158 00a4 FFF7FEFF 		bl	FLASH_WaitForLastOperation
 159 00a8 0346     		mov	r3, r0
 160 00aa FB75     		strb	r3, [r7, #23]
 217:Drivers/STM32F4xx_HAL_Driver/Src/stm32f4xx_hal_flash.c ****     
 218:Drivers/STM32F4xx_HAL_Driver/Src/stm32f4xx_hal_flash.c ****     /* If the program operation is completed, disable the PG Bit */
 219:Drivers/STM32F4xx_HAL_Driver/Src/stm32f4xx_hal_flash.c ****     FLASH->CR &= (~FLASH_CR_PG);  
 161              		.loc 1 219 15
 162 00ac 094B     		ldr	r3, .L11+12
 163 00ae 1B69     		ldr	r3, [r3, #16]
 164 00b0 084A     		ldr	r2, .L11+12
 165 00b2 23F00103 		bic	r3, r3, #1
 166 00b6 1361     		str	r3, [r2, #16]
 167              	.L6:
 220:Drivers/STM32F4xx_HAL_Driver/Src/stm32f4xx_hal_flash.c ****   }
 221:Drivers/STM32F4xx_HAL_Driver/Src/stm32f4xx_hal_flash.c ****   
 222:Drivers/STM32F4xx_HAL_Driver/Src/stm32f4xx_hal_flash.c ****   /* Process Unlocked */
 223:Drivers/STM32F4xx_HAL_Driver/Src/stm32f4xx_hal_flash.c ****   __HAL_UNLOCK(&pFlash);
 168              		.loc 1 223 3
 169 00b8 034B     		ldr	r3, .L11
 170 00ba 0022     		movs	r2, #0
ARM GAS  C:\Users\ep_ygh\AppData\Local\Temp\cc2Mv85j.s 			page 8


 171 00bc 1A76     		strb	r2, [r3, #24]
 224:Drivers/STM32F4xx_HAL_Driver/Src/stm32f4xx_hal_flash.c ****   
 225:Drivers/STM32F4xx_HAL_Driver/Src/stm32f4xx_hal_flash.c ****   return status;
 172              		.loc 1 225 10
 173 00be FB7D     		ldrb	r3, [r7, #23]	@ zero_extendqisi2
 174              	.L3:
 226:Drivers/STM32F4xx_HAL_Driver/Src/stm32f4xx_hal_flash.c **** }
 175              		.loc 1 226 1
 176 00c0 1846     		mov	r0, r3
 177 00c2 1837     		adds	r7, r7, #24
 178              	.LCFI3:
 179              		.cfi_def_cfa_offset 8
 180 00c4 BD46     		mov	sp, r7
 181              	.LCFI4:
 182              		.cfi_def_cfa_register 13
 183              		@ sp needed
 184 00c6 80BD     		pop	{r7, pc}
 185              	.L12:
 186              		.align	2
 187              	.L11:
 188 00c8 00000000 		.word	pFlash
 189 00cc 00000000 		.word	.LC0
 190 00d0 38000000 		.word	.LC1
 191 00d4 003C0240 		.word	1073888256
 192              		.cfi_endproc
 193              	.LFE128:
 195              		.section	.text.HAL_FLASH_Program_IT,"ax",%progbits
 196              		.align	1
 197              		.global	HAL_FLASH_Program_IT
 198              		.syntax unified
 199              		.thumb
 200              		.thumb_func
 202              	HAL_FLASH_Program_IT:
 203              	.LFB129:
 227:Drivers/STM32F4xx_HAL_Driver/Src/stm32f4xx_hal_flash.c **** 
 228:Drivers/STM32F4xx_HAL_Driver/Src/stm32f4xx_hal_flash.c **** /**
 229:Drivers/STM32F4xx_HAL_Driver/Src/stm32f4xx_hal_flash.c ****   * @brief   Program byte, halfword, word or double word at a specified address  with interrupt ena
 230:Drivers/STM32F4xx_HAL_Driver/Src/stm32f4xx_hal_flash.c ****   * @param  TypeProgram:  Indicate the way to program at a specified address.
 231:Drivers/STM32F4xx_HAL_Driver/Src/stm32f4xx_hal_flash.c ****   *                           This parameter can be a value of @ref FLASH_Type_Program
 232:Drivers/STM32F4xx_HAL_Driver/Src/stm32f4xx_hal_flash.c ****   * @param  Address:  specifies the address to be programmed.
 233:Drivers/STM32F4xx_HAL_Driver/Src/stm32f4xx_hal_flash.c ****   * @param  Data: specifies the data to be programmed
 234:Drivers/STM32F4xx_HAL_Driver/Src/stm32f4xx_hal_flash.c ****   * 
 235:Drivers/STM32F4xx_HAL_Driver/Src/stm32f4xx_hal_flash.c ****   * @retval HAL Status
 236:Drivers/STM32F4xx_HAL_Driver/Src/stm32f4xx_hal_flash.c ****   */
 237:Drivers/STM32F4xx_HAL_Driver/Src/stm32f4xx_hal_flash.c **** HAL_StatusTypeDef HAL_FLASH_Program_IT(uint32_t TypeProgram, uint32_t Address, uint64_t Data)
 238:Drivers/STM32F4xx_HAL_Driver/Src/stm32f4xx_hal_flash.c **** {
 204              		.loc 1 238 1
 205              		.cfi_startproc
 206              		@ args = 0, pretend = 0, frame = 24
 207              		@ frame_needed = 1, uses_anonymous_args = 0
 208 0000 80B5     		push	{r7, lr}
 209              	.LCFI5:
 210              		.cfi_def_cfa_offset 8
 211              		.cfi_offset 7, -8
 212              		.cfi_offset 14, -4
 213 0002 86B0     		sub	sp, sp, #24
 214              	.LCFI6:
ARM GAS  C:\Users\ep_ygh\AppData\Local\Temp\cc2Mv85j.s 			page 9


 215              		.cfi_def_cfa_offset 32
 216 0004 00AF     		add	r7, sp, #0
 217              	.LCFI7:
 218              		.cfi_def_cfa_register 7
 219 0006 F860     		str	r0, [r7, #12]
 220 0008 B960     		str	r1, [r7, #8]
 221 000a C7E90023 		strd	r2, [r7]
 239:Drivers/STM32F4xx_HAL_Driver/Src/stm32f4xx_hal_flash.c ****   HAL_StatusTypeDef status = HAL_OK;
 222              		.loc 1 239 21
 223 000e 0023     		movs	r3, #0
 224 0010 FB75     		strb	r3, [r7, #23]
 240:Drivers/STM32F4xx_HAL_Driver/Src/stm32f4xx_hal_flash.c ****   
 241:Drivers/STM32F4xx_HAL_Driver/Src/stm32f4xx_hal_flash.c ****   /* Process Locked */
 242:Drivers/STM32F4xx_HAL_Driver/Src/stm32f4xx_hal_flash.c ****   __HAL_LOCK(&pFlash);
 225              		.loc 1 242 3
 226 0012 284B     		ldr	r3, .L21
 227 0014 1B7E     		ldrb	r3, [r3, #24]	@ zero_extendqisi2
 228 0016 012B     		cmp	r3, #1
 229 0018 01D1     		bne	.L14
 230              		.loc 1 242 3 is_stmt 0 discriminator 1
 231 001a 0223     		movs	r3, #2
 232 001c 45E0     		b	.L15
 233              	.L14:
 234              		.loc 1 242 3 discriminator 2
 235 001e 254B     		ldr	r3, .L21
 236 0020 0122     		movs	r2, #1
 237 0022 1A76     		strb	r2, [r3, #24]
 243:Drivers/STM32F4xx_HAL_Driver/Src/stm32f4xx_hal_flash.c **** 
 244:Drivers/STM32F4xx_HAL_Driver/Src/stm32f4xx_hal_flash.c ****   /* Check the parameters */
 245:Drivers/STM32F4xx_HAL_Driver/Src/stm32f4xx_hal_flash.c ****   assert_param(IS_FLASH_TYPEPROGRAM(TypeProgram));
 238              		.loc 1 245 3 is_stmt 1 discriminator 2
 239 0024 FB68     		ldr	r3, [r7, #12]
 240 0026 002B     		cmp	r3, #0
 241 0028 0CD0     		beq	.L16
 242              		.loc 1 245 3 is_stmt 0 discriminator 1
 243 002a FB68     		ldr	r3, [r7, #12]
 244 002c 012B     		cmp	r3, #1
 245 002e 09D0     		beq	.L16
 246              		.loc 1 245 3 discriminator 2
 247 0030 FB68     		ldr	r3, [r7, #12]
 248 0032 022B     		cmp	r3, #2
 249 0034 06D0     		beq	.L16
 250              		.loc 1 245 3 discriminator 3
 251 0036 FB68     		ldr	r3, [r7, #12]
 252 0038 032B     		cmp	r3, #3
 253 003a 03D0     		beq	.L16
 254              		.loc 1 245 3 discriminator 4
 255 003c F521     		movs	r1, #245
 256 003e 1E48     		ldr	r0, .L21+4
 257 0040 FFF7FEFF 		bl	assert_failed
 258              	.L16:
 246:Drivers/STM32F4xx_HAL_Driver/Src/stm32f4xx_hal_flash.c **** 
 247:Drivers/STM32F4xx_HAL_Driver/Src/stm32f4xx_hal_flash.c ****   /* Enable End of FLASH Operation interrupt */
 248:Drivers/STM32F4xx_HAL_Driver/Src/stm32f4xx_hal_flash.c ****   __HAL_FLASH_ENABLE_IT(FLASH_IT_EOP);
 259              		.loc 1 248 3 is_stmt 1
 260 0044 1D4B     		ldr	r3, .L21+8
 261 0046 1B69     		ldr	r3, [r3, #16]
ARM GAS  C:\Users\ep_ygh\AppData\Local\Temp\cc2Mv85j.s 			page 10


 262 0048 1C4A     		ldr	r2, .L21+8
 263 004a 43F08073 		orr	r3, r3, #16777216
 264 004e 1361     		str	r3, [r2, #16]
 249:Drivers/STM32F4xx_HAL_Driver/Src/stm32f4xx_hal_flash.c ****   
 250:Drivers/STM32F4xx_HAL_Driver/Src/stm32f4xx_hal_flash.c ****   /* Enable Error source interrupt */
 251:Drivers/STM32F4xx_HAL_Driver/Src/stm32f4xx_hal_flash.c ****   __HAL_FLASH_ENABLE_IT(FLASH_IT_ERR);
 265              		.loc 1 251 3
 266 0050 1A4B     		ldr	r3, .L21+8
 267 0052 1B69     		ldr	r3, [r3, #16]
 268 0054 194A     		ldr	r2, .L21+8
 269 0056 43F00073 		orr	r3, r3, #33554432
 270 005a 1361     		str	r3, [r2, #16]
 252:Drivers/STM32F4xx_HAL_Driver/Src/stm32f4xx_hal_flash.c **** 
 253:Drivers/STM32F4xx_HAL_Driver/Src/stm32f4xx_hal_flash.c ****   pFlash.ProcedureOnGoing = FLASH_PROC_PROGRAM;
 271              		.loc 1 253 27
 272 005c 154B     		ldr	r3, .L21
 273 005e 0322     		movs	r2, #3
 274 0060 1A70     		strb	r2, [r3]
 254:Drivers/STM32F4xx_HAL_Driver/Src/stm32f4xx_hal_flash.c ****   pFlash.Address = Address;
 275              		.loc 1 254 18
 276 0062 144A     		ldr	r2, .L21
 277 0064 BB68     		ldr	r3, [r7, #8]
 278 0066 5361     		str	r3, [r2, #20]
 255:Drivers/STM32F4xx_HAL_Driver/Src/stm32f4xx_hal_flash.c **** 
 256:Drivers/STM32F4xx_HAL_Driver/Src/stm32f4xx_hal_flash.c ****   if(TypeProgram == FLASH_TYPEPROGRAM_BYTE)
 279              		.loc 1 256 5
 280 0068 FB68     		ldr	r3, [r7, #12]
 281 006a 002B     		cmp	r3, #0
 282 006c 05D1     		bne	.L17
 257:Drivers/STM32F4xx_HAL_Driver/Src/stm32f4xx_hal_flash.c ****   {
 258:Drivers/STM32F4xx_HAL_Driver/Src/stm32f4xx_hal_flash.c ****     /*Program byte (8-bit) at a specified address.*/
 259:Drivers/STM32F4xx_HAL_Driver/Src/stm32f4xx_hal_flash.c ****       FLASH_Program_Byte(Address, (uint8_t) Data);
 283              		.loc 1 259 7
 284 006e 3B78     		ldrb	r3, [r7]	@ zero_extendqisi2
 285 0070 1946     		mov	r1, r3
 286 0072 B868     		ldr	r0, [r7, #8]
 287 0074 FFF7FEFF 		bl	FLASH_Program_Byte
 288 0078 16E0     		b	.L18
 289              	.L17:
 260:Drivers/STM32F4xx_HAL_Driver/Src/stm32f4xx_hal_flash.c ****   }
 261:Drivers/STM32F4xx_HAL_Driver/Src/stm32f4xx_hal_flash.c ****   else if(TypeProgram == FLASH_TYPEPROGRAM_HALFWORD)
 290              		.loc 1 261 10
 291 007a FB68     		ldr	r3, [r7, #12]
 292 007c 012B     		cmp	r3, #1
 293 007e 05D1     		bne	.L19
 262:Drivers/STM32F4xx_HAL_Driver/Src/stm32f4xx_hal_flash.c ****   {
 263:Drivers/STM32F4xx_HAL_Driver/Src/stm32f4xx_hal_flash.c ****     /*Program halfword (16-bit) at a specified address.*/
 264:Drivers/STM32F4xx_HAL_Driver/Src/stm32f4xx_hal_flash.c ****     FLASH_Program_HalfWord(Address, (uint16_t) Data);
 294              		.loc 1 264 5
 295 0080 3B88     		ldrh	r3, [r7]
 296 0082 1946     		mov	r1, r3
 297 0084 B868     		ldr	r0, [r7, #8]
 298 0086 FFF7FEFF 		bl	FLASH_Program_HalfWord
 299 008a 0DE0     		b	.L18
 300              	.L19:
 265:Drivers/STM32F4xx_HAL_Driver/Src/stm32f4xx_hal_flash.c ****   }
 266:Drivers/STM32F4xx_HAL_Driver/Src/stm32f4xx_hal_flash.c ****   else if(TypeProgram == FLASH_TYPEPROGRAM_WORD)
ARM GAS  C:\Users\ep_ygh\AppData\Local\Temp\cc2Mv85j.s 			page 11


 301              		.loc 1 266 10
 302 008c FB68     		ldr	r3, [r7, #12]
 303 008e 022B     		cmp	r3, #2
 304 0090 05D1     		bne	.L20
 267:Drivers/STM32F4xx_HAL_Driver/Src/stm32f4xx_hal_flash.c ****   {
 268:Drivers/STM32F4xx_HAL_Driver/Src/stm32f4xx_hal_flash.c ****     /*Program word (32-bit) at a specified address.*/
 269:Drivers/STM32F4xx_HAL_Driver/Src/stm32f4xx_hal_flash.c ****     FLASH_Program_Word(Address, (uint32_t) Data);
 305              		.loc 1 269 5
 306 0092 3B68     		ldr	r3, [r7]
 307 0094 1946     		mov	r1, r3
 308 0096 B868     		ldr	r0, [r7, #8]
 309 0098 FFF7FEFF 		bl	FLASH_Program_Word
 310 009c 04E0     		b	.L18
 311              	.L20:
 270:Drivers/STM32F4xx_HAL_Driver/Src/stm32f4xx_hal_flash.c ****   }
 271:Drivers/STM32F4xx_HAL_Driver/Src/stm32f4xx_hal_flash.c ****   else
 272:Drivers/STM32F4xx_HAL_Driver/Src/stm32f4xx_hal_flash.c ****   {
 273:Drivers/STM32F4xx_HAL_Driver/Src/stm32f4xx_hal_flash.c ****     /*Program double word (64-bit) at a specified address.*/
 274:Drivers/STM32F4xx_HAL_Driver/Src/stm32f4xx_hal_flash.c ****     FLASH_Program_DoubleWord(Address, Data);
 312              		.loc 1 274 5
 313 009e D7E90023 		ldrd	r2, [r7]
 314 00a2 B868     		ldr	r0, [r7, #8]
 315 00a4 FFF7FEFF 		bl	FLASH_Program_DoubleWord
 316              	.L18:
 275:Drivers/STM32F4xx_HAL_Driver/Src/stm32f4xx_hal_flash.c ****   }
 276:Drivers/STM32F4xx_HAL_Driver/Src/stm32f4xx_hal_flash.c **** 
 277:Drivers/STM32F4xx_HAL_Driver/Src/stm32f4xx_hal_flash.c ****   return status;
 317              		.loc 1 277 10
 318 00a8 FB7D     		ldrb	r3, [r7, #23]	@ zero_extendqisi2
 319              	.L15:
 278:Drivers/STM32F4xx_HAL_Driver/Src/stm32f4xx_hal_flash.c **** }
 320              		.loc 1 278 1
 321 00aa 1846     		mov	r0, r3
 322 00ac 1837     		adds	r7, r7, #24
 323              	.LCFI8:
 324              		.cfi_def_cfa_offset 8
 325 00ae BD46     		mov	sp, r7
 326              	.LCFI9:
 327              		.cfi_def_cfa_register 13
 328              		@ sp needed
 329 00b0 80BD     		pop	{r7, pc}
 330              	.L22:
 331 00b2 00BF     		.align	2
 332              	.L21:
 333 00b4 00000000 		.word	pFlash
 334 00b8 00000000 		.word	.LC0
 335 00bc 003C0240 		.word	1073888256
 336              		.cfi_endproc
 337              	.LFE129:
 339              		.section	.text.HAL_FLASH_IRQHandler,"ax",%progbits
 340              		.align	1
 341              		.global	HAL_FLASH_IRQHandler
 342              		.syntax unified
 343              		.thumb
 344              		.thumb_func
 346              	HAL_FLASH_IRQHandler:
 347              	.LFB130:
ARM GAS  C:\Users\ep_ygh\AppData\Local\Temp\cc2Mv85j.s 			page 12


 279:Drivers/STM32F4xx_HAL_Driver/Src/stm32f4xx_hal_flash.c **** 
 280:Drivers/STM32F4xx_HAL_Driver/Src/stm32f4xx_hal_flash.c **** /**
 281:Drivers/STM32F4xx_HAL_Driver/Src/stm32f4xx_hal_flash.c ****   * @brief This function handles FLASH interrupt request.
 282:Drivers/STM32F4xx_HAL_Driver/Src/stm32f4xx_hal_flash.c ****   * @retval None
 283:Drivers/STM32F4xx_HAL_Driver/Src/stm32f4xx_hal_flash.c ****   */
 284:Drivers/STM32F4xx_HAL_Driver/Src/stm32f4xx_hal_flash.c **** void HAL_FLASH_IRQHandler(void)
 285:Drivers/STM32F4xx_HAL_Driver/Src/stm32f4xx_hal_flash.c **** {
 348              		.loc 1 285 1
 349              		.cfi_startproc
 350              		@ args = 0, pretend = 0, frame = 8
 351              		@ frame_needed = 1, uses_anonymous_args = 0
 352 0000 80B5     		push	{r7, lr}
 353              	.LCFI10:
 354              		.cfi_def_cfa_offset 8
 355              		.cfi_offset 7, -8
 356              		.cfi_offset 14, -4
 357 0002 82B0     		sub	sp, sp, #8
 358              	.LCFI11:
 359              		.cfi_def_cfa_offset 16
 360 0004 00AF     		add	r7, sp, #0
 361              	.LCFI12:
 362              		.cfi_def_cfa_register 7
 286:Drivers/STM32F4xx_HAL_Driver/Src/stm32f4xx_hal_flash.c ****   uint32_t addresstmp = 0;
 363              		.loc 1 286 12
 364 0006 0023     		movs	r3, #0
 365 0008 7B60     		str	r3, [r7, #4]
 287:Drivers/STM32F4xx_HAL_Driver/Src/stm32f4xx_hal_flash.c ****   
 288:Drivers/STM32F4xx_HAL_Driver/Src/stm32f4xx_hal_flash.c ****   /* Check FLASH operation error flags */
 289:Drivers/STM32F4xx_HAL_Driver/Src/stm32f4xx_hal_flash.c ****   if(__HAL_FLASH_GET_FLAG((FLASH_FLAG_OPERR | FLASH_FLAG_WRPERR | FLASH_FLAG_PGAERR | \
 366              		.loc 1 289 6
 367 000a 4B4B     		ldr	r3, .L35
 368 000c DB68     		ldr	r3, [r3, #12]
 369 000e 03F4F973 		and	r3, r3, #498
 370              		.loc 1 289 5
 371 0012 002B     		cmp	r3, #0
 372 0014 20D0     		beq	.L24
 290:Drivers/STM32F4xx_HAL_Driver/Src/stm32f4xx_hal_flash.c ****     FLASH_FLAG_PGPERR | FLASH_FLAG_PGSERR | FLASH_FLAG_RDERR)) != RESET)
 291:Drivers/STM32F4xx_HAL_Driver/Src/stm32f4xx_hal_flash.c ****   {
 292:Drivers/STM32F4xx_HAL_Driver/Src/stm32f4xx_hal_flash.c ****     if(pFlash.ProcedureOnGoing == FLASH_PROC_SECTERASE)
 373              		.loc 1 292 14
 374 0016 494B     		ldr	r3, .L35+4
 375 0018 1B78     		ldrb	r3, [r3]
 376 001a DBB2     		uxtb	r3, r3
 377              		.loc 1 292 7
 378 001c 012B     		cmp	r3, #1
 379 001e 07D1     		bne	.L25
 293:Drivers/STM32F4xx_HAL_Driver/Src/stm32f4xx_hal_flash.c ****     {
 294:Drivers/STM32F4xx_HAL_Driver/Src/stm32f4xx_hal_flash.c ****       /*return the faulty sector*/
 295:Drivers/STM32F4xx_HAL_Driver/Src/stm32f4xx_hal_flash.c ****       addresstmp = pFlash.Sector;
 380              		.loc 1 295 18
 381 0020 464B     		ldr	r3, .L35+4
 382 0022 DB68     		ldr	r3, [r3, #12]
 383 0024 7B60     		str	r3, [r7, #4]
 296:Drivers/STM32F4xx_HAL_Driver/Src/stm32f4xx_hal_flash.c ****       pFlash.Sector = 0xFFFFFFFF;
 384              		.loc 1 296 21
 385 0026 454B     		ldr	r3, .L35+4
 386 0028 4FF0FF32 		mov	r2, #-1
ARM GAS  C:\Users\ep_ygh\AppData\Local\Temp\cc2Mv85j.s 			page 13


 387 002c DA60     		str	r2, [r3, #12]
 388 002e 0BE0     		b	.L26
 389              	.L25:
 297:Drivers/STM32F4xx_HAL_Driver/Src/stm32f4xx_hal_flash.c ****     }
 298:Drivers/STM32F4xx_HAL_Driver/Src/stm32f4xx_hal_flash.c ****     else if(pFlash.ProcedureOnGoing == FLASH_PROC_MASSERASE)
 390              		.loc 1 298 19
 391 0030 424B     		ldr	r3, .L35+4
 392 0032 1B78     		ldrb	r3, [r3]
 393 0034 DBB2     		uxtb	r3, r3
 394              		.loc 1 298 12
 395 0036 022B     		cmp	r3, #2
 396 0038 03D1     		bne	.L27
 299:Drivers/STM32F4xx_HAL_Driver/Src/stm32f4xx_hal_flash.c ****     {
 300:Drivers/STM32F4xx_HAL_Driver/Src/stm32f4xx_hal_flash.c ****       /*return the faulty bank*/
 301:Drivers/STM32F4xx_HAL_Driver/Src/stm32f4xx_hal_flash.c ****       addresstmp = pFlash.Bank;
 397              		.loc 1 301 18
 398 003a 404B     		ldr	r3, .L35+4
 399 003c 1B69     		ldr	r3, [r3, #16]
 400 003e 7B60     		str	r3, [r7, #4]
 401 0040 02E0     		b	.L26
 402              	.L27:
 302:Drivers/STM32F4xx_HAL_Driver/Src/stm32f4xx_hal_flash.c ****     }
 303:Drivers/STM32F4xx_HAL_Driver/Src/stm32f4xx_hal_flash.c ****     else
 304:Drivers/STM32F4xx_HAL_Driver/Src/stm32f4xx_hal_flash.c ****     {
 305:Drivers/STM32F4xx_HAL_Driver/Src/stm32f4xx_hal_flash.c ****       /*return the faulty address*/
 306:Drivers/STM32F4xx_HAL_Driver/Src/stm32f4xx_hal_flash.c ****       addresstmp = pFlash.Address;
 403              		.loc 1 306 18
 404 0042 3E4B     		ldr	r3, .L35+4
 405 0044 5B69     		ldr	r3, [r3, #20]
 406 0046 7B60     		str	r3, [r7, #4]
 407              	.L26:
 307:Drivers/STM32F4xx_HAL_Driver/Src/stm32f4xx_hal_flash.c ****     }
 308:Drivers/STM32F4xx_HAL_Driver/Src/stm32f4xx_hal_flash.c ****     
 309:Drivers/STM32F4xx_HAL_Driver/Src/stm32f4xx_hal_flash.c ****     /*Save the Error code*/
 310:Drivers/STM32F4xx_HAL_Driver/Src/stm32f4xx_hal_flash.c ****     FLASH_SetErrorCode();
 408              		.loc 1 310 5
 409 0048 FFF7FEFF 		bl	FLASH_SetErrorCode
 311:Drivers/STM32F4xx_HAL_Driver/Src/stm32f4xx_hal_flash.c ****     
 312:Drivers/STM32F4xx_HAL_Driver/Src/stm32f4xx_hal_flash.c ****     /* FLASH error interrupt user callback */
 313:Drivers/STM32F4xx_HAL_Driver/Src/stm32f4xx_hal_flash.c ****     HAL_FLASH_OperationErrorCallback(addresstmp);
 410              		.loc 1 313 5
 411 004c 7868     		ldr	r0, [r7, #4]
 412 004e FFF7FEFF 		bl	HAL_FLASH_OperationErrorCallback
 314:Drivers/STM32F4xx_HAL_Driver/Src/stm32f4xx_hal_flash.c ****     
 315:Drivers/STM32F4xx_HAL_Driver/Src/stm32f4xx_hal_flash.c ****     /*Stop the procedure ongoing*/
 316:Drivers/STM32F4xx_HAL_Driver/Src/stm32f4xx_hal_flash.c ****     pFlash.ProcedureOnGoing = FLASH_PROC_NONE;
 413              		.loc 1 316 29
 414 0052 3A4B     		ldr	r3, .L35+4
 415 0054 0022     		movs	r2, #0
 416 0056 1A70     		strb	r2, [r3]
 417              	.L24:
 317:Drivers/STM32F4xx_HAL_Driver/Src/stm32f4xx_hal_flash.c ****   }
 318:Drivers/STM32F4xx_HAL_Driver/Src/stm32f4xx_hal_flash.c ****   
 319:Drivers/STM32F4xx_HAL_Driver/Src/stm32f4xx_hal_flash.c ****   /* Check FLASH End of Operation flag  */
 320:Drivers/STM32F4xx_HAL_Driver/Src/stm32f4xx_hal_flash.c ****   if(__HAL_FLASH_GET_FLAG(FLASH_FLAG_EOP) != RESET)
 418              		.loc 1 320 6
 419 0058 374B     		ldr	r3, .L35
ARM GAS  C:\Users\ep_ygh\AppData\Local\Temp\cc2Mv85j.s 			page 14


 420 005a DB68     		ldr	r3, [r3, #12]
 421 005c 03F00103 		and	r3, r3, #1
 422              		.loc 1 320 5
 423 0060 002B     		cmp	r3, #0
 424 0062 4AD0     		beq	.L28
 321:Drivers/STM32F4xx_HAL_Driver/Src/stm32f4xx_hal_flash.c ****   {
 322:Drivers/STM32F4xx_HAL_Driver/Src/stm32f4xx_hal_flash.c ****     /* Clear FLASH End of Operation pending bit */
 323:Drivers/STM32F4xx_HAL_Driver/Src/stm32f4xx_hal_flash.c ****     __HAL_FLASH_CLEAR_FLAG(FLASH_FLAG_EOP);
 425              		.loc 1 323 5
 426 0064 344B     		ldr	r3, .L35
 427 0066 0122     		movs	r2, #1
 428 0068 DA60     		str	r2, [r3, #12]
 324:Drivers/STM32F4xx_HAL_Driver/Src/stm32f4xx_hal_flash.c ****     
 325:Drivers/STM32F4xx_HAL_Driver/Src/stm32f4xx_hal_flash.c ****     if(pFlash.ProcedureOnGoing == FLASH_PROC_SECTERASE)
 429              		.loc 1 325 14
 430 006a 344B     		ldr	r3, .L35+4
 431 006c 1B78     		ldrb	r3, [r3]
 432 006e DBB2     		uxtb	r3, r3
 433              		.loc 1 325 7
 434 0070 012B     		cmp	r3, #1
 435 0072 2DD1     		bne	.L29
 326:Drivers/STM32F4xx_HAL_Driver/Src/stm32f4xx_hal_flash.c ****     {
 327:Drivers/STM32F4xx_HAL_Driver/Src/stm32f4xx_hal_flash.c ****       /*Nb of sector to erased can be decreased*/
 328:Drivers/STM32F4xx_HAL_Driver/Src/stm32f4xx_hal_flash.c ****       pFlash.NbSectorsToErase--;
 436              		.loc 1 328 13
 437 0074 314B     		ldr	r3, .L35+4
 438 0076 5B68     		ldr	r3, [r3, #4]
 439              		.loc 1 328 30
 440 0078 013B     		subs	r3, r3, #1
 441 007a 304A     		ldr	r2, .L35+4
 442 007c 5360     		str	r3, [r2, #4]
 329:Drivers/STM32F4xx_HAL_Driver/Src/stm32f4xx_hal_flash.c ****       
 330:Drivers/STM32F4xx_HAL_Driver/Src/stm32f4xx_hal_flash.c ****       /* Check if there are still sectors to erase*/
 331:Drivers/STM32F4xx_HAL_Driver/Src/stm32f4xx_hal_flash.c ****       if(pFlash.NbSectorsToErase != 0)
 443              		.loc 1 331 16
 444 007e 2F4B     		ldr	r3, .L35+4
 445 0080 5B68     		ldr	r3, [r3, #4]
 446              		.loc 1 331 9
 447 0082 002B     		cmp	r3, #0
 448 0084 15D0     		beq	.L30
 332:Drivers/STM32F4xx_HAL_Driver/Src/stm32f4xx_hal_flash.c ****       {
 333:Drivers/STM32F4xx_HAL_Driver/Src/stm32f4xx_hal_flash.c ****         addresstmp = pFlash.Sector;
 449              		.loc 1 333 20
 450 0086 2D4B     		ldr	r3, .L35+4
 451 0088 DB68     		ldr	r3, [r3, #12]
 452 008a 7B60     		str	r3, [r7, #4]
 334:Drivers/STM32F4xx_HAL_Driver/Src/stm32f4xx_hal_flash.c ****         /*Indicate user which sector has been erased*/
 335:Drivers/STM32F4xx_HAL_Driver/Src/stm32f4xx_hal_flash.c ****         HAL_FLASH_EndOfOperationCallback(addresstmp);
 453              		.loc 1 335 9
 454 008c 7868     		ldr	r0, [r7, #4]
 455 008e FFF7FEFF 		bl	HAL_FLASH_EndOfOperationCallback
 336:Drivers/STM32F4xx_HAL_Driver/Src/stm32f4xx_hal_flash.c ****         
 337:Drivers/STM32F4xx_HAL_Driver/Src/stm32f4xx_hal_flash.c ****         /*Increment sector number*/
 338:Drivers/STM32F4xx_HAL_Driver/Src/stm32f4xx_hal_flash.c ****         pFlash.Sector++;
 456              		.loc 1 338 15
 457 0092 2A4B     		ldr	r3, .L35+4
 458 0094 DB68     		ldr	r3, [r3, #12]
ARM GAS  C:\Users\ep_ygh\AppData\Local\Temp\cc2Mv85j.s 			page 15


 459              		.loc 1 338 22
 460 0096 0133     		adds	r3, r3, #1
 461 0098 284A     		ldr	r2, .L35+4
 462 009a D360     		str	r3, [r2, #12]
 339:Drivers/STM32F4xx_HAL_Driver/Src/stm32f4xx_hal_flash.c ****         addresstmp = pFlash.Sector;
 463              		.loc 1 339 20
 464 009c 274B     		ldr	r3, .L35+4
 465 009e DB68     		ldr	r3, [r3, #12]
 466 00a0 7B60     		str	r3, [r7, #4]
 340:Drivers/STM32F4xx_HAL_Driver/Src/stm32f4xx_hal_flash.c ****         FLASH_Erase_Sector(addresstmp, pFlash.VoltageForErase);
 467              		.loc 1 340 9
 468 00a2 264B     		ldr	r3, .L35+4
 469 00a4 1B7A     		ldrb	r3, [r3, #8]
 470 00a6 DBB2     		uxtb	r3, r3
 471 00a8 1946     		mov	r1, r3
 472 00aa 7868     		ldr	r0, [r7, #4]
 473 00ac FFF7FEFF 		bl	FLASH_Erase_Sector
 474 00b0 23E0     		b	.L28
 475              	.L30:
 341:Drivers/STM32F4xx_HAL_Driver/Src/stm32f4xx_hal_flash.c ****       }
 342:Drivers/STM32F4xx_HAL_Driver/Src/stm32f4xx_hal_flash.c ****       else
 343:Drivers/STM32F4xx_HAL_Driver/Src/stm32f4xx_hal_flash.c ****       {
 344:Drivers/STM32F4xx_HAL_Driver/Src/stm32f4xx_hal_flash.c ****         /*No more sectors to Erase, user callback can be called.*/
 345:Drivers/STM32F4xx_HAL_Driver/Src/stm32f4xx_hal_flash.c ****         /*Reset Sector and stop Erase sectors procedure*/
 346:Drivers/STM32F4xx_HAL_Driver/Src/stm32f4xx_hal_flash.c ****         pFlash.Sector = addresstmp = 0xFFFFFFFF;
 476              		.loc 1 346 36
 477 00b2 4FF0FF33 		mov	r3, #-1
 478 00b6 7B60     		str	r3, [r7, #4]
 479              		.loc 1 346 23
 480 00b8 204A     		ldr	r2, .L35+4
 481 00ba 7B68     		ldr	r3, [r7, #4]
 482 00bc D360     		str	r3, [r2, #12]
 347:Drivers/STM32F4xx_HAL_Driver/Src/stm32f4xx_hal_flash.c ****         pFlash.ProcedureOnGoing = FLASH_PROC_NONE;
 483              		.loc 1 347 33
 484 00be 1F4B     		ldr	r3, .L35+4
 485 00c0 0022     		movs	r2, #0
 486 00c2 1A70     		strb	r2, [r3]
 348:Drivers/STM32F4xx_HAL_Driver/Src/stm32f4xx_hal_flash.c ****         
 349:Drivers/STM32F4xx_HAL_Driver/Src/stm32f4xx_hal_flash.c ****         /* Flush the caches to be sure of the data consistency */
 350:Drivers/STM32F4xx_HAL_Driver/Src/stm32f4xx_hal_flash.c ****         FLASH_FlushCaches() ;
 487              		.loc 1 350 9
 488 00c4 FFF7FEFF 		bl	FLASH_FlushCaches
 351:Drivers/STM32F4xx_HAL_Driver/Src/stm32f4xx_hal_flash.c ****                 
 352:Drivers/STM32F4xx_HAL_Driver/Src/stm32f4xx_hal_flash.c ****         /* FLASH EOP interrupt user callback */
 353:Drivers/STM32F4xx_HAL_Driver/Src/stm32f4xx_hal_flash.c ****         HAL_FLASH_EndOfOperationCallback(addresstmp);
 489              		.loc 1 353 9
 490 00c8 7868     		ldr	r0, [r7, #4]
 491 00ca FFF7FEFF 		bl	HAL_FLASH_EndOfOperationCallback
 492 00ce 14E0     		b	.L28
 493              	.L29:
 354:Drivers/STM32F4xx_HAL_Driver/Src/stm32f4xx_hal_flash.c ****       }
 355:Drivers/STM32F4xx_HAL_Driver/Src/stm32f4xx_hal_flash.c ****     }
 356:Drivers/STM32F4xx_HAL_Driver/Src/stm32f4xx_hal_flash.c ****     else 
 357:Drivers/STM32F4xx_HAL_Driver/Src/stm32f4xx_hal_flash.c ****     {
 358:Drivers/STM32F4xx_HAL_Driver/Src/stm32f4xx_hal_flash.c ****       if(pFlash.ProcedureOnGoing == FLASH_PROC_MASSERASE) 
 494              		.loc 1 358 16
 495 00d0 1A4B     		ldr	r3, .L35+4
ARM GAS  C:\Users\ep_ygh\AppData\Local\Temp\cc2Mv85j.s 			page 16


 496 00d2 1B78     		ldrb	r3, [r3]
 497 00d4 DBB2     		uxtb	r3, r3
 498              		.loc 1 358 9
 499 00d6 022B     		cmp	r3, #2
 500 00d8 07D1     		bne	.L31
 359:Drivers/STM32F4xx_HAL_Driver/Src/stm32f4xx_hal_flash.c ****       {
 360:Drivers/STM32F4xx_HAL_Driver/Src/stm32f4xx_hal_flash.c ****         /* MassErase ended. Return the selected bank */
 361:Drivers/STM32F4xx_HAL_Driver/Src/stm32f4xx_hal_flash.c ****         /* Flush the caches to be sure of the data consistency */
 362:Drivers/STM32F4xx_HAL_Driver/Src/stm32f4xx_hal_flash.c ****         FLASH_FlushCaches() ;
 501              		.loc 1 362 9
 502 00da FFF7FEFF 		bl	FLASH_FlushCaches
 363:Drivers/STM32F4xx_HAL_Driver/Src/stm32f4xx_hal_flash.c **** 
 364:Drivers/STM32F4xx_HAL_Driver/Src/stm32f4xx_hal_flash.c ****         /* FLASH EOP interrupt user callback */
 365:Drivers/STM32F4xx_HAL_Driver/Src/stm32f4xx_hal_flash.c ****         HAL_FLASH_EndOfOperationCallback(pFlash.Bank);
 503              		.loc 1 365 9
 504 00de 174B     		ldr	r3, .L35+4
 505 00e0 1B69     		ldr	r3, [r3, #16]
 506 00e2 1846     		mov	r0, r3
 507 00e4 FFF7FEFF 		bl	HAL_FLASH_EndOfOperationCallback
 508 00e8 04E0     		b	.L32
 509              	.L31:
 366:Drivers/STM32F4xx_HAL_Driver/Src/stm32f4xx_hal_flash.c ****       }
 367:Drivers/STM32F4xx_HAL_Driver/Src/stm32f4xx_hal_flash.c ****       else
 368:Drivers/STM32F4xx_HAL_Driver/Src/stm32f4xx_hal_flash.c ****       {
 369:Drivers/STM32F4xx_HAL_Driver/Src/stm32f4xx_hal_flash.c ****         /*Program ended. Return the selected address*/
 370:Drivers/STM32F4xx_HAL_Driver/Src/stm32f4xx_hal_flash.c ****         /* FLASH EOP interrupt user callback */
 371:Drivers/STM32F4xx_HAL_Driver/Src/stm32f4xx_hal_flash.c ****         HAL_FLASH_EndOfOperationCallback(pFlash.Address);
 510              		.loc 1 371 9
 511 00ea 144B     		ldr	r3, .L35+4
 512 00ec 5B69     		ldr	r3, [r3, #20]
 513 00ee 1846     		mov	r0, r3
 514 00f0 FFF7FEFF 		bl	HAL_FLASH_EndOfOperationCallback
 515              	.L32:
 372:Drivers/STM32F4xx_HAL_Driver/Src/stm32f4xx_hal_flash.c ****       }
 373:Drivers/STM32F4xx_HAL_Driver/Src/stm32f4xx_hal_flash.c ****       pFlash.ProcedureOnGoing = FLASH_PROC_NONE;
 516              		.loc 1 373 31
 517 00f4 114B     		ldr	r3, .L35+4
 518 00f6 0022     		movs	r2, #0
 519 00f8 1A70     		strb	r2, [r3]
 520              	.L28:
 374:Drivers/STM32F4xx_HAL_Driver/Src/stm32f4xx_hal_flash.c ****     }
 375:Drivers/STM32F4xx_HAL_Driver/Src/stm32f4xx_hal_flash.c ****   }
 376:Drivers/STM32F4xx_HAL_Driver/Src/stm32f4xx_hal_flash.c ****   
 377:Drivers/STM32F4xx_HAL_Driver/Src/stm32f4xx_hal_flash.c ****   if(pFlash.ProcedureOnGoing == FLASH_PROC_NONE)
 521              		.loc 1 377 12
 522 00fa 104B     		ldr	r3, .L35+4
 523 00fc 1B78     		ldrb	r3, [r3]
 524 00fe DBB2     		uxtb	r3, r3
 525              		.loc 1 377 5
 526 0100 002B     		cmp	r3, #0
 527 0102 14D1     		bne	.L34
 378:Drivers/STM32F4xx_HAL_Driver/Src/stm32f4xx_hal_flash.c ****   {
 379:Drivers/STM32F4xx_HAL_Driver/Src/stm32f4xx_hal_flash.c ****     /* Operation is completed, disable the PG, SER, SNB and MER Bits */
 380:Drivers/STM32F4xx_HAL_Driver/Src/stm32f4xx_hal_flash.c ****     CLEAR_BIT(FLASH->CR, (FLASH_CR_PG | FLASH_CR_SER | FLASH_CR_SNB | FLASH_MER_BIT));
 528              		.loc 1 380 5
 529 0104 0C4B     		ldr	r3, .L35
 530 0106 1B69     		ldr	r3, [r3, #16]
ARM GAS  C:\Users\ep_ygh\AppData\Local\Temp\cc2Mv85j.s 			page 17


 531 0108 0B4A     		ldr	r2, .L35
 532 010a 23F0FF03 		bic	r3, r3, #255
 533 010e 1361     		str	r3, [r2, #16]
 381:Drivers/STM32F4xx_HAL_Driver/Src/stm32f4xx_hal_flash.c **** 
 382:Drivers/STM32F4xx_HAL_Driver/Src/stm32f4xx_hal_flash.c ****     /* Disable End of FLASH Operation interrupt */
 383:Drivers/STM32F4xx_HAL_Driver/Src/stm32f4xx_hal_flash.c ****     __HAL_FLASH_DISABLE_IT(FLASH_IT_EOP);
 534              		.loc 1 383 5
 535 0110 094B     		ldr	r3, .L35
 536 0112 1B69     		ldr	r3, [r3, #16]
 537 0114 084A     		ldr	r2, .L35
 538 0116 23F08073 		bic	r3, r3, #16777216
 539 011a 1361     		str	r3, [r2, #16]
 384:Drivers/STM32F4xx_HAL_Driver/Src/stm32f4xx_hal_flash.c ****     
 385:Drivers/STM32F4xx_HAL_Driver/Src/stm32f4xx_hal_flash.c ****     /* Disable Error source interrupt */
 386:Drivers/STM32F4xx_HAL_Driver/Src/stm32f4xx_hal_flash.c ****     __HAL_FLASH_DISABLE_IT(FLASH_IT_ERR);
 540              		.loc 1 386 5
 541 011c 064B     		ldr	r3, .L35
 542 011e 1B69     		ldr	r3, [r3, #16]
 543 0120 054A     		ldr	r2, .L35
 544 0122 23F00073 		bic	r3, r3, #33554432
 545 0126 1361     		str	r3, [r2, #16]
 387:Drivers/STM32F4xx_HAL_Driver/Src/stm32f4xx_hal_flash.c ****     
 388:Drivers/STM32F4xx_HAL_Driver/Src/stm32f4xx_hal_flash.c ****     /* Process Unlocked */
 389:Drivers/STM32F4xx_HAL_Driver/Src/stm32f4xx_hal_flash.c ****     __HAL_UNLOCK(&pFlash);
 546              		.loc 1 389 5
 547 0128 044B     		ldr	r3, .L35+4
 548 012a 0022     		movs	r2, #0
 549 012c 1A76     		strb	r2, [r3, #24]
 550              	.L34:
 390:Drivers/STM32F4xx_HAL_Driver/Src/stm32f4xx_hal_flash.c ****   }
 391:Drivers/STM32F4xx_HAL_Driver/Src/stm32f4xx_hal_flash.c **** }
 551              		.loc 1 391 1
 552 012e 00BF     		nop
 553 0130 0837     		adds	r7, r7, #8
 554              	.LCFI13:
 555              		.cfi_def_cfa_offset 8
 556 0132 BD46     		mov	sp, r7
 557              	.LCFI14:
 558              		.cfi_def_cfa_register 13
 559              		@ sp needed
 560 0134 80BD     		pop	{r7, pc}
 561              	.L36:
 562 0136 00BF     		.align	2
 563              	.L35:
 564 0138 003C0240 		.word	1073888256
 565 013c 00000000 		.word	pFlash
 566              		.cfi_endproc
 567              	.LFE130:
 569              		.section	.text.HAL_FLASH_EndOfOperationCallback,"ax",%progbits
 570              		.align	1
 571              		.weak	HAL_FLASH_EndOfOperationCallback
 572              		.syntax unified
 573              		.thumb
 574              		.thumb_func
 576              	HAL_FLASH_EndOfOperationCallback:
 577              	.LFB131:
 392:Drivers/STM32F4xx_HAL_Driver/Src/stm32f4xx_hal_flash.c **** 
ARM GAS  C:\Users\ep_ygh\AppData\Local\Temp\cc2Mv85j.s 			page 18


 393:Drivers/STM32F4xx_HAL_Driver/Src/stm32f4xx_hal_flash.c **** /**
 394:Drivers/STM32F4xx_HAL_Driver/Src/stm32f4xx_hal_flash.c ****   * @brief  FLASH end of operation interrupt callback
 395:Drivers/STM32F4xx_HAL_Driver/Src/stm32f4xx_hal_flash.c ****   * @param  ReturnValue: The value saved in this parameter depends on the ongoing procedure
 396:Drivers/STM32F4xx_HAL_Driver/Src/stm32f4xx_hal_flash.c ****   *                  Mass Erase: Bank number which has been requested to erase
 397:Drivers/STM32F4xx_HAL_Driver/Src/stm32f4xx_hal_flash.c ****   *                  Sectors Erase: Sector which has been erased 
 398:Drivers/STM32F4xx_HAL_Driver/Src/stm32f4xx_hal_flash.c ****   *                    (if 0xFFFFFFFF, it means that all the selected sectors have been erased)
 399:Drivers/STM32F4xx_HAL_Driver/Src/stm32f4xx_hal_flash.c ****   *                  Program: Address which was selected for data program
 400:Drivers/STM32F4xx_HAL_Driver/Src/stm32f4xx_hal_flash.c ****   * @retval None
 401:Drivers/STM32F4xx_HAL_Driver/Src/stm32f4xx_hal_flash.c ****   */
 402:Drivers/STM32F4xx_HAL_Driver/Src/stm32f4xx_hal_flash.c **** __weak void HAL_FLASH_EndOfOperationCallback(uint32_t ReturnValue)
 403:Drivers/STM32F4xx_HAL_Driver/Src/stm32f4xx_hal_flash.c **** {
 578              		.loc 1 403 1
 579              		.cfi_startproc
 580              		@ args = 0, pretend = 0, frame = 8
 581              		@ frame_needed = 1, uses_anonymous_args = 0
 582              		@ link register save eliminated.
 583 0000 80B4     		push	{r7}
 584              	.LCFI15:
 585              		.cfi_def_cfa_offset 4
 586              		.cfi_offset 7, -4
 587 0002 83B0     		sub	sp, sp, #12
 588              	.LCFI16:
 589              		.cfi_def_cfa_offset 16
 590 0004 00AF     		add	r7, sp, #0
 591              	.LCFI17:
 592              		.cfi_def_cfa_register 7
 593 0006 7860     		str	r0, [r7, #4]
 404:Drivers/STM32F4xx_HAL_Driver/Src/stm32f4xx_hal_flash.c ****   /* NOTE : This function Should not be modified, when the callback is needed,
 405:Drivers/STM32F4xx_HAL_Driver/Src/stm32f4xx_hal_flash.c ****             the HAL_FLASH_EndOfOperationCallback could be implemented in the user file
 406:Drivers/STM32F4xx_HAL_Driver/Src/stm32f4xx_hal_flash.c ****    */ 
 407:Drivers/STM32F4xx_HAL_Driver/Src/stm32f4xx_hal_flash.c **** }
 594              		.loc 1 407 1
 595 0008 00BF     		nop
 596 000a 0C37     		adds	r7, r7, #12
 597              	.LCFI18:
 598              		.cfi_def_cfa_offset 4
 599 000c BD46     		mov	sp, r7
 600              	.LCFI19:
 601              		.cfi_def_cfa_register 13
 602              		@ sp needed
 603 000e 5DF8047B 		ldr	r7, [sp], #4
 604              	.LCFI20:
 605              		.cfi_restore 7
 606              		.cfi_def_cfa_offset 0
 607 0012 7047     		bx	lr
 608              		.cfi_endproc
 609              	.LFE131:
 611              		.section	.text.HAL_FLASH_OperationErrorCallback,"ax",%progbits
 612              		.align	1
 613              		.weak	HAL_FLASH_OperationErrorCallback
 614              		.syntax unified
 615              		.thumb
 616              		.thumb_func
 618              	HAL_FLASH_OperationErrorCallback:
 619              	.LFB132:
 408:Drivers/STM32F4xx_HAL_Driver/Src/stm32f4xx_hal_flash.c **** 
 409:Drivers/STM32F4xx_HAL_Driver/Src/stm32f4xx_hal_flash.c **** /**
ARM GAS  C:\Users\ep_ygh\AppData\Local\Temp\cc2Mv85j.s 			page 19


 410:Drivers/STM32F4xx_HAL_Driver/Src/stm32f4xx_hal_flash.c ****   * @brief  FLASH operation error interrupt callback
 411:Drivers/STM32F4xx_HAL_Driver/Src/stm32f4xx_hal_flash.c ****   * @param  ReturnValue: The value saved in this parameter depends on the ongoing procedure
 412:Drivers/STM32F4xx_HAL_Driver/Src/stm32f4xx_hal_flash.c ****   *                 Mass Erase: Bank number which has been requested to erase
 413:Drivers/STM32F4xx_HAL_Driver/Src/stm32f4xx_hal_flash.c ****   *                 Sectors Erase: Sector number which returned an error
 414:Drivers/STM32F4xx_HAL_Driver/Src/stm32f4xx_hal_flash.c ****   *                 Program: Address which was selected for data program
 415:Drivers/STM32F4xx_HAL_Driver/Src/stm32f4xx_hal_flash.c ****   * @retval None
 416:Drivers/STM32F4xx_HAL_Driver/Src/stm32f4xx_hal_flash.c ****   */
 417:Drivers/STM32F4xx_HAL_Driver/Src/stm32f4xx_hal_flash.c **** __weak void HAL_FLASH_OperationErrorCallback(uint32_t ReturnValue)
 418:Drivers/STM32F4xx_HAL_Driver/Src/stm32f4xx_hal_flash.c **** {
 620              		.loc 1 418 1
 621              		.cfi_startproc
 622              		@ args = 0, pretend = 0, frame = 8
 623              		@ frame_needed = 1, uses_anonymous_args = 0
 624              		@ link register save eliminated.
 625 0000 80B4     		push	{r7}
 626              	.LCFI21:
 627              		.cfi_def_cfa_offset 4
 628              		.cfi_offset 7, -4
 629 0002 83B0     		sub	sp, sp, #12
 630              	.LCFI22:
 631              		.cfi_def_cfa_offset 16
 632 0004 00AF     		add	r7, sp, #0
 633              	.LCFI23:
 634              		.cfi_def_cfa_register 7
 635 0006 7860     		str	r0, [r7, #4]
 419:Drivers/STM32F4xx_HAL_Driver/Src/stm32f4xx_hal_flash.c ****   /* NOTE : This function Should not be modified, when the callback is needed,
 420:Drivers/STM32F4xx_HAL_Driver/Src/stm32f4xx_hal_flash.c ****             the HAL_FLASH_OperationErrorCallback could be implemented in the user file
 421:Drivers/STM32F4xx_HAL_Driver/Src/stm32f4xx_hal_flash.c ****    */ 
 422:Drivers/STM32F4xx_HAL_Driver/Src/stm32f4xx_hal_flash.c **** }
 636              		.loc 1 422 1
 637 0008 00BF     		nop
 638 000a 0C37     		adds	r7, r7, #12
 639              	.LCFI24:
 640              		.cfi_def_cfa_offset 4
 641 000c BD46     		mov	sp, r7
 642              	.LCFI25:
 643              		.cfi_def_cfa_register 13
 644              		@ sp needed
 645 000e 5DF8047B 		ldr	r7, [sp], #4
 646              	.LCFI26:
 647              		.cfi_restore 7
 648              		.cfi_def_cfa_offset 0
 649 0012 7047     		bx	lr
 650              		.cfi_endproc
 651              	.LFE132:
 653              		.section	.text.HAL_FLASH_Unlock,"ax",%progbits
 654              		.align	1
 655              		.global	HAL_FLASH_Unlock
 656              		.syntax unified
 657              		.thumb
 658              		.thumb_func
 660              	HAL_FLASH_Unlock:
 661              	.LFB133:
 423:Drivers/STM32F4xx_HAL_Driver/Src/stm32f4xx_hal_flash.c **** 
 424:Drivers/STM32F4xx_HAL_Driver/Src/stm32f4xx_hal_flash.c **** /**
 425:Drivers/STM32F4xx_HAL_Driver/Src/stm32f4xx_hal_flash.c ****   * @}
 426:Drivers/STM32F4xx_HAL_Driver/Src/stm32f4xx_hal_flash.c ****   */
ARM GAS  C:\Users\ep_ygh\AppData\Local\Temp\cc2Mv85j.s 			page 20


 427:Drivers/STM32F4xx_HAL_Driver/Src/stm32f4xx_hal_flash.c **** 
 428:Drivers/STM32F4xx_HAL_Driver/Src/stm32f4xx_hal_flash.c **** /** @defgroup FLASH_Exported_Functions_Group2 Peripheral Control functions 
 429:Drivers/STM32F4xx_HAL_Driver/Src/stm32f4xx_hal_flash.c ****  *  @brief   management functions 
 430:Drivers/STM32F4xx_HAL_Driver/Src/stm32f4xx_hal_flash.c ****  *
 431:Drivers/STM32F4xx_HAL_Driver/Src/stm32f4xx_hal_flash.c **** @verbatim   
 432:Drivers/STM32F4xx_HAL_Driver/Src/stm32f4xx_hal_flash.c ****  ===============================================================================
 433:Drivers/STM32F4xx_HAL_Driver/Src/stm32f4xx_hal_flash.c ****                       ##### Peripheral Control functions #####
 434:Drivers/STM32F4xx_HAL_Driver/Src/stm32f4xx_hal_flash.c ****  ===============================================================================  
 435:Drivers/STM32F4xx_HAL_Driver/Src/stm32f4xx_hal_flash.c ****     [..]
 436:Drivers/STM32F4xx_HAL_Driver/Src/stm32f4xx_hal_flash.c ****     This subsection provides a set of functions allowing to control the FLASH 
 437:Drivers/STM32F4xx_HAL_Driver/Src/stm32f4xx_hal_flash.c ****     memory operations.
 438:Drivers/STM32F4xx_HAL_Driver/Src/stm32f4xx_hal_flash.c **** 
 439:Drivers/STM32F4xx_HAL_Driver/Src/stm32f4xx_hal_flash.c **** @endverbatim
 440:Drivers/STM32F4xx_HAL_Driver/Src/stm32f4xx_hal_flash.c ****   * @{
 441:Drivers/STM32F4xx_HAL_Driver/Src/stm32f4xx_hal_flash.c ****   */
 442:Drivers/STM32F4xx_HAL_Driver/Src/stm32f4xx_hal_flash.c **** 
 443:Drivers/STM32F4xx_HAL_Driver/Src/stm32f4xx_hal_flash.c **** /**
 444:Drivers/STM32F4xx_HAL_Driver/Src/stm32f4xx_hal_flash.c ****   * @brief  Unlock the FLASH control register access
 445:Drivers/STM32F4xx_HAL_Driver/Src/stm32f4xx_hal_flash.c ****   * @retval HAL Status
 446:Drivers/STM32F4xx_HAL_Driver/Src/stm32f4xx_hal_flash.c ****   */
 447:Drivers/STM32F4xx_HAL_Driver/Src/stm32f4xx_hal_flash.c **** HAL_StatusTypeDef HAL_FLASH_Unlock(void)
 448:Drivers/STM32F4xx_HAL_Driver/Src/stm32f4xx_hal_flash.c **** {
 662              		.loc 1 448 1
 663              		.cfi_startproc
 664              		@ args = 0, pretend = 0, frame = 0
 665              		@ frame_needed = 1, uses_anonymous_args = 0
 666              		@ link register save eliminated.
 667 0000 80B4     		push	{r7}
 668              	.LCFI27:
 669              		.cfi_def_cfa_offset 4
 670              		.cfi_offset 7, -4
 671 0002 00AF     		add	r7, sp, #0
 672              	.LCFI28:
 673              		.cfi_def_cfa_register 7
 449:Drivers/STM32F4xx_HAL_Driver/Src/stm32f4xx_hal_flash.c ****   if((FLASH->CR & FLASH_CR_LOCK) != RESET)
 674              		.loc 1 449 12
 675 0004 084B     		ldr	r3, .L43
 676 0006 1B69     		ldr	r3, [r3, #16]
 677              		.loc 1 449 5
 678 0008 002B     		cmp	r3, #0
 679 000a 07DA     		bge	.L40
 450:Drivers/STM32F4xx_HAL_Driver/Src/stm32f4xx_hal_flash.c ****   {
 451:Drivers/STM32F4xx_HAL_Driver/Src/stm32f4xx_hal_flash.c ****     /* Authorize the FLASH Registers access */
 452:Drivers/STM32F4xx_HAL_Driver/Src/stm32f4xx_hal_flash.c ****     FLASH->KEYR = FLASH_KEY1;
 680              		.loc 1 452 10
 681 000c 064B     		ldr	r3, .L43
 682              		.loc 1 452 17
 683 000e 074A     		ldr	r2, .L43+4
 684 0010 5A60     		str	r2, [r3, #4]
 453:Drivers/STM32F4xx_HAL_Driver/Src/stm32f4xx_hal_flash.c ****     FLASH->KEYR = FLASH_KEY2;
 685              		.loc 1 453 10
 686 0012 054B     		ldr	r3, .L43
 687              		.loc 1 453 17
 688 0014 064A     		ldr	r2, .L43+8
 689 0016 5A60     		str	r2, [r3, #4]
 454:Drivers/STM32F4xx_HAL_Driver/Src/stm32f4xx_hal_flash.c ****   }
 455:Drivers/STM32F4xx_HAL_Driver/Src/stm32f4xx_hal_flash.c ****   else
ARM GAS  C:\Users\ep_ygh\AppData\Local\Temp\cc2Mv85j.s 			page 21


 456:Drivers/STM32F4xx_HAL_Driver/Src/stm32f4xx_hal_flash.c ****   {
 457:Drivers/STM32F4xx_HAL_Driver/Src/stm32f4xx_hal_flash.c ****     return HAL_ERROR;
 458:Drivers/STM32F4xx_HAL_Driver/Src/stm32f4xx_hal_flash.c ****   }
 459:Drivers/STM32F4xx_HAL_Driver/Src/stm32f4xx_hal_flash.c ****   
 460:Drivers/STM32F4xx_HAL_Driver/Src/stm32f4xx_hal_flash.c ****   return HAL_OK; 
 690              		.loc 1 460 10
 691 0018 0023     		movs	r3, #0
 692 001a 00E0     		b	.L42
 693              	.L40:
 457:Drivers/STM32F4xx_HAL_Driver/Src/stm32f4xx_hal_flash.c ****   }
 694              		.loc 1 457 12
 695 001c 0123     		movs	r3, #1
 696              	.L42:
 461:Drivers/STM32F4xx_HAL_Driver/Src/stm32f4xx_hal_flash.c **** }
 697              		.loc 1 461 1
 698 001e 1846     		mov	r0, r3
 699 0020 BD46     		mov	sp, r7
 700              	.LCFI29:
 701              		.cfi_def_cfa_register 13
 702              		@ sp needed
 703 0022 5DF8047B 		ldr	r7, [sp], #4
 704              	.LCFI30:
 705              		.cfi_restore 7
 706              		.cfi_def_cfa_offset 0
 707 0026 7047     		bx	lr
 708              	.L44:
 709              		.align	2
 710              	.L43:
 711 0028 003C0240 		.word	1073888256
 712 002c 23016745 		.word	1164378403
 713 0030 AB89EFCD 		.word	-839939669
 714              		.cfi_endproc
 715              	.LFE133:
 717              		.section	.text.HAL_FLASH_Lock,"ax",%progbits
 718              		.align	1
 719              		.global	HAL_FLASH_Lock
 720              		.syntax unified
 721              		.thumb
 722              		.thumb_func
 724              	HAL_FLASH_Lock:
 725              	.LFB134:
 462:Drivers/STM32F4xx_HAL_Driver/Src/stm32f4xx_hal_flash.c **** 
 463:Drivers/STM32F4xx_HAL_Driver/Src/stm32f4xx_hal_flash.c **** /**
 464:Drivers/STM32F4xx_HAL_Driver/Src/stm32f4xx_hal_flash.c ****   * @brief  Locks the FLASH control register access
 465:Drivers/STM32F4xx_HAL_Driver/Src/stm32f4xx_hal_flash.c ****   * @retval HAL Status
 466:Drivers/STM32F4xx_HAL_Driver/Src/stm32f4xx_hal_flash.c ****   */
 467:Drivers/STM32F4xx_HAL_Driver/Src/stm32f4xx_hal_flash.c **** HAL_StatusTypeDef HAL_FLASH_Lock(void)
 468:Drivers/STM32F4xx_HAL_Driver/Src/stm32f4xx_hal_flash.c **** {
 726              		.loc 1 468 1
 727              		.cfi_startproc
 728              		@ args = 0, pretend = 0, frame = 0
 729              		@ frame_needed = 1, uses_anonymous_args = 0
 730              		@ link register save eliminated.
 731 0000 80B4     		push	{r7}
 732              	.LCFI31:
 733              		.cfi_def_cfa_offset 4
 734              		.cfi_offset 7, -4
ARM GAS  C:\Users\ep_ygh\AppData\Local\Temp\cc2Mv85j.s 			page 22


 735 0002 00AF     		add	r7, sp, #0
 736              	.LCFI32:
 737              		.cfi_def_cfa_register 7
 469:Drivers/STM32F4xx_HAL_Driver/Src/stm32f4xx_hal_flash.c ****   /* Set the LOCK Bit to lock the FLASH Registers access */
 470:Drivers/STM32F4xx_HAL_Driver/Src/stm32f4xx_hal_flash.c ****   FLASH->CR |= FLASH_CR_LOCK;
 738              		.loc 1 470 13
 739 0004 054B     		ldr	r3, .L47
 740 0006 1B69     		ldr	r3, [r3, #16]
 741 0008 044A     		ldr	r2, .L47
 742 000a 43F00043 		orr	r3, r3, #-2147483648
 743 000e 1361     		str	r3, [r2, #16]
 471:Drivers/STM32F4xx_HAL_Driver/Src/stm32f4xx_hal_flash.c ****   
 472:Drivers/STM32F4xx_HAL_Driver/Src/stm32f4xx_hal_flash.c ****   return HAL_OK;  
 744              		.loc 1 472 10
 745 0010 0023     		movs	r3, #0
 473:Drivers/STM32F4xx_HAL_Driver/Src/stm32f4xx_hal_flash.c **** }
 746              		.loc 1 473 1
 747 0012 1846     		mov	r0, r3
 748 0014 BD46     		mov	sp, r7
 749              	.LCFI33:
 750              		.cfi_def_cfa_register 13
 751              		@ sp needed
 752 0016 5DF8047B 		ldr	r7, [sp], #4
 753              	.LCFI34:
 754              		.cfi_restore 7
 755              		.cfi_def_cfa_offset 0
 756 001a 7047     		bx	lr
 757              	.L48:
 758              		.align	2
 759              	.L47:
 760 001c 003C0240 		.word	1073888256
 761              		.cfi_endproc
 762              	.LFE134:
 764              		.section	.text.HAL_FLASH_OB_Unlock,"ax",%progbits
 765              		.align	1
 766              		.global	HAL_FLASH_OB_Unlock
 767              		.syntax unified
 768              		.thumb
 769              		.thumb_func
 771              	HAL_FLASH_OB_Unlock:
 772              	.LFB135:
 474:Drivers/STM32F4xx_HAL_Driver/Src/stm32f4xx_hal_flash.c **** 
 475:Drivers/STM32F4xx_HAL_Driver/Src/stm32f4xx_hal_flash.c **** /**
 476:Drivers/STM32F4xx_HAL_Driver/Src/stm32f4xx_hal_flash.c ****   * @brief  Unlock the FLASH Option Control Registers access.
 477:Drivers/STM32F4xx_HAL_Driver/Src/stm32f4xx_hal_flash.c ****   * @retval HAL Status
 478:Drivers/STM32F4xx_HAL_Driver/Src/stm32f4xx_hal_flash.c ****   */
 479:Drivers/STM32F4xx_HAL_Driver/Src/stm32f4xx_hal_flash.c **** HAL_StatusTypeDef HAL_FLASH_OB_Unlock(void)
 480:Drivers/STM32F4xx_HAL_Driver/Src/stm32f4xx_hal_flash.c **** {
 773              		.loc 1 480 1
 774              		.cfi_startproc
 775              		@ args = 0, pretend = 0, frame = 0
 776              		@ frame_needed = 1, uses_anonymous_args = 0
 777              		@ link register save eliminated.
 778 0000 80B4     		push	{r7}
 779              	.LCFI35:
 780              		.cfi_def_cfa_offset 4
 781              		.cfi_offset 7, -4
ARM GAS  C:\Users\ep_ygh\AppData\Local\Temp\cc2Mv85j.s 			page 23


 782 0002 00AF     		add	r7, sp, #0
 783              	.LCFI36:
 784              		.cfi_def_cfa_register 7
 481:Drivers/STM32F4xx_HAL_Driver/Src/stm32f4xx_hal_flash.c ****   if((FLASH->OPTCR & FLASH_OPTCR_OPTLOCK) != RESET)
 785              		.loc 1 481 12
 786 0004 094B     		ldr	r3, .L53
 787 0006 5B69     		ldr	r3, [r3, #20]
 788              		.loc 1 481 20
 789 0008 03F00103 		and	r3, r3, #1
 790              		.loc 1 481 5
 791 000c 002B     		cmp	r3, #0
 792 000e 07D0     		beq	.L50
 482:Drivers/STM32F4xx_HAL_Driver/Src/stm32f4xx_hal_flash.c ****   {
 483:Drivers/STM32F4xx_HAL_Driver/Src/stm32f4xx_hal_flash.c ****     /* Authorizes the Option Byte register programming */
 484:Drivers/STM32F4xx_HAL_Driver/Src/stm32f4xx_hal_flash.c ****     FLASH->OPTKEYR = FLASH_OPT_KEY1;
 793              		.loc 1 484 10
 794 0010 064B     		ldr	r3, .L53
 795              		.loc 1 484 20
 796 0012 074A     		ldr	r2, .L53+4
 797 0014 9A60     		str	r2, [r3, #8]
 485:Drivers/STM32F4xx_HAL_Driver/Src/stm32f4xx_hal_flash.c ****     FLASH->OPTKEYR = FLASH_OPT_KEY2;
 798              		.loc 1 485 10
 799 0016 054B     		ldr	r3, .L53
 800              		.loc 1 485 20
 801 0018 064A     		ldr	r2, .L53+8
 802 001a 9A60     		str	r2, [r3, #8]
 486:Drivers/STM32F4xx_HAL_Driver/Src/stm32f4xx_hal_flash.c ****   }
 487:Drivers/STM32F4xx_HAL_Driver/Src/stm32f4xx_hal_flash.c ****   else
 488:Drivers/STM32F4xx_HAL_Driver/Src/stm32f4xx_hal_flash.c ****   {
 489:Drivers/STM32F4xx_HAL_Driver/Src/stm32f4xx_hal_flash.c ****     return HAL_ERROR;
 490:Drivers/STM32F4xx_HAL_Driver/Src/stm32f4xx_hal_flash.c ****   }  
 491:Drivers/STM32F4xx_HAL_Driver/Src/stm32f4xx_hal_flash.c ****   
 492:Drivers/STM32F4xx_HAL_Driver/Src/stm32f4xx_hal_flash.c ****   return HAL_OK;  
 803              		.loc 1 492 10
 804 001c 0023     		movs	r3, #0
 805 001e 00E0     		b	.L52
 806              	.L50:
 489:Drivers/STM32F4xx_HAL_Driver/Src/stm32f4xx_hal_flash.c ****   }  
 807              		.loc 1 489 12
 808 0020 0123     		movs	r3, #1
 809              	.L52:
 493:Drivers/STM32F4xx_HAL_Driver/Src/stm32f4xx_hal_flash.c **** }
 810              		.loc 1 493 1
 811 0022 1846     		mov	r0, r3
 812 0024 BD46     		mov	sp, r7
 813              	.LCFI37:
 814              		.cfi_def_cfa_register 13
 815              		@ sp needed
 816 0026 5DF8047B 		ldr	r7, [sp], #4
 817              	.LCFI38:
 818              		.cfi_restore 7
 819              		.cfi_def_cfa_offset 0
 820 002a 7047     		bx	lr
 821              	.L54:
 822              		.align	2
 823              	.L53:
 824 002c 003C0240 		.word	1073888256
ARM GAS  C:\Users\ep_ygh\AppData\Local\Temp\cc2Mv85j.s 			page 24


 825 0030 3B2A1908 		.word	135866939
 826 0034 7F6E5D4C 		.word	1281191551
 827              		.cfi_endproc
 828              	.LFE135:
 830              		.section	.text.HAL_FLASH_OB_Lock,"ax",%progbits
 831              		.align	1
 832              		.global	HAL_FLASH_OB_Lock
 833              		.syntax unified
 834              		.thumb
 835              		.thumb_func
 837              	HAL_FLASH_OB_Lock:
 838              	.LFB136:
 494:Drivers/STM32F4xx_HAL_Driver/Src/stm32f4xx_hal_flash.c **** 
 495:Drivers/STM32F4xx_HAL_Driver/Src/stm32f4xx_hal_flash.c **** /**
 496:Drivers/STM32F4xx_HAL_Driver/Src/stm32f4xx_hal_flash.c ****   * @brief  Lock the FLASH Option Control Registers access.
 497:Drivers/STM32F4xx_HAL_Driver/Src/stm32f4xx_hal_flash.c ****   * @retval HAL Status 
 498:Drivers/STM32F4xx_HAL_Driver/Src/stm32f4xx_hal_flash.c ****   */
 499:Drivers/STM32F4xx_HAL_Driver/Src/stm32f4xx_hal_flash.c **** HAL_StatusTypeDef HAL_FLASH_OB_Lock(void)
 500:Drivers/STM32F4xx_HAL_Driver/Src/stm32f4xx_hal_flash.c **** {
 839              		.loc 1 500 1
 840              		.cfi_startproc
 841              		@ args = 0, pretend = 0, frame = 0
 842              		@ frame_needed = 1, uses_anonymous_args = 0
 843              		@ link register save eliminated.
 844 0000 80B4     		push	{r7}
 845              	.LCFI39:
 846              		.cfi_def_cfa_offset 4
 847              		.cfi_offset 7, -4
 848 0002 00AF     		add	r7, sp, #0
 849              	.LCFI40:
 850              		.cfi_def_cfa_register 7
 501:Drivers/STM32F4xx_HAL_Driver/Src/stm32f4xx_hal_flash.c ****   /* Set the OPTLOCK Bit to lock the FLASH Option Byte Registers access */
 502:Drivers/STM32F4xx_HAL_Driver/Src/stm32f4xx_hal_flash.c ****   FLASH->OPTCR |= FLASH_OPTCR_OPTLOCK;
 851              		.loc 1 502 16
 852 0004 054B     		ldr	r3, .L57
 853 0006 5B69     		ldr	r3, [r3, #20]
 854 0008 044A     		ldr	r2, .L57
 855 000a 43F00103 		orr	r3, r3, #1
 856 000e 5361     		str	r3, [r2, #20]
 503:Drivers/STM32F4xx_HAL_Driver/Src/stm32f4xx_hal_flash.c ****   
 504:Drivers/STM32F4xx_HAL_Driver/Src/stm32f4xx_hal_flash.c ****   return HAL_OK;  
 857              		.loc 1 504 10
 858 0010 0023     		movs	r3, #0
 505:Drivers/STM32F4xx_HAL_Driver/Src/stm32f4xx_hal_flash.c **** }
 859              		.loc 1 505 1
 860 0012 1846     		mov	r0, r3
 861 0014 BD46     		mov	sp, r7
 862              	.LCFI41:
 863              		.cfi_def_cfa_register 13
 864              		@ sp needed
 865 0016 5DF8047B 		ldr	r7, [sp], #4
 866              	.LCFI42:
 867              		.cfi_restore 7
 868              		.cfi_def_cfa_offset 0
 869 001a 7047     		bx	lr
 870              	.L58:
 871              		.align	2
ARM GAS  C:\Users\ep_ygh\AppData\Local\Temp\cc2Mv85j.s 			page 25


 872              	.L57:
 873 001c 003C0240 		.word	1073888256
 874              		.cfi_endproc
 875              	.LFE136:
 877              		.section	.text.HAL_FLASH_OB_Launch,"ax",%progbits
 878              		.align	1
 879              		.global	HAL_FLASH_OB_Launch
 880              		.syntax unified
 881              		.thumb
 882              		.thumb_func
 884              	HAL_FLASH_OB_Launch:
 885              	.LFB137:
 506:Drivers/STM32F4xx_HAL_Driver/Src/stm32f4xx_hal_flash.c **** 
 507:Drivers/STM32F4xx_HAL_Driver/Src/stm32f4xx_hal_flash.c **** /**
 508:Drivers/STM32F4xx_HAL_Driver/Src/stm32f4xx_hal_flash.c ****   * @brief  Launch the option byte loading.
 509:Drivers/STM32F4xx_HAL_Driver/Src/stm32f4xx_hal_flash.c ****   * @retval HAL Status
 510:Drivers/STM32F4xx_HAL_Driver/Src/stm32f4xx_hal_flash.c ****   */
 511:Drivers/STM32F4xx_HAL_Driver/Src/stm32f4xx_hal_flash.c **** HAL_StatusTypeDef HAL_FLASH_OB_Launch(void)
 512:Drivers/STM32F4xx_HAL_Driver/Src/stm32f4xx_hal_flash.c **** {
 886              		.loc 1 512 1
 887              		.cfi_startproc
 888              		@ args = 0, pretend = 0, frame = 0
 889              		@ frame_needed = 1, uses_anonymous_args = 0
 890 0000 80B5     		push	{r7, lr}
 891              	.LCFI43:
 892              		.cfi_def_cfa_offset 8
 893              		.cfi_offset 7, -8
 894              		.cfi_offset 14, -4
 895 0002 00AF     		add	r7, sp, #0
 896              	.LCFI44:
 897              		.cfi_def_cfa_register 7
 513:Drivers/STM32F4xx_HAL_Driver/Src/stm32f4xx_hal_flash.c ****   /* Set the OPTSTRT bit in OPTCR register */
 514:Drivers/STM32F4xx_HAL_Driver/Src/stm32f4xx_hal_flash.c ****   *(__IO uint8_t *)OPTCR_BYTE0_ADDRESS |= FLASH_OPTCR_OPTSTRT;
 898              		.loc 1 514 40
 899 0004 074B     		ldr	r3, .L61
 900 0006 1B78     		ldrb	r3, [r3]
 901 0008 DBB2     		uxtb	r3, r3
 902 000a 064A     		ldr	r2, .L61
 903 000c 43F00203 		orr	r3, r3, #2
 904 0010 DBB2     		uxtb	r3, r3
 905 0012 1370     		strb	r3, [r2]
 515:Drivers/STM32F4xx_HAL_Driver/Src/stm32f4xx_hal_flash.c **** 
 516:Drivers/STM32F4xx_HAL_Driver/Src/stm32f4xx_hal_flash.c ****   /* Wait for last operation to be completed */
 517:Drivers/STM32F4xx_HAL_Driver/Src/stm32f4xx_hal_flash.c ****   return(FLASH_WaitForLastOperation((uint32_t)FLASH_TIMEOUT_VALUE)); 
 906              		.loc 1 517 10
 907 0014 4CF25030 		movw	r0, #50000
 908 0018 FFF7FEFF 		bl	FLASH_WaitForLastOperation
 909 001c 0346     		mov	r3, r0
 518:Drivers/STM32F4xx_HAL_Driver/Src/stm32f4xx_hal_flash.c **** }
 910              		.loc 1 518 1
 911 001e 1846     		mov	r0, r3
 912 0020 80BD     		pop	{r7, pc}
 913              	.L62:
 914 0022 00BF     		.align	2
 915              	.L61:
 916 0024 143C0240 		.word	1073888276
 917              		.cfi_endproc
ARM GAS  C:\Users\ep_ygh\AppData\Local\Temp\cc2Mv85j.s 			page 26


 918              	.LFE137:
 920              		.section	.text.HAL_FLASH_GetError,"ax",%progbits
 921              		.align	1
 922              		.global	HAL_FLASH_GetError
 923              		.syntax unified
 924              		.thumb
 925              		.thumb_func
 927              	HAL_FLASH_GetError:
 928              	.LFB138:
 519:Drivers/STM32F4xx_HAL_Driver/Src/stm32f4xx_hal_flash.c **** 
 520:Drivers/STM32F4xx_HAL_Driver/Src/stm32f4xx_hal_flash.c **** /**
 521:Drivers/STM32F4xx_HAL_Driver/Src/stm32f4xx_hal_flash.c ****   * @}
 522:Drivers/STM32F4xx_HAL_Driver/Src/stm32f4xx_hal_flash.c ****   */
 523:Drivers/STM32F4xx_HAL_Driver/Src/stm32f4xx_hal_flash.c **** 
 524:Drivers/STM32F4xx_HAL_Driver/Src/stm32f4xx_hal_flash.c **** /** @defgroup FLASH_Exported_Functions_Group3 Peripheral State and Errors functions 
 525:Drivers/STM32F4xx_HAL_Driver/Src/stm32f4xx_hal_flash.c ****  *  @brief   Peripheral Errors functions 
 526:Drivers/STM32F4xx_HAL_Driver/Src/stm32f4xx_hal_flash.c ****  *
 527:Drivers/STM32F4xx_HAL_Driver/Src/stm32f4xx_hal_flash.c **** @verbatim   
 528:Drivers/STM32F4xx_HAL_Driver/Src/stm32f4xx_hal_flash.c ****  ===============================================================================
 529:Drivers/STM32F4xx_HAL_Driver/Src/stm32f4xx_hal_flash.c ****                 ##### Peripheral Errors functions #####
 530:Drivers/STM32F4xx_HAL_Driver/Src/stm32f4xx_hal_flash.c ****  ===============================================================================  
 531:Drivers/STM32F4xx_HAL_Driver/Src/stm32f4xx_hal_flash.c ****     [..]
 532:Drivers/STM32F4xx_HAL_Driver/Src/stm32f4xx_hal_flash.c ****     This subsection permits to get in run-time Errors of the FLASH peripheral.
 533:Drivers/STM32F4xx_HAL_Driver/Src/stm32f4xx_hal_flash.c **** 
 534:Drivers/STM32F4xx_HAL_Driver/Src/stm32f4xx_hal_flash.c **** @endverbatim
 535:Drivers/STM32F4xx_HAL_Driver/Src/stm32f4xx_hal_flash.c ****   * @{
 536:Drivers/STM32F4xx_HAL_Driver/Src/stm32f4xx_hal_flash.c ****   */
 537:Drivers/STM32F4xx_HAL_Driver/Src/stm32f4xx_hal_flash.c **** 
 538:Drivers/STM32F4xx_HAL_Driver/Src/stm32f4xx_hal_flash.c **** /**
 539:Drivers/STM32F4xx_HAL_Driver/Src/stm32f4xx_hal_flash.c ****   * @brief  Get the specific FLASH error flag.
 540:Drivers/STM32F4xx_HAL_Driver/Src/stm32f4xx_hal_flash.c ****   * @retval FLASH_ErrorCode: The returned value can be a combination of:
 541:Drivers/STM32F4xx_HAL_Driver/Src/stm32f4xx_hal_flash.c ****   *            @arg HAL_FLASH_ERROR_RD: FLASH Read Protection error flag (PCROP)
 542:Drivers/STM32F4xx_HAL_Driver/Src/stm32f4xx_hal_flash.c ****   *            @arg HAL_FLASH_ERROR_PGS: FLASH Programming Sequence error flag 
 543:Drivers/STM32F4xx_HAL_Driver/Src/stm32f4xx_hal_flash.c ****   *            @arg HAL_FLASH_ERROR_PGP: FLASH Programming Parallelism error flag  
 544:Drivers/STM32F4xx_HAL_Driver/Src/stm32f4xx_hal_flash.c ****   *            @arg HAL_FLASH_ERROR_PGA: FLASH Programming Alignment error flag
 545:Drivers/STM32F4xx_HAL_Driver/Src/stm32f4xx_hal_flash.c ****   *            @arg HAL_FLASH_ERROR_WRP: FLASH Write protected error flag
 546:Drivers/STM32F4xx_HAL_Driver/Src/stm32f4xx_hal_flash.c ****   *            @arg HAL_FLASH_ERROR_OPERATION: FLASH operation Error flag 
 547:Drivers/STM32F4xx_HAL_Driver/Src/stm32f4xx_hal_flash.c ****   */
 548:Drivers/STM32F4xx_HAL_Driver/Src/stm32f4xx_hal_flash.c **** uint32_t HAL_FLASH_GetError(void)
 549:Drivers/STM32F4xx_HAL_Driver/Src/stm32f4xx_hal_flash.c **** { 
 929              		.loc 1 549 1
 930              		.cfi_startproc
 931              		@ args = 0, pretend = 0, frame = 0
 932              		@ frame_needed = 1, uses_anonymous_args = 0
 933              		@ link register save eliminated.
 934 0000 80B4     		push	{r7}
 935              	.LCFI45:
 936              		.cfi_def_cfa_offset 4
 937              		.cfi_offset 7, -4
 938 0002 00AF     		add	r7, sp, #0
 939              	.LCFI46:
 940              		.cfi_def_cfa_register 7
 550:Drivers/STM32F4xx_HAL_Driver/Src/stm32f4xx_hal_flash.c ****    return pFlash.ErrorCode;
 941              		.loc 1 550 17
 942 0004 034B     		ldr	r3, .L65
 943 0006 DB69     		ldr	r3, [r3, #28]
 551:Drivers/STM32F4xx_HAL_Driver/Src/stm32f4xx_hal_flash.c **** }  
ARM GAS  C:\Users\ep_ygh\AppData\Local\Temp\cc2Mv85j.s 			page 27


 944              		.loc 1 551 1
 945 0008 1846     		mov	r0, r3
 946 000a BD46     		mov	sp, r7
 947              	.LCFI47:
 948              		.cfi_def_cfa_register 13
 949              		@ sp needed
 950 000c 5DF8047B 		ldr	r7, [sp], #4
 951              	.LCFI48:
 952              		.cfi_restore 7
 953              		.cfi_def_cfa_offset 0
 954 0010 7047     		bx	lr
 955              	.L66:
 956 0012 00BF     		.align	2
 957              	.L65:
 958 0014 00000000 		.word	pFlash
 959              		.cfi_endproc
 960              	.LFE138:
 962              		.section	.text.FLASH_WaitForLastOperation,"ax",%progbits
 963              		.align	1
 964              		.global	FLASH_WaitForLastOperation
 965              		.syntax unified
 966              		.thumb
 967              		.thumb_func
 969              	FLASH_WaitForLastOperation:
 970              	.LFB139:
 552:Drivers/STM32F4xx_HAL_Driver/Src/stm32f4xx_hal_flash.c ****   
 553:Drivers/STM32F4xx_HAL_Driver/Src/stm32f4xx_hal_flash.c **** /**
 554:Drivers/STM32F4xx_HAL_Driver/Src/stm32f4xx_hal_flash.c ****   * @}
 555:Drivers/STM32F4xx_HAL_Driver/Src/stm32f4xx_hal_flash.c ****   */    
 556:Drivers/STM32F4xx_HAL_Driver/Src/stm32f4xx_hal_flash.c **** 
 557:Drivers/STM32F4xx_HAL_Driver/Src/stm32f4xx_hal_flash.c **** /**
 558:Drivers/STM32F4xx_HAL_Driver/Src/stm32f4xx_hal_flash.c ****   * @brief  Wait for a FLASH operation to complete.
 559:Drivers/STM32F4xx_HAL_Driver/Src/stm32f4xx_hal_flash.c ****   * @param  Timeout: maximum flash operationtimeout
 560:Drivers/STM32F4xx_HAL_Driver/Src/stm32f4xx_hal_flash.c ****   * @retval HAL Status
 561:Drivers/STM32F4xx_HAL_Driver/Src/stm32f4xx_hal_flash.c ****   */
 562:Drivers/STM32F4xx_HAL_Driver/Src/stm32f4xx_hal_flash.c **** HAL_StatusTypeDef FLASH_WaitForLastOperation(uint32_t Timeout)
 563:Drivers/STM32F4xx_HAL_Driver/Src/stm32f4xx_hal_flash.c **** { 
 971              		.loc 1 563 1
 972              		.cfi_startproc
 973              		@ args = 0, pretend = 0, frame = 16
 974              		@ frame_needed = 1, uses_anonymous_args = 0
 975 0000 80B5     		push	{r7, lr}
 976              	.LCFI49:
 977              		.cfi_def_cfa_offset 8
 978              		.cfi_offset 7, -8
 979              		.cfi_offset 14, -4
 980 0002 84B0     		sub	sp, sp, #16
 981              	.LCFI50:
 982              		.cfi_def_cfa_offset 24
 983 0004 00AF     		add	r7, sp, #0
 984              	.LCFI51:
 985              		.cfi_def_cfa_register 7
 986 0006 7860     		str	r0, [r7, #4]
 564:Drivers/STM32F4xx_HAL_Driver/Src/stm32f4xx_hal_flash.c ****   uint32_t tickstart = 0;
 987              		.loc 1 564 12
 988 0008 0023     		movs	r3, #0
 989 000a FB60     		str	r3, [r7, #12]
ARM GAS  C:\Users\ep_ygh\AppData\Local\Temp\cc2Mv85j.s 			page 28


 565:Drivers/STM32F4xx_HAL_Driver/Src/stm32f4xx_hal_flash.c ****   
 566:Drivers/STM32F4xx_HAL_Driver/Src/stm32f4xx_hal_flash.c ****   /* Clear Error Code */
 567:Drivers/STM32F4xx_HAL_Driver/Src/stm32f4xx_hal_flash.c ****   pFlash.ErrorCode = HAL_FLASH_ERROR_NONE;
 990              		.loc 1 567 20
 991 000c 1A4B     		ldr	r3, .L74
 992 000e 0022     		movs	r2, #0
 993 0010 DA61     		str	r2, [r3, #28]
 568:Drivers/STM32F4xx_HAL_Driver/Src/stm32f4xx_hal_flash.c ****   
 569:Drivers/STM32F4xx_HAL_Driver/Src/stm32f4xx_hal_flash.c ****   /* Wait for the FLASH operation to complete by polling on BUSY flag to be reset.
 570:Drivers/STM32F4xx_HAL_Driver/Src/stm32f4xx_hal_flash.c ****      Even if the FLASH operation fails, the BUSY flag will be reset and an error
 571:Drivers/STM32F4xx_HAL_Driver/Src/stm32f4xx_hal_flash.c ****      flag will be set */
 572:Drivers/STM32F4xx_HAL_Driver/Src/stm32f4xx_hal_flash.c ****   /* Get tick */
 573:Drivers/STM32F4xx_HAL_Driver/Src/stm32f4xx_hal_flash.c ****   tickstart = HAL_GetTick();
 994              		.loc 1 573 15
 995 0012 FFF7FEFF 		bl	HAL_GetTick
 996 0016 F860     		str	r0, [r7, #12]
 574:Drivers/STM32F4xx_HAL_Driver/Src/stm32f4xx_hal_flash.c **** 
 575:Drivers/STM32F4xx_HAL_Driver/Src/stm32f4xx_hal_flash.c ****   while(__HAL_FLASH_GET_FLAG(FLASH_FLAG_BSY) != RESET) 
 997              		.loc 1 575 8
 998 0018 10E0     		b	.L68
 999              	.L71:
 576:Drivers/STM32F4xx_HAL_Driver/Src/stm32f4xx_hal_flash.c ****   { 
 577:Drivers/STM32F4xx_HAL_Driver/Src/stm32f4xx_hal_flash.c ****     if(Timeout != HAL_MAX_DELAY)
 1000              		.loc 1 577 7
 1001 001a 7B68     		ldr	r3, [r7, #4]
 1002 001c B3F1FF3F 		cmp	r3, #-1
 1003 0020 0CD0     		beq	.L68
 578:Drivers/STM32F4xx_HAL_Driver/Src/stm32f4xx_hal_flash.c ****     {
 579:Drivers/STM32F4xx_HAL_Driver/Src/stm32f4xx_hal_flash.c ****       if((Timeout == 0)||((HAL_GetTick() - tickstart ) > Timeout))
 1004              		.loc 1 579 9
 1005 0022 7B68     		ldr	r3, [r7, #4]
 1006 0024 002B     		cmp	r3, #0
 1007 0026 07D0     		beq	.L69
 1008              		.loc 1 579 28 discriminator 1
 1009 0028 FFF7FEFF 		bl	HAL_GetTick
 1010 002c 0246     		mov	r2, r0
 1011              		.loc 1 579 42 discriminator 1
 1012 002e FB68     		ldr	r3, [r7, #12]
 1013 0030 D31A     		subs	r3, r2, r3
 1014              		.loc 1 579 24 discriminator 1
 1015 0032 7A68     		ldr	r2, [r7, #4]
 1016 0034 9A42     		cmp	r2, r3
 1017 0036 01D2     		bcs	.L68
 1018              	.L69:
 580:Drivers/STM32F4xx_HAL_Driver/Src/stm32f4xx_hal_flash.c ****       {
 581:Drivers/STM32F4xx_HAL_Driver/Src/stm32f4xx_hal_flash.c ****         return HAL_TIMEOUT;
 1019              		.loc 1 581 16
 1020 0038 0323     		movs	r3, #3
 1021 003a 19E0     		b	.L70
 1022              	.L68:
 575:Drivers/STM32F4xx_HAL_Driver/Src/stm32f4xx_hal_flash.c ****   { 
 1023              		.loc 1 575 9
 1024 003c 0F4B     		ldr	r3, .L74+4
 1025 003e DB68     		ldr	r3, [r3, #12]
 1026 0040 03F48033 		and	r3, r3, #65536
 575:Drivers/STM32F4xx_HAL_Driver/Src/stm32f4xx_hal_flash.c ****   { 
 1027              		.loc 1 575 8
ARM GAS  C:\Users\ep_ygh\AppData\Local\Temp\cc2Mv85j.s 			page 29


 1028 0044 002B     		cmp	r3, #0
 1029 0046 E8D1     		bne	.L71
 582:Drivers/STM32F4xx_HAL_Driver/Src/stm32f4xx_hal_flash.c ****       }
 583:Drivers/STM32F4xx_HAL_Driver/Src/stm32f4xx_hal_flash.c ****     } 
 584:Drivers/STM32F4xx_HAL_Driver/Src/stm32f4xx_hal_flash.c ****   }
 585:Drivers/STM32F4xx_HAL_Driver/Src/stm32f4xx_hal_flash.c **** 
 586:Drivers/STM32F4xx_HAL_Driver/Src/stm32f4xx_hal_flash.c ****   /* Check FLASH End of Operation flag  */
 587:Drivers/STM32F4xx_HAL_Driver/Src/stm32f4xx_hal_flash.c ****   if (__HAL_FLASH_GET_FLAG(FLASH_FLAG_EOP))
 1030              		.loc 1 587 7
 1031 0048 0C4B     		ldr	r3, .L74+4
 1032 004a DB68     		ldr	r3, [r3, #12]
 1033 004c 03F00103 		and	r3, r3, #1
 1034              		.loc 1 587 6
 1035 0050 002B     		cmp	r3, #0
 1036 0052 02D0     		beq	.L72
 588:Drivers/STM32F4xx_HAL_Driver/Src/stm32f4xx_hal_flash.c ****   {
 589:Drivers/STM32F4xx_HAL_Driver/Src/stm32f4xx_hal_flash.c ****     /* Clear FLASH End of Operation pending bit */
 590:Drivers/STM32F4xx_HAL_Driver/Src/stm32f4xx_hal_flash.c ****     __HAL_FLASH_CLEAR_FLAG(FLASH_FLAG_EOP);
 1037              		.loc 1 590 5
 1038 0054 094B     		ldr	r3, .L74+4
 1039 0056 0122     		movs	r2, #1
 1040 0058 DA60     		str	r2, [r3, #12]
 1041              	.L72:
 591:Drivers/STM32F4xx_HAL_Driver/Src/stm32f4xx_hal_flash.c ****   }
 592:Drivers/STM32F4xx_HAL_Driver/Src/stm32f4xx_hal_flash.c ****   
 593:Drivers/STM32F4xx_HAL_Driver/Src/stm32f4xx_hal_flash.c ****   if(__HAL_FLASH_GET_FLAG((FLASH_FLAG_OPERR | FLASH_FLAG_WRPERR | FLASH_FLAG_PGAERR | \
 1042              		.loc 1 593 6
 1043 005a 084B     		ldr	r3, .L74+4
 1044 005c DB68     		ldr	r3, [r3, #12]
 1045 005e 03F4F973 		and	r3, r3, #498
 1046              		.loc 1 593 5
 1047 0062 002B     		cmp	r3, #0
 1048 0064 03D0     		beq	.L73
 594:Drivers/STM32F4xx_HAL_Driver/Src/stm32f4xx_hal_flash.c ****                            FLASH_FLAG_PGPERR | FLASH_FLAG_PGSERR | FLASH_FLAG_RDERR)) != RESET)
 595:Drivers/STM32F4xx_HAL_Driver/Src/stm32f4xx_hal_flash.c ****   {
 596:Drivers/STM32F4xx_HAL_Driver/Src/stm32f4xx_hal_flash.c ****     /*Save the error code*/
 597:Drivers/STM32F4xx_HAL_Driver/Src/stm32f4xx_hal_flash.c ****     FLASH_SetErrorCode();
 1049              		.loc 1 597 5
 1050 0066 FFF7FEFF 		bl	FLASH_SetErrorCode
 598:Drivers/STM32F4xx_HAL_Driver/Src/stm32f4xx_hal_flash.c ****     return HAL_ERROR;
 1051              		.loc 1 598 12
 1052 006a 0123     		movs	r3, #1
 1053 006c 00E0     		b	.L70
 1054              	.L73:
 599:Drivers/STM32F4xx_HAL_Driver/Src/stm32f4xx_hal_flash.c ****   }
 600:Drivers/STM32F4xx_HAL_Driver/Src/stm32f4xx_hal_flash.c **** 
 601:Drivers/STM32F4xx_HAL_Driver/Src/stm32f4xx_hal_flash.c ****   /* If there is no error flag set */
 602:Drivers/STM32F4xx_HAL_Driver/Src/stm32f4xx_hal_flash.c ****   return HAL_OK;
 1055              		.loc 1 602 10
 1056 006e 0023     		movs	r3, #0
 1057              	.L70:
 603:Drivers/STM32F4xx_HAL_Driver/Src/stm32f4xx_hal_flash.c ****   
 604:Drivers/STM32F4xx_HAL_Driver/Src/stm32f4xx_hal_flash.c **** }  
 1058              		.loc 1 604 1
 1059 0070 1846     		mov	r0, r3
 1060 0072 1037     		adds	r7, r7, #16
 1061              	.LCFI52:
ARM GAS  C:\Users\ep_ygh\AppData\Local\Temp\cc2Mv85j.s 			page 30


 1062              		.cfi_def_cfa_offset 8
 1063 0074 BD46     		mov	sp, r7
 1064              	.LCFI53:
 1065              		.cfi_def_cfa_register 13
 1066              		@ sp needed
 1067 0076 80BD     		pop	{r7, pc}
 1068              	.L75:
 1069              		.align	2
 1070              	.L74:
 1071 0078 00000000 		.word	pFlash
 1072 007c 003C0240 		.word	1073888256
 1073              		.cfi_endproc
 1074              	.LFE139:
 1076              		.section	.text.FLASH_Program_DoubleWord,"ax",%progbits
 1077              		.align	1
 1078              		.syntax unified
 1079              		.thumb
 1080              		.thumb_func
 1082              	FLASH_Program_DoubleWord:
 1083              	.LFB140:
 605:Drivers/STM32F4xx_HAL_Driver/Src/stm32f4xx_hal_flash.c **** 
 606:Drivers/STM32F4xx_HAL_Driver/Src/stm32f4xx_hal_flash.c **** /**
 607:Drivers/STM32F4xx_HAL_Driver/Src/stm32f4xx_hal_flash.c ****   * @brief  Program a double word (64-bit) at a specified address.
 608:Drivers/STM32F4xx_HAL_Driver/Src/stm32f4xx_hal_flash.c ****   * @note   This function must be used when the device voltage range is from
 609:Drivers/STM32F4xx_HAL_Driver/Src/stm32f4xx_hal_flash.c ****   *         2.7V to 3.6V and an External Vpp is present.
 610:Drivers/STM32F4xx_HAL_Driver/Src/stm32f4xx_hal_flash.c ****   *
 611:Drivers/STM32F4xx_HAL_Driver/Src/stm32f4xx_hal_flash.c ****   * @note   If an erase and a program operations are requested simultaneously,    
 612:Drivers/STM32F4xx_HAL_Driver/Src/stm32f4xx_hal_flash.c ****   *         the erase operation is performed before the program one.
 613:Drivers/STM32F4xx_HAL_Driver/Src/stm32f4xx_hal_flash.c ****   *  
 614:Drivers/STM32F4xx_HAL_Driver/Src/stm32f4xx_hal_flash.c ****   * @param  Address: specifies the address to be programmed.
 615:Drivers/STM32F4xx_HAL_Driver/Src/stm32f4xx_hal_flash.c ****   * @param  Data: specifies the data to be programmed.
 616:Drivers/STM32F4xx_HAL_Driver/Src/stm32f4xx_hal_flash.c ****   * @retval None
 617:Drivers/STM32F4xx_HAL_Driver/Src/stm32f4xx_hal_flash.c ****   */
 618:Drivers/STM32F4xx_HAL_Driver/Src/stm32f4xx_hal_flash.c **** static void FLASH_Program_DoubleWord(uint32_t Address, uint64_t Data)
 619:Drivers/STM32F4xx_HAL_Driver/Src/stm32f4xx_hal_flash.c **** {
 1084              		.loc 1 619 1
 1085              		.cfi_startproc
 1086              		@ args = 0, pretend = 0, frame = 16
 1087              		@ frame_needed = 1, uses_anonymous_args = 0
 1088 0000 80B5     		push	{r7, lr}
 1089              	.LCFI54:
 1090              		.cfi_def_cfa_offset 8
 1091              		.cfi_offset 7, -8
 1092              		.cfi_offset 14, -4
 1093 0002 84B0     		sub	sp, sp, #16
 1094              	.LCFI55:
 1095              		.cfi_def_cfa_offset 24
 1096 0004 00AF     		add	r7, sp, #0
 1097              	.LCFI56:
 1098              		.cfi_def_cfa_register 7
 1099 0006 F860     		str	r0, [r7, #12]
 1100 0008 C7E90023 		strd	r2, [r7]
 620:Drivers/STM32F4xx_HAL_Driver/Src/stm32f4xx_hal_flash.c ****   /* Check the parameters */
 621:Drivers/STM32F4xx_HAL_Driver/Src/stm32f4xx_hal_flash.c ****   assert_param(IS_FLASH_ADDRESS(Address));
 1101              		.loc 1 621 3
 1102 000c FB68     		ldr	r3, [r7, #12]
 1103 000e B3F1006F 		cmp	r3, #134217728
ARM GAS  C:\Users\ep_ygh\AppData\Local\Temp\cc2Mv85j.s 			page 31


 1104 0012 03D3     		bcc	.L77
 1105              		.loc 1 621 3 is_stmt 0 discriminator 2
 1106 0014 FB68     		ldr	r3, [r7, #12]
 1107 0016 114A     		ldr	r2, .L79
 1108 0018 9342     		cmp	r3, r2
 1109 001a 04D9     		bls	.L78
 1110              	.L77:
 1111              		.loc 1 621 3 discriminator 3
 1112 001c 40F26D21 		movw	r1, #621
 1113 0020 0F48     		ldr	r0, .L79+4
 1114 0022 FFF7FEFF 		bl	assert_failed
 1115              	.L78:
 622:Drivers/STM32F4xx_HAL_Driver/Src/stm32f4xx_hal_flash.c ****   
 623:Drivers/STM32F4xx_HAL_Driver/Src/stm32f4xx_hal_flash.c ****   /* If the previous operation is completed, proceed to program the new data */
 624:Drivers/STM32F4xx_HAL_Driver/Src/stm32f4xx_hal_flash.c ****   CLEAR_BIT(FLASH->CR, FLASH_CR_PSIZE);
 1116              		.loc 1 624 3 is_stmt 1
 1117 0026 0F4B     		ldr	r3, .L79+8
 1118 0028 1B69     		ldr	r3, [r3, #16]
 1119 002a 0E4A     		ldr	r2, .L79+8
 1120 002c 23F44073 		bic	r3, r3, #768
 1121 0030 1361     		str	r3, [r2, #16]
 625:Drivers/STM32F4xx_HAL_Driver/Src/stm32f4xx_hal_flash.c ****   FLASH->CR |= FLASH_PSIZE_DOUBLE_WORD;
 1122              		.loc 1 625 13
 1123 0032 0C4B     		ldr	r3, .L79+8
 1124 0034 1B69     		ldr	r3, [r3, #16]
 1125 0036 0B4A     		ldr	r2, .L79+8
 1126 0038 43F44073 		orr	r3, r3, #768
 1127 003c 1361     		str	r3, [r2, #16]
 626:Drivers/STM32F4xx_HAL_Driver/Src/stm32f4xx_hal_flash.c ****   FLASH->CR |= FLASH_CR_PG;
 1128              		.loc 1 626 13
 1129 003e 094B     		ldr	r3, .L79+8
 1130 0040 1B69     		ldr	r3, [r3, #16]
 1131 0042 084A     		ldr	r2, .L79+8
 1132 0044 43F00103 		orr	r3, r3, #1
 1133 0048 1361     		str	r3, [r2, #16]
 627:Drivers/STM32F4xx_HAL_Driver/Src/stm32f4xx_hal_flash.c **** 
 628:Drivers/STM32F4xx_HAL_Driver/Src/stm32f4xx_hal_flash.c ****   *(__IO uint64_t*)Address = Data;
 1134              		.loc 1 628 4
 1135 004a F968     		ldr	r1, [r7, #12]
 1136              		.loc 1 628 28
 1137 004c D7E90023 		ldrd	r2, [r7]
 1138 0050 C1E90023 		strd	r2, [r1]
 629:Drivers/STM32F4xx_HAL_Driver/Src/stm32f4xx_hal_flash.c **** }
 1139              		.loc 1 629 1
 1140 0054 00BF     		nop
 1141 0056 1037     		adds	r7, r7, #16
 1142              	.LCFI57:
 1143              		.cfi_def_cfa_offset 8
 1144 0058 BD46     		mov	sp, r7
 1145              	.LCFI58:
 1146              		.cfi_def_cfa_register 13
 1147              		@ sp needed
 1148 005a 80BD     		pop	{r7, pc}
 1149              	.L80:
 1150              		.align	2
 1151              	.L79:
 1152 005c FFFF0708 		.word	134742015
ARM GAS  C:\Users\ep_ygh\AppData\Local\Temp\cc2Mv85j.s 			page 32


 1153 0060 00000000 		.word	.LC0
 1154 0064 003C0240 		.word	1073888256
 1155              		.cfi_endproc
 1156              	.LFE140:
 1158              		.section	.text.FLASH_Program_Word,"ax",%progbits
 1159              		.align	1
 1160              		.syntax unified
 1161              		.thumb
 1162              		.thumb_func
 1164              	FLASH_Program_Word:
 1165              	.LFB141:
 630:Drivers/STM32F4xx_HAL_Driver/Src/stm32f4xx_hal_flash.c **** 
 631:Drivers/STM32F4xx_HAL_Driver/Src/stm32f4xx_hal_flash.c **** 
 632:Drivers/STM32F4xx_HAL_Driver/Src/stm32f4xx_hal_flash.c **** /**
 633:Drivers/STM32F4xx_HAL_Driver/Src/stm32f4xx_hal_flash.c ****   * @brief  Program word (32-bit) at a specified address.
 634:Drivers/STM32F4xx_HAL_Driver/Src/stm32f4xx_hal_flash.c ****   * @note   This function must be used when the device voltage range is from
 635:Drivers/STM32F4xx_HAL_Driver/Src/stm32f4xx_hal_flash.c ****   *         2.7V to 3.6V.
 636:Drivers/STM32F4xx_HAL_Driver/Src/stm32f4xx_hal_flash.c ****   *
 637:Drivers/STM32F4xx_HAL_Driver/Src/stm32f4xx_hal_flash.c ****   * @note   If an erase and a program operations are requested simultaneously,    
 638:Drivers/STM32F4xx_HAL_Driver/Src/stm32f4xx_hal_flash.c ****   *         the erase operation is performed before the program one.
 639:Drivers/STM32F4xx_HAL_Driver/Src/stm32f4xx_hal_flash.c ****   *  
 640:Drivers/STM32F4xx_HAL_Driver/Src/stm32f4xx_hal_flash.c ****   * @param  Address: specifies the address to be programmed.
 641:Drivers/STM32F4xx_HAL_Driver/Src/stm32f4xx_hal_flash.c ****   * @param  Data: specifies the data to be programmed.
 642:Drivers/STM32F4xx_HAL_Driver/Src/stm32f4xx_hal_flash.c ****   * @retval None
 643:Drivers/STM32F4xx_HAL_Driver/Src/stm32f4xx_hal_flash.c ****   */
 644:Drivers/STM32F4xx_HAL_Driver/Src/stm32f4xx_hal_flash.c **** static void FLASH_Program_Word(uint32_t Address, uint32_t Data)
 645:Drivers/STM32F4xx_HAL_Driver/Src/stm32f4xx_hal_flash.c **** {
 1166              		.loc 1 645 1
 1167              		.cfi_startproc
 1168              		@ args = 0, pretend = 0, frame = 8
 1169              		@ frame_needed = 1, uses_anonymous_args = 0
 1170 0000 80B5     		push	{r7, lr}
 1171              	.LCFI59:
 1172              		.cfi_def_cfa_offset 8
 1173              		.cfi_offset 7, -8
 1174              		.cfi_offset 14, -4
 1175 0002 82B0     		sub	sp, sp, #8
 1176              	.LCFI60:
 1177              		.cfi_def_cfa_offset 16
 1178 0004 00AF     		add	r7, sp, #0
 1179              	.LCFI61:
 1180              		.cfi_def_cfa_register 7
 1181 0006 7860     		str	r0, [r7, #4]
 1182 0008 3960     		str	r1, [r7]
 646:Drivers/STM32F4xx_HAL_Driver/Src/stm32f4xx_hal_flash.c ****   /* Check the parameters */
 647:Drivers/STM32F4xx_HAL_Driver/Src/stm32f4xx_hal_flash.c ****   assert_param(IS_FLASH_ADDRESS(Address));
 1183              		.loc 1 647 3
 1184 000a 7B68     		ldr	r3, [r7, #4]
 1185 000c B3F1006F 		cmp	r3, #134217728
 1186 0010 03D3     		bcc	.L82
 1187              		.loc 1 647 3 is_stmt 0 discriminator 2
 1188 0012 7B68     		ldr	r3, [r7, #4]
 1189 0014 104A     		ldr	r2, .L84
 1190 0016 9342     		cmp	r3, r2
 1191 0018 04D9     		bls	.L83
 1192              	.L82:
 1193              		.loc 1 647 3 discriminator 3
ARM GAS  C:\Users\ep_ygh\AppData\Local\Temp\cc2Mv85j.s 			page 33


 1194 001a 40F28721 		movw	r1, #647
 1195 001e 0F48     		ldr	r0, .L84+4
 1196 0020 FFF7FEFF 		bl	assert_failed
 1197              	.L83:
 648:Drivers/STM32F4xx_HAL_Driver/Src/stm32f4xx_hal_flash.c ****   
 649:Drivers/STM32F4xx_HAL_Driver/Src/stm32f4xx_hal_flash.c ****   /* If the previous operation is completed, proceed to program the new data */
 650:Drivers/STM32F4xx_HAL_Driver/Src/stm32f4xx_hal_flash.c ****   CLEAR_BIT(FLASH->CR, FLASH_CR_PSIZE);
 1198              		.loc 1 650 3 is_stmt 1
 1199 0024 0E4B     		ldr	r3, .L84+8
 1200 0026 1B69     		ldr	r3, [r3, #16]
 1201 0028 0D4A     		ldr	r2, .L84+8
 1202 002a 23F44073 		bic	r3, r3, #768
 1203 002e 1361     		str	r3, [r2, #16]
 651:Drivers/STM32F4xx_HAL_Driver/Src/stm32f4xx_hal_flash.c ****   FLASH->CR |= FLASH_PSIZE_WORD;
 1204              		.loc 1 651 13
 1205 0030 0B4B     		ldr	r3, .L84+8
 1206 0032 1B69     		ldr	r3, [r3, #16]
 1207 0034 0A4A     		ldr	r2, .L84+8
 1208 0036 43F40073 		orr	r3, r3, #512
 1209 003a 1361     		str	r3, [r2, #16]
 652:Drivers/STM32F4xx_HAL_Driver/Src/stm32f4xx_hal_flash.c ****   FLASH->CR |= FLASH_CR_PG;
 1210              		.loc 1 652 13
 1211 003c 084B     		ldr	r3, .L84+8
 1212 003e 1B69     		ldr	r3, [r3, #16]
 1213 0040 074A     		ldr	r2, .L84+8
 1214 0042 43F00103 		orr	r3, r3, #1
 1215 0046 1361     		str	r3, [r2, #16]
 653:Drivers/STM32F4xx_HAL_Driver/Src/stm32f4xx_hal_flash.c **** 
 654:Drivers/STM32F4xx_HAL_Driver/Src/stm32f4xx_hal_flash.c ****   *(__IO uint32_t*)Address = Data;
 1216              		.loc 1 654 4
 1217 0048 7B68     		ldr	r3, [r7, #4]
 1218              		.loc 1 654 28
 1219 004a 3A68     		ldr	r2, [r7]
 1220 004c 1A60     		str	r2, [r3]
 655:Drivers/STM32F4xx_HAL_Driver/Src/stm32f4xx_hal_flash.c **** }
 1221              		.loc 1 655 1
 1222 004e 00BF     		nop
 1223 0050 0837     		adds	r7, r7, #8
 1224              	.LCFI62:
 1225              		.cfi_def_cfa_offset 8
 1226 0052 BD46     		mov	sp, r7
 1227              	.LCFI63:
 1228              		.cfi_def_cfa_register 13
 1229              		@ sp needed
 1230 0054 80BD     		pop	{r7, pc}
 1231              	.L85:
 1232 0056 00BF     		.align	2
 1233              	.L84:
 1234 0058 FFFF0708 		.word	134742015
 1235 005c 00000000 		.word	.LC0
 1236 0060 003C0240 		.word	1073888256
 1237              		.cfi_endproc
 1238              	.LFE141:
 1240              		.section	.text.FLASH_Program_HalfWord,"ax",%progbits
 1241              		.align	1
 1242              		.syntax unified
 1243              		.thumb
ARM GAS  C:\Users\ep_ygh\AppData\Local\Temp\cc2Mv85j.s 			page 34


 1244              		.thumb_func
 1246              	FLASH_Program_HalfWord:
 1247              	.LFB142:
 656:Drivers/STM32F4xx_HAL_Driver/Src/stm32f4xx_hal_flash.c **** 
 657:Drivers/STM32F4xx_HAL_Driver/Src/stm32f4xx_hal_flash.c **** /**
 658:Drivers/STM32F4xx_HAL_Driver/Src/stm32f4xx_hal_flash.c ****   * @brief  Program a half-word (16-bit) at a specified address.
 659:Drivers/STM32F4xx_HAL_Driver/Src/stm32f4xx_hal_flash.c ****   * @note   This function must be used when the device voltage range is from
 660:Drivers/STM32F4xx_HAL_Driver/Src/stm32f4xx_hal_flash.c ****   *         2.7V to 3.6V.
 661:Drivers/STM32F4xx_HAL_Driver/Src/stm32f4xx_hal_flash.c ****   *
 662:Drivers/STM32F4xx_HAL_Driver/Src/stm32f4xx_hal_flash.c ****   * @note   If an erase and a program operations are requested simultaneously,    
 663:Drivers/STM32F4xx_HAL_Driver/Src/stm32f4xx_hal_flash.c ****   *         the erase operation is performed before the program one.
 664:Drivers/STM32F4xx_HAL_Driver/Src/stm32f4xx_hal_flash.c ****   *  
 665:Drivers/STM32F4xx_HAL_Driver/Src/stm32f4xx_hal_flash.c ****   * @param  Address: specifies the address to be programmed.
 666:Drivers/STM32F4xx_HAL_Driver/Src/stm32f4xx_hal_flash.c ****   * @param  Data: specifies the data to be programmed.
 667:Drivers/STM32F4xx_HAL_Driver/Src/stm32f4xx_hal_flash.c ****   * @retval None
 668:Drivers/STM32F4xx_HAL_Driver/Src/stm32f4xx_hal_flash.c ****   */
 669:Drivers/STM32F4xx_HAL_Driver/Src/stm32f4xx_hal_flash.c **** static void FLASH_Program_HalfWord(uint32_t Address, uint16_t Data)
 670:Drivers/STM32F4xx_HAL_Driver/Src/stm32f4xx_hal_flash.c **** {
 1248              		.loc 1 670 1
 1249              		.cfi_startproc
 1250              		@ args = 0, pretend = 0, frame = 8
 1251              		@ frame_needed = 1, uses_anonymous_args = 0
 1252 0000 80B5     		push	{r7, lr}
 1253              	.LCFI64:
 1254              		.cfi_def_cfa_offset 8
 1255              		.cfi_offset 7, -8
 1256              		.cfi_offset 14, -4
 1257 0002 82B0     		sub	sp, sp, #8
 1258              	.LCFI65:
 1259              		.cfi_def_cfa_offset 16
 1260 0004 00AF     		add	r7, sp, #0
 1261              	.LCFI66:
 1262              		.cfi_def_cfa_register 7
 1263 0006 7860     		str	r0, [r7, #4]
 1264 0008 0B46     		mov	r3, r1
 1265 000a 7B80     		strh	r3, [r7, #2]	@ movhi
 671:Drivers/STM32F4xx_HAL_Driver/Src/stm32f4xx_hal_flash.c ****   /* Check the parameters */
 672:Drivers/STM32F4xx_HAL_Driver/Src/stm32f4xx_hal_flash.c ****   assert_param(IS_FLASH_ADDRESS(Address));
 1266              		.loc 1 672 3
 1267 000c 7B68     		ldr	r3, [r7, #4]
 1268 000e B3F1006F 		cmp	r3, #134217728
 1269 0012 03D3     		bcc	.L87
 1270              		.loc 1 672 3 is_stmt 0 discriminator 2
 1271 0014 7B68     		ldr	r3, [r7, #4]
 1272 0016 104A     		ldr	r2, .L89
 1273 0018 9342     		cmp	r3, r2
 1274 001a 04D9     		bls	.L88
 1275              	.L87:
 1276              		.loc 1 672 3 discriminator 3
 1277 001c 4FF42871 		mov	r1, #672
 1278 0020 0E48     		ldr	r0, .L89+4
 1279 0022 FFF7FEFF 		bl	assert_failed
 1280              	.L88:
 673:Drivers/STM32F4xx_HAL_Driver/Src/stm32f4xx_hal_flash.c ****   
 674:Drivers/STM32F4xx_HAL_Driver/Src/stm32f4xx_hal_flash.c ****   /* If the previous operation is completed, proceed to program the new data */
 675:Drivers/STM32F4xx_HAL_Driver/Src/stm32f4xx_hal_flash.c ****   CLEAR_BIT(FLASH->CR, FLASH_CR_PSIZE);
 1281              		.loc 1 675 3 is_stmt 1
ARM GAS  C:\Users\ep_ygh\AppData\Local\Temp\cc2Mv85j.s 			page 35


 1282 0026 0E4B     		ldr	r3, .L89+8
 1283 0028 1B69     		ldr	r3, [r3, #16]
 1284 002a 0D4A     		ldr	r2, .L89+8
 1285 002c 23F44073 		bic	r3, r3, #768
 1286 0030 1361     		str	r3, [r2, #16]
 676:Drivers/STM32F4xx_HAL_Driver/Src/stm32f4xx_hal_flash.c ****   FLASH->CR |= FLASH_PSIZE_HALF_WORD;
 1287              		.loc 1 676 13
 1288 0032 0B4B     		ldr	r3, .L89+8
 1289 0034 1B69     		ldr	r3, [r3, #16]
 1290 0036 0A4A     		ldr	r2, .L89+8
 1291 0038 43F48073 		orr	r3, r3, #256
 1292 003c 1361     		str	r3, [r2, #16]
 677:Drivers/STM32F4xx_HAL_Driver/Src/stm32f4xx_hal_flash.c ****   FLASH->CR |= FLASH_CR_PG;
 1293              		.loc 1 677 13
 1294 003e 084B     		ldr	r3, .L89+8
 1295 0040 1B69     		ldr	r3, [r3, #16]
 1296 0042 074A     		ldr	r2, .L89+8
 1297 0044 43F00103 		orr	r3, r3, #1
 1298 0048 1361     		str	r3, [r2, #16]
 678:Drivers/STM32F4xx_HAL_Driver/Src/stm32f4xx_hal_flash.c **** 
 679:Drivers/STM32F4xx_HAL_Driver/Src/stm32f4xx_hal_flash.c ****   *(__IO uint16_t*)Address = Data;
 1299              		.loc 1 679 4
 1300 004a 7B68     		ldr	r3, [r7, #4]
 1301              		.loc 1 679 28
 1302 004c 7A88     		ldrh	r2, [r7, #2]	@ movhi
 1303 004e 1A80     		strh	r2, [r3]	@ movhi
 680:Drivers/STM32F4xx_HAL_Driver/Src/stm32f4xx_hal_flash.c **** }
 1304              		.loc 1 680 1
 1305 0050 00BF     		nop
 1306 0052 0837     		adds	r7, r7, #8
 1307              	.LCFI67:
 1308              		.cfi_def_cfa_offset 8
 1309 0054 BD46     		mov	sp, r7
 1310              	.LCFI68:
 1311              		.cfi_def_cfa_register 13
 1312              		@ sp needed
 1313 0056 80BD     		pop	{r7, pc}
 1314              	.L90:
 1315              		.align	2
 1316              	.L89:
 1317 0058 FFFF0708 		.word	134742015
 1318 005c 00000000 		.word	.LC0
 1319 0060 003C0240 		.word	1073888256
 1320              		.cfi_endproc
 1321              	.LFE142:
 1323              		.section	.text.FLASH_Program_Byte,"ax",%progbits
 1324              		.align	1
 1325              		.syntax unified
 1326              		.thumb
 1327              		.thumb_func
 1329              	FLASH_Program_Byte:
 1330              	.LFB143:
 681:Drivers/STM32F4xx_HAL_Driver/Src/stm32f4xx_hal_flash.c **** 
 682:Drivers/STM32F4xx_HAL_Driver/Src/stm32f4xx_hal_flash.c **** /**
 683:Drivers/STM32F4xx_HAL_Driver/Src/stm32f4xx_hal_flash.c ****   * @brief  Program byte (8-bit) at a specified address.
 684:Drivers/STM32F4xx_HAL_Driver/Src/stm32f4xx_hal_flash.c ****   * @note   This function must be used when the device voltage range is from
 685:Drivers/STM32F4xx_HAL_Driver/Src/stm32f4xx_hal_flash.c ****   *         2.7V to 3.6V.
ARM GAS  C:\Users\ep_ygh\AppData\Local\Temp\cc2Mv85j.s 			page 36


 686:Drivers/STM32F4xx_HAL_Driver/Src/stm32f4xx_hal_flash.c ****   *
 687:Drivers/STM32F4xx_HAL_Driver/Src/stm32f4xx_hal_flash.c ****   * @note   If an erase and a program operations are requested simultaneously,    
 688:Drivers/STM32F4xx_HAL_Driver/Src/stm32f4xx_hal_flash.c ****   *         the erase operation is performed before the program one.
 689:Drivers/STM32F4xx_HAL_Driver/Src/stm32f4xx_hal_flash.c ****   *  
 690:Drivers/STM32F4xx_HAL_Driver/Src/stm32f4xx_hal_flash.c ****   * @param  Address: specifies the address to be programmed.
 691:Drivers/STM32F4xx_HAL_Driver/Src/stm32f4xx_hal_flash.c ****   * @param  Data: specifies the data to be programmed.
 692:Drivers/STM32F4xx_HAL_Driver/Src/stm32f4xx_hal_flash.c ****   * @retval None
 693:Drivers/STM32F4xx_HAL_Driver/Src/stm32f4xx_hal_flash.c ****   */
 694:Drivers/STM32F4xx_HAL_Driver/Src/stm32f4xx_hal_flash.c **** static void FLASH_Program_Byte(uint32_t Address, uint8_t Data)
 695:Drivers/STM32F4xx_HAL_Driver/Src/stm32f4xx_hal_flash.c **** {
 1331              		.loc 1 695 1
 1332              		.cfi_startproc
 1333              		@ args = 0, pretend = 0, frame = 8
 1334              		@ frame_needed = 1, uses_anonymous_args = 0
 1335 0000 80B5     		push	{r7, lr}
 1336              	.LCFI69:
 1337              		.cfi_def_cfa_offset 8
 1338              		.cfi_offset 7, -8
 1339              		.cfi_offset 14, -4
 1340 0002 82B0     		sub	sp, sp, #8
 1341              	.LCFI70:
 1342              		.cfi_def_cfa_offset 16
 1343 0004 00AF     		add	r7, sp, #0
 1344              	.LCFI71:
 1345              		.cfi_def_cfa_register 7
 1346 0006 7860     		str	r0, [r7, #4]
 1347 0008 0B46     		mov	r3, r1
 1348 000a FB70     		strb	r3, [r7, #3]
 696:Drivers/STM32F4xx_HAL_Driver/Src/stm32f4xx_hal_flash.c ****   /* Check the parameters */
 697:Drivers/STM32F4xx_HAL_Driver/Src/stm32f4xx_hal_flash.c ****   assert_param(IS_FLASH_ADDRESS(Address));
 1349              		.loc 1 697 3
 1350 000c 7B68     		ldr	r3, [r7, #4]
 1351 000e B3F1006F 		cmp	r3, #134217728
 1352 0012 03D3     		bcc	.L92
 1353              		.loc 1 697 3 is_stmt 0 discriminator 2
 1354 0014 7B68     		ldr	r3, [r7, #4]
 1355 0016 0F4A     		ldr	r2, .L94
 1356 0018 9342     		cmp	r3, r2
 1357 001a 04D9     		bls	.L93
 1358              	.L92:
 1359              		.loc 1 697 3 discriminator 3
 1360 001c 40F2B921 		movw	r1, #697
 1361 0020 0D48     		ldr	r0, .L94+4
 1362 0022 FFF7FEFF 		bl	assert_failed
 1363              	.L93:
 698:Drivers/STM32F4xx_HAL_Driver/Src/stm32f4xx_hal_flash.c ****   
 699:Drivers/STM32F4xx_HAL_Driver/Src/stm32f4xx_hal_flash.c ****   /* If the previous operation is completed, proceed to program the new data */
 700:Drivers/STM32F4xx_HAL_Driver/Src/stm32f4xx_hal_flash.c ****   CLEAR_BIT(FLASH->CR, FLASH_CR_PSIZE);
 1364              		.loc 1 700 3 is_stmt 1
 1365 0026 0D4B     		ldr	r3, .L94+8
 1366 0028 1B69     		ldr	r3, [r3, #16]
 1367 002a 0C4A     		ldr	r2, .L94+8
 1368 002c 23F44073 		bic	r3, r3, #768
 1369 0030 1361     		str	r3, [r2, #16]
 701:Drivers/STM32F4xx_HAL_Driver/Src/stm32f4xx_hal_flash.c ****   FLASH->CR |= FLASH_PSIZE_BYTE;
 1370              		.loc 1 701 13
 1371 0032 0A4B     		ldr	r3, .L94+8
ARM GAS  C:\Users\ep_ygh\AppData\Local\Temp\cc2Mv85j.s 			page 37


 1372 0034 094A     		ldr	r2, .L94+8
 1373 0036 1B69     		ldr	r3, [r3, #16]
 1374 0038 1361     		str	r3, [r2, #16]
 702:Drivers/STM32F4xx_HAL_Driver/Src/stm32f4xx_hal_flash.c ****   FLASH->CR |= FLASH_CR_PG;
 1375              		.loc 1 702 13
 1376 003a 084B     		ldr	r3, .L94+8
 1377 003c 1B69     		ldr	r3, [r3, #16]
 1378 003e 074A     		ldr	r2, .L94+8
 1379 0040 43F00103 		orr	r3, r3, #1
 1380 0044 1361     		str	r3, [r2, #16]
 703:Drivers/STM32F4xx_HAL_Driver/Src/stm32f4xx_hal_flash.c **** 
 704:Drivers/STM32F4xx_HAL_Driver/Src/stm32f4xx_hal_flash.c ****   *(__IO uint8_t*)Address = Data;
 1381              		.loc 1 704 4
 1382 0046 7B68     		ldr	r3, [r7, #4]
 1383              		.loc 1 704 27
 1384 0048 FA78     		ldrb	r2, [r7, #3]
 1385 004a 1A70     		strb	r2, [r3]
 705:Drivers/STM32F4xx_HAL_Driver/Src/stm32f4xx_hal_flash.c **** }
 1386              		.loc 1 705 1
 1387 004c 00BF     		nop
 1388 004e 0837     		adds	r7, r7, #8
 1389              	.LCFI72:
 1390              		.cfi_def_cfa_offset 8
 1391 0050 BD46     		mov	sp, r7
 1392              	.LCFI73:
 1393              		.cfi_def_cfa_register 13
 1394              		@ sp needed
 1395 0052 80BD     		pop	{r7, pc}
 1396              	.L95:
 1397              		.align	2
 1398              	.L94:
 1399 0054 FFFF0708 		.word	134742015
 1400 0058 00000000 		.word	.LC0
 1401 005c 003C0240 		.word	1073888256
 1402              		.cfi_endproc
 1403              	.LFE143:
 1405              		.section	.text.FLASH_SetErrorCode,"ax",%progbits
 1406              		.align	1
 1407              		.syntax unified
 1408              		.thumb
 1409              		.thumb_func
 1411              	FLASH_SetErrorCode:
 1412              	.LFB144:
 706:Drivers/STM32F4xx_HAL_Driver/Src/stm32f4xx_hal_flash.c **** 
 707:Drivers/STM32F4xx_HAL_Driver/Src/stm32f4xx_hal_flash.c **** /**
 708:Drivers/STM32F4xx_HAL_Driver/Src/stm32f4xx_hal_flash.c ****   * @brief  Set the specific FLASH error flag.
 709:Drivers/STM32F4xx_HAL_Driver/Src/stm32f4xx_hal_flash.c ****   * @retval None
 710:Drivers/STM32F4xx_HAL_Driver/Src/stm32f4xx_hal_flash.c ****   */
 711:Drivers/STM32F4xx_HAL_Driver/Src/stm32f4xx_hal_flash.c **** static void FLASH_SetErrorCode(void)
 712:Drivers/STM32F4xx_HAL_Driver/Src/stm32f4xx_hal_flash.c **** { 
 1413              		.loc 1 712 1
 1414              		.cfi_startproc
 1415              		@ args = 0, pretend = 0, frame = 0
 1416              		@ frame_needed = 1, uses_anonymous_args = 0
 1417              		@ link register save eliminated.
 1418 0000 80B4     		push	{r7}
 1419              	.LCFI74:
ARM GAS  C:\Users\ep_ygh\AppData\Local\Temp\cc2Mv85j.s 			page 38


 1420              		.cfi_def_cfa_offset 4
 1421              		.cfi_offset 7, -4
 1422 0002 00AF     		add	r7, sp, #0
 1423              	.LCFI75:
 1424              		.cfi_def_cfa_register 7
 713:Drivers/STM32F4xx_HAL_Driver/Src/stm32f4xx_hal_flash.c ****   if(__HAL_FLASH_GET_FLAG(FLASH_FLAG_WRPERR) != RESET)
 1425              		.loc 1 713 6
 1426 0004 2F4B     		ldr	r3, .L104
 1427 0006 DB68     		ldr	r3, [r3, #12]
 1428 0008 03F01003 		and	r3, r3, #16
 1429              		.loc 1 713 5
 1430 000c 002B     		cmp	r3, #0
 1431 000e 08D0     		beq	.L97
 714:Drivers/STM32F4xx_HAL_Driver/Src/stm32f4xx_hal_flash.c ****   {
 715:Drivers/STM32F4xx_HAL_Driver/Src/stm32f4xx_hal_flash.c ****    pFlash.ErrorCode |= HAL_FLASH_ERROR_WRP;
 1432              		.loc 1 715 21
 1433 0010 2D4B     		ldr	r3, .L104+4
 1434 0012 DB69     		ldr	r3, [r3, #28]
 1435 0014 43F01003 		orr	r3, r3, #16
 1436 0018 2B4A     		ldr	r2, .L104+4
 1437 001a D361     		str	r3, [r2, #28]
 716:Drivers/STM32F4xx_HAL_Driver/Src/stm32f4xx_hal_flash.c ****    
 717:Drivers/STM32F4xx_HAL_Driver/Src/stm32f4xx_hal_flash.c ****    /* Clear FLASH write protection error pending bit */
 718:Drivers/STM32F4xx_HAL_Driver/Src/stm32f4xx_hal_flash.c ****    __HAL_FLASH_CLEAR_FLAG(FLASH_FLAG_WRPERR);
 1438              		.loc 1 718 4
 1439 001c 294B     		ldr	r3, .L104
 1440 001e 1022     		movs	r2, #16
 1441 0020 DA60     		str	r2, [r3, #12]
 1442              	.L97:
 719:Drivers/STM32F4xx_HAL_Driver/Src/stm32f4xx_hal_flash.c ****   }
 720:Drivers/STM32F4xx_HAL_Driver/Src/stm32f4xx_hal_flash.c ****   
 721:Drivers/STM32F4xx_HAL_Driver/Src/stm32f4xx_hal_flash.c ****   if(__HAL_FLASH_GET_FLAG(FLASH_FLAG_PGAERR) != RESET)
 1443              		.loc 1 721 6
 1444 0022 284B     		ldr	r3, .L104
 1445 0024 DB68     		ldr	r3, [r3, #12]
 1446 0026 03F02003 		and	r3, r3, #32
 1447              		.loc 1 721 5
 1448 002a 002B     		cmp	r3, #0
 1449 002c 08D0     		beq	.L98
 722:Drivers/STM32F4xx_HAL_Driver/Src/stm32f4xx_hal_flash.c ****   {
 723:Drivers/STM32F4xx_HAL_Driver/Src/stm32f4xx_hal_flash.c ****    pFlash.ErrorCode |= HAL_FLASH_ERROR_PGA;
 1450              		.loc 1 723 21
 1451 002e 264B     		ldr	r3, .L104+4
 1452 0030 DB69     		ldr	r3, [r3, #28]
 1453 0032 43F00803 		orr	r3, r3, #8
 1454 0036 244A     		ldr	r2, .L104+4
 1455 0038 D361     		str	r3, [r2, #28]
 724:Drivers/STM32F4xx_HAL_Driver/Src/stm32f4xx_hal_flash.c ****    
 725:Drivers/STM32F4xx_HAL_Driver/Src/stm32f4xx_hal_flash.c ****    /* Clear FLASH Programming alignment error pending bit */
 726:Drivers/STM32F4xx_HAL_Driver/Src/stm32f4xx_hal_flash.c ****    __HAL_FLASH_CLEAR_FLAG(FLASH_FLAG_PGAERR);
 1456              		.loc 1 726 4
 1457 003a 224B     		ldr	r3, .L104
 1458 003c 2022     		movs	r2, #32
 1459 003e DA60     		str	r2, [r3, #12]
 1460              	.L98:
 727:Drivers/STM32F4xx_HAL_Driver/Src/stm32f4xx_hal_flash.c ****   }
 728:Drivers/STM32F4xx_HAL_Driver/Src/stm32f4xx_hal_flash.c ****   
ARM GAS  C:\Users\ep_ygh\AppData\Local\Temp\cc2Mv85j.s 			page 39


 729:Drivers/STM32F4xx_HAL_Driver/Src/stm32f4xx_hal_flash.c ****   if(__HAL_FLASH_GET_FLAG(FLASH_FLAG_PGPERR) != RESET)
 1461              		.loc 1 729 6
 1462 0040 204B     		ldr	r3, .L104
 1463 0042 DB68     		ldr	r3, [r3, #12]
 1464 0044 03F04003 		and	r3, r3, #64
 1465              		.loc 1 729 5
 1466 0048 002B     		cmp	r3, #0
 1467 004a 08D0     		beq	.L99
 730:Drivers/STM32F4xx_HAL_Driver/Src/stm32f4xx_hal_flash.c ****   {
 731:Drivers/STM32F4xx_HAL_Driver/Src/stm32f4xx_hal_flash.c ****     pFlash.ErrorCode |= HAL_FLASH_ERROR_PGP;
 1468              		.loc 1 731 22
 1469 004c 1E4B     		ldr	r3, .L104+4
 1470 004e DB69     		ldr	r3, [r3, #28]
 1471 0050 43F00403 		orr	r3, r3, #4
 1472 0054 1C4A     		ldr	r2, .L104+4
 1473 0056 D361     		str	r3, [r2, #28]
 732:Drivers/STM32F4xx_HAL_Driver/Src/stm32f4xx_hal_flash.c ****     
 733:Drivers/STM32F4xx_HAL_Driver/Src/stm32f4xx_hal_flash.c ****     /* Clear FLASH Programming parallelism error pending bit */
 734:Drivers/STM32F4xx_HAL_Driver/Src/stm32f4xx_hal_flash.c ****     __HAL_FLASH_CLEAR_FLAG(FLASH_FLAG_PGPERR);
 1474              		.loc 1 734 5
 1475 0058 1A4B     		ldr	r3, .L104
 1476 005a 4022     		movs	r2, #64
 1477 005c DA60     		str	r2, [r3, #12]
 1478              	.L99:
 735:Drivers/STM32F4xx_HAL_Driver/Src/stm32f4xx_hal_flash.c ****   }
 736:Drivers/STM32F4xx_HAL_Driver/Src/stm32f4xx_hal_flash.c ****   
 737:Drivers/STM32F4xx_HAL_Driver/Src/stm32f4xx_hal_flash.c ****   if(__HAL_FLASH_GET_FLAG(FLASH_FLAG_PGSERR) != RESET)
 1479              		.loc 1 737 6
 1480 005e 194B     		ldr	r3, .L104
 1481 0060 DB68     		ldr	r3, [r3, #12]
 1482 0062 03F08003 		and	r3, r3, #128
 1483              		.loc 1 737 5
 1484 0066 002B     		cmp	r3, #0
 1485 0068 08D0     		beq	.L100
 738:Drivers/STM32F4xx_HAL_Driver/Src/stm32f4xx_hal_flash.c ****   {
 739:Drivers/STM32F4xx_HAL_Driver/Src/stm32f4xx_hal_flash.c ****     pFlash.ErrorCode |= HAL_FLASH_ERROR_PGS;
 1486              		.loc 1 739 22
 1487 006a 174B     		ldr	r3, .L104+4
 1488 006c DB69     		ldr	r3, [r3, #28]
 1489 006e 43F00203 		orr	r3, r3, #2
 1490 0072 154A     		ldr	r2, .L104+4
 1491 0074 D361     		str	r3, [r2, #28]
 740:Drivers/STM32F4xx_HAL_Driver/Src/stm32f4xx_hal_flash.c ****     
 741:Drivers/STM32F4xx_HAL_Driver/Src/stm32f4xx_hal_flash.c ****     /* Clear FLASH Programming sequence error pending bit */
 742:Drivers/STM32F4xx_HAL_Driver/Src/stm32f4xx_hal_flash.c ****     __HAL_FLASH_CLEAR_FLAG(FLASH_FLAG_PGSERR);
 1492              		.loc 1 742 5
 1493 0076 134B     		ldr	r3, .L104
 1494 0078 8022     		movs	r2, #128
 1495 007a DA60     		str	r2, [r3, #12]
 1496              	.L100:
 743:Drivers/STM32F4xx_HAL_Driver/Src/stm32f4xx_hal_flash.c ****   }
 744:Drivers/STM32F4xx_HAL_Driver/Src/stm32f4xx_hal_flash.c ****   
 745:Drivers/STM32F4xx_HAL_Driver/Src/stm32f4xx_hal_flash.c ****   if(__HAL_FLASH_GET_FLAG(FLASH_FLAG_RDERR) != RESET)
 1497              		.loc 1 745 6
 1498 007c 114B     		ldr	r3, .L104
 1499 007e DB68     		ldr	r3, [r3, #12]
 1500 0080 03F48073 		and	r3, r3, #256
ARM GAS  C:\Users\ep_ygh\AppData\Local\Temp\cc2Mv85j.s 			page 40


 1501              		.loc 1 745 5
 1502 0084 002B     		cmp	r3, #0
 1503 0086 09D0     		beq	.L101
 746:Drivers/STM32F4xx_HAL_Driver/Src/stm32f4xx_hal_flash.c ****   {
 747:Drivers/STM32F4xx_HAL_Driver/Src/stm32f4xx_hal_flash.c ****     pFlash.ErrorCode |= HAL_FLASH_ERROR_RD;
 1504              		.loc 1 747 22
 1505 0088 0F4B     		ldr	r3, .L104+4
 1506 008a DB69     		ldr	r3, [r3, #28]
 1507 008c 43F00103 		orr	r3, r3, #1
 1508 0090 0D4A     		ldr	r2, .L104+4
 1509 0092 D361     		str	r3, [r2, #28]
 748:Drivers/STM32F4xx_HAL_Driver/Src/stm32f4xx_hal_flash.c ****     
 749:Drivers/STM32F4xx_HAL_Driver/Src/stm32f4xx_hal_flash.c ****     /* Clear FLASH Proprietary readout protection error pending bit */
 750:Drivers/STM32F4xx_HAL_Driver/Src/stm32f4xx_hal_flash.c ****     __HAL_FLASH_CLEAR_FLAG(FLASH_FLAG_RDERR);
 1510              		.loc 1 750 5
 1511 0094 0B4B     		ldr	r3, .L104
 1512 0096 4FF48072 		mov	r2, #256
 1513 009a DA60     		str	r2, [r3, #12]
 1514              	.L101:
 751:Drivers/STM32F4xx_HAL_Driver/Src/stm32f4xx_hal_flash.c ****   }
 752:Drivers/STM32F4xx_HAL_Driver/Src/stm32f4xx_hal_flash.c ****   
 753:Drivers/STM32F4xx_HAL_Driver/Src/stm32f4xx_hal_flash.c ****   if(__HAL_FLASH_GET_FLAG(FLASH_FLAG_OPERR) != RESET)
 1515              		.loc 1 753 6
 1516 009c 094B     		ldr	r3, .L104
 1517 009e DB68     		ldr	r3, [r3, #12]
 1518 00a0 03F00203 		and	r3, r3, #2
 1519              		.loc 1 753 5
 1520 00a4 002B     		cmp	r3, #0
 1521 00a6 08D0     		beq	.L103
 754:Drivers/STM32F4xx_HAL_Driver/Src/stm32f4xx_hal_flash.c ****   {
 755:Drivers/STM32F4xx_HAL_Driver/Src/stm32f4xx_hal_flash.c ****     pFlash.ErrorCode |= HAL_FLASH_ERROR_OPERATION;
 1522              		.loc 1 755 22
 1523 00a8 074B     		ldr	r3, .L104+4
 1524 00aa DB69     		ldr	r3, [r3, #28]
 1525 00ac 43F02003 		orr	r3, r3, #32
 1526 00b0 054A     		ldr	r2, .L104+4
 1527 00b2 D361     		str	r3, [r2, #28]
 756:Drivers/STM32F4xx_HAL_Driver/Src/stm32f4xx_hal_flash.c ****     
 757:Drivers/STM32F4xx_HAL_Driver/Src/stm32f4xx_hal_flash.c ****     /* Clear FLASH Operation error pending bit */
 758:Drivers/STM32F4xx_HAL_Driver/Src/stm32f4xx_hal_flash.c ****     __HAL_FLASH_CLEAR_FLAG(FLASH_FLAG_OPERR);
 1528              		.loc 1 758 5
 1529 00b4 034B     		ldr	r3, .L104
 1530 00b6 0222     		movs	r2, #2
 1531 00b8 DA60     		str	r2, [r3, #12]
 1532              	.L103:
 759:Drivers/STM32F4xx_HAL_Driver/Src/stm32f4xx_hal_flash.c ****   }
 760:Drivers/STM32F4xx_HAL_Driver/Src/stm32f4xx_hal_flash.c **** }
 1533              		.loc 1 760 1
 1534 00ba 00BF     		nop
 1535 00bc BD46     		mov	sp, r7
 1536              	.LCFI76:
 1537              		.cfi_def_cfa_register 13
 1538              		@ sp needed
 1539 00be 5DF8047B 		ldr	r7, [sp], #4
 1540              	.LCFI77:
 1541              		.cfi_restore 7
 1542              		.cfi_def_cfa_offset 0
ARM GAS  C:\Users\ep_ygh\AppData\Local\Temp\cc2Mv85j.s 			page 41


 1543 00c2 7047     		bx	lr
 1544              	.L105:
 1545              		.align	2
 1546              	.L104:
 1547 00c4 003C0240 		.word	1073888256
 1548 00c8 00000000 		.word	pFlash
 1549              		.cfi_endproc
 1550              	.LFE144:
 1552              		.text
 1553              	.Letext0:
 1554              		.file 2 "c:\\programdata\\chocolatey\\lib\\gcc-arm-embedded\\tools\\gcc-arm-none-eabi-10.3-2021.10
 1555              		.file 3 "c:\\programdata\\chocolatey\\lib\\gcc-arm-embedded\\tools\\gcc-arm-none-eabi-10.3-2021.10
 1556              		.file 4 "Drivers/CMSIS/Device/ST/STM32F4xx/Include/stm32f401xe.h"
 1557              		.file 5 "Drivers/CMSIS/Device/ST/STM32F4xx/Include/stm32f4xx.h"
 1558              		.file 6 "Drivers/STM32F4xx_HAL_Driver/Inc/stm32f4xx_hal_def.h"
 1559              		.file 7 "Drivers/STM32F4xx_HAL_Driver/Inc/stm32f4xx_hal_flash.h"
ARM GAS  C:\Users\ep_ygh\AppData\Local\Temp\cc2Mv85j.s 			page 42

